
build/aprsDongle.elf:     file format elf32-littlearm


Disassembly of section .interrupts:

00000000 <__VECTOR_TABLE>:
   0:	20003000 	andcs	r3, r0, r0
   4:	0000047d 	andeq	r0, r0, sp, ror r4
   8:	0000048d 	andeq	r0, r0, sp, lsl #9
   c:	0000048d 	andeq	r0, r0, sp, lsl #9
	...
  2c:	0000048d 	andeq	r0, r0, sp, lsl #9
	...
  38:	0000048d 	andeq	r0, r0, sp, lsl #9
  3c:	0000048d 	andeq	r0, r0, sp, lsl #9
  40:	0000048d 	andeq	r0, r0, sp, lsl #9
  44:	0000048d 	andeq	r0, r0, sp, lsl #9
  48:	0000048d 	andeq	r0, r0, sp, lsl #9
  4c:	0000048d 	andeq	r0, r0, sp, lsl #9
  50:	0000048d 	andeq	r0, r0, sp, lsl #9
  54:	0000048d 	andeq	r0, r0, sp, lsl #9
  58:	0000048d 	andeq	r0, r0, sp, lsl #9
  5c:	0000048d 	andeq	r0, r0, sp, lsl #9
  60:	0000048d 	andeq	r0, r0, sp, lsl #9
  64:	0000048d 	andeq	r0, r0, sp, lsl #9
  68:	0000048d 	andeq	r0, r0, sp, lsl #9
  6c:	0000048d 	andeq	r0, r0, sp, lsl #9
  70:	00000b49 	andeq	r0, r0, r9, asr #22
  74:	00000bc1 	andeq	r0, r0, r1, asr #23
  78:	00000c09 	andeq	r0, r0, r9, lsl #24
  7c:	0000048d 	andeq	r0, r0, sp, lsl #9
  80:	0000048d 	andeq	r0, r0, sp, lsl #9
  84:	0000048d 	andeq	r0, r0, sp, lsl #9
  88:	0000048d 	andeq	r0, r0, sp, lsl #9
  8c:	0000048d 	andeq	r0, r0, sp, lsl #9
  90:	0000048d 	andeq	r0, r0, sp, lsl #9
  94:	0000048d 	andeq	r0, r0, sp, lsl #9
  98:	0000099d 	muleq	r0, sp, r9
  9c:	0000048d 	andeq	r0, r0, sp, lsl #9
  a0:	0000048d 	andeq	r0, r0, sp, lsl #9
  a4:	0000048d 	andeq	r0, r0, sp, lsl #9
  a8:	0000048d 	andeq	r0, r0, sp, lsl #9
  ac:	0000048d 	andeq	r0, r0, sp, lsl #9
  b0:	0000048d 	andeq	r0, r0, sp, lsl #9
  b4:	0000048d 	andeq	r0, r0, sp, lsl #9
  b8:	0000048d 	andeq	r0, r0, sp, lsl #9
  bc:	0000048d 	andeq	r0, r0, sp, lsl #9

Disassembly of section .flash_config:

00000400 <.flash_config>:
 400:	ffffffff 			; <UNDEFINED> instruction: 0xffffffff
 404:	ffffffff 			; <UNDEFINED> instruction: 0xffffffff
 408:	ffffffff 			; <UNDEFINED> instruction: 0xffffffff
 40c:	fffffffe 			; <UNDEFINED> instruction: 0xfffffffe

Disassembly of section .text:

00000410 <_mainCRTStartup>:
     410:	4b14      	ldr	r3, [pc, #80]	; (464 <_mainCRTStartup+0x54>)
     412:	2b00      	cmp	r3, #0
     414:	d100      	bne.n	418 <_mainCRTStartup+0x8>
     416:	4b12      	ldr	r3, [pc, #72]	; (460 <_mainCRTStartup+0x50>)
     418:	469d      	mov	sp, r3
     41a:	2240      	movs	r2, #64	; 0x40
     41c:	0292      	lsls	r2, r2, #10
     41e:	1a9a      	subs	r2, r3, r2
     420:	4692      	mov	sl, r2
     422:	2100      	movs	r1, #0
     424:	468b      	mov	fp, r1
     426:	460f      	mov	r7, r1
     428:	4811      	ldr	r0, [pc, #68]	; (470 <_mainCRTStartup+0x60>)
     42a:	4a12      	ldr	r2, [pc, #72]	; (474 <_mainCRTStartup+0x64>)
     42c:	1a12      	subs	r2, r2, r0
     42e:	f000 ff76 	bl	131e <memset>
     432:	4b0d      	ldr	r3, [pc, #52]	; (468 <_mainCRTStartup+0x58>)
     434:	2b00      	cmp	r3, #0
     436:	d000      	beq.n	43a <_mainCRTStartup+0x2a>
     438:	4798      	blx	r3
     43a:	4b0c      	ldr	r3, [pc, #48]	; (46c <_mainCRTStartup+0x5c>)
     43c:	2b00      	cmp	r3, #0
     43e:	d000      	beq.n	442 <_mainCRTStartup+0x32>
     440:	4798      	blx	r3
     442:	2000      	movs	r0, #0
     444:	2100      	movs	r1, #0
     446:	0004      	movs	r4, r0
     448:	000d      	movs	r5, r1
     44a:	480b      	ldr	r0, [pc, #44]	; (478 <_mainCRTStartup+0x68>)
     44c:	f000 fef2 	bl	1234 <atexit>
     450:	f000 ff22 	bl	1298 <__libc_init_array>
     454:	0020      	movs	r0, r4
     456:	0029      	movs	r1, r5
     458:	f000 fc84 	bl	d64 <main>
     45c:	f000 fef2 	bl	1244 <exit>
     460:	00080000 	andeq	r0, r8, r0
     464:	20003000 	andcs	r3, r0, r0
	...
     470:	1ffff150 	svcne	0x00fff150
     474:	1ffff4f0 	svcne	0x00fff4f0
     478:	00001271 	andeq	r1, r0, r1, ror r2

0000047c <Reset_Handler>:
     47c:	b672      	cpsid	i
     47e:	f000 f83b 	bl	4f8 <SystemInit>
     482:	f000 f84b 	bl	51c <init_data_bss>
     486:	b662      	cpsie	i
     488:	f7ff ffc2 	bl	410 <_mainCRTStartup>

0000048c <ADC0_IRQHandler>:
     48c:	4800      	ldr	r0, [pc, #0]	; (490 <ADC0_IRQHandler+0x4>)
     48e:	4700      	bx	r0
     490:	0000048d 	andeq	r0, r0, sp, lsl #9

00000494 <__do_global_dtors_aux>:
     494:	4b07      	ldr	r3, [pc, #28]	; (4b4 <__do_global_dtors_aux+0x20>)
     496:	b510      	push	{r4, lr}
     498:	781a      	ldrb	r2, [r3, #0]
     49a:	001c      	movs	r4, r3
     49c:	2a00      	cmp	r2, #0
     49e:	d107      	bne.n	4b0 <__do_global_dtors_aux+0x1c>
     4a0:	4b05      	ldr	r3, [pc, #20]	; (4b8 <__do_global_dtors_aux+0x24>)
     4a2:	2b00      	cmp	r3, #0
     4a4:	d002      	beq.n	4ac <__do_global_dtors_aux+0x18>
     4a6:	4805      	ldr	r0, [pc, #20]	; (4bc <__do_global_dtors_aux+0x28>)
     4a8:	e000      	b.n	4ac <__do_global_dtors_aux+0x18>
     4aa:	bf00      	nop
     4ac:	2301      	movs	r3, #1
     4ae:	7023      	strb	r3, [r4, #0]
     4b0:	bd10      	pop	{r4, pc}
     4b2:	46c0      	nop			; (mov r8, r8)
     4b4:	1ffff150 	svcne	0x00fff150
     4b8:	00000000 	andeq	r0, r0, r0
     4bc:	000017b4 			; <UNDEFINED> instruction: 0x000017b4

000004c0 <frame_dummy>:
     4c0:	4b08      	ldr	r3, [pc, #32]	; (4e4 <frame_dummy+0x24>)
     4c2:	b510      	push	{r4, lr}
     4c4:	2b00      	cmp	r3, #0
     4c6:	d003      	beq.n	4d0 <frame_dummy+0x10>
     4c8:	4907      	ldr	r1, [pc, #28]	; (4e8 <frame_dummy+0x28>)
     4ca:	4808      	ldr	r0, [pc, #32]	; (4ec <frame_dummy+0x2c>)
     4cc:	e000      	b.n	4d0 <frame_dummy+0x10>
     4ce:	bf00      	nop
     4d0:	4807      	ldr	r0, [pc, #28]	; (4f0 <frame_dummy+0x30>)
     4d2:	6803      	ldr	r3, [r0, #0]
     4d4:	2b00      	cmp	r3, #0
     4d6:	d003      	beq.n	4e0 <frame_dummy+0x20>
     4d8:	4b06      	ldr	r3, [pc, #24]	; (4f4 <frame_dummy+0x34>)
     4da:	2b00      	cmp	r3, #0
     4dc:	d000      	beq.n	4e0 <frame_dummy+0x20>
     4de:	4798      	blx	r3
     4e0:	bd10      	pop	{r4, pc}
     4e2:	46c0      	nop			; (mov r8, r8)
     4e4:	00000000 	andeq	r0, r0, r0
     4e8:	1ffff154 	svcne	0x00fff154
     4ec:	000017b4 			; <UNDEFINED> instruction: 0x000017b4
     4f0:	1ffff14c 	svcne	0x00fff14c
     4f4:	00000000 	andeq	r0, r0, r0

000004f8 <SystemInit>:
     4f8:	2108      	movs	r1, #8
     4fa:	4b06      	ldr	r3, [pc, #24]	; (514 <SystemInit+0x1c>)
     4fc:	789a      	ldrb	r2, [r3, #2]
     4fe:	420a      	tst	r2, r1
     500:	d002      	beq.n	508 <SystemInit+0x10>
     502:	789a      	ldrb	r2, [r3, #2]
     504:	430a      	orrs	r2, r1
     506:	709a      	strb	r2, [r3, #2]
     508:	2388      	movs	r3, #136	; 0x88
     50a:	2100      	movs	r1, #0
     50c:	4a02      	ldr	r2, [pc, #8]	; (518 <SystemInit+0x20>)
     50e:	015b      	lsls	r3, r3, #5
     510:	50d1      	str	r1, [r2, r3]
     512:	4770      	bx	lr
     514:	4007d000 	andmi	sp, r7, r0
     518:	40047000 	andmi	r7, r4, r0

0000051c <init_data_bss>:
     51c:	4b15      	ldr	r3, [pc, #84]	; (574 <init_data_bss+0x58>)
     51e:	4816      	ldr	r0, [pc, #88]	; (578 <init_data_bss+0x5c>)
     520:	b510      	push	{r4, lr}
     522:	1e19      	subs	r1, r3, #0
     524:	4281      	cmp	r1, r0
     526:	d00c      	beq.n	542 <init_data_bss+0x26>
     528:	2300      	movs	r3, #0
     52a:	4a14      	ldr	r2, [pc, #80]	; (57c <init_data_bss+0x60>)
     52c:	0892      	lsrs	r2, r2, #2
     52e:	0092      	lsls	r2, r2, #2
     530:	429a      	cmp	r2, r3
     532:	d003      	beq.n	53c <init_data_bss+0x20>
     534:	58c4      	ldr	r4, [r0, r3]
     536:	50cc      	str	r4, [r1, r3]
     538:	3304      	adds	r3, #4
     53a:	e7f9      	b.n	530 <init_data_bss+0x14>
     53c:	4b10      	ldr	r3, [pc, #64]	; (580 <init_data_bss+0x64>)
     53e:	6099      	str	r1, [r3, #8]
     540:	e001      	b.n	546 <init_data_bss+0x2a>
     542:	4a0f      	ldr	r2, [pc, #60]	; (580 <init_data_bss+0x64>)
     544:	6093      	str	r3, [r2, #8]
     546:	2300      	movs	r3, #0
     548:	4a0e      	ldr	r2, [pc, #56]	; (584 <init_data_bss+0x68>)
     54a:	490f      	ldr	r1, [pc, #60]	; (588 <init_data_bss+0x6c>)
     54c:	480f      	ldr	r0, [pc, #60]	; (58c <init_data_bss+0x70>)
     54e:	1a89      	subs	r1, r1, r2
     550:	428b      	cmp	r3, r1
     552:	d003      	beq.n	55c <init_data_bss+0x40>
     554:	5cd4      	ldrb	r4, [r2, r3]
     556:	54c4      	strb	r4, [r0, r3]
     558:	3301      	adds	r3, #1
     55a:	e7f9      	b.n	550 <init_data_bss+0x34>
     55c:	2300      	movs	r3, #0
     55e:	0018      	movs	r0, r3
     560:	4a0b      	ldr	r2, [pc, #44]	; (590 <init_data_bss+0x74>)
     562:	490c      	ldr	r1, [pc, #48]	; (594 <init_data_bss+0x78>)
     564:	1a89      	subs	r1, r1, r2
     566:	4299      	cmp	r1, r3
     568:	d003      	beq.n	572 <init_data_bss+0x56>
     56a:	18d4      	adds	r4, r2, r3
     56c:	7020      	strb	r0, [r4, #0]
     56e:	3301      	adds	r3, #1
     570:	e7f9      	b.n	566 <init_data_bss+0x4a>
     572:	bd10      	pop	{r4, pc}
	...
     580:	e000ed00 	and	lr, r0, r0, lsl #26
     584:	000017dc 	ldrdeq	r1, [r0], -ip
     588:	0000192c 	andeq	r1, r0, ip, lsr #18
     58c:	1ffff000 	svcne	0x00fff000
     590:	1ffff150 	svcne	0x00fff150
     594:	1ffff4f0 	svcne	0x00fff4f0

00000598 <enqueue>:
     598:	6dc2      	ldr	r2, [r0, #92]	; 0x5c
     59a:	6d83      	ldr	r3, [r0, #88]	; 0x58
     59c:	429a      	cmp	r2, r3
     59e:	da11      	bge.n	5c4 <enqueue+0x2c>
     5a0:	6803      	ldr	r3, [r0, #0]
     5a2:	18c3      	adds	r3, r0, r3
     5a4:	7219      	strb	r1, [r3, #8]
     5a6:	6802      	ldr	r2, [r0, #0]
     5a8:	6d83      	ldr	r3, [r0, #88]	; 0x58
     5aa:	3b01      	subs	r3, #1
     5ac:	429a      	cmp	r2, r3
     5ae:	d101      	bne.n	5b4 <enqueue+0x1c>
     5b0:	2300      	movs	r3, #0
     5b2:	e001      	b.n	5b8 <enqueue+0x20>
     5b4:	6803      	ldr	r3, [r0, #0]
     5b6:	3301      	adds	r3, #1
     5b8:	6003      	str	r3, [r0, #0]
     5ba:	6dc3      	ldr	r3, [r0, #92]	; 0x5c
     5bc:	3301      	adds	r3, #1
     5be:	65c3      	str	r3, [r0, #92]	; 0x5c
     5c0:	2000      	movs	r0, #0
     5c2:	e001      	b.n	5c8 <enqueue+0x30>
     5c4:	2001      	movs	r0, #1
     5c6:	4240      	negs	r0, r0
     5c8:	4770      	bx	lr

000005ca <dequeue>:
     5ca:	6dc2      	ldr	r2, [r0, #92]	; 0x5c
     5cc:	0003      	movs	r3, r0
     5ce:	2002      	movs	r0, #2
     5d0:	2a00      	cmp	r2, #0
     5d2:	d010      	beq.n	5f6 <dequeue+0x2c>
     5d4:	685a      	ldr	r2, [r3, #4]
     5d6:	189a      	adds	r2, r3, r2
     5d8:	7a10      	ldrb	r0, [r2, #8]
     5da:	6859      	ldr	r1, [r3, #4]
     5dc:	6d9a      	ldr	r2, [r3, #88]	; 0x58
     5de:	b2c0      	uxtb	r0, r0
     5e0:	3a01      	subs	r2, #1
     5e2:	4291      	cmp	r1, r2
     5e4:	d101      	bne.n	5ea <dequeue+0x20>
     5e6:	2200      	movs	r2, #0
     5e8:	e001      	b.n	5ee <dequeue+0x24>
     5ea:	685a      	ldr	r2, [r3, #4]
     5ec:	3201      	adds	r2, #1
     5ee:	605a      	str	r2, [r3, #4]
     5f0:	6dda      	ldr	r2, [r3, #92]	; 0x5c
     5f2:	3a01      	subs	r2, #1
     5f4:	65da      	str	r2, [r3, #92]	; 0x5c
     5f6:	4770      	bx	lr

000005f8 <initQueue>:
     5f8:	2350      	movs	r3, #80	; 0x50
     5fa:	6583      	str	r3, [r0, #88]	; 0x58
     5fc:	2300      	movs	r3, #0
     5fe:	0019      	movs	r1, r3
     600:	6043      	str	r3, [r0, #4]
     602:	6003      	str	r3, [r0, #0]
     604:	65c3      	str	r3, [r0, #92]	; 0x5c
     606:	18c2      	adds	r2, r0, r3
     608:	3301      	adds	r3, #1
     60a:	7211      	strb	r1, [r2, #8]
     60c:	2b4f      	cmp	r3, #79	; 0x4f
     60e:	d1fa      	bne.n	606 <initQueue+0xe>
     610:	2050      	movs	r0, #80	; 0x50
     612:	4770      	bx	lr

00000614 <ax25ChangeDac>:
     614:	b510      	push	{r4, lr}
     616:	4b0b      	ldr	r3, [pc, #44]	; (644 <ax25ChangeDac+0x30>)
     618:	781b      	ldrb	r3, [r3, #0]
     61a:	2b00      	cmp	r3, #0
     61c:	d011      	beq.n	642 <ax25ChangeDac+0x2e>
     61e:	4c0a      	ldr	r4, [pc, #40]	; (648 <ax25ChangeDac+0x34>)
     620:	6823      	ldr	r3, [r4, #0]
     622:	1c5a      	adds	r2, r3, #1
     624:	6022      	str	r2, [r4, #0]
     626:	4a09      	ldr	r2, [pc, #36]	; (64c <ax25ChangeDac+0x38>)
     628:	005b      	lsls	r3, r3, #1
     62a:	5a98      	ldrh	r0, [r3, r2]
     62c:	f000 fdd8 	bl	11e0 <dacSet>
     630:	6823      	ldr	r3, [r4, #0]
     632:	2b3f      	cmp	r3, #63	; 0x3f
     634:	dd01      	ble.n	63a <ax25ChangeDac+0x26>
     636:	2300      	movs	r3, #0
     638:	6023      	str	r3, [r4, #0]
     63a:	4b05      	ldr	r3, [pc, #20]	; (650 <ax25ChangeDac+0x3c>)
     63c:	681a      	ldr	r2, [r3, #0]
     63e:	4b05      	ldr	r3, [pc, #20]	; (654 <ax25ChangeDac+0x40>)
     640:	605a      	str	r2, [r3, #4]
     642:	bd10      	pop	{r4, pc}
     644:	1ffff211 	svcne	0x00fff211
     648:	1ffff20c 	svcne	0x00fff20c
     64c:	1ffff000 	svcne	0x00fff000
     650:	1ffff214 	svcne	0x00fff214
     654:	400370fc 	strdmi	r7, [r3], -ip

00000658 <ax25StartSinTimer>:
     658:	b510      	push	{r4, lr}
     65a:	4b03      	ldr	r3, [pc, #12]	; (668 <ax25StartSinTimer+0x10>)
     65c:	4803      	ldr	r0, [pc, #12]	; (66c <ax25StartSinTimer+0x14>)
     65e:	6819      	ldr	r1, [r3, #0]
     660:	f000 f944 	bl	8ec <startPIT0>
     664:	bd10      	pop	{r4, pc}
     666:	46c0      	nop			; (mov r8, r8)
     668:	1ffff214 	svcne	0x00fff214
     66c:	00000615 	andeq	r0, r0, r5, lsl r6

00000670 <ax25StartToneTimer>:
     670:	b510      	push	{r4, lr}
     672:	4902      	ldr	r1, [pc, #8]	; (67c <ax25StartToneTimer+0xc>)
     674:	4802      	ldr	r0, [pc, #8]	; (680 <ax25StartToneTimer+0x10>)
     676:	f000 f95f 	bl	938 <startPIT1>
     67a:	bd10      	pop	{r4, pc}
     67c:	00004e20 	andeq	r4, r0, r0, lsr #28
     680:	00000745 	andeq	r0, r0, r5, asr #14

00000684 <ax25StopTimers>:
     684:	b510      	push	{r4, lr}
     686:	f000 f97d 	bl	984 <stopPIT0>
     68a:	f000 f981 	bl	990 <stopPIT1>
     68e:	4903      	ldr	r1, [pc, #12]	; (69c <ax25StopTimers+0x18>)
     690:	4a03      	ldr	r2, [pc, #12]	; (6a0 <ax25StopTimers+0x1c>)
     692:	4b04      	ldr	r3, [pc, #16]	; (6a4 <ax25StopTimers+0x20>)
     694:	5888      	ldr	r0, [r1, r2]
     696:	4003      	ands	r3, r0
     698:	508b      	str	r3, [r1, r2]
     69a:	bd10      	pop	{r4, pc}
     69c:	40047000 	andmi	r7, r4, r0
     6a0:	0000103c 	andeq	r1, r0, ip, lsr r0
     6a4:	ff7fffff 			; <UNDEFINED> instruction: 0xff7fffff

000006a8 <ax25IntSend>:
     6a8:	2200      	movs	r2, #0
     6aa:	4b15      	ldr	r3, [pc, #84]	; (700 <ax25IntSend+0x58>)
     6ac:	b570      	push	{r4, r5, r6, lr}
     6ae:	6019      	str	r1, [r3, #0]
     6b0:	2107      	movs	r1, #7
     6b2:	4b14      	ldr	r3, [pc, #80]	; (704 <ax25IntSend+0x5c>)
     6b4:	4d14      	ldr	r5, [pc, #80]	; (708 <ax25IntSend+0x60>)
     6b6:	6018      	str	r0, [r3, #0]
     6b8:	4b14      	ldr	r3, [pc, #80]	; (70c <ax25IntSend+0x64>)
     6ba:	4c15      	ldr	r4, [pc, #84]	; (710 <ax25IntSend+0x68>)
     6bc:	601a      	str	r2, [r3, #0]
     6be:	4b15      	ldr	r3, [pc, #84]	; (714 <ax25IntSend+0x6c>)
     6c0:	4e15      	ldr	r6, [pc, #84]	; (718 <ax25IntSend+0x70>)
     6c2:	7019      	strb	r1, [r3, #0]
     6c4:	4b15      	ldr	r3, [pc, #84]	; (71c <ax25IntSend+0x74>)
     6c6:	3177      	adds	r1, #119	; 0x77
     6c8:	701a      	strb	r2, [r3, #0]
     6ca:	2301      	movs	r3, #1
     6cc:	802b      	strh	r3, [r5, #0]
     6ce:	7021      	strb	r1, [r4, #0]
     6d0:	4913      	ldr	r1, [pc, #76]	; (720 <ax25IntSend+0x78>)
     6d2:	7033      	strb	r3, [r6, #0]
     6d4:	700a      	strb	r2, [r1, #0]
     6d6:	4a13      	ldr	r2, [pc, #76]	; (724 <ax25IntSend+0x7c>)
     6d8:	7013      	strb	r3, [r2, #0]
     6da:	22aa      	movs	r2, #170	; 0xaa
     6dc:	4b12      	ldr	r3, [pc, #72]	; (728 <ax25IntSend+0x80>)
     6de:	601a      	str	r2, [r3, #0]
     6e0:	f000 fd5c 	bl	119c <dacInit>
     6e4:	f7ff ffb8 	bl	658 <ax25StartSinTimer>
     6e8:	f7ff ffc2 	bl	670 <ax25StartToneTimer>
     6ec:	7833      	ldrb	r3, [r6, #0]
     6ee:	2b00      	cmp	r3, #0
     6f0:	d1fc      	bne.n	6ec <ax25IntSend+0x44>
     6f2:	882b      	ldrh	r3, [r5, #0]
     6f4:	0a1b      	lsrs	r3, r3, #8
     6f6:	7023      	strb	r3, [r4, #0]
     6f8:	f7ff ffc4 	bl	684 <ax25StopTimers>
     6fc:	bd70      	pop	{r4, r5, r6, pc}
     6fe:	46c0      	nop			; (mov r8, r8)
     700:	1ffff224 	svcne	0x00fff224
     704:	1ffff21c 	svcne	0x00fff21c
     708:	1ffff20a 	svcne	0x00fff20a
     70c:	1ffff20c 	svcne	0x00fff20c
     710:	1ffff210 	svcne	0x00fff210
     714:	1ffff209 	svcne	0x00fff209
     718:	1ffff211 	svcne	0x00fff211
     71c:	1ffff218 	svcne	0x00fff218
     720:	1ffff208 	svcne	0x00fff208
     724:	1ffff220 	svcne	0x00fff220
     728:	1ffff214 	svcne	0x00fff214

0000072c <ax25SwitchFreq>:
     72c:	229b      	movs	r2, #155	; 0x9b
     72e:	4b04      	ldr	r3, [pc, #16]	; (740 <ax25SwitchFreq+0x14>)
     730:	0052      	lsls	r2, r2, #1
     732:	6819      	ldr	r1, [r3, #0]
     734:	4291      	cmp	r1, r2
     736:	d100      	bne.n	73a <ax25SwitchFreq+0xe>
     738:	3a8c      	subs	r2, #140	; 0x8c
     73a:	601a      	str	r2, [r3, #0]
     73c:	4770      	bx	lr
     73e:	46c0      	nop			; (mov r8, r8)
     740:	1ffff214 	svcne	0x00fff214

00000744 <ax25ChangeBit>:
     744:	b5f7      	push	{r0, r1, r2, r4, r5, r6, r7, lr}
     746:	4b27      	ldr	r3, [pc, #156]	; (7e4 <ax25ChangeBit+0xa0>)
     748:	781a      	ldrb	r2, [r3, #0]
     74a:	9301      	str	r3, [sp, #4]
     74c:	2a00      	cmp	r2, #0
     74e:	d047      	beq.n	7e0 <ax25ChangeBit+0x9c>
     750:	2380      	movs	r3, #128	; 0x80
     752:	4c25      	ldr	r4, [pc, #148]	; (7e8 <ax25ChangeBit+0xa4>)
     754:	4d25      	ldr	r5, [pc, #148]	; (7ec <ax25ChangeBit+0xa8>)
     756:	7822      	ldrb	r2, [r4, #0]
     758:	7829      	ldrb	r1, [r5, #0]
     75a:	b252      	sxtb	r2, r2
     75c:	4113      	asrs	r3, r2
     75e:	001a      	movs	r2, r3
     760:	b24b      	sxtb	r3, r1
     762:	4013      	ands	r3, r2
     764:	d014      	beq.n	790 <ax25ChangeBit+0x4c>
     766:	4b22      	ldr	r3, [pc, #136]	; (7f0 <ax25ChangeBit+0xac>)
     768:	781b      	ldrb	r3, [r3, #0]
     76a:	2b00      	cmp	r3, #0
     76c:	d014      	beq.n	798 <ax25ChangeBit+0x54>
     76e:	4b21      	ldr	r3, [pc, #132]	; (7f4 <ax25ChangeBit+0xb0>)
     770:	781f      	ldrb	r7, [r3, #0]
     772:	b2ff      	uxtb	r7, r7
     774:	2f00      	cmp	r7, #0
     776:	d10f      	bne.n	798 <ax25ChangeBit+0x54>
     778:	4e1f      	ldr	r6, [pc, #124]	; (7f8 <ax25ChangeBit+0xb4>)
     77a:	7833      	ldrb	r3, [r6, #0]
     77c:	3301      	adds	r3, #1
     77e:	b2db      	uxtb	r3, r3
     780:	7033      	strb	r3, [r6, #0]
     782:	7833      	ldrb	r3, [r6, #0]
     784:	2b05      	cmp	r3, #5
     786:	d907      	bls.n	798 <ax25ChangeBit+0x54>
     788:	f7ff ffd0 	bl	72c <ax25SwitchFreq>
     78c:	7037      	strb	r7, [r6, #0]
     78e:	e003      	b.n	798 <ax25ChangeBit+0x54>
     790:	4a19      	ldr	r2, [pc, #100]	; (7f8 <ax25ChangeBit+0xb4>)
     792:	7013      	strb	r3, [r2, #0]
     794:	f7ff ffca 	bl	72c <ax25SwitchFreq>
     798:	7823      	ldrb	r3, [r4, #0]
     79a:	b25b      	sxtb	r3, r3
     79c:	2b00      	cmp	r3, #0
     79e:	dc1b      	bgt.n	7d8 <ax25ChangeBit+0x94>
     7a0:	4a16      	ldr	r2, [pc, #88]	; (7fc <ax25ChangeBit+0xb8>)
     7a2:	4817      	ldr	r0, [pc, #92]	; (800 <ax25ChangeBit+0xbc>)
     7a4:	6813      	ldr	r3, [r2, #0]
     7a6:	6801      	ldr	r1, [r0, #0]
     7a8:	3b01      	subs	r3, #1
     7aa:	6013      	str	r3, [r2, #0]
     7ac:	780b      	ldrb	r3, [r1, #0]
     7ae:	3101      	adds	r1, #1
     7b0:	b2db      	uxtb	r3, r3
     7b2:	b2db      	uxtb	r3, r3
     7b4:	6001      	str	r1, [r0, #0]
     7b6:	490f      	ldr	r1, [pc, #60]	; (7f4 <ax25ChangeBit+0xb0>)
     7b8:	702b      	strb	r3, [r5, #0]
     7ba:	780b      	ldrb	r3, [r1, #0]
     7bc:	b2db      	uxtb	r3, r3
     7be:	2b00      	cmp	r3, #0
     7c0:	d104      	bne.n	7cc <ax25ChangeBit+0x88>
     7c2:	6812      	ldr	r2, [r2, #0]
     7c4:	2a00      	cmp	r2, #0
     7c6:	dc05      	bgt.n	7d4 <ax25ChangeBit+0x90>
     7c8:	9a01      	ldr	r2, [sp, #4]
     7ca:	e002      	b.n	7d2 <ax25ChangeBit+0x8e>
     7cc:	2300      	movs	r3, #0
     7ce:	4a08      	ldr	r2, [pc, #32]	; (7f0 <ax25ChangeBit+0xac>)
     7d0:	700b      	strb	r3, [r1, #0]
     7d2:	7013      	strb	r3, [r2, #0]
     7d4:	2307      	movs	r3, #7
     7d6:	e002      	b.n	7de <ax25ChangeBit+0x9a>
     7d8:	7823      	ldrb	r3, [r4, #0]
     7da:	3b01      	subs	r3, #1
     7dc:	b2db      	uxtb	r3, r3
     7de:	7023      	strb	r3, [r4, #0]
     7e0:	bdf7      	pop	{r0, r1, r2, r4, r5, r6, r7, pc}
     7e2:	46c0      	nop			; (mov r8, r8)
     7e4:	1ffff211 	svcne	0x00fff211
     7e8:	1ffff209 	svcne	0x00fff209
     7ec:	1ffff210 	svcne	0x00fff210
     7f0:	1ffff218 	svcne	0x00fff218
     7f4:	1ffff220 	svcne	0x00fff220
     7f8:	1ffff208 	svcne	0x00fff208
     7fc:	1ffff224 	svcne	0x00fff224
     800:	1ffff21c 	svcne	0x00fff21c

00000804 <cwPitIsr>:
     804:	b510      	push	{r4, lr}
     806:	4c07      	ldr	r4, [pc, #28]	; (824 <cwPitIsr+0x20>)
     808:	6823      	ldr	r3, [r4, #0]
     80a:	1c5a      	adds	r2, r3, #1
     80c:	6022      	str	r2, [r4, #0]
     80e:	4a06      	ldr	r2, [pc, #24]	; (828 <cwPitIsr+0x24>)
     810:	005b      	lsls	r3, r3, #1
     812:	5a98      	ldrh	r0, [r3, r2]
     814:	f000 fce4 	bl	11e0 <dacSet>
     818:	6823      	ldr	r3, [r4, #0]
     81a:	2b40      	cmp	r3, #64	; 0x40
     81c:	dd01      	ble.n	822 <cwPitIsr+0x1e>
     81e:	2300      	movs	r3, #0
     820:	6023      	str	r3, [r4, #0]
     822:	bd10      	pop	{r4, pc}
     824:	1ffff228 	svcne	0x00fff228
     828:	1ffff000 	svcne	0x00fff000

0000082c <cwTone>:
     82c:	2300      	movs	r3, #0
     82e:	b570      	push	{r4, r5, r6, lr}
     830:	4c09      	ldr	r4, [pc, #36]	; (858 <cwTone+0x2c>)
     832:	0005      	movs	r5, r0
     834:	4909      	ldr	r1, [pc, #36]	; (85c <cwTone+0x30>)
     836:	480a      	ldr	r0, [pc, #40]	; (860 <cwTone+0x34>)
     838:	6023      	str	r3, [r4, #0]
     83a:	f000 f857 	bl	8ec <startPIT0>
     83e:	2064      	movs	r0, #100	; 0x64
     840:	2d00      	cmp	r5, #0
     842:	d101      	bne.n	848 <cwTone+0x1c>
     844:	2096      	movs	r0, #150	; 0x96
     846:	0040      	lsls	r0, r0, #1
     848:	f000 fc6c 	bl	1124 <delay>
     84c:	f000 f89a 	bl	984 <stopPIT0>
     850:	2300      	movs	r3, #0
     852:	6023      	str	r3, [r4, #0]
     854:	bd70      	pop	{r4, r5, r6, pc}
     856:	46c0      	nop			; (mov r8, r8)
     858:	1ffff228 	svcne	0x00fff228
     85c:	00000271 	andeq	r0, r0, r1, ror r2
     860:	00000805 	andeq	r0, r0, r5, lsl #16

00000864 <cwSend>:
     864:	b5f0      	push	{r4, r5, r6, r7, lr}
     866:	2680      	movs	r6, #128	; 0x80
     868:	4c1d      	ldr	r4, [pc, #116]	; (8e0 <cwSend+0x7c>)
     86a:	b085      	sub	sp, #20
     86c:	0076      	lsls	r6, r6, #1
     86e:	9000      	str	r0, [sp, #0]
     870:	9103      	str	r1, [sp, #12]
     872:	60a6      	str	r6, [r4, #8]
     874:	f000 fc92 	bl	119c <dacInit>
     878:	9d00      	ldr	r5, [sp, #0]
     87a:	9601      	str	r6, [sp, #4]
     87c:	9b00      	ldr	r3, [sp, #0]
     87e:	9a03      	ldr	r2, [sp, #12]
     880:	189b      	adds	r3, r3, r2
     882:	429d      	cmp	r5, r3
     884:	d229      	bcs.n	8da <cwSend+0x76>
     886:	782b      	ldrb	r3, [r5, #0]
     888:	001a      	movs	r2, r3
     88a:	3a41      	subs	r2, #65	; 0x41
     88c:	b2d1      	uxtb	r1, r2
     88e:	2919      	cmp	r1, #25
     890:	d801      	bhi.n	896 <cwSend+0x32>
     892:	4b14      	ldr	r3, [pc, #80]	; (8e4 <cwSend+0x80>)
     894:	e005      	b.n	8a2 <cwSend+0x3e>
     896:	3b30      	subs	r3, #48	; 0x30
     898:	b2da      	uxtb	r2, r3
     89a:	2700      	movs	r7, #0
     89c:	2a09      	cmp	r2, #9
     89e:	d801      	bhi.n	8a4 <cwSend+0x40>
     8a0:	4a11      	ldr	r2, [pc, #68]	; (8e8 <cwSend+0x84>)
     8a2:	5cd7      	ldrb	r7, [r2, r3]
     8a4:	2603      	movs	r6, #3
     8a6:	097b      	lsrs	r3, r7, #5
     8a8:	3303      	adds	r3, #3
     8aa:	9302      	str	r3, [sp, #8]
     8ac:	9b02      	ldr	r3, [sp, #8]
     8ae:	429e      	cmp	r6, r3
     8b0:	d00d      	beq.n	8ce <cwSend+0x6a>
     8b2:	2080      	movs	r0, #128	; 0x80
     8b4:	4130      	asrs	r0, r6
     8b6:	9b01      	ldr	r3, [sp, #4]
     8b8:	4038      	ands	r0, r7
     8ba:	6063      	str	r3, [r4, #4]
     8bc:	f7ff ffb6 	bl	82c <cwTone>
     8c0:	9b01      	ldr	r3, [sp, #4]
     8c2:	2064      	movs	r0, #100	; 0x64
     8c4:	60a3      	str	r3, [r4, #8]
     8c6:	f000 fc2d 	bl	1124 <delay>
     8ca:	3601      	adds	r6, #1
     8cc:	e7ee      	b.n	8ac <cwSend+0x48>
     8ce:	2096      	movs	r0, #150	; 0x96
     8d0:	0040      	lsls	r0, r0, #1
     8d2:	3501      	adds	r5, #1
     8d4:	f000 fc26 	bl	1124 <delay>
     8d8:	e7d0      	b.n	87c <cwSend+0x18>
     8da:	b005      	add	sp, #20
     8dc:	bdf0      	pop	{r4, r5, r6, r7, pc}
     8de:	46c0      	nop			; (mov r8, r8)
     8e0:	400ff080 	andmi	pc, pc, r0, lsl #1
     8e4:	00001650 	andeq	r1, r0, r0, asr r6
     8e8:	0000166a 	andeq	r1, r0, sl, ror #12

000008ec <startPIT0>:
     8ec:	b510      	push	{r4, lr}
     8ee:	2480      	movs	r4, #128	; 0x80
     8f0:	4b0c      	ldr	r3, [pc, #48]	; (924 <startPIT0+0x38>)
     8f2:	4a0d      	ldr	r2, [pc, #52]	; (928 <startPIT0+0x3c>)
     8f4:	6018      	str	r0, [r3, #0]
     8f6:	480d      	ldr	r0, [pc, #52]	; (92c <startPIT0+0x40>)
     8f8:	0424      	lsls	r4, r4, #16
     8fa:	5883      	ldr	r3, [r0, r2]
     8fc:	4323      	orrs	r3, r4
     8fe:	5083      	str	r3, [r0, r2]
     900:	2200      	movs	r2, #0
     902:	4b0b      	ldr	r3, [pc, #44]	; (930 <startPIT0+0x44>)
     904:	601a      	str	r2, [r3, #0]
     906:	33fc      	adds	r3, #252	; 0xfc
     908:	6059      	str	r1, [r3, #4]
     90a:	2101      	movs	r1, #1
     90c:	3202      	adds	r2, #2
     90e:	6119      	str	r1, [r3, #16]
     910:	60da      	str	r2, [r3, #12]
     912:	68da      	ldr	r2, [r3, #12]
     914:	430a      	orrs	r2, r1
     916:	60da      	str	r2, [r3, #12]
     918:	2280      	movs	r2, #128	; 0x80
     91a:	4b06      	ldr	r3, [pc, #24]	; (934 <startPIT0+0x48>)
     91c:	03d2      	lsls	r2, r2, #15
     91e:	601a      	str	r2, [r3, #0]
     920:	b662      	cpsie	i
     922:	bd10      	pop	{r4, pc}
     924:	1ffff22c 	svcne	0x00fff22c
     928:	0000103c 	andeq	r1, r0, ip, lsr r0
     92c:	40047000 	andmi	r7, r4, r0
     930:	40037000 	andmi	r7, r3, r0
     934:	e000e100 	and	lr, r0, r0, lsl #2

00000938 <startPIT1>:
     938:	b510      	push	{r4, lr}
     93a:	2480      	movs	r4, #128	; 0x80
     93c:	4b0c      	ldr	r3, [pc, #48]	; (970 <startPIT1+0x38>)
     93e:	4a0d      	ldr	r2, [pc, #52]	; (974 <startPIT1+0x3c>)
     940:	6058      	str	r0, [r3, #4]
     942:	480d      	ldr	r0, [pc, #52]	; (978 <startPIT1+0x40>)
     944:	0424      	lsls	r4, r4, #16
     946:	5883      	ldr	r3, [r0, r2]
     948:	4323      	orrs	r3, r4
     94a:	5083      	str	r3, [r0, r2]
     94c:	2200      	movs	r2, #0
     94e:	4b0b      	ldr	r3, [pc, #44]	; (97c <startPIT1+0x44>)
     950:	601a      	str	r2, [r3, #0]
     952:	33fc      	adds	r3, #252	; 0xfc
     954:	6159      	str	r1, [r3, #20]
     956:	2101      	movs	r1, #1
     958:	3202      	adds	r2, #2
     95a:	6219      	str	r1, [r3, #32]
     95c:	61da      	str	r2, [r3, #28]
     95e:	69da      	ldr	r2, [r3, #28]
     960:	430a      	orrs	r2, r1
     962:	61da      	str	r2, [r3, #28]
     964:	2280      	movs	r2, #128	; 0x80
     966:	4b06      	ldr	r3, [pc, #24]	; (980 <startPIT1+0x48>)
     968:	03d2      	lsls	r2, r2, #15
     96a:	601a      	str	r2, [r3, #0]
     96c:	b662      	cpsie	i
     96e:	bd10      	pop	{r4, pc}
     970:	1ffff22c 	svcne	0x00fff22c
     974:	0000103c 	andeq	r1, r0, ip, lsr r0
     978:	40047000 	andmi	r7, r4, r0
     97c:	40037000 	andmi	r7, r3, r0
     980:	e000e100 	and	lr, r0, r0, lsl #2

00000984 <stopPIT0>:
     984:	2200      	movs	r2, #0
     986:	4b01      	ldr	r3, [pc, #4]	; (98c <stopPIT0+0x8>)
     988:	60da      	str	r2, [r3, #12]
     98a:	4770      	bx	lr
     98c:	400370fc 	strdmi	r7, [r3], -ip

00000990 <stopPIT1>:
     990:	2200      	movs	r2, #0
     992:	4b01      	ldr	r3, [pc, #4]	; (998 <stopPIT1+0x8>)
     994:	61da      	str	r2, [r3, #28]
     996:	4770      	bx	lr
     998:	400370fc 	strdmi	r7, [r3], -ip

0000099c <PIT_IRQHandler>:
     99c:	b510      	push	{r4, lr}
     99e:	b672      	cpsid	i
     9a0:	4c09      	ldr	r4, [pc, #36]	; (9c8 <PIT_IRQHandler+0x2c>)
     9a2:	6923      	ldr	r3, [r4, #16]
     9a4:	2b00      	cmp	r3, #0
     9a6:	d004      	beq.n	9b2 <PIT_IRQHandler+0x16>
     9a8:	2301      	movs	r3, #1
     9aa:	6123      	str	r3, [r4, #16]
     9ac:	4b07      	ldr	r3, [pc, #28]	; (9cc <PIT_IRQHandler+0x30>)
     9ae:	681b      	ldr	r3, [r3, #0]
     9b0:	4798      	blx	r3
     9b2:	6a23      	ldr	r3, [r4, #32]
     9b4:	2b00      	cmp	r3, #0
     9b6:	d005      	beq.n	9c4 <PIT_IRQHandler+0x28>
     9b8:	2201      	movs	r2, #1
     9ba:	4b03      	ldr	r3, [pc, #12]	; (9c8 <PIT_IRQHandler+0x2c>)
     9bc:	621a      	str	r2, [r3, #32]
     9be:	4b03      	ldr	r3, [pc, #12]	; (9cc <PIT_IRQHandler+0x30>)
     9c0:	685b      	ldr	r3, [r3, #4]
     9c2:	4798      	blx	r3
     9c4:	b662      	cpsie	i
     9c6:	bd10      	pop	{r4, pc}
     9c8:	400370fc 	strdmi	r7, [r3], -ip
     9cc:	1ffff22c 	svcne	0x00fff22c

000009d0 <uartClearRxQueue>:
     9d0:	b084      	sub	sp, #16
     9d2:	9303      	str	r3, [sp, #12]
     9d4:	2300      	movs	r3, #0
     9d6:	9202      	str	r2, [sp, #8]
     9d8:	9317      	str	r3, [sp, #92]	; 0x5c
     9da:	9300      	str	r3, [sp, #0]
     9dc:	9301      	str	r3, [sp, #4]
     9de:	b004      	add	sp, #16
     9e0:	4770      	bx	lr
	...

000009e4 <uartInit>:
     9e4:	4b2e      	ldr	r3, [pc, #184]	; (aa0 <uartInit+0xbc>)
     9e6:	b510      	push	{r4, lr}
     9e8:	1e04      	subs	r4, r0, #0
     9ea:	429c      	cmp	r4, r3
     9ec:	d123      	bne.n	a36 <uartInit+0x52>
     9ee:	2080      	movs	r0, #128	; 0x80
     9f0:	4b2c      	ldr	r3, [pc, #176]	; (aa4 <uartInit+0xc0>)
     9f2:	492d      	ldr	r1, [pc, #180]	; (aa8 <uartInit+0xc4>)
     9f4:	00c0      	lsls	r0, r0, #3
     9f6:	585a      	ldr	r2, [r3, r1]
     9f8:	4302      	orrs	r2, r0
     9fa:	505a      	str	r2, [r3, r1]
     9fc:	4a2b      	ldr	r2, [pc, #172]	; (aac <uartInit+0xc8>)
     9fe:	492c      	ldr	r1, [pc, #176]	; (ab0 <uartInit+0xcc>)
     a00:	5898      	ldr	r0, [r3, r2]
     a02:	4001      	ands	r1, r0
     a04:	5099      	str	r1, [r3, r2]
     a06:	5899      	ldr	r1, [r3, r2]
     a08:	482a      	ldr	r0, [pc, #168]	; (ab4 <uartInit+0xd0>)
     a0a:	4301      	orrs	r1, r0
     a0c:	2080      	movs	r0, #128	; 0x80
     a0e:	5099      	str	r1, [r3, r2]
     a10:	4929      	ldr	r1, [pc, #164]	; (ab8 <uartInit+0xd4>)
     a12:	0080      	lsls	r0, r0, #2
     a14:	585a      	ldr	r2, [r3, r1]
     a16:	4302      	orrs	r2, r0
     a18:	505a      	str	r2, [r3, r1]
     a1a:	4828      	ldr	r0, [pc, #160]	; (abc <uartInit+0xd8>)
     a1c:	4a28      	ldr	r2, [pc, #160]	; (ac0 <uartInit+0xdc>)
     a1e:	4b29      	ldr	r3, [pc, #164]	; (ac4 <uartInit+0xe0>)
     a20:	605a      	str	r2, [r3, #4]
     a22:	609a      	str	r2, [r3, #8]
     a24:	0003      	movs	r3, r0
     a26:	33c0      	adds	r3, #192	; 0xc0
     a28:	601c      	str	r4, [r3, #0]
     a2a:	f7ff fde5 	bl	5f8 <initQueue>
     a2e:	4826      	ldr	r0, [pc, #152]	; (ac8 <uartInit+0xe4>)
     a30:	f7ff fde2 	bl	5f8 <initQueue>
     a34:	e02c      	b.n	a90 <uartInit+0xac>
     a36:	4b25      	ldr	r3, [pc, #148]	; (acc <uartInit+0xe8>)
     a38:	4298      	cmp	r0, r3
     a3a:	d113      	bne.n	a64 <uartInit+0x80>
     a3c:	2080      	movs	r0, #128	; 0x80
     a3e:	4b19      	ldr	r3, [pc, #100]	; (aa4 <uartInit+0xc0>)
     a40:	4a19      	ldr	r2, [pc, #100]	; (aa8 <uartInit+0xc4>)
     a42:	0100      	lsls	r0, r0, #4
     a44:	5899      	ldr	r1, [r3, r2]
     a46:	4301      	orrs	r1, r0
     a48:	5099      	str	r1, [r3, r2]
     a4a:	491b      	ldr	r1, [pc, #108]	; (ab8 <uartInit+0xd4>)
     a4c:	585a      	ldr	r2, [r3, r1]
     a4e:	4302      	orrs	r2, r0
     a50:	505a      	str	r2, [r3, r1]
     a52:	22c0      	movs	r2, #192	; 0xc0
     a54:	4b1e      	ldr	r3, [pc, #120]	; (ad0 <uartInit+0xec>)
     a56:	0092      	lsls	r2, r2, #2
     a58:	60da      	str	r2, [r3, #12]
     a5a:	4b1e      	ldr	r3, [pc, #120]	; (ad4 <uartInit+0xf0>)
     a5c:	33c0      	adds	r3, #192	; 0xc0
     a5e:	601c      	str	r4, [r3, #0]
     a60:	2324      	movs	r3, #36	; 0x24
     a62:	e016      	b.n	a92 <uartInit+0xae>
     a64:	4b1c      	ldr	r3, [pc, #112]	; (ad8 <uartInit+0xf4>)
     a66:	4298      	cmp	r0, r3
     a68:	d119      	bne.n	a9e <uartInit+0xba>
     a6a:	2080      	movs	r0, #128	; 0x80
     a6c:	4b0d      	ldr	r3, [pc, #52]	; (aa4 <uartInit+0xc0>)
     a6e:	4a0e      	ldr	r2, [pc, #56]	; (aa8 <uartInit+0xc4>)
     a70:	0140      	lsls	r0, r0, #5
     a72:	5899      	ldr	r1, [r3, r2]
     a74:	4301      	orrs	r1, r0
     a76:	5099      	str	r1, [r3, r2]
     a78:	490f      	ldr	r1, [pc, #60]	; (ab8 <uartInit+0xd4>)
     a7a:	585a      	ldr	r2, [r3, r1]
     a7c:	4302      	orrs	r2, r0
     a7e:	505a      	str	r2, [r3, r1]
     a80:	22c0      	movs	r2, #192	; 0xc0
     a82:	4b16      	ldr	r3, [pc, #88]	; (adc <uartInit+0xf8>)
     a84:	0092      	lsls	r2, r2, #2
     a86:	609a      	str	r2, [r3, #8]
     a88:	60da      	str	r2, [r3, #12]
     a8a:	4b15      	ldr	r3, [pc, #84]	; (ae0 <uartInit+0xfc>)
     a8c:	33c0      	adds	r3, #192	; 0xc0
     a8e:	601c      	str	r4, [r3, #0]
     a90:	232c      	movs	r3, #44	; 0x2c
     a92:	70e3      	strb	r3, [r4, #3]
     a94:	2300      	movs	r3, #0
     a96:	7023      	strb	r3, [r4, #0]
     a98:	339c      	adds	r3, #156	; 0x9c
     a9a:	7063      	strb	r3, [r4, #1]
     a9c:	b662      	cpsie	i
     a9e:	bd10      	pop	{r4, pc}
     aa0:	4006a000 	andmi	sl, r6, r0
     aa4:	40047000 	andmi	r7, r4, r0
     aa8:	00001034 	andeq	r1, r0, r4, lsr r0
     aac:	00001004 	andeq	r1, r0, r4
     ab0:	f3feffff 			; <UNDEFINED> instruction: 0xf3feffff
     ab4:	04010000 	streq	r0, [r1], #-0
     ab8:	00001038 	andeq	r1, r0, r8, lsr r0
     abc:	1ffff234 	svcne	0x00fff234
     ac0:	01000200 	mrseq	r0, R8_usr
     ac4:	40049000 	andmi	r9, r4, r0
     ac8:	1ffff294 	svcne	0x00fff294
     acc:	4006b000 	andmi	fp, r6, r0
     ad0:	4004b000 	andmi	fp, r4, r0
     ad4:	1ffff2f8 	svcne	0x00fff2f8
     ad8:	4006c000 	andmi	ip, r6, r0
     adc:	4004c000 	andmi	ip, r4, r0
     ae0:	1ffff3bc 	svcne	0x00fff3bc

00000ae4 <uartPutCharBlock>:
     ae4:	b084      	sub	sp, #16
     ae6:	9202      	str	r2, [sp, #8]
     ae8:	227f      	movs	r2, #127	; 0x7f
     aea:	9303      	str	r3, [sp, #12]
     aec:	ab31      	add	r3, sp, #196	; 0xc4
     aee:	9101      	str	r1, [sp, #4]
     af0:	7819      	ldrb	r1, [r3, #0]
     af2:	9b30      	ldr	r3, [sp, #192]	; 0xc0
     af4:	9000      	str	r0, [sp, #0]
     af6:	78d8      	ldrb	r0, [r3, #3]
     af8:	4002      	ands	r2, r0
     afa:	70da      	strb	r2, [r3, #3]
     afc:	791a      	ldrb	r2, [r3, #4]
     afe:	b252      	sxtb	r2, r2
     b00:	2a00      	cmp	r2, #0
     b02:	dafb      	bge.n	afc <uartPutCharBlock+0x18>
     b04:	71d9      	strb	r1, [r3, #7]
     b06:	b004      	add	sp, #16
     b08:	4770      	bx	lr

00000b0a <uartPutStringBlock>:
     b0a:	b084      	sub	sp, #16
     b0c:	b510      	push	{r4, lr}
     b0e:	b0ae      	sub	sp, #184	; 0xb8
     b10:	9c61      	ldr	r4, [sp, #388]	; 0x184
     b12:	9030      	str	r0, [sp, #192]	; 0xc0
     b14:	9131      	str	r1, [sp, #196]	; 0xc4
     b16:	9232      	str	r2, [sp, #200]	; 0xc8
     b18:	9333      	str	r3, [sp, #204]	; 0xcc
     b1a:	7823      	ldrb	r3, [r4, #0]
     b1c:	3401      	adds	r4, #1
     b1e:	2b00      	cmp	r3, #0
     b20:	d00c      	beq.n	b3c <uartPutStringBlock+0x32>
     b22:	a934      	add	r1, sp, #208	; 0xd0
     b24:	22b4      	movs	r2, #180	; 0xb4
     b26:	4668      	mov	r0, sp
     b28:	932d      	str	r3, [sp, #180]	; 0xb4
     b2a:	f000 fbef 	bl	130c <memcpy>
     b2e:	9830      	ldr	r0, [sp, #192]	; 0xc0
     b30:	9931      	ldr	r1, [sp, #196]	; 0xc4
     b32:	9a32      	ldr	r2, [sp, #200]	; 0xc8
     b34:	9b33      	ldr	r3, [sp, #204]	; 0xcc
     b36:	f7ff ffd5 	bl	ae4 <uartPutCharBlock>
     b3a:	e7ee      	b.n	b1a <uartPutStringBlock+0x10>
     b3c:	b02e      	add	sp, #184	; 0xb8
     b3e:	bc10      	pop	{r4}
     b40:	bc08      	pop	{r3}
     b42:	b004      	add	sp, #16
     b44:	4718      	bx	r3
	...

00000b48 <UART0_IRQHandler>:
     b48:	2380      	movs	r3, #128	; 0x80
     b4a:	b570      	push	{r4, r5, r6, lr}
     b4c:	4d18      	ldr	r5, [pc, #96]	; (bb0 <UART0_IRQHandler+0x68>)
     b4e:	005b      	lsls	r3, r3, #1
     b50:	606b      	str	r3, [r5, #4]
     b52:	b672      	cpsid	i
     b54:	4c17      	ldr	r4, [pc, #92]	; (bb4 <UART0_IRQHandler+0x6c>)
     b56:	7923      	ldrb	r3, [r4, #4]
     b58:	b25b      	sxtb	r3, r3
     b5a:	2b00      	cmp	r3, #0
     b5c:	da0f      	bge.n	b7e <UART0_IRQHandler+0x36>
     b5e:	2380      	movs	r3, #128	; 0x80
     b60:	009b      	lsls	r3, r3, #2
     b62:	606b      	str	r3, [r5, #4]
     b64:	4814      	ldr	r0, [pc, #80]	; (bb8 <UART0_IRQHandler+0x70>)
     b66:	f7ff fd30 	bl	5ca <dequeue>
     b6a:	4b14      	ldr	r3, [pc, #80]	; (bbc <UART0_IRQHandler+0x74>)
     b6c:	71e0      	strb	r0, [r4, #7]
     b6e:	33bc      	adds	r3, #188	; 0xbc
     b70:	681b      	ldr	r3, [r3, #0]
     b72:	2b00      	cmp	r3, #0
     b74:	dc03      	bgt.n	b7e <UART0_IRQHandler+0x36>
     b76:	237f      	movs	r3, #127	; 0x7f
     b78:	78e2      	ldrb	r2, [r4, #3]
     b7a:	4013      	ands	r3, r2
     b7c:	70e3      	strb	r3, [r4, #3]
     b7e:	2180      	movs	r1, #128	; 0x80
     b80:	7922      	ldrb	r2, [r4, #4]
     b82:	00c9      	lsls	r1, r1, #3
     b84:	4b0b      	ldr	r3, [pc, #44]	; (bb4 <UART0_IRQHandler+0x6c>)
     b86:	6069      	str	r1, [r5, #4]
     b88:	0692      	lsls	r2, r2, #26
     b8a:	d50e      	bpl.n	baa <UART0_IRQHandler+0x62>
     b8c:	202a      	movs	r0, #42	; 0x2a
     b8e:	79d9      	ldrb	r1, [r3, #7]
     b90:	791a      	ldrb	r2, [r3, #4]
     b92:	b2c9      	uxtb	r1, r1
     b94:	4302      	orrs	r2, r0
     b96:	711a      	strb	r2, [r3, #4]
     b98:	2280      	movs	r2, #128	; 0x80
     b9a:	4b05      	ldr	r3, [pc, #20]	; (bb0 <UART0_IRQHandler+0x68>)
     b9c:	0112      	lsls	r2, r2, #4
     b9e:	605a      	str	r2, [r3, #4]
     ba0:	2900      	cmp	r1, #0
     ba2:	d002      	beq.n	baa <UART0_IRQHandler+0x62>
     ba4:	4805      	ldr	r0, [pc, #20]	; (bbc <UART0_IRQHandler+0x74>)
     ba6:	f7ff fcf7 	bl	598 <enqueue>
     baa:	b662      	cpsie	i
     bac:	bd70      	pop	{r4, r5, r6, pc}
     bae:	46c0      	nop			; (mov r8, r8)
     bb0:	400ff080 	andmi	pc, pc, r0, lsl #1
     bb4:	4006a000 	andmi	sl, r6, r0
     bb8:	1ffff294 	svcne	0x00fff294
     bbc:	1ffff234 	svcne	0x00fff234

00000bc0 <UART1_IRQHandler>:
     bc0:	b570      	push	{r4, r5, r6, lr}
     bc2:	b672      	cpsid	i
     bc4:	4c0d      	ldr	r4, [pc, #52]	; (bfc <UART1_IRQHandler+0x3c>)
     bc6:	7925      	ldrb	r5, [r4, #4]
     bc8:	b2ed      	uxtb	r5, r5
     bca:	b26b      	sxtb	r3, r5
     bcc:	2b00      	cmp	r3, #0
     bce:	da0c      	bge.n	bea <UART1_IRQHandler+0x2a>
     bd0:	480b      	ldr	r0, [pc, #44]	; (c00 <UART1_IRQHandler+0x40>)
     bd2:	f7ff fcfa 	bl	5ca <dequeue>
     bd6:	4b0b      	ldr	r3, [pc, #44]	; (c04 <UART1_IRQHandler+0x44>)
     bd8:	71e0      	strb	r0, [r4, #7]
     bda:	33bc      	adds	r3, #188	; 0xbc
     bdc:	681b      	ldr	r3, [r3, #0]
     bde:	2b01      	cmp	r3, #1
     be0:	dc03      	bgt.n	bea <UART1_IRQHandler+0x2a>
     be2:	237f      	movs	r3, #127	; 0x7f
     be4:	78e2      	ldrb	r2, [r4, #3]
     be6:	4013      	ands	r3, r2
     be8:	70e3      	strb	r3, [r4, #3]
     bea:	06ab      	lsls	r3, r5, #26
     bec:	d503      	bpl.n	bf6 <UART1_IRQHandler+0x36>
     bee:	79e0      	ldrb	r0, [r4, #7]
     bf0:	b2c0      	uxtb	r0, r0
     bf2:	f000 f9ed 	bl	fd0 <ParseGPS>
     bf6:	b662      	cpsie	i
     bf8:	bd70      	pop	{r4, r5, r6, pc}
     bfa:	46c0      	nop			; (mov r8, r8)
     bfc:	4006b000 	andmi	fp, r6, r0
     c00:	1ffff358 	svcne	0x00fff358
     c04:	1ffff2f8 	svcne	0x00fff2f8

00000c08 <UART2_IRQHandler>:
     c08:	b570      	push	{r4, r5, r6, lr}
     c0a:	b672      	cpsid	i
     c0c:	4c0d      	ldr	r4, [pc, #52]	; (c44 <UART2_IRQHandler+0x3c>)
     c0e:	7925      	ldrb	r5, [r4, #4]
     c10:	b2ed      	uxtb	r5, r5
     c12:	b26b      	sxtb	r3, r5
     c14:	2b00      	cmp	r3, #0
     c16:	da0c      	bge.n	c32 <UART2_IRQHandler+0x2a>
     c18:	480b      	ldr	r0, [pc, #44]	; (c48 <UART2_IRQHandler+0x40>)
     c1a:	f7ff fcd6 	bl	5ca <dequeue>
     c1e:	4b0b      	ldr	r3, [pc, #44]	; (c4c <UART2_IRQHandler+0x44>)
     c20:	71e0      	strb	r0, [r4, #7]
     c22:	33bc      	adds	r3, #188	; 0xbc
     c24:	681b      	ldr	r3, [r3, #0]
     c26:	2b02      	cmp	r3, #2
     c28:	dc03      	bgt.n	c32 <UART2_IRQHandler+0x2a>
     c2a:	237f      	movs	r3, #127	; 0x7f
     c2c:	78e2      	ldrb	r2, [r4, #3]
     c2e:	4013      	ands	r3, r2
     c30:	70e3      	strb	r3, [r4, #3]
     c32:	06ab      	lsls	r3, r5, #26
     c34:	d504      	bpl.n	c40 <UART2_IRQHandler+0x38>
     c36:	79e1      	ldrb	r1, [r4, #7]
     c38:	4804      	ldr	r0, [pc, #16]	; (c4c <UART2_IRQHandler+0x44>)
     c3a:	b2c9      	uxtb	r1, r1
     c3c:	f7ff fcac 	bl	598 <enqueue>
     c40:	b662      	cpsie	i
     c42:	bd70      	pop	{r4, r5, r6, pc}
     c44:	4006c000 	andmi	ip, r6, r0
     c48:	1ffff41c 	svcne	0x00fff41c
     c4c:	1ffff3bc 	svcne	0x00fff3bc

00000c50 <clockInit>:
     c50:	2300      	movs	r3, #0
     c52:	21a0      	movs	r1, #160	; 0xa0
     c54:	4a1b      	ldr	r2, [pc, #108]	; (cc4 <clockInit+0x74>)
     c56:	b530      	push	{r4, r5, lr}
     c58:	6013      	str	r3, [r2, #0]
     c5a:	4b1b      	ldr	r3, [pc, #108]	; (cc8 <clockInit+0x78>)
     c5c:	2002      	movs	r0, #2
     c5e:	7019      	strb	r1, [r3, #0]
     c60:	4b1a      	ldr	r3, [pc, #104]	; (ccc <clockInit+0x7c>)
     c62:	398c      	subs	r1, #140	; 0x8c
     c64:	7059      	strb	r1, [r3, #1]
     c66:	3186      	adds	r1, #134	; 0x86
     c68:	7019      	strb	r1, [r3, #0]
     c6a:	0011      	movs	r1, r2
     c6c:	0004      	movs	r4, r0
     c6e:	799a      	ldrb	r2, [r3, #6]
     c70:	4394      	bics	r4, r2
     c72:	1e22      	subs	r2, r4, #0
     c74:	d1fa      	bne.n	c6c <clockInit+0x1c>
     c76:	3210      	adds	r2, #16
     c78:	7998      	ldrb	r0, [r3, #6]
     c7a:	4210      	tst	r0, r2
     c7c:	d1fc      	bne.n	c78 <clockInit+0x28>
     c7e:	240a      	movs	r4, #10
     c80:	0025      	movs	r5, r4
     c82:	7998      	ldrb	r0, [r3, #6]
     c84:	4a11      	ldr	r2, [pc, #68]	; (ccc <clockInit+0x7c>)
     c86:	4385      	bics	r5, r0
     c88:	1e28      	subs	r0, r5, #0
     c8a:	d1f9      	bne.n	c80 <clockInit+0x30>
     c8c:	3003      	adds	r0, #3
     c8e:	7110      	strb	r0, [r2, #4]
     c90:	303d      	adds	r0, #61	; 0x3d
     c92:	7150      	strb	r0, [r2, #5]
     c94:	3820      	subs	r0, #32
     c96:	0004      	movs	r4, r0
     c98:	799a      	ldrb	r2, [r3, #6]
     c9a:	4394      	bics	r4, r2
     c9c:	d1fb      	bne.n	c96 <clockInit+0x46>
     c9e:	2040      	movs	r0, #64	; 0x40
     ca0:	0004      	movs	r4, r0
     ca2:	799a      	ldrb	r2, [r3, #6]
     ca4:	4394      	bics	r4, r2
     ca6:	d1fb      	bne.n	ca0 <clockInit+0x50>
     ca8:	2010      	movs	r0, #16
     caa:	4a08      	ldr	r2, [pc, #32]	; (ccc <clockInit+0x7c>)
     cac:	7010      	strb	r0, [r2, #0]
     cae:	3804      	subs	r0, #4
     cb0:	0004      	movs	r4, r0
     cb2:	799a      	ldrb	r2, [r3, #6]
     cb4:	4394      	bics	r4, r2
     cb6:	d1fb      	bne.n	cb0 <clockInit+0x60>
     cb8:	2280      	movs	r2, #128	; 0x80
     cba:	4b05      	ldr	r3, [pc, #20]	; (cd0 <clockInit+0x80>)
     cbc:	0252      	lsls	r2, r2, #9
     cbe:	50ca      	str	r2, [r1, r3]
     cc0:	bd30      	pop	{r4, r5, pc}
     cc2:	46c0      	nop			; (mov r8, r8)
     cc4:	40047000 	andmi	r7, r4, r0
     cc8:	40065000 	andmi	r5, r6, r0
     ccc:	40064000 	andmi	r4, r6, r0
     cd0:	00001044 	andeq	r1, r0, r4, asr #32

00000cd4 <start>:
     cd4:	b5f8      	push	{r3, r4, r5, r6, r7, lr}
     cd6:	2388      	movs	r3, #136	; 0x88
     cd8:	2200      	movs	r2, #0
     cda:	2580      	movs	r5, #128	; 0x80
     cdc:	4c1b      	ldr	r4, [pc, #108]	; (d4c <start+0x78>)
     cde:	015b      	lsls	r3, r3, #5
     ce0:	50e2      	str	r2, [r4, r3]
     ce2:	f7ff ffb5 	bl	c50 <clockInit>
     ce6:	2180      	movs	r1, #128	; 0x80
     ce8:	4a19      	ldr	r2, [pc, #100]	; (d50 <start+0x7c>)
     cea:	012d      	lsls	r5, r5, #4
     cec:	58a3      	ldr	r3, [r4, r2]
     cee:	0189      	lsls	r1, r1, #6
     cf0:	432b      	orrs	r3, r5
     cf2:	50a3      	str	r3, [r4, r2]
     cf4:	58a3      	ldr	r3, [r4, r2]
     cf6:	2080      	movs	r0, #128	; 0x80
     cf8:	430b      	orrs	r3, r1
     cfa:	50a3      	str	r3, [r4, r2]
     cfc:	23a0      	movs	r3, #160	; 0xa0
     cfe:	2780      	movs	r7, #128	; 0x80
     d00:	4914      	ldr	r1, [pc, #80]	; (d54 <start+0x80>)
     d02:	005b      	lsls	r3, r3, #1
     d04:	620b      	str	r3, [r1, #32]
     d06:	4b14      	ldr	r3, [pc, #80]	; (d58 <start+0x84>)
     d08:	0040      	lsls	r0, r0, #1
     d0a:	695e      	ldr	r6, [r3, #20]
     d0c:	00bf      	lsls	r7, r7, #2
     d0e:	4306      	orrs	r6, r0
     d10:	615e      	str	r6, [r3, #20]
     d12:	695e      	ldr	r6, [r3, #20]
     d14:	433e      	orrs	r6, r7
     d16:	615e      	str	r6, [r3, #20]
     d18:	58a6      	ldr	r6, [r4, r2]
     d1a:	432e      	orrs	r6, r5
     d1c:	50a6      	str	r6, [r4, r2]
     d1e:	24f0      	movs	r4, #240	; 0xf0
     d20:	695a      	ldr	r2, [r3, #20]
     d22:	0124      	lsls	r4, r4, #4
     d24:	4322      	orrs	r2, r4
     d26:	615a      	str	r2, [r3, #20]
     d28:	6208      	str	r0, [r1, #32]
     d2a:	6248      	str	r0, [r1, #36]	; 0x24
     d2c:	6288      	str	r0, [r1, #40]	; 0x28
     d2e:	62c8      	str	r0, [r1, #44]	; 0x2c
     d30:	605d      	str	r5, [r3, #4]
     d32:	f000 f93f 	bl	fb4 <initGps>
     d36:	f000 f9e7 	bl	1108 <testParse>
     d3a:	2196      	movs	r1, #150	; 0x96
     d3c:	4807      	ldr	r0, [pc, #28]	; (d5c <start+0x88>)
     d3e:	0189      	lsls	r1, r1, #6
     d40:	f7ff fe50 	bl	9e4 <uartInit>
     d44:	4806      	ldr	r0, [pc, #24]	; (d60 <start+0x8c>)
     d46:	f000 fa09 	bl	115c <i2c_init>
     d4a:	bdf8      	pop	{r3, r4, r5, r6, r7, pc}
     d4c:	40047000 	andmi	r7, r4, r0
     d50:	00001038 	andeq	r1, r0, r8, lsr r0
     d54:	4004b000 	andmi	fp, r4, r0
     d58:	400ff080 	andmi	pc, pc, r0, lsl #1
     d5c:	4006b000 	andmi	fp, r6, r0
     d60:	40066000 	andmi	r6, r6, r0

00000d64 <main>:
     d64:	b510      	push	{r4, lr}
     d66:	f7ff ffb5 	bl	cd4 <start>
     d6a:	f000 f837 	bl	ddc <initDRA>
     d6e:	f000 f90b 	bl	f88 <draRx>
     d72:	f000 f887 	bl	e84 <checkDRA>
     d76:	f000 f8d3 	bl	f20 <programDra>
     d7a:	4811      	ldr	r0, [pc, #68]	; (dc0 <main+0x5c>)
     d7c:	f000 f9d2 	bl	1124 <delay>
     d80:	f000 f910 	bl	fa4 <draOn>
     d84:	20fa      	movs	r0, #250	; 0xfa
     d86:	00c0      	lsls	r0, r0, #3
     d88:	f000 f9cc 	bl	1124 <delay>
     d8c:	f000 f8ee 	bl	f6c <draTx>
     d90:	20fa      	movs	r0, #250	; 0xfa
     d92:	0040      	lsls	r0, r0, #1
     d94:	f000 f9c6 	bl	1124 <delay>
     d98:	2105      	movs	r1, #5
     d9a:	480a      	ldr	r0, [pc, #40]	; (dc4 <main+0x60>)
     d9c:	f7ff fd62 	bl	864 <cwSend>
     da0:	2064      	movs	r0, #100	; 0x64
     da2:	f000 f9bf 	bl	1124 <delay>
     da6:	f000 fa25 	bl	11f4 <sendPos>
     daa:	20c8      	movs	r0, #200	; 0xc8
     dac:	f000 f9ba 	bl	1124 <delay>
     db0:	f000 f8ea 	bl	f88 <draRx>
     db4:	20c8      	movs	r0, #200	; 0xc8
     db6:	f000 f9b5 	bl	1124 <delay>
     dba:	f000 f8f9 	bl	fb0 <draOff>
     dbe:	e7dc      	b.n	d7a <main+0x16>
     dc0:	00002710 	andeq	r2, r0, r0, lsl r7
     dc4:	00001674 	andeq	r1, r0, r4, ror r6

00000dc8 <stringCpy>:
     dc8:	2300      	movs	r3, #0
     dca:	5cca      	ldrb	r2, [r1, r3]
     dcc:	54c2      	strb	r2, [r0, r3]
     dce:	3301      	adds	r3, #1
     dd0:	1e5a      	subs	r2, r3, #1
     dd2:	5c8a      	ldrb	r2, [r1, r2]
     dd4:	2a00      	cmp	r2, #0
     dd6:	d1f8      	bne.n	dca <stringCpy+0x2>
     dd8:	0018      	movs	r0, r3
     dda:	4770      	bx	lr

00000ddc <initDRA>:
     ddc:	b570      	push	{r4, r5, r6, lr}
     dde:	4c1c      	ldr	r4, [pc, #112]	; (e50 <initDRA+0x74>)
     de0:	481c      	ldr	r0, [pc, #112]	; (e54 <initDRA+0x78>)
     de2:	0021      	movs	r1, r4
     de4:	f7ff fff0 	bl	dc8 <stringCpy>
     de8:	0021      	movs	r1, r4
     dea:	481b      	ldr	r0, [pc, #108]	; (e58 <initDRA+0x7c>)
     dec:	f7ff ffec 	bl	dc8 <stringCpy>
     df0:	2196      	movs	r1, #150	; 0x96
     df2:	481a      	ldr	r0, [pc, #104]	; (e5c <initDRA+0x80>)
     df4:	0189      	lsls	r1, r1, #6
     df6:	f7ff fdf5 	bl	9e4 <uartInit>
     dfa:	2098      	movs	r0, #152	; 0x98
     dfc:	4918      	ldr	r1, [pc, #96]	; (e60 <initDRA+0x84>)
     dfe:	4a19      	ldr	r2, [pc, #100]	; (e64 <initDRA+0x88>)
     e00:	0180      	lsls	r0, r0, #6
     e02:	588b      	ldr	r3, [r1, r2]
     e04:	4c18      	ldr	r4, [pc, #96]	; (e68 <initDRA+0x8c>)
     e06:	4303      	orrs	r3, r0
     e08:	508b      	str	r3, [r1, r2]
     e0a:	6963      	ldr	r3, [r4, #20]
     e0c:	4a17      	ldr	r2, [pc, #92]	; (e6c <initDRA+0x90>)
     e0e:	2508      	movs	r5, #8
     e10:	4313      	orrs	r3, r2
     e12:	6163      	str	r3, [r4, #20]
     e14:	2380      	movs	r3, #128	; 0x80
     e16:	4a16      	ldr	r2, [pc, #88]	; (e70 <initDRA+0x94>)
     e18:	005b      	lsls	r3, r3, #1
     e1a:	60d3      	str	r3, [r2, #12]
     e1c:	64d3      	str	r3, [r2, #76]	; 0x4c
     e1e:	4a15      	ldr	r2, [pc, #84]	; (e74 <initDRA+0x98>)
     e20:	2064      	movs	r0, #100	; 0x64
     e22:	6513      	str	r3, [r2, #80]	; 0x50
     e24:	4a14      	ldr	r2, [pc, #80]	; (e78 <initDRA+0x9c>)
     e26:	4b15      	ldr	r3, [pc, #84]	; (e7c <initDRA+0xa0>)
     e28:	6951      	ldr	r1, [r2, #20]
     e2a:	400b      	ands	r3, r1
     e2c:	2180      	movs	r1, #128	; 0x80
     e2e:	6153      	str	r3, [r2, #20]
     e30:	4b13      	ldr	r3, [pc, #76]	; (e80 <initDRA+0xa4>)
     e32:	0349      	lsls	r1, r1, #13
     e34:	695a      	ldr	r2, [r3, #20]
     e36:	430a      	orrs	r2, r1
     e38:	615a      	str	r2, [r3, #20]
     e3a:	2280      	movs	r2, #128	; 0x80
     e3c:	0312      	lsls	r2, r2, #12
     e3e:	60a2      	str	r2, [r4, #8]
     e40:	6059      	str	r1, [r3, #4]
     e42:	60a5      	str	r5, [r4, #8]
     e44:	f000 f96e 	bl	1124 <delay>
     e48:	6065      	str	r5, [r4, #4]
     e4a:	2000      	movs	r0, #0
     e4c:	bd70      	pop	{r4, r5, r6, pc}
     e4e:	46c0      	nop			; (mov r8, r8)
     e50:	0000167a 	andeq	r1, r0, sl, ror r6
     e54:	1ffff480 	svcne	0x00fff480
     e58:	1ffff48b 	svcne	0x00fff48b
     e5c:	4006a000 	andmi	sl, r6, r0
     e60:	40047000 	andmi	r7, r4, r0
     e64:	00001038 	andeq	r1, r0, r8, lsr r0
     e68:	400ff040 	andmi	pc, pc, r0, asr #32
     e6c:	00080008 	andeq	r0, r8, r8
     e70:	4004a000 	andmi	sl, r4, r0
     e74:	4004d000 	andmi	sp, r4, r0
     e78:	400ff000 	andmi	pc, pc, r0
     e7c:	ffffefff 			; <UNDEFINED> instruction: 0xffffefff
     e80:	400ff100 	andmi	pc, pc, r0, lsl #2

00000e84 <checkDRA>:
     e84:	b5f0      	push	{r4, r5, r6, r7, lr}
     e86:	2380      	movs	r3, #128	; 0x80
     e88:	2580      	movs	r5, #128	; 0x80
     e8a:	2080      	movs	r0, #128	; 0x80
     e8c:	2180      	movs	r1, #128	; 0x80
     e8e:	22f0      	movs	r2, #240	; 0xf0
     e90:	2605      	movs	r6, #5
     e92:	4c1f      	ldr	r4, [pc, #124]	; (f10 <checkDRA+0x8c>)
     e94:	00db      	lsls	r3, r3, #3
     e96:	012d      	lsls	r5, r5, #4
     e98:	0080      	lsls	r0, r0, #2
     e9a:	0049      	lsls	r1, r1, #1
     e9c:	0112      	lsls	r2, r2, #4
     e9e:	b0b1      	sub	sp, #196	; 0xc4
     ea0:	60a5      	str	r5, [r4, #8]
     ea2:	60a3      	str	r3, [r4, #8]
     ea4:	60a0      	str	r0, [r4, #8]
     ea6:	60a1      	str	r1, [r4, #8]
     ea8:	60a2      	str	r2, [r4, #8]
     eaa:	6065      	str	r5, [r4, #4]
     eac:	6063      	str	r3, [r4, #4]
     eae:	6060      	str	r0, [r4, #4]
     eb0:	6061      	str	r1, [r4, #4]
     eb2:	60a2      	str	r2, [r4, #8]
     eb4:	932f      	str	r3, [sp, #188]	; 0xbc
     eb6:	3e01      	subs	r6, #1
     eb8:	2e00      	cmp	r6, #0
     eba:	d026      	beq.n	f0a <checkDRA+0x86>
     ebc:	200a      	movs	r0, #10
     ebe:	f000 f931 	bl	1124 <delay>
     ec2:	4d14      	ldr	r5, [pc, #80]	; (f14 <checkDRA+0x90>)
     ec4:	22b4      	movs	r2, #180	; 0xb4
     ec6:	002f      	movs	r7, r5
     ec8:	3710      	adds	r7, #16
     eca:	0039      	movs	r1, r7
     ecc:	4668      	mov	r0, sp
     ece:	f000 fa1d 	bl	130c <memcpy>
     ed2:	6828      	ldr	r0, [r5, #0]
     ed4:	6869      	ldr	r1, [r5, #4]
     ed6:	68aa      	ldr	r2, [r5, #8]
     ed8:	68eb      	ldr	r3, [r5, #12]
     eda:	f7ff fd79 	bl	9d0 <uartClearRxQueue>
     ede:	4b0e      	ldr	r3, [pc, #56]	; (f18 <checkDRA+0x94>)
     ee0:	22b4      	movs	r2, #180	; 0xb4
     ee2:	0039      	movs	r1, r7
     ee4:	4668      	mov	r0, sp
     ee6:	932d      	str	r3, [sp, #180]	; 0xb4
     ee8:	f000 fa10 	bl	130c <memcpy>
     eec:	6828      	ldr	r0, [r5, #0]
     eee:	6869      	ldr	r1, [r5, #4]
     ef0:	68aa      	ldr	r2, [r5, #8]
     ef2:	68eb      	ldr	r3, [r5, #12]
     ef4:	f7ff fe09 	bl	b0a <uartPutStringBlock>
     ef8:	2064      	movs	r0, #100	; 0x64
     efa:	f000 f913 	bl	1124 <delay>
     efe:	2201      	movs	r2, #1
     f00:	9b2f      	ldr	r3, [sp, #188]	; 0xbc
     f02:	6063      	str	r3, [r4, #4]
     f04:	4b05      	ldr	r3, [pc, #20]	; (f1c <checkDRA+0x98>)
     f06:	775a      	strb	r2, [r3, #29]
     f08:	e7d5      	b.n	eb6 <checkDRA+0x32>
     f0a:	2001      	movs	r0, #1
     f0c:	b031      	add	sp, #196	; 0xc4
     f0e:	bdf0      	pop	{r4, r5, r6, r7, pc}
     f10:	400ff080 	andmi	pc, pc, r0, lsl #1
     f14:	1ffff234 	svcne	0x00fff234
     f18:	00001683 	andeq	r1, r0, r3, lsl #13
     f1c:	1ffff480 	svcne	0x00fff480

00000f20 <programDra>:
     f20:	b530      	push	{r4, r5, lr}
     f22:	4b0f      	ldr	r3, [pc, #60]	; (f60 <programDra+0x40>)
     f24:	b0af      	sub	sp, #188	; 0xbc
     f26:	7f5b      	ldrb	r3, [r3, #29]
     f28:	2001      	movs	r0, #1
     f2a:	2b00      	cmp	r3, #0
     f2c:	d016      	beq.n	f5c <programDra+0x3c>
     f2e:	4c0d      	ldr	r4, [pc, #52]	; (f64 <programDra+0x44>)
     f30:	4b0d      	ldr	r3, [pc, #52]	; (f68 <programDra+0x48>)
     f32:	0021      	movs	r1, r4
     f34:	22b4      	movs	r2, #180	; 0xb4
     f36:	3110      	adds	r1, #16
     f38:	4668      	mov	r0, sp
     f3a:	932d      	str	r3, [sp, #180]	; 0xb4
     f3c:	f000 f9e6 	bl	130c <memcpy>
     f40:	6820      	ldr	r0, [r4, #0]
     f42:	6861      	ldr	r1, [r4, #4]
     f44:	68a2      	ldr	r2, [r4, #8]
     f46:	68e3      	ldr	r3, [r4, #12]
     f48:	f7ff fddf 	bl	b0a <uartPutStringBlock>
     f4c:	3501      	adds	r5, #1
     f4e:	2064      	movs	r0, #100	; 0x64
     f50:	f000 f8e8 	bl	1124 <delay>
     f54:	1e6b      	subs	r3, r5, #1
     f56:	2b03      	cmp	r3, #3
     f58:	dde9      	ble.n	f2e <programDra+0xe>
     f5a:	2000      	movs	r0, #0
     f5c:	b02f      	add	sp, #188	; 0xbc
     f5e:	bd30      	pop	{r4, r5, pc}
     f60:	1ffff480 	svcne	0x00fff480
     f64:	1ffff234 	svcne	0x00fff234
     f68:	00001695 	muleq	r0, r5, r6

00000f6c <draTx>:
     f6c:	2280      	movs	r2, #128	; 0x80
     f6e:	4b04      	ldr	r3, [pc, #16]	; (f80 <draTx+0x14>)
     f70:	0352      	lsls	r2, r2, #13
     f72:	609a      	str	r2, [r3, #8]
     f74:	2280      	movs	r2, #128	; 0x80
     f76:	4b03      	ldr	r3, [pc, #12]	; (f84 <draTx+0x18>)
     f78:	0112      	lsls	r2, r2, #4
     f7a:	605a      	str	r2, [r3, #4]
     f7c:	4770      	bx	lr
     f7e:	46c0      	nop			; (mov r8, r8)
     f80:	400ff100 	andmi	pc, pc, r0, lsl #2
     f84:	400ff080 	andmi	pc, pc, r0, lsl #1

00000f88 <draRx>:
     f88:	2280      	movs	r2, #128	; 0x80
     f8a:	4b04      	ldr	r3, [pc, #16]	; (f9c <draRx+0x14>)
     f8c:	0352      	lsls	r2, r2, #13
     f8e:	605a      	str	r2, [r3, #4]
     f90:	2280      	movs	r2, #128	; 0x80
     f92:	4b03      	ldr	r3, [pc, #12]	; (fa0 <draRx+0x18>)
     f94:	0112      	lsls	r2, r2, #4
     f96:	609a      	str	r2, [r3, #8]
     f98:	4770      	bx	lr
     f9a:	46c0      	nop			; (mov r8, r8)
     f9c:	400ff100 	andmi	pc, pc, r0, lsl #2
     fa0:	400ff080 	andmi	pc, pc, r0, lsl #1

00000fa4 <draOn>:
     fa4:	2208      	movs	r2, #8
     fa6:	4b01      	ldr	r3, [pc, #4]	; (fac <draOn+0x8>)
     fa8:	605a      	str	r2, [r3, #4]
     faa:	4770      	bx	lr
     fac:	400ff040 	andmi	pc, pc, r0, asr #32

00000fb0 <draOff>:
     fb0:	4770      	bx	lr
	...

00000fb4 <initGps>:
     fb4:	2000      	movs	r0, #0
     fb6:	4b03      	ldr	r3, [pc, #12]	; (fc4 <initGps+0x10>)
     fb8:	6018      	str	r0, [r3, #0]
     fba:	4b03      	ldr	r3, [pc, #12]	; (fc8 <initGps+0x14>)
     fbc:	6018      	str	r0, [r3, #0]
     fbe:	4b03      	ldr	r3, [pc, #12]	; (fcc <initGps+0x18>)
     fc0:	6018      	str	r0, [r3, #0]
     fc2:	4770      	bx	lr
     fc4:	1ffff4a8 	svcne	0x00fff4a8
     fc8:	1ffff4a4 	svcne	0x00fff4a4
     fcc:	1ffff4e8 	svcne	0x00fff4e8

00000fd0 <ParseGPS>:
     fd0:	b5f0      	push	{r4, r5, r6, r7, lr}
     fd2:	4a3d      	ldr	r2, [pc, #244]	; (10c8 <ParseGPS+0xf8>)
     fd4:	6813      	ldr	r3, [r2, #0]
     fd6:	0014      	movs	r4, r2
     fd8:	2b06      	cmp	r3, #6
     fda:	dc19      	bgt.n	1010 <ParseGPS+0x40>
     fdc:	493b      	ldr	r1, [pc, #236]	; (10cc <ParseGPS+0xfc>)
     fde:	5cc9      	ldrb	r1, [r1, r3]
     fe0:	4281      	cmp	r1, r0
     fe2:	d003      	beq.n	fec <ParseGPS+0x1c>
     fe4:	2300      	movs	r3, #0
     fe6:	4a3a      	ldr	r2, [pc, #232]	; (10d0 <ParseGPS+0x100>)
     fe8:	6023      	str	r3, [r4, #0]
     fea:	e002      	b.n	ff2 <ParseGPS+0x22>
     fec:	2b06      	cmp	r3, #6
     fee:	d002      	beq.n	ff6 <ParseGPS+0x26>
     ff0:	3301      	adds	r3, #1
     ff2:	6013      	str	r3, [r2, #0]
     ff4:	e066      	b.n	10c4 <ParseGPS+0xf4>
     ff6:	292c      	cmp	r1, #44	; 0x2c
     ff8:	d15b      	bne.n	10b2 <ParseGPS+0xe2>
     ffa:	2307      	movs	r3, #7
     ffc:	6013      	str	r3, [r2, #0]
     ffe:	2300      	movs	r3, #0
    1000:	4a33      	ldr	r2, [pc, #204]	; (10d0 <ParseGPS+0x100>)
    1002:	4934      	ldr	r1, [pc, #208]	; (10d4 <ParseGPS+0x104>)
    1004:	6013      	str	r3, [r2, #0]
    1006:	4a34      	ldr	r2, [pc, #208]	; (10d8 <ParseGPS+0x108>)
    1008:	6011      	str	r1, [r2, #0]
    100a:	4a34      	ldr	r2, [pc, #208]	; (10dc <ParseGPS+0x10c>)
    100c:	7013      	strb	r3, [r2, #0]
    100e:	e059      	b.n	10c4 <ParseGPS+0xf4>
    1010:	282c      	cmp	r0, #44	; 0x2c
    1012:	d14e      	bne.n	10b2 <ParseGPS+0xe2>
    1014:	4a2d      	ldr	r2, [pc, #180]	; (10cc <ParseGPS+0xfc>)
    1016:	1c59      	adds	r1, r3, #1
    1018:	5c51      	ldrb	r1, [r2, r1]
    101a:	0015      	movs	r5, r2
    101c:	292c      	cmp	r1, #44	; 0x2c
    101e:	d1e1      	bne.n	fe4 <ParseGPS+0x14>
    1020:	3302      	adds	r3, #2
    1022:	6023      	str	r3, [r4, #0]
    1024:	4b2d      	ldr	r3, [pc, #180]	; (10dc <ParseGPS+0x10c>)
    1026:	4a2a      	ldr	r2, [pc, #168]	; (10d0 <ParseGPS+0x100>)
    1028:	7819      	ldrb	r1, [r3, #0]
    102a:	482b      	ldr	r0, [pc, #172]	; (10d8 <ParseGPS+0x108>)
    102c:	2900      	cmp	r1, #0
    102e:	d003      	beq.n	1038 <ParseGPS+0x68>
    1030:	2100      	movs	r1, #0
    1032:	6806      	ldr	r6, [r0, #0]
    1034:	6817      	ldr	r7, [r2, #0]
    1036:	55f1      	strb	r1, [r6, r7]
    1038:	2100      	movs	r1, #0
    103a:	6011      	str	r1, [r2, #0]
    103c:	6822      	ldr	r2, [r4, #0]
    103e:	5caa      	ldrb	r2, [r5, r2]
    1040:	2a63      	cmp	r2, #99	; 0x63
    1042:	d024      	beq.n	108e <ParseGPS+0xbe>
    1044:	d80c      	bhi.n	1060 <ParseGPS+0x90>
    1046:	2a45      	cmp	r2, #69	; 0x45
    1048:	d027      	beq.n	109a <ParseGPS+0xca>
    104a:	d803      	bhi.n	1054 <ParseGPS+0x84>
    104c:	2a41      	cmp	r2, #65	; 0x41
    104e:	d12c      	bne.n	10aa <ParseGPS+0xda>
    1050:	4a23      	ldr	r2, [pc, #140]	; (10e0 <ParseGPS+0x110>)
    1052:	e019      	b.n	1088 <ParseGPS+0xb8>
    1054:	2a4f      	cmp	r2, #79	; 0x4f
    1056:	d016      	beq.n	1086 <ParseGPS+0xb6>
    1058:	2a61      	cmp	r2, #97	; 0x61
    105a:	d126      	bne.n	10aa <ParseGPS+0xda>
    105c:	4a21      	ldr	r2, [pc, #132]	; (10e4 <ParseGPS+0x114>)
    105e:	e019      	b.n	1094 <ParseGPS+0xc4>
    1060:	2a6f      	cmp	r2, #111	; 0x6f
    1062:	d00e      	beq.n	1082 <ParseGPS+0xb2>
    1064:	d805      	bhi.n	1072 <ParseGPS+0xa2>
    1066:	2a64      	cmp	r2, #100	; 0x64
    1068:	d013      	beq.n	1092 <ParseGPS+0xc2>
    106a:	2a6b      	cmp	r2, #107	; 0x6b
    106c:	d11d      	bne.n	10aa <ParseGPS+0xda>
    106e:	4a1e      	ldr	r2, [pc, #120]	; (10e8 <ParseGPS+0x118>)
    1070:	e010      	b.n	1094 <ParseGPS+0xc4>
    1072:	2a73      	cmp	r2, #115	; 0x73
    1074:	d003      	beq.n	107e <ParseGPS+0xae>
    1076:	2a74      	cmp	r2, #116	; 0x74
    1078:	d117      	bne.n	10aa <ParseGPS+0xda>
    107a:	4a16      	ldr	r2, [pc, #88]	; (10d4 <ParseGPS+0x104>)
    107c:	e00a      	b.n	1094 <ParseGPS+0xc4>
    107e:	4a1b      	ldr	r2, [pc, #108]	; (10ec <ParseGPS+0x11c>)
    1080:	e002      	b.n	1088 <ParseGPS+0xb8>
    1082:	4a1b      	ldr	r2, [pc, #108]	; (10f0 <ParseGPS+0x120>)
    1084:	e006      	b.n	1094 <ParseGPS+0xc4>
    1086:	4a1b      	ldr	r2, [pc, #108]	; (10f4 <ParseGPS+0x124>)
    1088:	6002      	str	r2, [r0, #0]
    108a:	7019      	strb	r1, [r3, #0]
    108c:	e01a      	b.n	10c4 <ParseGPS+0xf4>
    108e:	4a1a      	ldr	r2, [pc, #104]	; (10f8 <ParseGPS+0x128>)
    1090:	e000      	b.n	1094 <ParseGPS+0xc4>
    1092:	4a1a      	ldr	r2, [pc, #104]	; (10fc <ParseGPS+0x12c>)
    1094:	6002      	str	r2, [r0, #0]
    1096:	2201      	movs	r2, #1
    1098:	e009      	b.n	10ae <ParseGPS+0xde>
    109a:	6021      	str	r1, [r4, #0]
    109c:	2101      	movs	r1, #1
    109e:	4a18      	ldr	r2, [pc, #96]	; (1100 <ParseGPS+0x130>)
    10a0:	6011      	str	r1, [r2, #0]
    10a2:	2180      	movs	r1, #128	; 0x80
    10a4:	4a17      	ldr	r2, [pc, #92]	; (1104 <ParseGPS+0x134>)
    10a6:	00c9      	lsls	r1, r1, #3
    10a8:	6051      	str	r1, [r2, #4]
    10aa:	2200      	movs	r2, #0
    10ac:	6002      	str	r2, [r0, #0]
    10ae:	701a      	strb	r2, [r3, #0]
    10b0:	e008      	b.n	10c4 <ParseGPS+0xf4>
    10b2:	4b09      	ldr	r3, [pc, #36]	; (10d8 <ParseGPS+0x108>)
    10b4:	681a      	ldr	r2, [r3, #0]
    10b6:	2a00      	cmp	r2, #0
    10b8:	d004      	beq.n	10c4 <ParseGPS+0xf4>
    10ba:	4905      	ldr	r1, [pc, #20]	; (10d0 <ParseGPS+0x100>)
    10bc:	680b      	ldr	r3, [r1, #0]
    10be:	1c5c      	adds	r4, r3, #1
    10c0:	600c      	str	r4, [r1, #0]
    10c2:	54d0      	strb	r0, [r2, r3]
    10c4:	bdf0      	pop	{r4, r5, r6, r7, pc}
    10c6:	46c0      	nop			; (mov r8, r8)
    10c8:	1ffff4a8 	svcne	0x00fff4a8
    10cc:	1ffff080 	svcne	0x00fff080
    10d0:	1ffff4a4 	svcne	0x00fff4a4
    10d4:	1ffff4ac 	svcne	0x00fff4ac
    10d8:	1ffff4e8 	svcne	0x00fff4e8
    10dc:	1ffff4a0 	svcne	0x00fff4a0
    10e0:	1ffff4c3 	svcne	0x00fff4c3
    10e4:	1ffff4b8 	svcne	0x00fff4b8
    10e8:	1ffff4d1 	svcne	0x00fff4d1
    10ec:	1ffff4b7 	svcne	0x00fff4b7
    10f0:	1ffff4c4 	svcne	0x00fff4c4
    10f4:	1ffff4d0 	svcne	0x00fff4d0
    10f8:	1ffff4d7 	svcne	0x00fff4d7
    10fc:	1ffff4dd 	svcne	0x00fff4dd
    1100:	1ffff4e4 	svcne	0x00fff4e4
    1104:	400ff080 	andmi	pc, pc, r0, lsl #1

00001108 <testParse>:
    1108:	b510      	push	{r4, lr}
    110a:	2400      	movs	r4, #0
    110c:	4b04      	ldr	r3, [pc, #16]	; (1120 <testParse+0x18>)
    110e:	5ce0      	ldrb	r0, [r4, r3]
    1110:	2800      	cmp	r0, #0
    1112:	d003      	beq.n	111c <testParse+0x14>
    1114:	3401      	adds	r4, #1
    1116:	f7ff ff5b 	bl	fd0 <ParseGPS>
    111a:	e7f7      	b.n	110c <testParse+0x4>
    111c:	bd10      	pop	{r4, pc}
    111e:	46c0      	nop			; (mov r8, r8)
    1120:	1ffff0a2 	svcne	0x00fff0a2

00001124 <delay>:
    1124:	2201      	movs	r2, #1
    1126:	b510      	push	{r4, lr}
    1128:	4909      	ldr	r1, [pc, #36]	; (1150 <delay+0x2c>)
    112a:	4c0a      	ldr	r4, [pc, #40]	; (1154 <delay+0x30>)
    112c:	5863      	ldr	r3, [r4, r1]
    112e:	4313      	orrs	r3, r2
    1130:	5063      	str	r3, [r4, r1]
    1132:	2100      	movs	r1, #0
    1134:	4b08      	ldr	r3, [pc, #32]	; (1158 <delay+0x34>)
    1136:	6019      	str	r1, [r3, #0]
    1138:	3105      	adds	r1, #5
    113a:	6098      	str	r0, [r3, #8]
    113c:	6059      	str	r1, [r3, #4]
    113e:	601a      	str	r2, [r3, #0]
    1140:	327f      	adds	r2, #127	; 0x7f
    1142:	6819      	ldr	r1, [r3, #0]
    1144:	4211      	tst	r1, r2
    1146:	d0fc      	beq.n	1142 <delay+0x1e>
    1148:	2200      	movs	r2, #0
    114a:	4b03      	ldr	r3, [pc, #12]	; (1158 <delay+0x34>)
    114c:	601a      	str	r2, [r3, #0]
    114e:	bd10      	pop	{r4, pc}
    1150:	00001038 	andeq	r1, r0, r8, lsr r0
    1154:	40047000 	andmi	r7, r4, r0
    1158:	40040000 	andmi	r0, r4, r0

0000115c <i2c_init>:
    115c:	b510      	push	{r4, lr}
    115e:	2480      	movs	r4, #128	; 0x80
    1160:	4b0a      	ldr	r3, [pc, #40]	; (118c <i2c_init+0x30>)
    1162:	490b      	ldr	r1, [pc, #44]	; (1190 <i2c_init+0x34>)
    1164:	01a4      	lsls	r4, r4, #6
    1166:	585a      	ldr	r2, [r3, r1]
    1168:	4322      	orrs	r2, r4
    116a:	2440      	movs	r4, #64	; 0x40
    116c:	505a      	str	r2, [r3, r1]
    116e:	4909      	ldr	r1, [pc, #36]	; (1194 <i2c_init+0x38>)
    1170:	585a      	ldr	r2, [r3, r1]
    1172:	4322      	orrs	r2, r4
    1174:	505a      	str	r2, [r3, r1]
    1176:	22a0      	movs	r2, #160	; 0xa0
    1178:	4b07      	ldr	r3, [pc, #28]	; (1198 <i2c_init+0x3c>)
    117a:	00d2      	lsls	r2, r2, #3
    117c:	661a      	str	r2, [r3, #96]	; 0x60
    117e:	665a      	str	r2, [r3, #100]	; 0x64
    1180:	2314      	movs	r3, #20
    1182:	7043      	strb	r3, [r0, #1]
    1184:	336c      	adds	r3, #108	; 0x6c
    1186:	7083      	strb	r3, [r0, #2]
    1188:	bd10      	pop	{r4, pc}
    118a:	46c0      	nop			; (mov r8, r8)
    118c:	40047000 	andmi	r7, r4, r0
    1190:	00001038 	andeq	r1, r0, r8, lsr r0
    1194:	00001034 	andeq	r1, r0, r4, lsr r0
    1198:	4004d000 	andmi	sp, r4, r0

0000119c <dacInit>:
    119c:	2080      	movs	r0, #128	; 0x80
    119e:	4b0b      	ldr	r3, [pc, #44]	; (11cc <dacInit+0x30>)
    11a0:	490b      	ldr	r1, [pc, #44]	; (11d0 <dacInit+0x34>)
    11a2:	0600      	lsls	r0, r0, #24
    11a4:	585a      	ldr	r2, [r3, r1]
    11a6:	4302      	orrs	r2, r0
    11a8:	2080      	movs	r0, #128	; 0x80
    11aa:	505a      	str	r2, [r3, r1]
    11ac:	4909      	ldr	r1, [pc, #36]	; (11d4 <dacInit+0x38>)
    11ae:	0180      	lsls	r0, r0, #6
    11b0:	585a      	ldr	r2, [r3, r1]
    11b2:	4302      	orrs	r2, r0
    11b4:	505a      	str	r2, [r3, r1]
    11b6:	2200      	movs	r2, #0
    11b8:	4b07      	ldr	r3, [pc, #28]	; (11d8 <dacInit+0x3c>)
    11ba:	679a      	str	r2, [r3, #120]	; 0x78
    11bc:	4b07      	ldr	r3, [pc, #28]	; (11dc <dacInit+0x40>)
    11be:	705a      	strb	r2, [r3, #1]
    11c0:	701a      	strb	r2, [r3, #0]
    11c2:	3302      	adds	r3, #2
    11c4:	32a0      	adds	r2, #160	; 0xa0
    11c6:	77da      	strb	r2, [r3, #31]
    11c8:	4770      	bx	lr
    11ca:	46c0      	nop			; (mov r8, r8)
    11cc:	40047000 	andmi	r7, r4, r0
    11d0:	0000103c 	andeq	r1, r0, ip, lsr r0
    11d4:	00001038 	andeq	r1, r0, r8, lsr r0
    11d8:	4004d000 	andmi	sp, r4, r0
    11dc:	4003f000 	andmi	pc, r3, r0

000011e0 <dacSet>:
    11e0:	b2c2      	uxtb	r2, r0
    11e2:	4b03      	ldr	r3, [pc, #12]	; (11f0 <dacSet+0x10>)
    11e4:	0500      	lsls	r0, r0, #20
    11e6:	0f00      	lsrs	r0, r0, #28
    11e8:	701a      	strb	r2, [r3, #0]
    11ea:	7058      	strb	r0, [r3, #1]
    11ec:	4770      	bx	lr
    11ee:	46c0      	nop			; (mov r8, r8)
    11f0:	4003f000 	andmi	pc, r3, r0

000011f4 <sendPos>:
    11f4:	b510      	push	{r4, lr}
    11f6:	210f      	movs	r1, #15
    11f8:	4809      	ldr	r0, [pc, #36]	; (1220 <sendPos+0x2c>)
    11fa:	f7ff fa55 	bl	6a8 <ax25IntSend>
    11fe:	2106      	movs	r1, #6
    1200:	4808      	ldr	r0, [pc, #32]	; (1224 <sendPos+0x30>)
    1202:	f7ff fa51 	bl	6a8 <ax25IntSend>
    1206:	2107      	movs	r1, #7
    1208:	4807      	ldr	r0, [pc, #28]	; (1228 <sendPos+0x34>)
    120a:	f7ff fa4d 	bl	6a8 <ax25IntSend>
    120e:	21c8      	movs	r1, #200	; 0xc8
    1210:	4806      	ldr	r0, [pc, #24]	; (122c <sendPos+0x38>)
    1212:	f7ff fa49 	bl	6a8 <ax25IntSend>
    1216:	2106      	movs	r1, #6
    1218:	4805      	ldr	r0, [pc, #20]	; (1230 <sendPos+0x3c>)
    121a:	f7ff fa45 	bl	6a8 <ax25IntSend>
    121e:	bd10      	pop	{r4, pc}
    1220:	000016c6 	andeq	r1, r0, r6, asr #13
    1224:	1ffff4b8 	svcne	0x00fff4b8
    1228:	000016da 	ldrdeq	r1, [r0], -sl
    122c:	000016e2 	andeq	r1, r0, r2, ror #13
    1230:	1ffff4c4 	svcne	0x00fff4c4

00001234 <atexit>:
    1234:	2300      	movs	r3, #0
    1236:	b510      	push	{r4, lr}
    1238:	0001      	movs	r1, r0
    123a:	001a      	movs	r2, r3
    123c:	0018      	movs	r0, r3
    123e:	f000 f925 	bl	148c <__register_exitproc>
    1242:	bd10      	pop	{r4, pc}

00001244 <exit>:
    1244:	4b08      	ldr	r3, [pc, #32]	; (1268 <exit+0x24>)
    1246:	b510      	push	{r4, lr}
    1248:	0004      	movs	r4, r0
    124a:	2b00      	cmp	r3, #0
    124c:	d002      	beq.n	1254 <exit+0x10>
    124e:	2100      	movs	r1, #0
    1250:	f000 f978 	bl	1544 <__call_exitprocs>
    1254:	4b05      	ldr	r3, [pc, #20]	; (126c <exit+0x28>)
    1256:	6818      	ldr	r0, [r3, #0]
    1258:	6a83      	ldr	r3, [r0, #40]	; 0x28
    125a:	2b00      	cmp	r3, #0
    125c:	d000      	beq.n	1260 <exit+0x1c>
    125e:	4798      	blx	r3
    1260:	0020      	movs	r0, r4
    1262:	f000 f9f3 	bl	164c <_exit>
    1266:	46c0      	nop			; (mov r8, r8)
    1268:	00001545 	andeq	r1, r0, r5, asr #10
    126c:	000017b0 			; <UNDEFINED> instruction: 0x000017b0

00001270 <__libc_fini_array>:
    1270:	4b07      	ldr	r3, [pc, #28]	; (1290 <__libc_fini_array+0x20>)
    1272:	b570      	push	{r4, r5, r6, lr}
    1274:	001d      	movs	r5, r3
    1276:	4c07      	ldr	r4, [pc, #28]	; (1294 <__libc_fini_array+0x24>)
    1278:	1ae4      	subs	r4, r4, r3
    127a:	10a4      	asrs	r4, r4, #2
    127c:	2c00      	cmp	r4, #0
    127e:	d004      	beq.n	128a <__libc_fini_array+0x1a>
    1280:	3c01      	subs	r4, #1
    1282:	00a3      	lsls	r3, r4, #2
    1284:	58eb      	ldr	r3, [r5, r3]
    1286:	4798      	blx	r3
    1288:	e7f8      	b.n	127c <__libc_fini_array+0xc>
    128a:	f000 fa99 	bl	17c0 <_fini>
    128e:	bd70      	pop	{r4, r5, r6, pc}
    1290:	000017d8 	ldrdeq	r1, [r0], -r8
    1294:	000017dc 	ldrdeq	r1, [r0], -ip

00001298 <__libc_init_array>:
    1298:	4b0e      	ldr	r3, [pc, #56]	; (12d4 <__libc_init_array+0x3c>)
    129a:	b570      	push	{r4, r5, r6, lr}
    129c:	2500      	movs	r5, #0
    129e:	001e      	movs	r6, r3
    12a0:	4c0d      	ldr	r4, [pc, #52]	; (12d8 <__libc_init_array+0x40>)
    12a2:	1ae4      	subs	r4, r4, r3
    12a4:	10a4      	asrs	r4, r4, #2
    12a6:	42a5      	cmp	r5, r4
    12a8:	d004      	beq.n	12b4 <__libc_init_array+0x1c>
    12aa:	00ab      	lsls	r3, r5, #2
    12ac:	58f3      	ldr	r3, [r6, r3]
    12ae:	4798      	blx	r3
    12b0:	3501      	adds	r5, #1
    12b2:	e7f8      	b.n	12a6 <__libc_init_array+0xe>
    12b4:	f000 fa7e 	bl	17b4 <_init>
    12b8:	4b08      	ldr	r3, [pc, #32]	; (12dc <__libc_init_array+0x44>)
    12ba:	2500      	movs	r5, #0
    12bc:	001e      	movs	r6, r3
    12be:	4c08      	ldr	r4, [pc, #32]	; (12e0 <__libc_init_array+0x48>)
    12c0:	1ae4      	subs	r4, r4, r3
    12c2:	10a4      	asrs	r4, r4, #2
    12c4:	42a5      	cmp	r5, r4
    12c6:	d004      	beq.n	12d2 <__libc_init_array+0x3a>
    12c8:	00ab      	lsls	r3, r5, #2
    12ca:	58f3      	ldr	r3, [r6, r3]
    12cc:	4798      	blx	r3
    12ce:	3501      	adds	r5, #1
    12d0:	e7f8      	b.n	12c4 <__libc_init_array+0x2c>
    12d2:	bd70      	pop	{r4, r5, r6, pc}
    12d4:	000017d4 	ldrdeq	r1, [r0], -r4
    12d8:	000017d4 	ldrdeq	r1, [r0], -r4
    12dc:	000017d4 	ldrdeq	r1, [r0], -r4
    12e0:	000017d8 	ldrdeq	r1, [r0], -r8

000012e4 <malloc>:
    12e4:	b510      	push	{r4, lr}
    12e6:	4b03      	ldr	r3, [pc, #12]	; (12f4 <malloc+0x10>)
    12e8:	0001      	movs	r1, r0
    12ea:	6818      	ldr	r0, [r3, #0]
    12ec:	f000 f866 	bl	13bc <_malloc_r>
    12f0:	bd10      	pop	{r4, pc}
    12f2:	46c0      	nop			; (mov r8, r8)
    12f4:	1ffff148 	svcne	0x00fff148

000012f8 <free>:
    12f8:	b510      	push	{r4, lr}
    12fa:	4b03      	ldr	r3, [pc, #12]	; (1308 <free+0x10>)
    12fc:	0001      	movs	r1, r0
    12fe:	6818      	ldr	r0, [r3, #0]
    1300:	f000 f816 	bl	1330 <_free_r>
    1304:	bd10      	pop	{r4, pc}
    1306:	46c0      	nop			; (mov r8, r8)
    1308:	1ffff148 	svcne	0x00fff148

0000130c <memcpy>:
    130c:	2300      	movs	r3, #0
    130e:	b510      	push	{r4, lr}
    1310:	429a      	cmp	r2, r3
    1312:	d003      	beq.n	131c <memcpy+0x10>
    1314:	5ccc      	ldrb	r4, [r1, r3]
    1316:	54c4      	strb	r4, [r0, r3]
    1318:	3301      	adds	r3, #1
    131a:	e7f9      	b.n	1310 <memcpy+0x4>
    131c:	bd10      	pop	{r4, pc}

0000131e <memset>:
    131e:	0003      	movs	r3, r0
    1320:	1882      	adds	r2, r0, r2
    1322:	4293      	cmp	r3, r2
    1324:	d002      	beq.n	132c <memset+0xe>
    1326:	7019      	strb	r1, [r3, #0]
    1328:	3301      	adds	r3, #1
    132a:	e7fa      	b.n	1322 <memset+0x4>
    132c:	4770      	bx	lr
	...

00001330 <_free_r>:
    1330:	b530      	push	{r4, r5, lr}
    1332:	2900      	cmp	r1, #0
    1334:	d03e      	beq.n	13b4 <_free_r+0x84>
    1336:	3904      	subs	r1, #4
    1338:	680b      	ldr	r3, [r1, #0]
    133a:	2b00      	cmp	r3, #0
    133c:	da00      	bge.n	1340 <_free_r+0x10>
    133e:	18c9      	adds	r1, r1, r3
    1340:	4a1d      	ldr	r2, [pc, #116]	; (13b8 <_free_r+0x88>)
    1342:	6813      	ldr	r3, [r2, #0]
    1344:	0014      	movs	r4, r2
    1346:	2b00      	cmp	r3, #0
    1348:	d102      	bne.n	1350 <_free_r+0x20>
    134a:	604b      	str	r3, [r1, #4]
    134c:	6011      	str	r1, [r2, #0]
    134e:	e031      	b.n	13b4 <_free_r+0x84>
    1350:	428b      	cmp	r3, r1
    1352:	d90d      	bls.n	1370 <_free_r+0x40>
    1354:	680a      	ldr	r2, [r1, #0]
    1356:	1888      	adds	r0, r1, r2
    1358:	4283      	cmp	r3, r0
    135a:	d103      	bne.n	1364 <_free_r+0x34>
    135c:	6818      	ldr	r0, [r3, #0]
    135e:	685b      	ldr	r3, [r3, #4]
    1360:	1882      	adds	r2, r0, r2
    1362:	600a      	str	r2, [r1, #0]
    1364:	604b      	str	r3, [r1, #4]
    1366:	6021      	str	r1, [r4, #0]
    1368:	e024      	b.n	13b4 <_free_r+0x84>
    136a:	428a      	cmp	r2, r1
    136c:	d803      	bhi.n	1376 <_free_r+0x46>
    136e:	0013      	movs	r3, r2
    1370:	685a      	ldr	r2, [r3, #4]
    1372:	2a00      	cmp	r2, #0
    1374:	d1f9      	bne.n	136a <_free_r+0x3a>
    1376:	681d      	ldr	r5, [r3, #0]
    1378:	195c      	adds	r4, r3, r5
    137a:	428c      	cmp	r4, r1
    137c:	d10b      	bne.n	1396 <_free_r+0x66>
    137e:	6809      	ldr	r1, [r1, #0]
    1380:	1869      	adds	r1, r5, r1
    1382:	1858      	adds	r0, r3, r1
    1384:	6019      	str	r1, [r3, #0]
    1386:	4282      	cmp	r2, r0
    1388:	d114      	bne.n	13b4 <_free_r+0x84>
    138a:	6810      	ldr	r0, [r2, #0]
    138c:	6852      	ldr	r2, [r2, #4]
    138e:	1841      	adds	r1, r0, r1
    1390:	6019      	str	r1, [r3, #0]
    1392:	605a      	str	r2, [r3, #4]
    1394:	e00e      	b.n	13b4 <_free_r+0x84>
    1396:	428c      	cmp	r4, r1
    1398:	d902      	bls.n	13a0 <_free_r+0x70>
    139a:	230c      	movs	r3, #12
    139c:	6003      	str	r3, [r0, #0]
    139e:	e009      	b.n	13b4 <_free_r+0x84>
    13a0:	6808      	ldr	r0, [r1, #0]
    13a2:	180c      	adds	r4, r1, r0
    13a4:	42a2      	cmp	r2, r4
    13a6:	d103      	bne.n	13b0 <_free_r+0x80>
    13a8:	6814      	ldr	r4, [r2, #0]
    13aa:	6852      	ldr	r2, [r2, #4]
    13ac:	1820      	adds	r0, r4, r0
    13ae:	6008      	str	r0, [r1, #0]
    13b0:	604a      	str	r2, [r1, #4]
    13b2:	6059      	str	r1, [r3, #4]
    13b4:	bd30      	pop	{r4, r5, pc}
    13b6:	46c0      	nop			; (mov r8, r8)
    13b8:	1ffff170 	svcne	0x00fff170

000013bc <_malloc_r>:
    13bc:	2303      	movs	r3, #3
    13be:	b570      	push	{r4, r5, r6, lr}
    13c0:	1ccd      	adds	r5, r1, #3
    13c2:	439d      	bics	r5, r3
    13c4:	3508      	adds	r5, #8
    13c6:	0006      	movs	r6, r0
    13c8:	2d0c      	cmp	r5, #12
    13ca:	d201      	bcs.n	13d0 <_malloc_r+0x14>
    13cc:	250c      	movs	r5, #12
    13ce:	e005      	b.n	13dc <_malloc_r+0x20>
    13d0:	2d00      	cmp	r5, #0
    13d2:	da03      	bge.n	13dc <_malloc_r+0x20>
    13d4:	230c      	movs	r3, #12
    13d6:	2000      	movs	r0, #0
    13d8:	6033      	str	r3, [r6, #0]
    13da:	e040      	b.n	145e <_malloc_r+0xa2>
    13dc:	42a9      	cmp	r1, r5
    13de:	d8f9      	bhi.n	13d4 <_malloc_r+0x18>
    13e0:	4b1f      	ldr	r3, [pc, #124]	; (1460 <_malloc_r+0xa4>)
    13e2:	681c      	ldr	r4, [r3, #0]
    13e4:	001a      	movs	r2, r3
    13e6:	0021      	movs	r1, r4
    13e8:	2900      	cmp	r1, #0
    13ea:	d013      	beq.n	1414 <_malloc_r+0x58>
    13ec:	680b      	ldr	r3, [r1, #0]
    13ee:	1b5b      	subs	r3, r3, r5
    13f0:	d40d      	bmi.n	140e <_malloc_r+0x52>
    13f2:	2b0b      	cmp	r3, #11
    13f4:	d902      	bls.n	13fc <_malloc_r+0x40>
    13f6:	600b      	str	r3, [r1, #0]
    13f8:	18cc      	adds	r4, r1, r3
    13fa:	e01e      	b.n	143a <_malloc_r+0x7e>
    13fc:	428c      	cmp	r4, r1
    13fe:	d102      	bne.n	1406 <_malloc_r+0x4a>
    1400:	6863      	ldr	r3, [r4, #4]
    1402:	6013      	str	r3, [r2, #0]
    1404:	e01a      	b.n	143c <_malloc_r+0x80>
    1406:	684b      	ldr	r3, [r1, #4]
    1408:	6063      	str	r3, [r4, #4]
    140a:	000c      	movs	r4, r1
    140c:	e016      	b.n	143c <_malloc_r+0x80>
    140e:	000c      	movs	r4, r1
    1410:	6849      	ldr	r1, [r1, #4]
    1412:	e7e9      	b.n	13e8 <_malloc_r+0x2c>
    1414:	4c13      	ldr	r4, [pc, #76]	; (1464 <_malloc_r+0xa8>)
    1416:	6823      	ldr	r3, [r4, #0]
    1418:	2b00      	cmp	r3, #0
    141a:	d103      	bne.n	1424 <_malloc_r+0x68>
    141c:	0030      	movs	r0, r6
    141e:	f000 f823 	bl	1468 <_sbrk_r>
    1422:	6020      	str	r0, [r4, #0]
    1424:	0029      	movs	r1, r5
    1426:	0030      	movs	r0, r6
    1428:	f000 f81e 	bl	1468 <_sbrk_r>
    142c:	1c43      	adds	r3, r0, #1
    142e:	d0d1      	beq.n	13d4 <_malloc_r+0x18>
    1430:	2303      	movs	r3, #3
    1432:	1cc4      	adds	r4, r0, #3
    1434:	439c      	bics	r4, r3
    1436:	42a0      	cmp	r0, r4
    1438:	d10a      	bne.n	1450 <_malloc_r+0x94>
    143a:	6025      	str	r5, [r4, #0]
    143c:	0020      	movs	r0, r4
    143e:	2207      	movs	r2, #7
    1440:	300b      	adds	r0, #11
    1442:	1d23      	adds	r3, r4, #4
    1444:	4390      	bics	r0, r2
    1446:	1ac3      	subs	r3, r0, r3
    1448:	d009      	beq.n	145e <_malloc_r+0xa2>
    144a:	425a      	negs	r2, r3
    144c:	50e2      	str	r2, [r4, r3]
    144e:	e006      	b.n	145e <_malloc_r+0xa2>
    1450:	1a21      	subs	r1, r4, r0
    1452:	0030      	movs	r0, r6
    1454:	f000 f808 	bl	1468 <_sbrk_r>
    1458:	1c43      	adds	r3, r0, #1
    145a:	d1ee      	bne.n	143a <_malloc_r+0x7e>
    145c:	e7ba      	b.n	13d4 <_malloc_r+0x18>
    145e:	bd70      	pop	{r4, r5, r6, pc}
    1460:	1ffff170 	svcne	0x00fff170
    1464:	1ffff16c 	svcne	0x00fff16c

00001468 <_sbrk_r>:
    1468:	2300      	movs	r3, #0
    146a:	b570      	push	{r4, r5, r6, lr}
    146c:	4c06      	ldr	r4, [pc, #24]	; (1488 <_sbrk_r+0x20>)
    146e:	0005      	movs	r5, r0
    1470:	0008      	movs	r0, r1
    1472:	6023      	str	r3, [r4, #0]
    1474:	f000 f8dc 	bl	1630 <_sbrk>
    1478:	1c43      	adds	r3, r0, #1
    147a:	d103      	bne.n	1484 <_sbrk_r+0x1c>
    147c:	6823      	ldr	r3, [r4, #0]
    147e:	2b00      	cmp	r3, #0
    1480:	d000      	beq.n	1484 <_sbrk_r+0x1c>
    1482:	602b      	str	r3, [r5, #0]
    1484:	bd70      	pop	{r4, r5, r6, pc}
    1486:	46c0      	nop			; (mov r8, r8)
    1488:	1ffff4ec 	svcne	0x00fff4ec

0000148c <__register_exitproc>:
    148c:	b5f7      	push	{r0, r1, r2, r4, r5, r6, r7, lr}
    148e:	4d2a      	ldr	r5, [pc, #168]	; (1538 <__register_exitproc+0xac>)
    1490:	0006      	movs	r6, r0
    1492:	682c      	ldr	r4, [r5, #0]
    1494:	9100      	str	r1, [sp, #0]
    1496:	0017      	movs	r7, r2
    1498:	9301      	str	r3, [sp, #4]
    149a:	2c00      	cmp	r4, #0
    149c:	d101      	bne.n	14a2 <__register_exitproc+0x16>
    149e:	4c27      	ldr	r4, [pc, #156]	; (153c <__register_exitproc+0xb0>)
    14a0:	602c      	str	r4, [r5, #0]
    14a2:	6863      	ldr	r3, [r4, #4]
    14a4:	2b1f      	cmp	r3, #31
    14a6:	dd15      	ble.n	14d4 <__register_exitproc+0x48>
    14a8:	4b25      	ldr	r3, [pc, #148]	; (1540 <__register_exitproc+0xb4>)
    14aa:	2b00      	cmp	r3, #0
    14ac:	d102      	bne.n	14b4 <__register_exitproc+0x28>
    14ae:	2001      	movs	r0, #1
    14b0:	4240      	negs	r0, r0
    14b2:	e040      	b.n	1536 <__register_exitproc+0xaa>
    14b4:	208c      	movs	r0, #140	; 0x8c
    14b6:	f7ff ff15 	bl	12e4 <malloc>
    14ba:	1e04      	subs	r4, r0, #0
    14bc:	d0f7      	beq.n	14ae <__register_exitproc+0x22>
    14be:	682a      	ldr	r2, [r5, #0]
    14c0:	2300      	movs	r3, #0
    14c2:	6002      	str	r2, [r0, #0]
    14c4:	0002      	movs	r2, r0
    14c6:	3288      	adds	r2, #136	; 0x88
    14c8:	6043      	str	r3, [r0, #4]
    14ca:	6028      	str	r0, [r5, #0]
    14cc:	6013      	str	r3, [r2, #0]
    14ce:	429e      	cmp	r6, r3
    14d0:	d029      	beq.n	1526 <__register_exitproc+0x9a>
    14d2:	e009      	b.n	14e8 <__register_exitproc+0x5c>
    14d4:	2e00      	cmp	r6, #0
    14d6:	d026      	beq.n	1526 <__register_exitproc+0x9a>
    14d8:	0023      	movs	r3, r4
    14da:	3388      	adds	r3, #136	; 0x88
    14dc:	6818      	ldr	r0, [r3, #0]
    14de:	2800      	cmp	r0, #0
    14e0:	d110      	bne.n	1504 <__register_exitproc+0x78>
    14e2:	4b17      	ldr	r3, [pc, #92]	; (1540 <__register_exitproc+0xb4>)
    14e4:	2b00      	cmp	r3, #0
    14e6:	d0e2      	beq.n	14ae <__register_exitproc+0x22>
    14e8:	2084      	movs	r0, #132	; 0x84
    14ea:	0040      	lsls	r0, r0, #1
    14ec:	f7ff fefa 	bl	12e4 <malloc>
    14f0:	2800      	cmp	r0, #0
    14f2:	d0dc      	beq.n	14ae <__register_exitproc+0x22>
    14f4:	0003      	movs	r3, r0
    14f6:	2200      	movs	r2, #0
    14f8:	33fc      	adds	r3, #252	; 0xfc
    14fa:	605a      	str	r2, [r3, #4]
    14fc:	609a      	str	r2, [r3, #8]
    14fe:	0023      	movs	r3, r4
    1500:	3388      	adds	r3, #136	; 0x88
    1502:	6018      	str	r0, [r3, #0]
    1504:	2301      	movs	r3, #1
    1506:	6861      	ldr	r1, [r4, #4]
    1508:	408b      	lsls	r3, r1
    150a:	008a      	lsls	r2, r1, #2
    150c:	1882      	adds	r2, r0, r2
    150e:	c280      	stmia	r2!, {r7}
    1510:	30fc      	adds	r0, #252	; 0xfc
    1512:	6841      	ldr	r1, [r0, #4]
    1514:	4319      	orrs	r1, r3
    1516:	6041      	str	r1, [r0, #4]
    1518:	9901      	ldr	r1, [sp, #4]
    151a:	67d1      	str	r1, [r2, #124]	; 0x7c
    151c:	2e02      	cmp	r6, #2
    151e:	d102      	bne.n	1526 <__register_exitproc+0x9a>
    1520:	6882      	ldr	r2, [r0, #8]
    1522:	4313      	orrs	r3, r2
    1524:	6083      	str	r3, [r0, #8]
    1526:	2000      	movs	r0, #0
    1528:	6863      	ldr	r3, [r4, #4]
    152a:	1c5a      	adds	r2, r3, #1
    152c:	6062      	str	r2, [r4, #4]
    152e:	3302      	adds	r3, #2
    1530:	9a00      	ldr	r2, [sp, #0]
    1532:	009b      	lsls	r3, r3, #2
    1534:	511a      	str	r2, [r3, r4]
    1536:	bdfe      	pop	{r1, r2, r3, r4, r5, r6, r7, pc}
    1538:	1ffff200 	svcne	0x00fff200
    153c:	1ffff174 	svcne	0x00fff174
    1540:	000012e5 	andeq	r1, r0, r5, ror #5

00001544 <__call_exitprocs>:
    1544:	b5f0      	push	{r4, r5, r6, r7, lr}
    1546:	b087      	sub	sp, #28
    1548:	9005      	str	r0, [sp, #20]
    154a:	9103      	str	r1, [sp, #12]
    154c:	4d35      	ldr	r5, [pc, #212]	; (1624 <__call_exitprocs+0xe0>)
    154e:	682c      	ldr	r4, [r5, #0]
    1550:	2c00      	cmp	r4, #0
    1552:	d064      	beq.n	161e <__call_exitprocs+0xda>
    1554:	0023      	movs	r3, r4
    1556:	3388      	adds	r3, #136	; 0x88
    1558:	681e      	ldr	r6, [r3, #0]
    155a:	6863      	ldr	r3, [r4, #4]
    155c:	1e5a      	subs	r2, r3, #1
    155e:	9201      	str	r2, [sp, #4]
    1560:	4a31      	ldr	r2, [pc, #196]	; (1628 <__call_exitprocs+0xe4>)
    1562:	189b      	adds	r3, r3, r2
    1564:	009b      	lsls	r3, r3, #2
    1566:	18f7      	adds	r7, r6, r3
    1568:	3304      	adds	r3, #4
    156a:	18e3      	adds	r3, r4, r3
    156c:	9302      	str	r3, [sp, #8]
    156e:	9b01      	ldr	r3, [sp, #4]
    1570:	2b00      	cmp	r3, #0
    1572:	db3e      	blt.n	15f2 <__call_exitprocs+0xae>
    1574:	9b03      	ldr	r3, [sp, #12]
    1576:	2b00      	cmp	r3, #0
    1578:	d00e      	beq.n	1598 <__call_exitprocs+0x54>
    157a:	2e00      	cmp	r6, #0
    157c:	d106      	bne.n	158c <__call_exitprocs+0x48>
    157e:	9b01      	ldr	r3, [sp, #4]
    1580:	3f04      	subs	r7, #4
    1582:	3b01      	subs	r3, #1
    1584:	9301      	str	r3, [sp, #4]
    1586:	9b02      	ldr	r3, [sp, #8]
    1588:	3b04      	subs	r3, #4
    158a:	e7ef      	b.n	156c <__call_exitprocs+0x28>
    158c:	003b      	movs	r3, r7
    158e:	3380      	adds	r3, #128	; 0x80
    1590:	681b      	ldr	r3, [r3, #0]
    1592:	9a03      	ldr	r2, [sp, #12]
    1594:	429a      	cmp	r2, r3
    1596:	d1f2      	bne.n	157e <__call_exitprocs+0x3a>
    1598:	6862      	ldr	r2, [r4, #4]
    159a:	9b02      	ldr	r3, [sp, #8]
    159c:	9901      	ldr	r1, [sp, #4]
    159e:	3a01      	subs	r2, #1
    15a0:	685b      	ldr	r3, [r3, #4]
    15a2:	4291      	cmp	r1, r2
    15a4:	d101      	bne.n	15aa <__call_exitprocs+0x66>
    15a6:	6061      	str	r1, [r4, #4]
    15a8:	e002      	b.n	15b0 <__call_exitprocs+0x6c>
    15aa:	2200      	movs	r2, #0
    15ac:	9902      	ldr	r1, [sp, #8]
    15ae:	604a      	str	r2, [r1, #4]
    15b0:	2b00      	cmp	r3, #0
    15b2:	d0e4      	beq.n	157e <__call_exitprocs+0x3a>
    15b4:	6862      	ldr	r2, [r4, #4]
    15b6:	9204      	str	r2, [sp, #16]
    15b8:	2e00      	cmp	r6, #0
    15ba:	d007      	beq.n	15cc <__call_exitprocs+0x88>
    15bc:	2201      	movs	r2, #1
    15be:	9901      	ldr	r1, [sp, #4]
    15c0:	408a      	lsls	r2, r1
    15c2:	0031      	movs	r1, r6
    15c4:	31fc      	adds	r1, #252	; 0xfc
    15c6:	6848      	ldr	r0, [r1, #4]
    15c8:	4210      	tst	r0, r2
    15ca:	d101      	bne.n	15d0 <__call_exitprocs+0x8c>
    15cc:	4798      	blx	r3
    15ce:	e008      	b.n	15e2 <__call_exitprocs+0x9e>
    15d0:	6889      	ldr	r1, [r1, #8]
    15d2:	4211      	tst	r1, r2
    15d4:	d103      	bne.n	15de <__call_exitprocs+0x9a>
    15d6:	6839      	ldr	r1, [r7, #0]
    15d8:	9805      	ldr	r0, [sp, #20]
    15da:	4798      	blx	r3
    15dc:	e001      	b.n	15e2 <__call_exitprocs+0x9e>
    15de:	6838      	ldr	r0, [r7, #0]
    15e0:	4798      	blx	r3
    15e2:	9b04      	ldr	r3, [sp, #16]
    15e4:	6862      	ldr	r2, [r4, #4]
    15e6:	4293      	cmp	r3, r2
    15e8:	d1b0      	bne.n	154c <__call_exitprocs+0x8>
    15ea:	682b      	ldr	r3, [r5, #0]
    15ec:	429c      	cmp	r4, r3
    15ee:	d0c6      	beq.n	157e <__call_exitprocs+0x3a>
    15f0:	e7ac      	b.n	154c <__call_exitprocs+0x8>
    15f2:	4b0e      	ldr	r3, [pc, #56]	; (162c <__call_exitprocs+0xe8>)
    15f4:	2b00      	cmp	r3, #0
    15f6:	d012      	beq.n	161e <__call_exitprocs+0xda>
    15f8:	6862      	ldr	r2, [r4, #4]
    15fa:	6823      	ldr	r3, [r4, #0]
    15fc:	2a00      	cmp	r2, #0
    15fe:	d10b      	bne.n	1618 <__call_exitprocs+0xd4>
    1600:	2b00      	cmp	r3, #0
    1602:	d009      	beq.n	1618 <__call_exitprocs+0xd4>
    1604:	602b      	str	r3, [r5, #0]
    1606:	2e00      	cmp	r6, #0
    1608:	d002      	beq.n	1610 <__call_exitprocs+0xcc>
    160a:	0030      	movs	r0, r6
    160c:	f7ff fe74 	bl	12f8 <free>
    1610:	0020      	movs	r0, r4
    1612:	f7ff fe71 	bl	12f8 <free>
    1616:	e79a      	b.n	154e <__call_exitprocs+0xa>
    1618:	0025      	movs	r5, r4
    161a:	001c      	movs	r4, r3
    161c:	e798      	b.n	1550 <__call_exitprocs+0xc>
    161e:	b007      	add	sp, #28
    1620:	bdf0      	pop	{r4, r5, r6, r7, pc}
    1622:	46c0      	nop			; (mov r8, r8)
    1624:	1ffff200 	svcne	0x00fff200
    1628:	3fffffff 	svccc	0x00ffffff
    162c:	000012f9 	strdeq	r1, [r0], -r9

00001630 <_sbrk>:
    1630:	4a04      	ldr	r2, [pc, #16]	; (1644 <_sbrk+0x14>)
    1632:	6813      	ldr	r3, [r2, #0]
    1634:	2b00      	cmp	r3, #0
    1636:	d003      	beq.n	1640 <_sbrk+0x10>
    1638:	1818      	adds	r0, r3, r0
    163a:	6010      	str	r0, [r2, #0]
    163c:	0018      	movs	r0, r3
    163e:	4770      	bx	lr
    1640:	4b01      	ldr	r3, [pc, #4]	; (1648 <_sbrk+0x18>)
    1642:	e7f9      	b.n	1638 <_sbrk+0x8>
    1644:	1ffff204 	svcne	0x00fff204
    1648:	1ffff4f0 	svcne	0x00fff4f0

0000164c <_exit>:
    164c:	e7fe      	b.n	164c <_exit>
    164e:	46c0      	nop			; (mov r8, r8)

00001650 <CwLetterData>:
    1650:	6c8a8e50 	stcvs	14, cr8, [sl], {80}	; 0x50
    1654:	9e649a30 	mcrls	10, 3, r9, cr4, cr0, {1}
    1658:	96689058 			; <UNDEFINED> instruction: 0x96689058
    165c:	92604840 	rsbls	r4, r0, #64, 16	; 0x400000
    1660:	207c749a 			; <UNDEFINED> instruction: 0x207c749a
    1664:	8c709c78 	ldclhi	12, cr9, [r0], #-480	; 0xfffffe20
    1668:	b0a08688 	adclt	r8, r0, r8, lsl #13

0000166a <CwNumberData>:
    166a:	bcb8b0a0 	ldclt	0, cr11, [r8], #640	; 0x280
    166e:	a7afbfbe 			; <UNDEFINED> instruction: 0xa7afbfbe
    1672:	4241a1a3 	submi	sl, r1, #-1073741784	; 0xc0000028
    1676:	004a5431 	subeq	r5, sl, r1, lsr r4
    167a:	2e353431 	mrccs	4, 1, r3, cr5, cr1, {1}
    167e:	30303933 	eorscc	r3, r0, r3, lsr r9
    1682:	410a0d00 	tstmi	sl, r0, lsl #26
    1686:	4d442b54 	vstrmi	d18, [r4, #-336]	; 0xfffffeb0
    168a:	4e4f434f 	cdpmi	3, 4, cr4, cr15, cr15, {2}
    168e:	5443454e 	strbpl	r4, [r3], #-1358	; 0xfffffab2
    1692:	41000a0d 	tstmi	r0, sp, lsl #20
    1696:	4d442b54 	vstrmi	d18, [r4, #-336]	; 0xfffffeb0
    169a:	5445534f 	strbpl	r5, [r5], #-847	; 0xfffffcb1
    169e:	554f5247 	strbpl	r5, [pc, #-583]	; 145f <_malloc_r+0xa3>
    16a2:	2c303d50 	ldccs	13, cr3, [r0], #-320	; 0xfffffec0
    16a6:	2e353431 	mrccs	4, 1, r3, cr5, cr1, {1}
    16aa:	30303933 	eorscc	r3, r0, r3, lsr r9
    16ae:	3534312c 	ldrcc	r3, [r4, #-300]!	; 0xfffffed4
    16b2:	3039332e 	eorscc	r3, r9, lr, lsr #6
    16b6:	30302c30 	eorscc	r2, r0, r0, lsr ip
    16ba:	372c3030 			; <UNDEFINED> instruction: 0x372c3030
    16be:	3030302c 	eorscc	r3, r0, ip, lsr #32
    16c2:	000a0d30 	andeq	r0, sl, r0, lsr sp
    16c6:	54314241 	ldrtpl	r4, [r1], #-577	; 0xfffffdbf
    16ca:	4554204a 	ldrbmi	r2, [r4, #-74]	; 0xffffffb6
    16ce:	4e495453 	mcrmi	4, 2, r5, cr9, cr3, {2}
    16d2:	614c2047 	cmpvs	ip, r7, asr #32
    16d6:	00203a74 	eoreq	r3, r0, r4, ror sl
    16da:	6f6c202c 	svcvs	0x006c202c
    16de:	00203a6e 	eoreq	r3, r0, lr, ror #20
    16e2:	61616161 	cmnvs	r1, r1, ror #2
    16e6:	61616161 	cmnvs	r1, r1, ror #2
    16ea:	61616161 	cmnvs	r1, r1, ror #2
    16ee:	61616161 	cmnvs	r1, r1, ror #2
    16f2:	61616161 	cmnvs	r1, r1, ror #2
    16f6:	61616161 	cmnvs	r1, r1, ror #2
    16fa:	61616161 	cmnvs	r1, r1, ror #2
    16fe:	61616161 	cmnvs	r1, r1, ror #2
    1702:	61616161 	cmnvs	r1, r1, ror #2
    1706:	61616161 	cmnvs	r1, r1, ror #2
    170a:	61616161 	cmnvs	r1, r1, ror #2
    170e:	61616161 	cmnvs	r1, r1, ror #2
    1712:	61616161 	cmnvs	r1, r1, ror #2
    1716:	61616161 	cmnvs	r1, r1, ror #2
    171a:	61616161 	cmnvs	r1, r1, ror #2
    171e:	61616161 	cmnvs	r1, r1, ror #2
    1722:	61616161 	cmnvs	r1, r1, ror #2
    1726:	61616161 	cmnvs	r1, r1, ror #2
    172a:	61616161 	cmnvs	r1, r1, ror #2
    172e:	61616161 	cmnvs	r1, r1, ror #2
    1732:	61616161 	cmnvs	r1, r1, ror #2
    1736:	61616161 	cmnvs	r1, r1, ror #2
    173a:	61616161 	cmnvs	r1, r1, ror #2
    173e:	61616161 	cmnvs	r1, r1, ror #2
    1742:	61616161 	cmnvs	r1, r1, ror #2
    1746:	61616161 	cmnvs	r1, r1, ror #2
    174a:	61616161 	cmnvs	r1, r1, ror #2
    174e:	61616161 	cmnvs	r1, r1, ror #2
    1752:	61616161 	cmnvs	r1, r1, ror #2
    1756:	61616161 	cmnvs	r1, r1, ror #2
    175a:	61616161 	cmnvs	r1, r1, ror #2
    175e:	61616161 	cmnvs	r1, r1, ror #2
    1762:	61616161 	cmnvs	r1, r1, ror #2
    1766:	61616161 	cmnvs	r1, r1, ror #2
    176a:	61616161 	cmnvs	r1, r1, ror #2
    176e:	61616161 	cmnvs	r1, r1, ror #2
    1772:	61616161 	cmnvs	r1, r1, ror #2
    1776:	61616161 	cmnvs	r1, r1, ror #2
    177a:	61616161 	cmnvs	r1, r1, ror #2
    177e:	61616161 	cmnvs	r1, r1, ror #2
    1782:	61616161 	cmnvs	r1, r1, ror #2
    1786:	61616161 	cmnvs	r1, r1, ror #2
    178a:	61616161 	cmnvs	r1, r1, ror #2
    178e:	61616161 	cmnvs	r1, r1, ror #2
    1792:	61616161 	cmnvs	r1, r1, ror #2
    1796:	61616161 	cmnvs	r1, r1, ror #2
    179a:	61616161 	cmnvs	r1, r1, ror #2
    179e:	61616161 	cmnvs	r1, r1, ror #2
    17a2:	61616161 	cmnvs	r1, r1, ror #2
    17a6:	61616161 	cmnvs	r1, r1, ror #2
    17aa:	43006161 	movwmi	r6, #353	; 0x161
	...

000017b0 <_global_impure_ptr>:
    17b0:	1ffff0e8 	svcne	0x00fff0e8

000017b4 <_init>:
    17b4:	b5f8      	push	{r3, r4, r5, r6, r7, lr}
    17b6:	46c0      	nop			; (mov r8, r8)
    17b8:	bcf8      	pop	{r3, r4, r5, r6, r7}
    17ba:	bc08      	pop	{r3}
    17bc:	469e      	mov	lr, r3
    17be:	4770      	bx	lr

000017c0 <_fini>:
    17c0:	b5f8      	push	{r3, r4, r5, r6, r7, lr}
    17c2:	46c0      	nop			; (mov r8, r8)
    17c4:	bcf8      	pop	{r3, r4, r5, r6, r7}
    17c6:	bc08      	pop	{r3}
    17c8:	469e      	mov	lr, r3
    17ca:	4770      	bx	lr

Disassembly of section .ARM:

000017cc <__exidx_start>:
    17cc:	7fffec44 	svcvc	0x00ffec44
    17d0:	00000001 	andeq	r0, r0, r1

Disassembly of section .init_array:

000017d4 <__CTOR_END__>:
    17d4:	000004c1 	andeq	r0, r0, r1, asr #9

Disassembly of section .fini_array:

000017d8 <__do_global_dtors_aux_fini_array_entry>:
    17d8:	00000495 	muleq	r0, r5, r4

Disassembly of section .data:

1ffff000 <__DATA_RAM>:
1ffff000:	01fe01d1 	ldrsbeq	r0, [lr, #17]!
1ffff004:	0258022b 	subseq	r0, r8, #-1342177278	; 0xb0000002
1ffff008:	02ac0282 	adceq	r0, ip, #536870920	; 0x20000008
1ffff00c:	02f702d3 	rscseq	r0, r7, #805306381	; 0x3000000d
1ffff010:	03390318 	teqeq	r9, #24, 6	; 0x60000000
1ffff014:	03690354 	cmneq	r9, #84, 6	; 0x50000001
1ffff018:	038d037e 	orreq	r0, sp, #-134217727	; 0xf8000001
1ffff01c:	039f0399 	orrseq	r0, pc, #1677721602	; 0x64000002
1ffff020:	039f03a2 	orrseq	r0, pc, #-2013265918	; 0x88000002
1ffff024:	038d0399 	orreq	r0, sp, #1677721602	; 0x64000002
1ffff028:	0369037e 	cmneq	r9, #-134217727	; 0xf8000001
1ffff02c:	03390354 	teqeq	r9, #84, 6	; 0x50000001
1ffff030:	02f70318 	rscseq	r0, r7, #24, 6	; 0x60000000
1ffff034:	02ac02d3 	adceq	r0, ip, #805306381	; 0x3000000d
1ffff038:	02580282 	subseq	r0, r8, #536870920	; 0x20000008
1ffff03c:	01fe022b 	mvnseq	r0, fp, lsr #4
1ffff040:	01a101d1 	ldrdeq	r0, [r1, r1]!
1ffff044:	014a0174 	hvceq	40980	; 0xa014
1ffff048:	00f3011d 	rscseq	r0, r3, sp, lsl r1
1ffff04c:	00a800cc 	adceq	r0, r8, ip, asr #1
1ffff050:	00690087 	rsbeq	r0, r9, r7, lsl #1
1ffff054:	0036004e 	eorseq	r0, r6, lr, asr #32
1ffff058:	00120021 	andseq	r0, r2, r1, lsr #32
1ffff05c:	00000006 	andeq	r0, r0, r6
1ffff060:	00000000 	andeq	r0, r0, r0
1ffff064:	00120006 	andseq	r0, r2, r6
1ffff068:	00360021 	eorseq	r0, r6, r1, lsr #32
1ffff06c:	0069004e 	rsbeq	r0, r9, lr, asr #32
1ffff070:	00a80087 	adceq	r0, r8, r7, lsl #1
1ffff074:	00f300cc 	rscseq	r0, r3, ip, asr #1
1ffff078:	014a011d 	cmpeq	sl, sp, lsl r1
1ffff07c:	01a10174 			; <UNDEFINED> instruction: 0x01a10174

1ffff080 <fmt>:
1ffff080:	52504724 	subspl	r4, r0, #36, 14	; 0x900000
1ffff084:	742c434d 	strtvc	r4, [ip], #-845	; 0xfffffcb3
1ffff088:	612c732c 	teqvs	ip, ip, lsr #6
1ffff08c:	6f2c412c 	svcvs	0x002c412c
1ffff090:	6b2c4f2c 	blvs	20b12d48 <__StackTop+0xb0fd48>
1ffff094:	642c632c 	strtvs	r6, [ip], #-812	; 0xfffffcd4
1ffff098:	2c6d452c 	cfstr64cs	mvdx4, [sp], #-176	; 0xffffff50
1ffff09c:	4343434d 	movtmi	r4, #13133	; 0x334d
1ffff0a0:	47240045 	strmi	r0, [r4, -r5, asr #32]!

1ffff0a2 <nmea_test>:
1ffff0a2:	52504724 	subspl	r4, r0, #36, 14	; 0x900000
1ffff0a6:	312c434d 	teqcc	ip, sp, asr #6
1ffff0aa:	34313434 	ldrtcc	r3, [r1], #-1076	; 0xfffffbcc
1ffff0ae:	30302e30 	eorscc	r2, r0, r0, lsr lr
1ffff0b2:	312c412c 	teqcc	ip, ip, lsr #2
1ffff0b6:	2e333332 	mrccs	3, 1, r3, cr3, cr2, {1}
1ffff0ba:	37363131 			; <UNDEFINED> instruction: 0x37363131
1ffff0be:	2c4e2c31 	mcrrcs	12, 3, r2, lr, cr1
1ffff0c2:	33343231 	teqcc	r4, #268435459	; 0x10000003
1ffff0c6:	31372e35 	teqcc	r7, r5, lsr lr
1ffff0ca:	2c343933 	ldccs	9, cr3, [r4], #-204	; 0xffffff34
1ffff0ce:	2e302c57 	mrccs	12, 1, r2, cr0, cr7, {2}
1ffff0d2:	2c383231 	lfmcs	f3, 4, [r8], #-196	; 0xffffff3c
1ffff0d6:	3031332c 	eorscc	r3, r1, ip, lsr #6
1ffff0da:	2c353138 	ldfcss	f3, [r5], #-224	; 0xffffff20
1ffff0de:	2a412c2c 	bcs	2104a196 <__StackTop+0x1047196>
1ffff0e2:	00004436 	andeq	r4, r0, r6, lsr r4
	...

1ffff0e8 <impure_data>:
	...
1ffff108:	000017ad 	andeq	r1, r0, sp, lsr #15
	...

1ffff148 <_impure_ptr>:
1ffff148:	1ffff0e8 	svcne	0x00fff0e8

1ffff14c <__JCR_END__>:
1ffff14c:	00000000 	andeq	r0, r0, r0

Disassembly of section .bss:

1ffff150 <__START_BSS>:
1ffff150:	00000000 	andeq	r0, r0, r0

1ffff154 <object.8363>:
	...

1ffff16c <__malloc_sbrk_start>:
1ffff16c:	00000000 	andeq	r0, r0, r0

1ffff170 <__malloc_free_list>:
1ffff170:	00000000 	andeq	r0, r0, r0

1ffff174 <_global_atexit0>:
	...

1ffff200 <_global_atexit>:
1ffff200:	00000000 	andeq	r0, r0, r0

1ffff204 <heap_end.4167>:
1ffff204:	00000000 	andeq	r0, r0, r0

1ffff208 <ax25OnesCount>:
	...

1ffff209 <ax25CurrBit>:
	...

1ffff20a <ax25CRC>:
	...

1ffff20c <ax25SinIndex>:
1ffff20c:	00000000 	andeq	r0, r0, r0

1ffff210 <ax25CurrByte>:
	...

1ffff211 <ax25Sending>:
1ffff211:	00000000 	andeq	r0, r0, r0

1ffff214 <ax25CurrDelay>:
1ffff214:	00000000 	andeq	r0, r0, r0

1ffff218 <ax25Padding>:
1ffff218:	00000000 	andeq	r0, r0, r0

1ffff21c <ax25DataPtr>:
1ffff21c:	00000000 	andeq	r0, r0, r0

1ffff220 <ax25Preamble>:
1ffff220:	00000000 	andeq	r0, r0, r0

1ffff224 <ax25BytesLeft>:
1ffff224:	00000000 	andeq	r0, r0, r0

1ffff228 <sinIndex>:
1ffff228:	00000000 	andeq	r0, r0, r0

1ffff22c <PITData>:
	...

1ffff234 <uart0Data>:
	...

1ffff2f8 <uart1Data>:
	...

1ffff3bc <uart2Data>:
	...

1ffff480 <draData>:
	...

1ffff4a0 <gpsTerm>:
1ffff4a0:	00000000 	andeq	r0, r0, r0

1ffff4a4 <temp>:
1ffff4a4:	00000000 	andeq	r0, r0, r0

1ffff4a8 <state>:
1ffff4a8:	00000000 	andeq	r0, r0, r0

1ffff4ac <gpsData>:
	...

1ffff4e4 <fix>:
1ffff4e4:	00000000 	andeq	r0, r0, r0

1ffff4e8 <gpsCurField>:
1ffff4e8:	00000000 	andeq	r0, r0, r0

1ffff4ec <errno>:
1ffff4ec:	00000000 	andeq	r0, r0, r0

Disassembly of section .heap:

1ffff4f0 <__HeapBase>:
	...

Disassembly of section .stack:

1ffff8f0 <.stack>:
	...

Disassembly of section .ARM.attributes:

00000000 <.ARM.attributes>:
   0:	00002741 	andeq	r2, r0, r1, asr #14
   4:	61656100 	cmnvs	r5, r0, lsl #2
   8:	01006962 	tsteq	r0, r2, ror #18
   c:	0000001d 	andeq	r0, r0, sp, lsl r0
  10:	2d533605 	ldclcs	6, cr3, [r3, #-20]	; 0xffffffec
  14:	0c06004d 	stceq	0, cr0, [r6], {77}	; 0x4d
  18:	01094d07 	tsteq	r9, r7, lsl #26
  1c:	01140412 	tsteq	r4, r2, lsl r4
  20:	03170115 	tsteq	r7, #1073741829	; 0x40000005
  24:	011a0118 	tsteq	sl, r8, lsl r1

Disassembly of section .debug_info:

00000000 <.debug_info>:
       0:	00000425 	andeq	r0, r0, r5, lsr #8
       4:	00000004 	andeq	r0, r0, r4
       8:	01040000 	mrseq	r0, (UNDEF: 4)
       c:	00000017 	andeq	r0, r0, r7, lsl r0
      10:	0002ba0c 	andeq	fp, r2, ip, lsl #20
      14:	0001a300 	andeq	sl, r1, r0, lsl #6
	...
      24:	06010200 	streq	r0, [r1], -r0, lsl #4
      28:	0000016d 	andeq	r0, r0, sp, ror #2
      2c:	0000ee03 	andeq	lr, r0, r3, lsl #28
      30:	371d0200 	ldrcc	r0, [sp, -r0, lsl #4]
      34:	02000000 	andeq	r0, r0, #0
      38:	016b0801 	cmneq	fp, r1, lsl #16
      3c:	02020000 	andeq	r0, r2, #0
      40:	00011705 	andeq	r1, r1, r5, lsl #14
      44:	010c0300 	mrseq	r0, LR_mon
      48:	2b020000 	blcs	80050 <__DATA_END+0x7e724>
      4c:	00000050 	andeq	r0, r0, r0, asr r0
      50:	dd070202 	sfmle	f0, 4, [r7, #-8]
      54:	02000001 	andeq	r0, r0, #1
      58:	01260504 	teqeq	r6, r4, lsl #10
      5c:	f8030000 			; <UNDEFINED> instruction: 0xf8030000
      60:	02000000 	andeq	r0, r0, #0
      64:	00006941 	andeq	r6, r0, r1, asr #18
      68:	07040200 	streq	r0, [r4, -r0, lsl #4]
      6c:	00000183 	andeq	r0, r0, r3, lsl #3
      70:	21050802 	tstcs	r5, r2, lsl #16
      74:	02000001 	andeq	r0, r0, #1
      78:	017e0708 	cmneq	lr, r8, lsl #14
      7c:	04040000 	streq	r0, [r4], #-0
      80:	746e6905 	strbtvc	r6, [lr], #-2309	; 0xfffff6fb
      84:	07040200 	streq	r0, [r4, -r0, lsl #4]
      88:	00000188 	andeq	r0, r0, r8, lsl #3
      8c:	0000f003 	andeq	pc, r0, r3
      90:	2c140300 	ldccs	3, cr0, [r4], {-0}
      94:	03000000 	movweq	r0, #0
      98:	0000010e 	andeq	r0, r0, lr, lsl #2
      9c:	00451a03 	subeq	r1, r5, r3, lsl #20
      a0:	fa030000 	blx	c00a8 <__DATA_END+0xbe77c>
      a4:	03000000 	movweq	r0, #0
      a8:	00005e20 	andeq	r5, r0, r0, lsr #28
      ac:	07040200 	streq	r0, [r4, -r0, lsl #4]
      b0:	000002a2 	andeq	r0, r0, r2, lsr #5
      b4:	0000a205 	andeq	sl, r0, r5, lsl #4
      b8:	00b40600 	adcseq	r0, r4, r0, lsl #12
      bc:	8c070000 	stchi	0, cr0, [r7], {-0}
      c0:	ce000000 	cdpgt	0, 0, cr0, cr0, cr0, {0}
      c4:	08000000 	stmdaeq	r0, {}	; <UNPREDICTABLE>
      c8:	000000ad 	andeq	r0, r0, sp, lsr #1
      cc:	8c050003 	stchi	0, cr0, [r5], {3}
      d0:	06000000 	streq	r0, [r0], -r0
      d4:	000000ce 	andeq	r0, r0, lr, asr #1
      d8:	00008c07 	andeq	r8, r0, r7, lsl #24
      dc:	0000e800 	andeq	lr, r0, r0, lsl #16
      e0:	00ad0800 	adceq	r0, sp, r0, lsl #16
      e4:	00070000 	andeq	r0, r7, r0
      e8:	9b041009 	blls	104114 <__DATA_END+0x1027e8>
      ec:	0001b70c 	andeq	fp, r1, ip, lsl #14
      f0:	31430a00 	cmpcc	r3, r0, lsl #20
      f4:	0c9c0400 	cfldrseq	mvf0, [ip], {0}
      f8:	000000ce 	andeq	r0, r0, lr, asr #1
      fc:	32430a00 	subcc	r0, r3, #0, 20
     100:	0c9d0400 	cfldrseq	mvf0, [sp], {0}
     104:	000000ce 	andeq	r0, r0, lr, asr #1
     108:	33430a01 	movtcc	r0, #14849	; 0x3a01
     10c:	0c9e0400 	cfldrseq	mvf0, [lr], {0}
     110:	000000ce 	andeq	r0, r0, lr, asr #1
     114:	34430a02 	strbcc	r0, [r3], #-2562	; 0xfffff5fe
     118:	0c9f0400 	cfldrseq	mvf0, [pc], {0}
     11c:	000000ce 	andeq	r0, r0, lr, asr #1
     120:	35430a03 	strbcc	r0, [r3, #-2563]	; 0xfffff5fd
     124:	0ca00400 	cfstrseq	mvf0, [r0]
     128:	000000ce 	andeq	r0, r0, lr, asr #1
     12c:	36430a04 	strbcc	r0, [r3], -r4, lsl #20
     130:	0ca10400 	cfstrseq	mvf0, [r1]
     134:	000000ce 	andeq	r0, r0, lr, asr #1
     138:	00530a05 	subseq	r0, r3, r5, lsl #20
     13c:	ce0ca204 	cdpgt	2, 0, cr10, cr12, cr4, {0}
     140:	06000000 	streq	r0, [r0], -r0
     144:	00023e0b 	andeq	r3, r2, fp, lsl #28
     148:	0ca30400 	cfstrseq	mvf0, [r3]
     14c:	000001b7 			; <UNDEFINED> instruction: 0x000001b7
     150:	43530a07 	cmpmi	r3, #28672	; 0x7000
     154:	0ca40400 	cfstrseq	mvf0, [r4]
     158:	000000ce 	andeq	r0, r0, lr, asr #1
     15c:	02490b08 	subeq	r0, r9, #8, 22	; 0x2000
     160:	a5040000 	strge	r0, [r4, #-0]
     164:	0001b70c 	andeq	fp, r1, ip, lsl #14
     168:	e20b0900 	and	r0, fp, #0, 18
     16c:	04000000 	streq	r0, [r0], #-0
     170:	00ce0ca6 	sbceq	r0, lr, r6, lsr #25
     174:	0b0a0000 	bleq	28017c <__DATA_END+0x27e850>
     178:	000000e8 	andeq	r0, r0, r8, ror #1
     17c:	ce0ca704 	cdpgt	7, 0, cr10, cr12, cr4, {0}
     180:	0b000000 	bleq	188 <M_VECTOR_RAM_SIZE+0x188>
     184:	0002540b 	andeq	r5, r2, fp, lsl #8
     188:	0ca80400 	cfstrseq	mvf0, [r8]
     18c:	000001b7 			; <UNDEFINED> instruction: 0x000001b7
     190:	38430a0c 	stmdacc	r3, {r2, r3, r9, fp}^
     194:	0ca90400 	cfstrseq	mvf0, [r9]
     198:	000000ce 	andeq	r0, r0, lr, asr #1
     19c:	39430a0d 	stmdbcc	r3, {r0, r2, r3, r9, fp}^
     1a0:	0caa0400 	cfstrseq	mvf0, [sl]
     1a4:	000000d3 	ldrdeq	r0, [r0], -r3
     1a8:	31430a0e 	cmpcc	r3, lr, lsl #20
     1ac:	ab040030 	blge	100274 <__DATA_END+0xfe948>
     1b0:	0000d30c 	andeq	sp, r0, ip, lsl #6
     1b4:	07000f00 	streq	r0, [r0, -r0, lsl #30]
     1b8:	0000008c 	andeq	r0, r0, ip, lsl #1
     1bc:	000001c7 	andeq	r0, r0, r7, asr #3
     1c0:	0000ad08 	andeq	sl, r0, r8, lsl #26
     1c4:	0c000000 	stceq	0, cr0, [r0], {-0}
     1c8:	0000020e 	andeq	r0, r0, lr, lsl #4
     1cc:	e80cac04 	stmda	ip, {r2, sl, fp, sp, pc}
     1d0:	07000000 	streq	r0, [r0, -r0]
     1d4:	0000008c 	andeq	r0, r0, ip, lsl #1
     1d8:	000001e3 	andeq	r0, r0, r3, ror #3
     1dc:	0000ad08 	andeq	sl, r0, r8, lsl #26
     1e0:	09009b00 	stmdbeq	r0, {r8, r9, fp, ip, pc}
     1e4:	12320403 	eorsne	r0, r2, #50331648	; 0x3000000
     1e8:	00000214 	andeq	r0, r0, r4, lsl r2
     1ec:	0001950b 	andeq	r9, r1, fp, lsl #10
     1f0:	12330400 	eorsne	r0, r3, #0, 8
     1f4:	000000ce 	andeq	r0, r0, lr, asr #1
     1f8:	019c0b00 	orrseq	r0, ip, r0, lsl #22
     1fc:	34040000 	strcc	r0, [r4], #-0
     200:	0000ce12 	andeq	ip, r0, r2, lsl lr
     204:	b40b0100 	strlt	r0, [fp], #-256	; 0xffffff00
     208:	04000002 	streq	r0, [r0], #-2
     20c:	00ce1235 	sbceq	r1, lr, r5, lsr r2
     210:	00020000 	andeq	r0, r2, r0
     214:	0002ab0c 	andeq	sl, r2, ip, lsl #22
     218:	12360400 	eorsne	r0, r6, #0, 8
     21c:	000001e3 	andeq	r0, r0, r3, ror #3
     220:	0411080d 	ldreq	r0, [r1], #-2061	; 0xfffff7f3
     224:	03a21665 			; <UNDEFINED> instruction: 0x03a21665
     228:	170b0000 	strne	r0, [fp, -r0]
     22c:	04000002 	streq	r0, [r0], #-2
     230:	00b41666 	adcseq	r1, r4, r6, ror #12
     234:	0b000000 	bleq	23c <M_VECTOR_RAM_SIZE+0x23c>
     238:	0000012f 	andeq	r0, r0, pc, lsr #2
     23c:	b4166704 	ldrlt	r6, [r6], #-1796	; 0xfffff8fc
     240:	04000000 	streq	r0, [r0], #-0
     244:	00023e0b 	andeq	r3, r2, fp, lsl #28
     248:	16680400 	strbtne	r0, [r8], -r0, lsl #8
     24c:	000003a2 	andeq	r0, r0, r2, lsr #7
     250:	01500e08 	cmpeq	r0, r8, lsl #28
     254:	69040000 	stmdbvs	r4, {}	; <UNPREDICTABLE>
     258:	0000b416 	andeq	fp, r0, r6, lsl r4
     25c:	0e100400 	cfmulseq	mvf0, mvf0, mvf0
     260:	00000249 	andeq	r0, r0, r9, asr #4
     264:	be166a04 	vnmlslt.f32	s12, s12, s8
     268:	08000000 	stmdaeq	r0, {}	; <UNPREDICTABLE>
     26c:	02dc0e10 	sbcseq	r0, ip, #16, 28	; 0x100
     270:	6b040000 	blvs	100278 <__DATA_END+0xfe94c>
     274:	0000b416 	andeq	fp, r0, r6, lsl r4
     278:	0e100c00 	cdpeq	12, 1, cr0, cr0, cr0, {0}
     27c:	00000000 	andeq	r0, r0, r0
     280:	b4166c04 	ldrlt	r6, [r6], #-3076	; 0xfffff3fc
     284:	10000000 	andne	r0, r0, r0
     288:	02540e10 	subseq	r0, r4, #16, 28	; 0x100
     28c:	6d040000 	stcvs	0, cr0, [r4, #-0]
     290:	0000be16 	andeq	fp, r0, r6, lsl lr
     294:	0e101400 	cfmulseq	mvf1, mvf0, mvf0
     298:	0000015d 	andeq	r0, r0, sp, asr r1
     29c:	b4166e04 	ldrlt	r6, [r6], #-3588	; 0xfffff1fc
     2a0:	18000000 	stmdane	r0, {}	; <UNPREDICTABLE>
     2a4:	025f0e10 	subseq	r0, pc, #16, 28	; 0x100
     2a8:	6f040000 	svcvs	0x00040000
     2ac:	0000d816 	andeq	sp, r0, r6, lsl r8
     2b0:	0e101c00 	cdpeq	12, 1, cr1, cr0, cr0, {0}
     2b4:	00000012 	andeq	r0, r0, r2, lsl r0
     2b8:	b9167004 	ldmdblt	r6, {r2, ip, sp, lr}
     2bc:	24000000 	strcs	r0, [r0], #-0
     2c0:	026a0e10 	rsbeq	r0, sl, #16, 28	; 0x100
     2c4:	71040000 	mrsvc	r0, (UNDEF: 4)
     2c8:	0003b316 	andeq	fp, r3, r6, lsl r3
     2cc:	0e102800 	cdpeq	8, 1, cr2, cr0, cr0, {0}
     2d0:	00000138 	andeq	r0, r0, r8, lsr r1
     2d4:	b4167204 	ldrlt	r7, [r6], #-516	; 0xfffffdfc
     2d8:	34000000 	strcc	r0, [r0], #-0
     2dc:	013e0e10 	teqeq	lr, r0, lsl lr
     2e0:	73040000 	movwvc	r0, #16384	; 0x4000
     2e4:	0000b416 	andeq	fp, r0, r6, lsl r4
     2e8:	0e103800 	cdpeq	8, 1, cr3, cr0, cr0, {0}
     2ec:	00000144 	andeq	r0, r0, r4, asr #2
     2f0:	b4167404 	ldrlt	r7, [r6], #-1028	; 0xfffffbfc
     2f4:	3c000000 	stccc	0, cr0, [r0], {-0}
     2f8:	014a0e10 	cmpeq	sl, r0, lsl lr
     2fc:	75040000 	strvc	r0, [r4, #-0]
     300:	0000b416 	andeq	fp, r0, r6, lsl r4
     304:	0e104000 	cdpeq	0, 1, cr4, cr0, cr0, {0}
     308:	00000163 	andeq	r0, r0, r3, ror #2
     30c:	b4167604 	ldrlt	r7, [r6], #-1540	; 0xfffff9fc
     310:	44000000 	strmi	r0, [r0], #-0
     314:	02750e10 	rsbseq	r0, r5, #16, 28	; 0x100
     318:	77040000 	strvc	r0, [r4, -r0]
     31c:	0000be16 	andeq	fp, r0, r6, lsl lr
     320:	0e104800 	cdpeq	8, 1, cr4, cr0, cr0, {0}
     324:	00000006 	andeq	r0, r0, r6
     328:	b4167804 	ldrlt	r7, [r6], #-2052	; 0xfffff7fc
     32c:	4c000000 	stcmi	0, cr0, [r0], {-0}
     330:	000c0e10 	andeq	r0, ip, r0, lsl lr
     334:	79040000 	stmdbvc	r4, {}	; <UNPREDICTABLE>
     338:	0000b916 	andeq	fp, r0, r6, lsl r9
     33c:	0e105000 	cdpeq	0, 1, cr5, cr0, cr0, {0}
     340:	00000280 	andeq	r0, r0, r0, lsl #5
     344:	be167a04 	vnmlslt.f32	s14, s12, s8
     348:	54000000 	strpl	r0, [r0], #-0
     34c:	02320e10 	eorseq	r0, r2, #16, 28	; 0x100
     350:	7b040000 	blvc	100358 <__DATA_END+0xfea2c>
     354:	0000b916 	andeq	fp, r0, r6, lsl r9
     358:	0e105800 	cdpeq	8, 1, cr5, cr0, cr0, {0}
     35c:	00000238 	andeq	r0, r0, r8, lsr r2
     360:	b9167c04 	ldmdblt	r6, {r2, sl, fp, ip, sp, lr}
     364:	5c000000 	stcpl	0, cr0, [r0], {-0}
     368:	022d0e10 	eoreq	r0, sp, #16, 28	; 0x100
     36c:	7d040000 	stcvc	0, cr0, [r4, #-0]
     370:	0000b916 	andeq	fp, r0, r6, lsl r9
     374:	0e106000 	cdpeq	0, 1, cr6, cr0, cr0, {0}
     378:	0000028b 	andeq	r0, r0, fp, lsl #5
     37c:	d3167e04 	tstle	r6, #4, 28	; 0x40
     380:	64000001 	strvs	r0, [r0], #-1
     384:	01790e10 	cmneq	r9, r0, lsl lr
     388:	7f040000 	svcvc	0x00040000
     38c:	0000b416 	andeq	fp, r0, r6, lsl r4
     390:	0e110000 	cdpeq	0, 1, cr0, cr1, cr0, {0}
     394:	00000156 	andeq	r0, r0, r6, asr r1
     398:	b4168004 	ldrlt	r8, [r6], #-4
     39c:	04000000 	streq	r0, [r0], #-0
     3a0:	8c070011 	stchi	0, cr0, [r7], {17}
     3a4:	b3000000 	movwlt	r0, #0
     3a8:	0f000003 	svceq	0x00000003
     3ac:	000000ad 	andeq	r0, r0, sp, lsr #1
     3b0:	07000ffb 			; <UNDEFINED> instruction: 0x07000ffb
     3b4:	0000008c 	andeq	r0, r0, ip, lsl #1
     3b8:	000003c3 	andeq	r0, r0, r3, asr #7
     3bc:	0000ad08 	andeq	sl, r0, r8, lsl #26
     3c0:	0c000b00 	stceq	11, cr0, [r0], {-0}
     3c4:	00000103 	andeq	r0, r0, r3, lsl #2
     3c8:	20168104 	andscs	r8, r6, r4, lsl #2
     3cc:	10000002 	andne	r0, r0, r2
     3d0:	000001d2 	ldrdeq	r0, [r0], -r2
     3d4:	04f87901 	ldrbteq	r7, [r8], #2305	; 0x901
     3d8:	00240000 	eoreq	r0, r4, r0
     3dc:	9c010000 	stcls	0, cr0, [r1], {-0}
     3e0:	0001f811 	andeq	pc, r1, r1, lsl r8	; <UNPREDICTABLE>
     3e4:	01420100 	mrseq	r0, (UNDEF: 82)
     3e8:	00000000 	andeq	r0, r0, r0
     3ec:	00000134 	andeq	r0, r0, r4, lsr r1
     3f0:	04179c01 	ldreq	r9, [r7], #-3073	; 0xfffff3ff
     3f4:	96120000 	ldrls	r0, [r2], -r0
     3f8:	01000002 	tsteq	r0, r2
     3fc:	00a20144 	adceq	r0, r2, r4, asr #2
     400:	00000000 	andeq	r0, r0, r0
     404:	f0120000 			; <UNDEFINED> instruction: 0xf0120000
     408:	01000001 	tsteq	r0, r1
     40c:	00970145 	addseq	r0, r7, r5, asr #2
     410:	007b0000 	rsbseq	r0, fp, r0
     414:	13000000 	movwne	r0, #0
     418:	0000021d 	andeq	r0, r0, sp, lsl r2
     41c:	00a27301 	adceq	r7, r2, r1, lsl #6
     420:	03050000 	movweq	r0, #20480	; 0x5000
     424:	00000000 	andeq	r0, r0, r0
     428:	00027d00 	andeq	r7, r2, r0, lsl #26
     42c:	06000400 	streq	r0, [r0], -r0, lsl #8
     430:	04000001 	streq	r0, [r0], #-1
     434:	00001701 	andeq	r1, r0, r1, lsl #14
     438:	02e20c00 	rsceq	r0, r2, #0, 24
     43c:	01a30000 			; <UNDEFINED> instruction: 0x01a30000
     440:	00180000 	andseq	r0, r8, r0
     444:	00000000 	andeq	r0, r0, r0
     448:	01120000 	tsteq	r2, r0
     44c:	01020000 	mrseq	r0, (UNDEF: 2)
     450:	00016d06 	andeq	r6, r1, r6, lsl #26
     454:	00ee0300 	rsceq	r0, lr, r0, lsl #6
     458:	1d020000 	stcne	0, cr0, [r2, #-0]
     45c:	00000037 	andeq	r0, r0, r7, lsr r0
     460:	6b080102 	blvs	200870 <__DATA_END+0x1fef44>
     464:	02000001 	andeq	r0, r0, #1
     468:	01170502 	tsteq	r7, r2, lsl #10
     46c:	02020000 	andeq	r0, r2, #0
     470:	0001dd07 	andeq	sp, r1, r7, lsl #26
     474:	05040200 	streq	r0, [r4, #-512]	; 0xfffffe00
     478:	00000126 	andeq	r0, r0, r6, lsr #2
     47c:	0000f803 	andeq	pc, r0, r3, lsl #16
     480:	5e410200 	cdppl	2, 4, cr0, cr1, cr0, {0}
     484:	02000000 	andeq	r0, r0, #0
     488:	01830704 	orreq	r0, r3, r4, lsl #14
     48c:	08020000 	stmdaeq	r2, {}	; <UNPREDICTABLE>
     490:	00012105 	andeq	r2, r1, r5, lsl #2
     494:	07080200 	streq	r0, [r8, -r0, lsl #4]
     498:	0000017e 	andeq	r0, r0, lr, ror r1
     49c:	69050404 	stmdbvs	r5, {r2, sl}
     4a0:	0200746e 	andeq	r7, r0, #1845493760	; 0x6e000000
     4a4:	01880704 	orreq	r0, r8, r4, lsl #14
     4a8:	f0030000 			; <UNDEFINED> instruction: 0xf0030000
     4ac:	03000000 	movweq	r0, #0
     4b0:	00002c14 	andeq	r2, r0, r4, lsl ip
     4b4:	00fa0300 	rscseq	r0, sl, r0, lsl #6
     4b8:	20030000 	andcs	r0, r3, r0
     4bc:	00000053 	andeq	r0, r0, r3, asr r0
     4c0:	a2070402 	andge	r0, r7, #33554432	; 0x2000000
     4c4:	05000002 	streq	r0, [r0, #-2]
     4c8:	013c0428 	teqeq	ip, r8, lsr #8
     4cc:	0000011d 	andeq	r0, r0, sp, lsl r1
     4d0:	00039c06 	andeq	r9, r3, r6, lsl #24
     4d4:	013e0400 	teqeq	lr, r0, lsl #8
     4d8:	00000122 	andeq	r0, r0, r2, lsr #2
     4dc:	03910600 	orrseq	r0, r1, #0, 12
     4e0:	3f040000 	svccc	0x00040000
     4e4:	00011d01 	andeq	r1, r1, r1, lsl #26
     4e8:	0a060400 	beq	1814f0 <__DATA_END+0x17fbc4>
     4ec:	04000003 	streq	r0, [r0], #-3
     4f0:	011d0141 	tsteq	sp, r1, asr #2
     4f4:	06080000 	streq	r0, [r8], -r0
     4f8:	00000396 	muleq	r0, r6, r3
     4fc:	1d014504 	cfstr32ne	mvfx4, [r1, #-16]
     500:	0c000001 	stceq	0, cr0, [r0], {1}
     504:	52435307 	subpl	r5, r3, #469762048	; 0x1c000000
     508:	01460400 	cmpeq	r6, r0, lsl #8
     50c:	0000011d 	andeq	r0, r0, sp, lsl r1
     510:	43430710 	movtmi	r0, #14096	; 0x3710
     514:	47040052 	smlsdmi	r4, r2, r0, r0
     518:	00011d01 	andeq	r1, r1, r1, lsl #26
     51c:	18061400 	stmdane	r6, {sl, ip}
     520:	04000003 	streq	r0, [r0], #-3
     524:	008c0148 	addeq	r0, ip, r8, asr #2
     528:	07180000 	ldreq	r0, [r8, -r0]
     52c:	00504853 	subseq	r4, r0, r3, asr r8
     530:	37014904 	strcc	r4, [r1, -r4, lsl #18]
     534:	1c000001 	stcne	0, cr0, [r0], {1}
     538:	0003bb06 	andeq	fp, r3, r6, lsl #22
     53c:	014a0400 	cmpeq	sl, r0, lsl #8
     540:	0000011d 	andeq	r0, r0, sp, lsl r1
     544:	8c080024 	stchi	0, cr0, [r8], {36}	; 0x24
     548:	09000000 	stmdbeq	r0, {}	; <UNPREDICTABLE>
     54c:	0000011d 	andeq	r0, r0, sp, lsl r1
     550:	00008c0a 	andeq	r8, r0, sl, lsl #24
     554:	00013700 	andeq	r3, r1, r0, lsl #14
     558:	00970b00 	addseq	r0, r7, r0, lsl #22
     55c:	00010000 	andeq	r0, r1, r0
     560:	00012708 	andeq	r2, r1, r8, lsl #14
     564:	037f0c00 	cmneq	pc, #0, 24
     568:	4b040000 	blmi	100570 <__DATA_END+0xfec44>
     56c:	00009e01 	andeq	r9, r0, r1, lsl #28
     570:	03670d00 	cmneq	r7, #0, 26
     574:	3a010000 	bcc	4057c <__DATA_END+0x3ec50>
     578:	0000051c 	andeq	r0, r0, ip, lsl r5
     57c:	0000007c 	andeq	r0, r0, ip, ror r0
     580:	02059c01 	andeq	r9, r5, #256	; 0x100
     584:	6e0e0000 	cdpvs	0, 0, cr0, cr14, cr0, {0}
     588:	8c3c0100 	ldfhis	f0, [ip], #-0
     58c:	d7000000 	strle	r0, [r0, -r0]
     590:	0f000000 	svceq	0x00000000
     594:	00000358 	andeq	r0, r0, r8, asr r3
     598:	02054c01 	andeq	r4, r5, #256	; 0x100
     59c:	fd0f0000 	stc2	0, cr0, [pc, #-0]	; 5a4 <enqueue+0xc>
     5a0:	01000002 	tsteq	r0, r2
     5a4:	0002054d 	andeq	r0, r2, sp, asr #10
     5a8:	03c10f00 	biceq	r0, r1, #0, 30
     5ac:	4e010000 	cdpmi	0, 0, cr0, cr1, cr0, {0}
     5b0:	00000205 	andeq	r0, r0, r5, lsl #4
     5b4:	00033510 	andeq	r3, r3, r0, lsl r5
     5b8:	8c4f0100 	stfhie	f0, [pc], {-0}
     5bc:	10000000 	andne	r0, r0, r0
     5c0:	0000030f 	andeq	r0, r0, pc, lsl #6
     5c4:	02106601 	andseq	r6, r0, #1048576	; 0x100000
     5c8:	88100000 	ldmdahi	r0, {}	; <UNPREDICTABLE>
     5cc:	01000003 	tsteq	r0, r3
     5d0:	00021066 	andeq	r1, r2, r6, rrx
     5d4:	03ae1000 			; <UNDEFINED> instruction: 0x03ae1000
     5d8:	66010000 	strvs	r0, [r1], -r0
     5dc:	00000210 	andeq	r0, r0, r0, lsl r2
     5e0:	0003df10 	andeq	sp, r3, r0, lsl pc
     5e4:	10670100 	rsbne	r0, r7, r0, lsl #2
     5e8:	10000002 	andne	r0, r0, r2
     5ec:	00000322 	andeq	r0, r0, r2, lsr #6
     5f0:	02106701 	andseq	r6, r0, #262144	; 0x40000
     5f4:	4d0f0000 	stcmi	0, cr0, [pc, #-0]	; 5fc <initQueue+0x4>
     5f8:	01000003 	tsteq	r0, r3
     5fc:	0002056b 	andeq	r0, r2, fp, ror #10
     600:	03e90f00 	mvneq	r0, #0, 30
     604:	6c010000 	stcvs	0, cr0, [r1], {-0}
     608:	00000205 	andeq	r0, r0, r5, lsl #4
     60c:	00032a0f 	andeq	r2, r3, pc, lsl #20
     610:	166d0100 	strbtne	r0, [sp], -r0, lsl #2
     614:	0f000002 	svceq	0x00000002
     618:	000003a2 	andeq	r0, r0, r2, lsr #7
     61c:	02167c01 	andseq	r7, r6, #256	; 0x100
     620:	750f0000 	strvc	r0, [pc, #-0]	; 628 <ax25ChangeDac+0x14>
     624:	01000003 	tsteq	r0, r3
     628:	0002167d 	andeq	r1, r2, sp, ror r6
     62c:	8c0a0000 	stchi	0, cr0, [sl], {-0}
     630:	10000000 	andne	r0, r0, r0
     634:	11000002 	tstne	r0, r2
     638:	81041200 	mrshi	r1, R12_usr
     63c:	0a000000 	beq	644 <ax25ChangeDac+0x30>
     640:	00000221 	andeq	r0, r0, r1, lsr #4
     644:	00000221 	andeq	r0, r0, r1, lsr #4
     648:	01020011 	tsteq	r2, r1, lsl r0
     64c:	00017408 	andeq	r7, r1, r8, lsl #8
     650:	03580f00 	cmpeq	r8, #0, 30
     654:	4c010000 	stcmi	0, cr0, [r1], {-0}
     658:	00000205 	andeq	r0, r0, r5, lsl #4
     65c:	0002fd0f 	andeq	pc, r2, pc, lsl #26
     660:	054d0100 	strbeq	r0, [sp, #-256]	; 0xffffff00
     664:	0f000002 	svceq	0x00000002
     668:	000003c1 	andeq	r0, r0, r1, asr #7
     66c:	02054e01 	andeq	r4, r5, #1, 28
     670:	4d0f0000 	stcmi	0, cr0, [pc, #-0]	; 678 <ax25StartToneTimer+0x8>
     674:	01000003 	tsteq	r0, r3
     678:	0002056b 	andeq	r0, r2, fp, ror #10
     67c:	03e90f00 	mvneq	r0, #0, 30
     680:	6c010000 	stcvs	0, cr0, [r1], {-0}
     684:	00000205 	andeq	r0, r0, r5, lsl #4
     688:	00032a0f 	andeq	r2, r3, pc, lsl #20
     68c:	166d0100 	strbtne	r0, [sp], -r0, lsl #2
     690:	0f000002 	svceq	0x00000002
     694:	000003a2 	andeq	r0, r0, r2, lsr #7
     698:	02167c01 	andseq	r7, r6, #256	; 0x100
     69c:	750f0000 	strvc	r0, [pc, #-0]	; 6a4 <ax25StopTimers+0x20>
     6a0:	01000003 	tsteq	r0, r3
     6a4:	0002167d 	andeq	r1, r2, sp, ror r6
     6a8:	021d0000 	andseq	r0, sp, #0
     6ac:	00040000 	andeq	r0, r4, r0
     6b0:	000001ea 	andeq	r0, r0, sl, ror #3
     6b4:	00170104 	andseq	r0, r7, r4, lsl #2
     6b8:	310c0000 	mrscc	r0, (UNDEF: 12)
     6bc:	a3000004 	movwge	r0, #4
     6c0:	28000001 	stmdacs	r0, {r0}
     6c4:	00000000 	andeq	r0, r0, r0
     6c8:	04000000 	streq	r0, [r0], #-0
     6cc:	02000002 	andeq	r0, r0, #2
     6d0:	01880704 	orreq	r0, r8, r4, lsl #14
     6d4:	04030000 	streq	r0, [r3], #-0
     6d8:	746e6905 	strbtvc	r6, [lr], #-2309	; 0xfffff6fb
     6dc:	06010200 	streq	r0, [r1], -r0, lsl #4
     6e0:	0000016d 	andeq	r0, r0, sp, ror #2
     6e4:	6b080102 	blvs	200af4 <__DATA_END+0x1ff1c8>
     6e8:	02000001 	andeq	r0, r0, #1
     6ec:	01170502 	tsteq	r7, r2, lsl #10
     6f0:	02020000 	andeq	r0, r2, #0
     6f4:	0001dd07 	andeq	sp, r1, r7, lsl #26
     6f8:	05040200 	streq	r0, [r4, #-512]	; 0xfffffe00
     6fc:	00000126 	andeq	r0, r0, r6, lsr #2
     700:	83070402 	movwhi	r0, #29698	; 0x7402
     704:	02000001 	andeq	r0, r0, #1
     708:	01210508 	teqeq	r1, r8, lsl #10
     70c:	08020000 	stmdaeq	r2, {}	; <UNPREDICTABLE>
     710:	00017e07 	andeq	r7, r1, r7, lsl #28
     714:	07040200 	streq	r0, [r4, -r0, lsl #4]
     718:	000002a2 	andeq	r0, r0, r2, lsr #5
     71c:	74080102 	strvc	r0, [r8], #-258	; 0xfffffefe
     720:	04000001 	streq	r0, [r0], #-1
     724:	be050260 	cdplt	2, 0, cr0, cr5, cr0, {3}
     728:	05000000 	streq	r0, [r0, #-0]
     72c:	00000439 	andeq	r0, r0, r9, lsr r4
     730:	002c0602 	eoreq	r0, ip, r2, lsl #12
     734:	05000000 	streq	r0, [r0, #-0]
     738:	00000409 	andeq	r0, r0, r9, lsl #8
     73c:	002c0702 	eoreq	r0, ip, r2, lsl #14
     740:	05040000 	streq	r0, [r4, #-0]
     744:	0000041c 	andeq	r0, r0, ip, lsl r4
     748:	00be0902 	adcseq	r0, lr, r2, lsl #18
     74c:	05080000 	streq	r0, [r8, #-0]
     750:	000003f4 	strdeq	r0, [r0], -r4
     754:	002c0d02 	eoreq	r0, ip, r2, lsl #26
     758:	05580000 	ldrbeq	r0, [r8, #-0]
     75c:	0000045e 	andeq	r0, r0, lr, asr r4
     760:	002c0e02 	eoreq	r0, ip, r2, lsl #28
     764:	005c0000 	subseq	r0, ip, r0
     768:	00007206 	andeq	r7, r0, r6, lsl #4
     76c:	0000ce00 	andeq	ip, r0, r0, lsl #28
     770:	006b0700 	rsbeq	r0, fp, r0, lsl #14
     774:	004f0000 	subeq	r0, pc, r0
     778:	00042108 	andeq	r2, r4, r8, lsl #2
     77c:	790f0200 	stmdbvc	pc, {r9}	; <UNPREDICTABLE>
     780:	09000000 	stmdbeq	r0, {}	; <UNPREDICTABLE>
     784:	0000044e 	andeq	r0, r0, lr, asr #8
     788:	002c0501 	eoreq	r0, ip, r1, lsl #10
     78c:	05980000 	ldreq	r0, [r8]
     790:	00320000 	eorseq	r0, r2, r0
     794:	9c010000 	stcls	0, cr0, [r1], {-0}
     798:	0000010b 	andeq	r0, r0, fp, lsl #2
     79c:	0100710a 	tsteq	r0, sl, lsl #2
     7a0:	00010b05 	andeq	r0, r1, r5, lsl #22
     7a4:	00014300 	andeq	r4, r1, r0, lsl #6
     7a8:	00630b00 	rsbeq	r0, r3, r0, lsl #22
     7ac:	00720501 	rsbseq	r0, r2, r1, lsl #10
     7b0:	51010000 	mrspl	r0, (UNDEF: 1)
     7b4:	11040c00 	tstne	r4, r0, lsl #24
     7b8:	0d000001 	stceq	0, cr0, [r0, #-4]
     7bc:	000000ce 	andeq	r0, r0, lr, asr #1
     7c0:	00042c09 	andeq	r2, r4, r9, lsl #24
     7c4:	72130100 	andsvc	r0, r3, #0, 2
     7c8:	00000000 	andeq	r0, r0, r0
     7cc:	14000000 	strne	r0, [r0], #-0
     7d0:	01000000 	mrseq	r0, (UNDEF: 0)
     7d4:	00013d9c 	muleq	r1, ip, sp
     7d8:	00710a00 	rsbseq	r0, r1, r0, lsl #20
     7dc:	010b1301 	tsteq	fp, r1, lsl #6
     7e0:	017d0000 	cmneq	sp, r0
     7e4:	09000000 	stmdbeq	r0, {}	; <UNPREDICTABLE>
     7e8:	00000456 	andeq	r0, r0, r6, asr r4
     7ec:	00721b01 	rsbseq	r1, r2, r1, lsl #22
     7f0:	05ca0000 	strbeq	r0, [sl]
     7f4:	002e0000 	eoreq	r0, lr, r0
     7f8:	9c010000 	stcls	0, cr0, [r1], {-0}
     7fc:	00000171 	andeq	r0, r0, r1, ror r1
     800:	0100710a 	tsteq	r0, sl, lsl #2
     804:	00010b1b 	andeq	r0, r1, fp, lsl fp
     808:	00019e00 	andeq	r9, r1, r0, lsl #28
     80c:	00630e00 	rsbeq	r0, r3, r0, lsl #28
     810:	00721c01 	rsbseq	r1, r2, r1, lsl #24
     814:	01bc0000 			; <UNDEFINED> instruction: 0x01bc0000
     818:	09000000 	stmdbeq	r0, {}	; <UNPREDICTABLE>
     81c:	0000043f 	andeq	r0, r0, pc, lsr r4
     820:	002c2a01 	eoreq	r2, ip, r1, lsl #20
     824:	05f80000 	ldrbeq	r0, [r8, #0]!
     828:	001c0000 	andseq	r0, ip, r0
     82c:	9c010000 	stcls	0, cr0, [r1], {-0}
     830:	000001a3 	andeq	r0, r0, r3, lsr #3
     834:	0100710a 	tsteq	r0, sl, lsl #2
     838:	00010b2a 	andeq	r0, r1, sl, lsr #22
     83c:	0001cf00 	andeq	ip, r1, r0, lsl #30
     840:	00690f00 	rsbeq	r0, r9, r0, lsl #30
     844:	002c2b01 	eoreq	r2, ip, r1, lsl #22
     848:	53010000 	movwpl	r0, #4096	; 0x1000
     84c:	04100900 	ldreq	r0, [r0], #-2304	; 0xfffff700
     850:	41010000 	mrsmi	r0, (UNDEF: 1)
     854:	0000002c 	andeq	r0, r0, ip, lsr #32
     858:	00000000 	andeq	r0, r0, r0
     85c:	00000004 	andeq	r0, r0, r4
     860:	01ca9c01 	biceq	r9, sl, r1, lsl #24
     864:	710a0000 	mrsvc	r0, (UNDEF: 10)
     868:	0b410100 	bleq	1040c70 <__DATA_END+0x103f344>
     86c:	f0000001 			; <UNDEFINED> instruction: 0xf0000001
     870:	00000001 	andeq	r0, r0, r1
     874:	0003fd09 	andeq	pc, r3, r9, lsl #26
     878:	2c450100 	stfcse	f0, [r5], {-0}
     87c:	00000000 	andeq	r0, r0, r0
     880:	14000000 	strne	r0, [r0], #-0
     884:	01000000 	mrseq	r0, (UNDEF: 0)
     888:	0002159c 	muleq	r2, ip, r5
     88c:	00710a00 	rsbseq	r0, r1, r0, lsl #20
     890:	010b4501 	tsteq	fp, r1, lsl #10
     894:	02110000 	andseq	r0, r1, #0
     898:	00100000 	andseq	r0, r0, r0
     89c:	15000000 	strne	r0, [r0, #-0]
     8a0:	04000002 	streq	r0, [r0], #-2
     8a4:	11000002 	tstne	r0, r2
     8a8:	74025001 	strvc	r5, [r2], #-1
     8ac:	00120008 	andseq	r0, r2, r8
     8b0:	15000000 	strne	r0, [r0, #-0]
     8b4:	11000002 	tstne	r0, r2
     8b8:	74025001 	strvc	r5, [r2], #-1
     8bc:	13000000 	movwne	r0, #0
     8c0:	00000449 	andeq	r0, r0, r9, asr #8
     8c4:	00000449 	andeq	r0, r0, r9, asr #8
     8c8:	37005603 	strcc	r5, [r0, -r3, lsl #12]
     8cc:	04000006 	streq	r0, [r0], #-6
     8d0:	0002ec00 	andeq	lr, r2, r0, lsl #24
     8d4:	17010400 	strne	r0, [r1, -r0, lsl #8]
     8d8:	0c000000 	stceq	0, cr0, [r0], {-0}
     8dc:	000004c2 	andeq	r0, r0, r2, asr #9
     8e0:	000001a3 	andeq	r0, r0, r3, lsr #3
     8e4:	00000060 	andeq	r0, r0, r0, rrx
     8e8:	00000000 	andeq	r0, r0, r0
     8ec:	000002f3 	strdeq	r0, [r0], -r3
     8f0:	6d060102 	stfvss	f0, [r6, #-8]
     8f4:	03000001 	movweq	r0, #1
     8f8:	000000ee 	andeq	r0, r0, lr, ror #1
     8fc:	00371d02 	eorseq	r1, r7, r2, lsl #26
     900:	01020000 	mrseq	r0, (UNDEF: 2)
     904:	00016b08 	andeq	r6, r1, r8, lsl #22
     908:	05020200 	streq	r0, [r2, #-512]	; 0xfffffe00
     90c:	00000117 	andeq	r0, r0, r7, lsl r1
     910:	00010c03 	andeq	r0, r1, r3, lsl #24
     914:	502b0200 	eorpl	r0, fp, r0, lsl #4
     918:	02000000 	andeq	r0, r0, #0
     91c:	01dd0702 	bicseq	r0, sp, r2, lsl #14
     920:	04020000 	streq	r0, [r2], #-0
     924:	00012605 	andeq	r2, r1, r5, lsl #12
     928:	00f80300 	rscseq	r0, r8, r0, lsl #6
     92c:	41020000 	mrsmi	r0, (UNDEF: 2)
     930:	00000069 	andeq	r0, r0, r9, rrx
     934:	83070402 	movwhi	r0, #29698	; 0x7402
     938:	02000001 	andeq	r0, r0, #1
     93c:	01210508 	teqeq	r1, r8, lsl #10
     940:	08020000 	stmdaeq	r2, {}	; <UNPREDICTABLE>
     944:	00017e07 	andeq	r7, r1, r7, lsl #28
     948:	05040400 	streq	r0, [r4, #-1024]	; 0xfffffc00
     94c:	00746e69 	rsbseq	r6, r4, r9, ror #28
     950:	88070402 	stmdahi	r7, {r1, sl}
     954:	03000001 	movweq	r0, #1
     958:	000000f0 	strdeq	r0, [r0], -r0	; <UNPREDICTABLE>
     95c:	002c1403 	eoreq	r1, ip, r3, lsl #8
     960:	0e030000 	cdpeq	0, 0, cr0, cr3, cr0, {0}
     964:	03000001 	movweq	r0, #1
     968:	0000451a 	andeq	r4, r0, sl, lsl r5
     96c:	00fa0300 	rscseq	r0, sl, r0, lsl #6
     970:	20030000 	andcs	r0, r3, r0
     974:	0000005e 	andeq	r0, r0, lr, asr r0
     978:	a2070402 	andge	r0, r7, #33554432	; 0x2000000
     97c:	05000002 	streq	r0, [r0, #-2]
     980:	000000a2 	andeq	r0, r0, r2, lsr #1
     984:	0000b406 	andeq	fp, r0, r6, lsl #8
     988:	008c0700 	addeq	r0, ip, r0, lsl #14
     98c:	00ce0000 	sbceq	r0, lr, r0
     990:	ad080000 	stcge	0, cr0, [r8, #-0]
     994:	03000000 	movweq	r0, #0
     998:	008c0700 	addeq	r0, ip, r0, lsl #14
     99c:	00de0000 	sbcseq	r0, lr, r0
     9a0:	ad080000 	stcge	0, cr0, [r8, #-0]
     9a4:	07000000 	streq	r0, [r0, -r0]
     9a8:	008c0700 	addeq	r0, ip, r0, lsl #14
     9ac:	00ee0000 	rsceq	r0, lr, r0
     9b0:	ad080000 	stcge	0, cr0, [r8, #-0]
     9b4:	9b000000 	blls	9bc <PIT_IRQHandler+0x20>
     9b8:	04100900 	ldreq	r0, [r0], #-2304	; 0xfffff700
     9bc:	012c1191 			; <UNDEFINED> instruction: 0x012c1191
     9c0:	6d0a0000 	stcvs	0, cr0, [sl, #-0]
     9c4:	04000004 	streq	r0, [r0], #-4
     9c8:	00b41192 	umlalseq	r1, r4, r2, r1
     9cc:	0a000000 	beq	9d4 <uartClearRxQueue+0x4>
     9d0:	00000589 	andeq	r0, r0, r9, lsl #11
     9d4:	b9119304 	ldmdblt	r1, {r2, r8, r9, ip, pc}
     9d8:	04000000 	streq	r0, [r0], #-0
     9dc:	0004e60a 	andeq	lr, r4, sl, lsl #12
     9e0:	11940400 	orrsne	r0, r4, r0, lsl #8
     9e4:	000000b4 	strheq	r0, [r0], -r4
     9e8:	05f50a08 	ldrbeq	r0, [r5, #2568]!	; 0xa08
     9ec:	95040000 	strls	r0, [r4, #-0]
     9f0:	0000b411 	andeq	fp, r0, r1, lsl r4
     9f4:	0b000c00 	bleq	39fc <__DATA_END+0x20d0>
     9f8:	8b040120 	blhi	100e80 <__DATA_END+0xff554>
     9fc:	00018611 	andeq	r8, r1, r1, lsl r6
     a00:	434d0c00 	movtmi	r0, #56320	; 0xdc00
     a04:	8c040052 	stchi	0, cr0, [r4], {82}	; 0x52
     a08:	0000b411 	andeq	fp, r0, r1, lsl r4
     a0c:	3e0a0000 	cdpcc	0, 0, cr0, cr10, cr0, {0}
     a10:	04000002 	streq	r0, [r0], #-2
     a14:	0186118d 	orreq	r1, r6, sp, lsl #3
     a18:	0a040000 	beq	100a20 <__DATA_END+0xff0f4>
     a1c:	000004ec 	andeq	r0, r0, ip, ror #9
     a20:	b9118e04 	ldmdblt	r1, {r2, r9, sl, fp, pc}
     a24:	e0000000 	and	r0, r0, r0
     a28:	0004f40a 	andeq	pc, r4, sl, lsl #8
     a2c:	118f0400 	orrne	r0, pc, r0, lsl #8
     a30:	000000b9 	strheq	r0, [r0], -r9
     a34:	02490ae4 	subeq	r0, r9, #228, 20	; 0xe4000
     a38:	90040000 	andls	r0, r4, r0
     a3c:	00019611 	andeq	r9, r1, r1, lsl r6
     a40:	7a0de800 	bvc	37aa48 <__DATA_END+0x37911c>
     a44:	04000004 	streq	r0, [r0], #-4
     a48:	01a61196 			; <UNDEFINED> instruction: 0x01a61196
     a4c:	01000000 	mrseq	r0, (UNDEF: 0)
     a50:	008c0700 	addeq	r0, ip, r0, lsl #14
     a54:	01960000 	orrseq	r0, r6, r0
     a58:	ad080000 	stcge	0, cr0, [r8, #-0]
     a5c:	db000000 	blle	a64 <uartInit+0x80>
     a60:	008c0700 	addeq	r0, ip, r0, lsl #14
     a64:	01a60000 			; <UNDEFINED> instruction: 0x01a60000
     a68:	ad080000 	stcge	0, cr0, [r8, #-0]
     a6c:	17000000 	strne	r0, [r0, -r0]
     a70:	00ee0700 	rsceq	r0, lr, r0, lsl #14
     a74:	01b60000 			; <UNDEFINED> instruction: 0x01b60000
     a78:	ad080000 	stcge	0, cr0, [r8, #-0]
     a7c:	01000000 	mrseq	r0, (UNDEF: 0)
     a80:	05370e00 	ldreq	r0, [r7, #-3584]!	; 0xfffff200
     a84:	97040000 	strls	r0, [r4, -r0]
     a88:	00012c11 	andeq	r2, r1, r1, lsl ip
     a8c:	11080b00 	tstne	r8, r0, lsl #22
     a90:	44166504 	ldrmi	r6, [r6], #-1284	; 0xfffffafc
     a94:	0a000003 	beq	aa8 <uartInit+0xc4>
     a98:	00000217 	andeq	r0, r0, r7, lsl r2
     a9c:	b4166604 	ldrlt	r6, [r6], #-1540	; 0xfffff9fc
     aa0:	00000000 	andeq	r0, r0, r0
     aa4:	00012f0a 	andeq	r2, r1, sl, lsl #30
     aa8:	16670400 	strbtne	r0, [r7], -r0, lsl #8
     aac:	000000b4 	strheq	r0, [r0], -r4
     ab0:	023e0a04 	eorseq	r0, lr, #4, 20	; 0x4000
     ab4:	68040000 	stmdavs	r4, {}	; <UNPREDICTABLE>
     ab8:	00034416 	andeq	r4, r3, r6, lsl r4
     abc:	500d0800 	andpl	r0, sp, r0, lsl #16
     ac0:	04000001 	streq	r0, [r0], #-1
     ac4:	00b41669 	adcseq	r1, r4, r9, ror #12
     ac8:	10040000 	andne	r0, r4, r0
     acc:	0002490d 	andeq	r4, r2, sp, lsl #18
     ad0:	166a0400 	strbtne	r0, [sl], -r0, lsl #8
     ad4:	000000be 	strheq	r0, [r0], -lr
     ad8:	dc0d1008 	stcle	0, cr1, [sp], {8}
     adc:	04000002 	streq	r0, [r0], #-2
     ae0:	00b4166b 	adcseq	r1, r4, fp, ror #12
     ae4:	100c0000 	andne	r0, ip, r0
     ae8:	0000000d 	andeq	r0, r0, sp
     aec:	166c0400 	strbtne	r0, [ip], -r0, lsl #8
     af0:	000000b4 	strheq	r0, [r0], -r4
     af4:	540d1010 	strpl	r1, [sp], #-16
     af8:	04000002 	streq	r0, [r0], #-2
     afc:	00be166d 	adcseq	r1, lr, sp, ror #12
     b00:	10140000 	andsne	r0, r4, r0
     b04:	00015d0d 	andeq	r5, r1, sp, lsl #26
     b08:	166e0400 	strbtne	r0, [lr], -r0, lsl #8
     b0c:	000000b4 	strheq	r0, [r0], -r4
     b10:	5f0d1018 	svcpl	0x000d1018
     b14:	04000002 	streq	r0, [r0], #-2
     b18:	00ce166f 	sbceq	r1, lr, pc, ror #12
     b1c:	101c0000 	andsne	r0, ip, r0
     b20:	0000120d 	andeq	r1, r0, sp, lsl #4
     b24:	16700400 	ldrbtne	r0, [r0], -r0, lsl #8
     b28:	000000b9 	strheq	r0, [r0], -r9
     b2c:	6a0d1024 	bvs	344bc4 <__DATA_END+0x343298>
     b30:	04000002 	streq	r0, [r0], #-2
     b34:	03551671 	cmpeq	r5, #118489088	; 0x7100000
     b38:	10280000 	eorne	r0, r8, r0
     b3c:	0001380d 	andeq	r3, r1, sp, lsl #16
     b40:	16720400 	ldrbtne	r0, [r2], -r0, lsl #8
     b44:	000000b4 	strheq	r0, [r0], -r4
     b48:	3e0d1034 	mcrcc	0, 0, r1, cr13, cr4, {1}
     b4c:	04000001 	streq	r0, [r0], #-1
     b50:	00b41673 	adcseq	r1, r4, r3, ror r6
     b54:	10380000 	eorsne	r0, r8, r0
     b58:	0001440d 	andeq	r4, r1, sp, lsl #8
     b5c:	16740400 	ldrbtne	r0, [r4], -r0, lsl #8
     b60:	000000b4 	strheq	r0, [r0], -r4
     b64:	4a0d103c 	bmi	344c5c <__DATA_END+0x343330>
     b68:	04000001 	streq	r0, [r0], #-1
     b6c:	00b41675 	adcseq	r1, r4, r5, ror r6
     b70:	10400000 	subne	r0, r0, r0
     b74:	0001630d 	andeq	r6, r1, sp, lsl #6
     b78:	16760400 	ldrbtne	r0, [r6], -r0, lsl #8
     b7c:	000000b4 	strheq	r0, [r0], -r4
     b80:	750d1044 	strvc	r1, [sp, #-68]	; 0xffffffbc
     b84:	04000002 	streq	r0, [r0], #-2
     b88:	00be1677 	adcseq	r1, lr, r7, ror r6
     b8c:	10480000 	subne	r0, r8, r0
     b90:	0000060d 	andeq	r0, r0, sp, lsl #12
     b94:	16780400 	ldrbtne	r0, [r8], -r0, lsl #8
     b98:	000000b4 	strheq	r0, [r0], -r4
     b9c:	0c0d104c 	stceq	0, cr1, [sp], {76}	; 0x4c
     ba0:	04000000 	streq	r0, [r0], #-0
     ba4:	00b91679 	adcseq	r1, r9, r9, ror r6
     ba8:	10500000 	subsne	r0, r0, r0
     bac:	0002800d 	andeq	r8, r2, sp
     bb0:	167a0400 	ldrbtne	r0, [sl], -r0, lsl #8
     bb4:	000000be 	strheq	r0, [r0], -lr
     bb8:	320d1054 	andcc	r1, sp, #84	; 0x54
     bbc:	04000002 	streq	r0, [r0], #-2
     bc0:	00b9167b 	adcseq	r1, r9, fp, ror r6
     bc4:	10580000 	subsne	r0, r8, r0
     bc8:	0002380d 	andeq	r3, r2, sp, lsl #16
     bcc:	167c0400 	ldrbtne	r0, [ip], -r0, lsl #8
     bd0:	000000b9 	strheq	r0, [r0], -r9
     bd4:	2d0d105c 	stccs	0, cr1, [sp, #-368]	; 0xfffffe90
     bd8:	04000002 	streq	r0, [r0], #-2
     bdc:	00b9167d 	adcseq	r1, r9, sp, ror r6
     be0:	10600000 	rsbne	r0, r0, r0
     be4:	00028b0d 	andeq	r8, r2, sp, lsl #22
     be8:	167e0400 	ldrbtne	r0, [lr], -r0, lsl #8
     bec:	000000de 	ldrdeq	r0, [r0], -lr
     bf0:	790d1064 	stmdbvc	sp, {r2, r5, r6, ip}
     bf4:	04000001 	streq	r0, [r0], #-1
     bf8:	00b4167f 	adcseq	r1, r4, pc, ror r6
     bfc:	11000000 	mrsne	r0, (UNDEF: 0)
     c00:	0001560d 	andeq	r5, r1, sp, lsl #12
     c04:	16800400 	strne	r0, [r0], r0, lsl #8
     c08:	000000b4 	strheq	r0, [r0], -r4
     c0c:	07001104 	streq	r1, [r0, -r4, lsl #2]
     c10:	0000008c 	andeq	r0, r0, ip, lsl #1
     c14:	00000355 	andeq	r0, r0, r5, asr r3
     c18:	0000ad0f 	andeq	sl, r0, pc, lsl #26
     c1c:	000ffb00 	andeq	pc, pc, r0, lsl #22
     c20:	00008c07 	andeq	r8, r0, r7, lsl #24
     c24:	00036500 	andeq	r6, r3, r0, lsl #10
     c28:	00ad0800 	adceq	r0, sp, r0, lsl #16
     c2c:	000b0000 	andeq	r0, fp, r0
     c30:	0001030e 	andeq	r0, r1, lr, lsl #6
     c34:	16810400 	strne	r0, [r1], r0, lsl #8
     c38:	000001c2 	andeq	r0, r0, r2, asr #3
     c3c:	0005aa10 	andeq	sl, r5, r0, lsl sl
     c40:	01800100 	orreq	r0, r0, r0, lsl #2
     c44:	0004c910 	andeq	ip, r4, r0, lsl r9
     c48:	015a0100 	cmpeq	sl, r0, lsl #2
     c4c:	00037111 	andeq	r7, r3, r1, lsl r1
     c50:	00061400 	andeq	r1, r6, r0, lsl #8
     c54:	00004400 	andeq	r4, r0, r0, lsl #8
     c58:	9e9c0100 	fmllse	f0, f4, f0
     c5c:	12000003 	andne	r0, r0, #3
     c60:	00000630 	andeq	r0, r0, r0, lsr r6
     c64:	000005f8 	strdeq	r0, [r0], -r8
     c68:	04d71300 	ldrbeq	r1, [r7], #768	; 0x300
     c6c:	1f010000 	svcne	0x00010000
     c70:	000003b3 			; <UNDEFINED> instruction: 0x000003b3
     c74:	00000000 	andeq	r0, r0, r0
     c78:	0000000c 	andeq	r0, r0, ip
     c7c:	01029c01 	tsteq	r2, r1, lsl #24
     c80:	00017408 	andeq	r7, r1, r8, lsl #8
     c84:	04891400 	streq	r1, [r9], #1024	; 0x400
     c88:	42010000 	andmi	r0, r1, #0
     c8c:	00000658 	andeq	r0, r0, r8, asr r6
     c90:	00000018 	andeq	r0, r0, r8, lsl r0
     c94:	03e39c01 	mvneq	r9, #256	; 0x100
     c98:	64150000 	ldrvs	r0, [r5], #-0
     c9c:	03000006 	movweq	r0, #6
     ca0:	16000006 	strne	r0, [r0], -r6
     ca4:	03055001 	movweq	r5, #20481	; 0x5001
     ca8:	00000615 	andeq	r0, r0, r5, lsl r6
     cac:	4c140000 	ldcmi	0, cr0, [r4], {-0}
     cb0:	01000005 	tsteq	r0, r5
     cb4:	00067047 	andeq	r7, r6, r7, asr #32
     cb8:	00001400 	andeq	r1, r0, r0, lsl #8
     cbc:	139c0100 	orrsne	r0, ip, #0, 2
     cc0:	15000004 	strne	r0, [r0, #-4]
     cc4:	0000067a 	andeq	r0, r0, sl, ror r6
     cc8:	0000060e 	andeq	r0, r0, lr, lsl #12
     ccc:	05500116 	ldrbeq	r0, [r0, #-278]	; 0xfffffeea
     cd0:	00074503 	andeq	r4, r7, r3, lsl #10
     cd4:	51011600 	tstpl	r1, r0, lsl #12
     cd8:	4e200a03 	vmulmi.f32	s0, s0, s6
     cdc:	5f140000 	svcpl	0x00140000
     ce0:	01000005 	tsteq	r0, r5
     ce4:	0006844c 	andeq	r8, r6, ip, asr #8
     ce8:	00002400 	andeq	r2, r0, r0, lsl #8
     cec:	3b9c0100 	blcc	fe7010f4 <__StackTop+0xde6fe0f4>
     cf0:	12000004 	andne	r0, r0, #4
     cf4:	0000068a 	andeq	r0, r0, sl, lsl #13
     cf8:	00000619 	andeq	r0, r0, r9, lsl r6
     cfc:	00068e12 	andeq	r8, r6, r2, lsl lr
     d00:	00062400 	andeq	r2, r6, r0, lsl #8
     d04:	40170000 	andsmi	r0, r7, r0
     d08:	01000005 	tsteq	r0, r5
     d0c:	00007e24 	andeq	r7, r0, r4, lsr #28
     d10:	0006a800 	andeq	sl, r6, r0, lsl #16
     d14:	00008400 	andeq	r8, r0, r0, lsl #8
     d18:	a69c0100 	ldrge	r0, [ip], r0, lsl #2
     d1c:	18000004 	stmdane	r0, {r2}
     d20:	0000052f 	andeq	r0, r0, pc, lsr #10
     d24:	04a62401 	strteq	r2, [r6], #1025	; 0x401
     d28:	023d0000 	eorseq	r0, sp, #0
     d2c:	6c190000 	ldcvs	0, cr0, [r9], {-0}
     d30:	01006e65 	tsteq	r0, r5, ror #28
     d34:	00007e24 	andeq	r7, r0, r4, lsr #28
     d38:	00025e00 	andeq	r5, r2, r0, lsl #28
     d3c:	04731a00 	ldrbteq	r1, [r3], #-2560	; 0xfffff600
     d40:	26010000 	strcs	r0, [r1], -r0
     d44:	000000a2 	andeq	r0, r0, r2, lsr #1
     d48:	0000028e 	andeq	r0, r0, lr, lsl #5
     d4c:	0006e412 	andeq	lr, r6, r2, lsl r4
     d50:	00062f00 	andeq	r2, r6, r0, lsl #30
     d54:	06e81200 	strbteq	r1, [r8], r0, lsl #4
     d58:	03ba0000 			; <UNDEFINED> instruction: 0x03ba0000
     d5c:	ec120000 	ldc	0, cr0, [r2], {-0}
     d60:	e3000006 	movw	r0, #6
     d64:	12000003 	andne	r0, r0, #3
     d68:	000006fc 	strdeq	r0, [r0], -ip
     d6c:	00000413 	andeq	r0, r0, r3, lsl r4
     d70:	b3041b00 	movwlt	r1, #19200	; 0x4b00
     d74:	1c000003 	stcne	0, cr0, [r0], {3}
     d78:	000005da 	ldrdeq	r0, [r0], -sl
     d7c:	072c5201 	streq	r5, [ip, -r1, lsl #4]!
     d80:	00180000 	andseq	r0, r8, r0
     d84:	9c010000 	stcls	0, cr0, [r1], {-0}
     d88:	00037911 	andeq	r7, r3, r1, lsl r9
     d8c:	00074400 	andeq	r4, r7, r0, lsl #8
     d90:	0000c000 	andeq	ip, r0, r0
     d94:	e39c0100 	orrs	r0, ip, #0, 2
     d98:	12000004 	andne	r0, r0, #4
     d9c:	0000078c 	andeq	r0, r0, ip, lsl #15
     da0:	000004ac 	andeq	r0, r0, ip, lsr #9
     da4:	00079812 	andeq	r9, r7, r2, lsl r8
     da8:	0004ac00 	andeq	sl, r4, r0, lsl #24
     dac:	9b140000 	blls	500db4 <__DATA_END+0x4ff488>
     db0:	01000004 	tsteq	r0, r4
     db4:	0000008c 	andeq	r0, r0, ip, lsl #1
     db8:	00002800 	andeq	r2, r0, r0, lsl #16
     dbc:	089c0100 	ldmeq	ip, {r8}
     dc0:	19000005 	stmdbne	r0, {r0, r2}
     dc4:	00746962 	rsbseq	r6, r4, r2, ror #18
     dc8:	03b38c01 			; <UNDEFINED> instruction: 0x03b38c01
     dcc:	02a10000 	adceq	r0, r1, #0
     dd0:	07000000 	streq	r0, [r0, -r0]
     dd4:	00000097 	muleq	r0, r7, r0
     dd8:	00000518 	andeq	r0, r0, r8, lsl r5
     ddc:	0000ad08 	andeq	sl, r0, r8, lsl #26
     de0:	1d003f00 	stcne	15, cr3, [r0, #-0]
     de4:	00000512 	andeq	r0, r0, r2, lsl r5
     de8:	05082405 	streq	r2, [r8, #-1029]	; 0xfffffbfb
     dec:	9c1e0000 	ldcls	0, cr0, [lr], {-0}
     df0:	01000005 	tsteq	r0, r5
     df4:	00053414 	andeq	r3, r5, r4, lsl r4
     df8:	24030500 	strcs	r0, [r3], #-1280	; 0xfffffb00
     dfc:	051ffff2 	ldreq	pc, [pc, #-4082]	; fffffe12 <__StackTop+0xdfffce12>
     e00:	0000007e 	andeq	r0, r0, lr, ror r0
     e04:	0004a91e 	andeq	sl, r4, lr, lsl r9
     e08:	4a150100 	bmi	541210 <__DATA_END+0x53f8e4>
     e0c:	05000005 	streq	r0, [r0, #-5]
     e10:	fff21c03 			; <UNDEFINED> instruction: 0xfff21c03
     e14:	50041b1f 	andpl	r1, r4, pc, lsl fp
     e18:	05000005 	streq	r0, [r0, #-5]
     e1c:	000003b3 			; <UNDEFINED> instruction: 0x000003b3
     e20:	0004b51e 	andeq	fp, r4, lr, lsl r5
     e24:	34160100 	ldrcc	r0, [r6], #-256	; 0xffffff00
     e28:	05000005 	streq	r0, [r0, #-5]
     e2c:	fff20c03 			; <UNDEFINED> instruction: 0xfff20c03
     e30:	05e91e1f 	strbeq	r1, [r9, #3615]!	; 0xe1f
     e34:	17010000 	strne	r0, [r1, -r0]
     e38:	00000577 	andeq	r0, r0, r7, ror r5
     e3c:	f2090305 	vcgt.s8	d0, d9, d5
     e40:	25051fff 	strcs	r1, [r5, #-4095]	; 0xfffff001
     e44:	1e000000 	cdpne	0, 0, cr0, cr0, cr0, {0}
     e48:	000005ce 	andeq	r0, r0, lr, asr #11
     e4c:	05501801 	ldrbeq	r1, [r0, #-2049]	; 0xfffff7ff
     e50:	03050000 	movweq	r0, #20480	; 0x5000
     e54:	1ffff218 	svcne	0x00fff218
     e58:	0005fa1e 	andeq	pc, r5, lr, lsl sl	; <UNPREDICTABLE>
     e5c:	9e230100 	suflss	f0, f3, f0
     e60:	05000005 	streq	r0, [r0, #-5]
     e64:	fff20a03 			; <UNDEFINED> instruction: 0xfff20a03
     e68:	0097051f 	addseq	r0, r7, pc, lsl r5
     e6c:	7c1e0000 	ldcvc	0, cr0, [lr], {-0}
     e70:	01000005 	tsteq	r0, r5
     e74:	00057719 	andeq	r7, r5, r9, lsl r7
     e78:	10030500 	andne	r0, r3, r0, lsl #10
     e7c:	1e1ffff2 	mrcne	15, 0, APSR_nzcv, cr15, cr2, {7}
     e80:	000004fc 	strdeq	r0, [r0], -ip
     e84:	05501a01 	ldrbeq	r1, [r0, #-2561]	; 0xfffff5ff
     e88:	03050000 	movweq	r0, #20480	; 0x5000
     e8c:	1ffff211 	svcne	0x00fff211
     e90:	00056e1e 	andeq	r6, r5, lr, lsl lr
     e94:	b41c0100 	ldrlt	r0, [ip], #-256	; 0xffffff00
     e98:	05000000 	streq	r0, [r0, #-0]
     e9c:	fff21403 			; <UNDEFINED> instruction: 0xfff21403
     ea0:	058e1e1f 	streq	r1, [lr, #3615]	; 0xe1f
     ea4:	1d010000 	stcne	0, cr0, [r1, #-0]
     ea8:	00000550 	andeq	r0, r0, r0, asr r5
     eac:	f2080305 	vcgt.s8	d0, d8, d5
     eb0:	b81e1fff 	ldmdalt	lr, {r0, r1, r2, r3, r4, r5, r6, r7, r8, r9, sl, fp, ip}
     eb4:	01000005 	tsteq	r0, r5
     eb8:	0005501b 	andeq	r5, r5, fp, lsl r0
     ebc:	20030500 	andcs	r0, r3, r0, lsl #10
     ec0:	1f1ffff2 	svcne	0x001ffff2
     ec4:	00000482 	andeq	r0, r0, r2, lsl #9
     ec8:	00000482 	andeq	r0, r0, r2, lsl #9
     ecc:	081f0806 	ldmdaeq	pc, {r1, r2, fp}	; <UNPREDICTABLE>
     ed0:	08000005 	stmdaeq	r0, {r0, r2}
     ed4:	07000005 	streq	r0, [r0, -r5]
     ed8:	051c1f0a 	ldreq	r1, [ip, #-3850]	; 0xfffff0f6
     edc:	051c0000 	ldreq	r0, [ip, #-0]
     ee0:	0b070000 	bleq	1c0ee8 <__DATA_END+0x1bf5bc>
     ee4:	0005261f 	andeq	r2, r5, pc, lsl r6
     ee8:	00052600 	andeq	r2, r5, r0, lsl #12
     eec:	1f0c0700 	svcne	0x000c0700
     ef0:	000005c5 	andeq	r0, r0, r5, asr #11
     ef4:	000005c5 	andeq	r0, r0, r5, asr #11
     ef8:	651f0d07 	ldrvs	r0, [pc, #-3335]	; 1f9 <M_VECTOR_RAM_SIZE+0x1f9>
     efc:	65000004 	strvs	r0, [r0, #-4]
     f00:	06000004 	streq	r0, [r0], -r4
     f04:	03000005 	movweq	r0, #5
     f08:	00040000 	andeq	r0, r4, r0
     f0c:	000004b6 			; <UNDEFINED> instruction: 0x000004b6
     f10:	00170104 	andseq	r0, r7, r4, lsl #2
     f14:	7a0c0000 	bvc	300f1c <__DATA_END+0x2ff5f0>
     f18:	a3000006 	movwge	r0, #6
     f1c:	b0000001 	andlt	r0, r0, r1
     f20:	00000000 	andeq	r0, r0, r0
     f24:	9c000000 	stcls	0, cr0, [r0], {-0}
     f28:	02000004 	andeq	r0, r0, #4
     f2c:	016d0601 	cmneq	sp, r1, lsl #12
     f30:	01020000 	mrseq	r0, (UNDEF: 2)
     f34:	00016b08 	andeq	r6, r1, r8, lsl #22
     f38:	05020200 	streq	r0, [r2, #-512]	; 0xfffffe00
     f3c:	00000117 	andeq	r0, r0, r7, lsl r1
     f40:	00010c03 	andeq	r0, r1, r3, lsl #24
     f44:	452b0200 	strmi	r0, [fp, #-512]!	; 0xfffffe00
     f48:	02000000 	andeq	r0, r0, #0
     f4c:	01dd0702 	bicseq	r0, sp, r2, lsl #14
     f50:	04020000 	streq	r0, [r2], #-0
     f54:	00012605 	andeq	r2, r1, r5, lsl #12
     f58:	00f80300 	rscseq	r0, r8, r0, lsl #6
     f5c:	41020000 	mrsmi	r0, (UNDEF: 2)
     f60:	0000005e 	andeq	r0, r0, lr, asr r0
     f64:	83070402 	movwhi	r0, #29698	; 0x7402
     f68:	02000001 	andeq	r0, r0, #1
     f6c:	01210508 	teqeq	r1, r8, lsl #10
     f70:	08020000 	stmdaeq	r2, {}	; <UNPREDICTABLE>
     f74:	00017e07 	andeq	r7, r1, r7, lsl #28
     f78:	05040400 	streq	r0, [r4, #-1024]	; 0xfffffc00
     f7c:	00746e69 	rsbseq	r6, r4, r9, ror #28
     f80:	88070402 	stmdahi	r7, {r1, sl}
     f84:	03000001 	movweq	r0, #1
     f88:	0000010e 	andeq	r0, r0, lr, lsl #2
     f8c:	003a1a03 	eorseq	r1, sl, r3, lsl #20
     f90:	fa030000 	blx	c0f98 <__DATA_END+0xbf66c>
     f94:	03000000 	movweq	r0, #0
     f98:	00005320 	andeq	r5, r0, r0, lsr #6
     f9c:	07040200 	streq	r0, [r4, -r0, lsl #4]
     fa0:	000002a2 	andeq	r0, r0, r2, lsr #5
     fa4:	00008c05 	andeq	r8, r0, r5, lsl #24
     fa8:	009e0600 	addseq	r0, lr, r0, lsl #12
     fac:	18070000 	stmdane	r7, {}	; <UNPREDICTABLE>
     fb0:	0006ff04 	andeq	pc, r6, r4, lsl #30
     fb4:	08000001 	stmdaeq	r0, {r0}
     fb8:	00000630 	andeq	r0, r0, r0, lsr r6
     fbc:	9e070004 	cdpls	0, 0, cr0, cr7, cr4, {0}
     fc0:	00000000 	andeq	r0, r0, r0
     fc4:	00065c08 	andeq	r5, r6, r8, lsl #24
     fc8:	07010400 	streq	r0, [r1, -r0, lsl #8]
     fcc:	0000009e 	muleq	r0, lr, r0
     fd0:	06a10804 	strteq	r0, [r1], r4, lsl #16
     fd4:	02040000 	andeq	r0, r4, #0
     fd8:	00009e07 	andeq	r9, r0, r7, lsl #28
     fdc:	8c080800 	stchi	8, cr0, [r8], {-0}
     fe0:	04000006 	streq	r0, [r0], #-6
     fe4:	009e0703 	addseq	r0, lr, r3, lsl #14
     fe8:	080c0000 	stmdaeq	ip, {}	; <UNPREDICTABLE>
     fec:	0000061c 	andeq	r0, r0, ip, lsl r6
     ff0:	a3070404 	movwge	r0, #29700	; 0x7404
     ff4:	10000000 	andne	r0, r0, r0
     ff8:	00064208 	andeq	r4, r6, r8, lsl #4
     ffc:	07050400 	streq	r0, [r5, -r0, lsl #8]
    1000:	0000009e 	muleq	r0, lr, r0
    1004:	47090014 	smladmi	r9, r4, r0, r0
    1008:	04000006 	streq	r0, [r0], #-6
    100c:	00a80706 	adceq	r0, r8, r6, lsl #14
    1010:	6a0a0000 	bvs	281018 <__DATA_END+0x27f6ec>
    1014:	01000006 	tsteq	r0, r6
    1018:	00080421 	andeq	r0, r8, r1, lsr #8
    101c:	00002800 	andeq	r2, r0, r0, lsl #16
    1020:	2b9c0100 	blcs	fe701428 <__StackTop+0xde6fe428>
    1024:	0b000001 	bleq	1030 <ParseGPS+0x60>
    1028:	00000818 	andeq	r0, r0, r8, lsl r8
    102c:	000002cc 	andeq	r0, r0, ip, asr #5
    1030:	06730a00 	ldrbteq	r0, [r3], -r0, lsl #20
    1034:	27010000 	strcs	r0, [r1, -r0]
    1038:	0000082c 	andeq	r0, r0, ip, lsr #16
    103c:	00000038 	andeq	r0, r0, r8, lsr r0
    1040:	018b9c01 	orreq	r9, fp, r1, lsl #24
    1044:	610c0000 	mrsvs	r0, (UNDEF: 12)
    1048:	01000006 	tsteq	r0, r6
    104c:	00018b27 	andeq	r8, r1, r7, lsr #22
    1050:	0002c200 	andeq	ip, r2, r0, lsl #4
    1054:	06510d00 	ldrbeq	r0, [r1], -r0, lsl #26
    1058:	28010000 	stmdacs	r1, {}	; <UNPREDICTABLE>
    105c:	0000005e 	andeq	r0, r0, lr, asr r0
    1060:	00083e0e 	andeq	r3, r8, lr, lsl #28
    1064:	0002d700 	andeq	sp, r2, r0, lsl #14
    1068:	00017800 	andeq	r7, r1, r0, lsl #16
    106c:	50010f00 	andpl	r0, r1, r0, lsl #30
    1070:	08050305 	stmdaeq	r5, {r0, r2, r8, r9}
    1074:	010f0000 	mrseq	r0, CPSR
    1078:	710a0351 	tstvc	sl, r1, asr r3
    107c:	4c0b0002 	stcmi	0, cr0, [fp], {2}
    1080:	e2000008 	and	r0, r0, #8
    1084:	0b000002 	bleq	1094 <ParseGPS+0xc4>
    1088:	00000850 	andeq	r0, r0, r0, asr r8
    108c:	000002ed 	andeq	r0, r0, sp, ror #5
    1090:	08010200 	stmdaeq	r1, {r9}
    1094:	00000174 	andeq	r0, r0, r4, ror r1
    1098:	00069a10 	andeq	r9, r6, r0, lsl sl
    109c:	8b340100 	blhi	d014a4 <__DATA_END+0xcffb78>
    10a0:	64000001 	strvs	r0, [r0], #-1
    10a4:	88000008 	stmdahi	r0, {r3}
    10a8:	01000000 	mrseq	r0, (UNDEF: 0)
    10ac:	00024e9c 	muleq	r2, ip, lr
    10b0:	041c0c00 	ldreq	r0, [ip], #-3072	; 0xfffff400
    10b4:	34010000 	strcc	r0, [r1], #-0
    10b8:	0000024e 	andeq	r0, r0, lr, asr #4
    10bc:	000002e3 	andeq	r0, r0, r3, ror #5
    10c0:	6e656c11 	mcrvs	12, 3, r6, cr5, cr1, {0}
    10c4:	73340100 	teqvc	r4, #0, 2
    10c8:	04000000 	streq	r0, [r0], #-0
    10cc:	12000003 	andne	r0, r0, #3
    10d0:	0000060a 	andeq	r0, r0, sl, lsl #12
    10d4:	018b3601 	orreq	r3, fp, r1, lsl #12
    10d8:	03250000 	teqeq	r5, #0
    10dc:	27120000 	ldrcs	r0, [r2, -r0]
    10e0:	01000006 	tsteq	r0, r6
    10e4:	00018b37 	andeq	r8, r1, r7, lsr fp
    10e8:	00037800 	andeq	r7, r3, r0, lsl #16
    10ec:	06121200 	ldreq	r1, [r2], -r0, lsl #4
    10f0:	38010000 	stmdacc	r1, {}	; <UNPREDICTABLE>
    10f4:	0000024e 	andeq	r0, r0, lr, asr #4
    10f8:	000003c8 	andeq	r0, r0, r8, asr #7
    10fc:	00060212 	andeq	r0, r6, r2, lsl r2
    1100:	8b390100 	blhi	e41508 <__DATA_END+0xe3fbdc>
    1104:	e7000001 	str	r0, [r0, -r1]
    1108:	0b000003 	bleq	111c <testParse+0x14>
    110c:	00000878 	andeq	r0, r0, r8, ror r8
    1110:	000002f8 	strdeq	r0, [r0], -r8
    1114:	0008c00e 	andeq	ip, r8, lr
    1118:	00012b00 	andeq	r2, r1, r0, lsl #22
    111c:	00022800 	andeq	r2, r2, r0, lsl #16
    1120:	50010f00 	andpl	r0, r1, r0, lsl #30
    1124:	76800808 	strvc	r0, [r0], r8, lsl #16
    1128:	00772600 	rsbseq	r2, r7, r0, lsl #12
    112c:	ca0e001a 	bgt	38119c <__DATA_END+0x37f870>
    1130:	e2000008 	and	r0, r0, #8
    1134:	3c000002 	stccc	0, cr0, [r0], {2}
    1138:	0f000002 	svceq	0x00000002
    113c:	08025001 	stmdaeq	r2, {r0, ip, lr}
    1140:	d8130064 	ldmdale	r3, {r2, r5, r6}
    1144:	e2000008 	and	r0, r0, #8
    1148:	0f000002 	svceq	0x00000002
    114c:	0a035001 	beq	d5158 <__DATA_END+0xd382c>
    1150:	0000012c 	andeq	r0, r0, ip, lsr #2
    1154:	018b0414 	orreq	r0, fp, r4, lsl r4
    1158:	81150000 	tsthi	r5, r0
    115c:	64000000 	strvs	r0, [r0], #-0
    1160:	16000002 	strne	r0, [r0], -r2
    1164:	00000097 	muleq	r0, r7, r0
    1168:	1217003f 	andsne	r0, r7, #63	; 0x3f
    116c:	05000005 	streq	r0, [r0, #-5]
    1170:	0002540a 	andeq	r5, r2, sl, lsl #8
    1174:	018b1500 	orreq	r1, fp, r0, lsl #10
    1178:	027f0000 	rsbseq	r0, pc, #0
    117c:	97160000 	ldrls	r0, [r6, -r0]
    1180:	19000000 	stmdbne	r0, {}	; <UNPREDICTABLE>
    1184:	067f1800 	ldrbteq	r1, [pc], -r0, lsl #16
    1188:	18010000 	stmdane	r1, {}	; <UNPREDICTABLE>
    118c:	00000290 	muleq	r0, r0, r2
    1190:	16500305 	ldrbne	r0, [r0], -r5, lsl #6
    1194:	6f060000 	svcvs	0x00060000
    1198:	15000002 	strne	r0, [r0, #-2]
    119c:	0000018b 	andeq	r0, r0, fp, lsl #3
    11a0:	000002a5 	andeq	r0, r0, r5, lsr #5
    11a4:	00009716 	andeq	r9, r0, r6, lsl r7
    11a8:	18000900 	stmdane	r0, {r8, fp}
    11ac:	00000635 	andeq	r0, r0, r5, lsr r6
    11b0:	02b61c01 	adcseq	r1, r6, #256	; 0x100
    11b4:	03050000 	movweq	r0, #20480	; 0x5000
    11b8:	0000166a 	andeq	r1, r0, sl, ror #12
    11bc:	00029506 	andeq	r9, r2, r6, lsl #10
    11c0:	06911800 	ldreq	r1, [r1], r0, lsl #16
    11c4:	1f010000 	svcne	0x00010000
    11c8:	00000073 	andeq	r0, r0, r3, ror r0
    11cc:	f2280305 	vcgt.s32	d0, d8, d5
    11d0:	82191fff 	andshi	r1, r9, #1020	; 0x3fc
    11d4:	82000004 	andhi	r0, r0, #4
    11d8:	06000004 	streq	r0, [r0], -r4
    11dc:	05081908 	streq	r1, [r8, #-2312]	; 0xfffff6f8
    11e0:	05080000 	streq	r0, [r8, #-0]
    11e4:	0a070000 	beq	1c11ec <__DATA_END+0x1bf8c0>
    11e8:	00062119 	andeq	r2, r6, r9, lsl r1
    11ec:	00062100 	andeq	r2, r6, r0, lsl #2
    11f0:	190b0800 	stmdbne	fp, {fp}
    11f4:	00000526 	andeq	r0, r0, r6, lsr #10
    11f8:	00000526 	andeq	r0, r0, r6, lsr #10
    11fc:	65190c07 	ldrvs	r0, [r9, #-3079]	; 0xfffff3f9
    1200:	65000004 	strvs	r0, [r0, #-4]
    1204:	06000004 	streq	r0, [r0], -r4
    1208:	06d00005 	ldrbeq	r0, [r0], r5
    120c:	00040000 	andeq	r0, r4, r0
    1210:	00000611 	andeq	r0, r0, r1, lsl r6
    1214:	00170104 	andseq	r0, r7, r4, lsl #2
    1218:	060c0000 	streq	r0, [ip], -r0
    121c:	a3000009 	movwge	r0, #9
    1220:	d0000001 	andle	r0, r0, r1
    1224:	00000000 	andeq	r0, r0, r0
    1228:	bf000000 	svclt	0x00000000
    122c:	02000005 	andeq	r0, r0, #5
    1230:	016d0601 	cmneq	sp, r1, lsl #12
    1234:	ee030000 	cdp	0, 0, cr0, cr3, cr0, {0}
    1238:	04000000 	streq	r0, [r0], #-0
    123c:	0000371d 	andeq	r3, r0, sp, lsl r7
    1240:	08010200 	stmdaeq	r1, {r9}
    1244:	0000016b 	andeq	r0, r0, fp, ror #2
    1248:	17050202 	strne	r0, [r5, -r2, lsl #4]
    124c:	02000001 	andeq	r0, r0, #1
    1250:	01dd0702 	bicseq	r0, sp, r2, lsl #14
    1254:	04020000 	streq	r0, [r2], #-0
    1258:	00012605 	andeq	r2, r1, r5, lsl #12
    125c:	00f80300 	rscseq	r0, r8, r0, lsl #6
    1260:	41040000 	mrsmi	r0, (UNDEF: 4)
    1264:	0000005e 	andeq	r0, r0, lr, asr r0
    1268:	83070402 	movwhi	r0, #29698	; 0x7402
    126c:	02000001 	andeq	r0, r0, #1
    1270:	01210508 	teqeq	r1, r8, lsl #10
    1274:	08020000 	stmdaeq	r2, {}	; <UNPREDICTABLE>
    1278:	00017e07 	andeq	r7, r1, r7, lsl #28
    127c:	05040400 	streq	r0, [r4, #-1024]	; 0xfffffc00
    1280:	00746e69 	rsbseq	r6, r4, r9, ror #28
    1284:	88070402 	stmdahi	r7, {r1, sl}
    1288:	03000001 	movweq	r0, #1
    128c:	000000f0 	strdeq	r0, [r0], -r0	; <UNPREDICTABLE>
    1290:	002c1405 	eoreq	r1, ip, r5, lsl #8
    1294:	fa030000 	blx	c129c <__DATA_END+0xbf970>
    1298:	05000000 	streq	r0, [r0, #-0]
    129c:	00005320 	andeq	r5, r0, r0, lsr #6
    12a0:	073a0500 	ldreq	r0, [sl, -r0, lsl #10]!
    12a4:	25010000 	strcs	r0, [r1, #-0]
    12a8:	06000000 	streq	r0, [r0], -r0
    12ac:	00018d8b 	andeq	r8, r1, fp, lsl #27
    12b0:	070e0600 	streq	r0, [lr, -r0, lsl #12]
    12b4:	7f800000 	svcvc	0x00800000
    12b8:	00087f06 	andeq	r7, r8, r6, lsl #30
    12bc:	e7067200 	str	r7, [r6, -r0, lsl #4]
    12c0:	73000007 	movwvc	r0, #7
    12c4:	0007db06 	andeq	sp, r7, r6, lsl #22
    12c8:	3f067b00 	svccc	0x00067b00
    12cc:	7e000007 	cdpvc	0, 0, cr0, cr0, cr7, {0}
    12d0:	0006af06 	andeq	sl, r6, r6, lsl #30
    12d4:	1c077f00 	stcne	15, cr7, [r7], {-0}
    12d8:	00000007 	andeq	r0, r0, r7
    12dc:	00086c07 	andeq	r6, r8, r7, lsl #24
    12e0:	04070100 	streq	r0, [r7], #-256	; 0xffffff00
    12e4:	02000007 	andeq	r0, r0, #7
    12e8:	0006d607 	andeq	sp, r6, r7, lsl #12
    12ec:	2f070300 	svccs	0x00070300
    12f0:	04000007 	streq	r0, [r0], #-7
    12f4:	0008b407 	andeq	fp, r8, r7, lsl #8
    12f8:	93070500 	movwls	r0, #29952	; 0x7500
    12fc:	06000008 	streq	r0, [r0], -r8
    1300:	0008dc07 	andeq	sp, r8, r7, lsl #24
    1304:	62070700 	andvs	r0, r7, #0, 14
    1308:	08000008 	stmdaeq	r0, {r3}
    130c:	0006fa07 	andeq	pc, r6, r7, lsl #20
    1310:	cc070900 	stcgt	9, cr0, [r7], {-0}
    1314:	0a000007 	beq	1338 <_free_r+0x8>
    1318:	0006bc07 	andeq	fp, r6, r7, lsl #24
    131c:	f0070b00 			; <UNDEFINED> instruction: 0xf0070b00
    1320:	0c000008 	stceq	0, cr0, [r0], {8}
    1324:	00078b07 	andeq	r8, r7, r7, lsl #22
    1328:	fb070d00 	blx	1c4732 <__DATA_END+0x1c2e06>
    132c:	0e000008 	cdpeq	0, 0, cr0, cr0, cr8, {0}
    1330:	00083007 	andeq	r3, r8, r7
    1334:	c8070f00 	stmdagt	r7, {r8, r9, sl, fp}
    1338:	10000008 	andne	r0, r0, r8
    133c:	0008d207 	andeq	sp, r8, r7, lsl #4
    1340:	4b071100 	blmi	1c5748 <__DATA_END+0x1c3e1c>
    1344:	12000007 	andne	r0, r0, #7
    1348:	0008be07 	andeq	fp, r8, r7, lsl #28
    134c:	76071300 	strvc	r1, [r7], -r0, lsl #6
    1350:	14000008 	strne	r0, [r0], #-8
    1354:	00080f07 	andeq	r0, r8, r7, lsl #30
    1358:	a6071500 	strge	r1, [r7], -r0, lsl #10
    135c:	16000006 	strne	r0, [r0], -r6
    1360:	0008e607 	andeq	lr, r8, r7, lsl #12
    1364:	12071700 	andne	r1, r7, #0, 14
    1368:	18000009 	stmdane	r0, {r0, r3}
    136c:	0006e007 	andeq	lr, r6, r7
    1370:	58071900 	stmdapl	r7, {r8, fp, ip}
    1374:	1a000008 	bne	139c <_free_r+0x6c>
    1378:	0008a007 	andeq	sl, r8, r7
    137c:	55071b00 	strpl	r1, [r7, #-2816]	; 0xfffff500
    1380:	1c000007 	stcne	0, cr0, [r0], {7}
    1384:	00082007 	andeq	r2, r8, r7
    1388:	a9071d00 	stmdbge	r7, {r8, sl, fp, ip}
    138c:	1e000008 	cdpne	0, 0, cr0, cr0, cr8, {0}
    1390:	0007f607 	andeq	pc, r7, r7, lsl #12
    1394:	03001f00 	movweq	r1, #3840	; 0xf00
    1398:	000007ae 	andeq	r0, r0, lr, lsr #15
    139c:	0097b706 	addseq	fp, r7, r6, lsl #14
    13a0:	20080000 	andcs	r0, r8, r0
    13a4:	01230203 	teqeq	r3, r3, lsl #4
    13a8:	0000022a 	andeq	r0, r0, sl, lsr #4
    13ac:	00083f09 	andeq	r3, r8, r9, lsl #30
    13b0:	01250200 	teqeq	r5, r0, lsl #4
    13b4:	00000241 	andeq	r0, r0, r1, asr #4
    13b8:	06cc0900 	strbeq	r0, [ip], r0, lsl #18
    13bc:	26020000 	strcs	r0, [r2], -r0
    13c0:	00024601 	andeq	r4, r2, r1, lsl #12
    13c4:	d6090400 	strle	r0, [r9], -r0, lsl #8
    13c8:	02000007 	andeq	r0, r0, #7
    13cc:	02560127 	subseq	r0, r6, #-1073741815	; 0xc0000009
    13d0:	09800000 	stmibeq	r0, {}	; <UNPREDICTABLE>
    13d4:	00000726 	andeq	r0, r0, r6, lsr #14
    13d8:	46012802 	strmi	r2, [r1], -r2, lsl #16
    13dc:	84000002 	strhi	r0, [r0], #-2
    13e0:	00083a0a 	andeq	r3, r8, sl, lsl #20
    13e4:	01290200 	teqeq	r9, r0, lsl #4
    13e8:	0000025b 	andeq	r0, r0, fp, asr r2
    13ec:	4e0a0100 	adfmie	f0, f2, f0
    13f0:	02000008 	andeq	r0, r0, #8
    13f4:	0246012a 	subeq	r0, r6, #-2147483638	; 0x8000000a
    13f8:	01040000 	mrseq	r0, (UNDEF: 4)
    13fc:	0007b80a 	andeq	fp, r7, sl, lsl #16
    1400:	012b0200 	teqeq	fp, r0, lsl #4
    1404:	00000260 	andeq	r0, r0, r0, ror #4
    1408:	ea0a0180 	b	281a10 <__DATA_END+0x2800e4>
    140c:	02000006 	andeq	r0, r0, #6
    1410:	0246012c 	subeq	r0, r6, #44, 2
    1414:	01840000 	orreq	r0, r4, r0
    1418:	0008440a 	andeq	r4, r8, sl, lsl #8
    141c:	012d0200 	teqeq	sp, r0, lsl #4
    1420:	00000265 	andeq	r0, r0, r5, ror #4
    1424:	490b0200 	stmdbmi	fp, {r9}
    1428:	2e020050 	mcrcs	0, 0, r0, cr2, cr0, {2}
    142c:	00028501 	andeq	r8, r2, r1, lsl #10
    1430:	00030000 	andeq	r0, r3, r0
    1434:	00008c0c 	andeq	r8, r0, ip, lsl #24
    1438:	00023a00 	andeq	r3, r2, r0, lsl #20
    143c:	023a0d00 	eorseq	r0, sl, #0, 26
    1440:	00000000 	andeq	r0, r0, r0
    1444:	a2070402 	andge	r0, r7, #33554432	; 0x2000000
    1448:	0e000002 	cdpeq	0, 0, cr0, cr0, cr2, {0}
    144c:	0000022a 	andeq	r0, r0, sl, lsr #4
    1450:	00008c0c 	andeq	r8, r0, ip, lsl #24
    1454:	00025600 	andeq	r5, r2, r0, lsl #12
    1458:	023a0d00 	eorseq	r0, sl, #0, 26
    145c:	001e0000 	andseq	r0, lr, r0
    1460:	00022a0e 	andeq	r2, r2, lr, lsl #20
    1464:	022a0e00 	eoreq	r0, sl, #0, 28
    1468:	2a0e0000 	bcs	381470 <__DATA_END+0x37fb44>
    146c:	0c000002 	stceq	0, cr0, [r0], {2}
    1470:	0000008c 	andeq	r0, r0, ip, lsl #1
    1474:	00000275 	andeq	r0, r0, r5, ror r2
    1478:	00023a0d 	andeq	r3, r2, sp, lsl #20
    147c:	0c003f00 	stceq	15, cr3, [r0], {-0}
    1480:	0000008c 	andeq	r0, r0, ip, lsl #1
    1484:	00000285 	andeq	r0, r0, r5, lsl #5
    1488:	00023a0d 	andeq	r3, r2, sp, lsl #20
    148c:	0e000700 	cdpeq	7, 0, cr0, cr0, cr0, {0}
    1490:	00000275 	andeq	r0, r0, r5, ror r2
    1494:	0007a40f 	andeq	sl, r7, pc, lsl #8
    1498:	012f0200 	teqeq	pc, r0, lsl #4
    149c:	00000198 	muleq	r0, r8, r1
    14a0:	00008c0e 	andeq	r8, r0, lr, lsl #24
    14a4:	02961000 	addseq	r1, r6, #0
    14a8:	810c0000 	mrshi	r0, (UNDEF: 12)
    14ac:	b0000000 	andlt	r0, r0, r0
    14b0:	0d000002 	stceq	0, cr0, [r0, #-8]
    14b4:	0000023a 	andeq	r0, r0, sl, lsr r2
    14b8:	810c0003 	tsthi	ip, r3
    14bc:	c0000000 	andgt	r0, r0, r0
    14c0:	0d000002 	stceq	0, cr0, [r0, #-8]
    14c4:	0000023a 	andeq	r0, r0, sl, lsr r2
    14c8:	810c0007 	tsthi	ip, r7
    14cc:	d0000000 	andle	r0, r0, r0
    14d0:	0d000002 	stceq	0, cr0, [r0, #-8]
    14d4:	0000023a 	andeq	r0, r0, sl, lsr r2
    14d8:	1011009b 	mulsne	r1, fp, r0
    14dc:	0e119106 	mnfeqs	f1, f6
    14e0:	09000003 	stmdbeq	r0, {r0, r1}
    14e4:	0000046d 	andeq	r0, r0, sp, ror #8
    14e8:	96119206 	ldrls	r9, [r1], -r6, lsl #4
    14ec:	00000002 	andeq	r0, r0, r2
    14f0:	00058909 	andeq	r8, r5, r9, lsl #18
    14f4:	11930600 	orrsne	r0, r3, r0, lsl #12
    14f8:	0000029b 	muleq	r0, fp, r2
    14fc:	04e60904 	strbteq	r0, [r6], #2308	; 0x904
    1500:	94060000 	strls	r0, [r6], #-0
    1504:	00029611 	andeq	r9, r2, r1, lsl r6
    1508:	f5090800 			; <UNDEFINED> instruction: 0xf5090800
    150c:	06000005 	streq	r0, [r0], -r5
    1510:	02961195 	addseq	r1, r6, #1073741861	; 0x40000025
    1514:	000c0000 	andeq	r0, ip, r0
    1518:	06012008 	streq	r2, [r1], -r8
    151c:	0368118b 	cmneq	r8, #-1073741790	; 0xc0000022
    1520:	4d120000 	ldcmi	0, cr0, [r2, #-0]
    1524:	06005243 	streq	r5, [r0], -r3, asr #4
    1528:	0296118c 	addseq	r1, r6, #140, 2	; 0x23
    152c:	09000000 	stmdbeq	r0, {}	; <UNPREDICTABLE>
    1530:	0000023e 	andeq	r0, r0, lr, lsr r2
    1534:	68118d06 	ldmdavs	r1, {r1, r2, r8, sl, fp, pc}
    1538:	04000003 	streq	r0, [r0], #-3
    153c:	0004ec09 	andeq	lr, r4, r9, lsl #24
    1540:	118e0600 	orrne	r0, lr, r0, lsl #12
    1544:	0000029b 	muleq	r0, fp, r2
    1548:	04f409e0 	ldrbteq	r0, [r4], #2528	; 0x9e0
    154c:	8f060000 	svchi	0x00060000
    1550:	00029b11 	andeq	r9, r2, r1, lsl fp
    1554:	4909e400 	stmdbmi	r9, {sl, sp, lr, pc}
    1558:	06000002 	streq	r0, [r0], -r2
    155c:	03781190 	cmneq	r8, #144, 2	; 0x24
    1560:	0ae80000 	beq	ffa01568 <__StackTop+0xdf9fe568>
    1564:	0000047a 	andeq	r0, r0, sl, ror r4
    1568:	88119606 	ldmdahi	r1, {r1, r2, r9, sl, ip, pc}
    156c:	00000003 	andeq	r0, r0, r3
    1570:	810c0001 	tsthi	ip, r1
    1574:	78000000 	stmdavc	r0, {}	; <UNPREDICTABLE>
    1578:	0d000003 	stceq	0, cr0, [r0, #-12]
    157c:	0000023a 	andeq	r0, r0, sl, lsr r2
    1580:	810c00db 	ldrdhi	r0, [ip, -fp]
    1584:	88000000 	stmdahi	r0, {}	; <UNPREDICTABLE>
    1588:	0d000003 	stceq	0, cr0, [r0, #-12]
    158c:	0000023a 	andeq	r0, r0, sl, lsr r2
    1590:	d00c0017 	andle	r0, ip, r7, lsl r0
    1594:	98000002 	stmdals	r0, {r1}
    1598:	0d000003 	stceq	0, cr0, [r0, #-12]
    159c:	0000023a 	andeq	r0, r0, sl, lsr r2
    15a0:	370f0001 	strcc	r0, [pc, -r1]
    15a4:	06000005 	streq	r0, [r0], -r5
    15a8:	030e1197 	movweq	r1, #57751	; 0xe197
    15ac:	08080000 	stmdaeq	r8, {}	; <UNPREDICTABLE>
    15b0:	16650611 			; <UNDEFINED> instruction: 0x16650611
    15b4:	00000526 	andeq	r0, r0, r6, lsr #10
    15b8:	00021709 	andeq	r1, r2, r9, lsl #14
    15bc:	16660600 	strbtne	r0, [r6], -r0, lsl #12
    15c0:	00000296 	muleq	r0, r6, r2
    15c4:	012f0900 	teqeq	pc, r0, lsl #18
    15c8:	67060000 	strvs	r0, [r6, -r0]
    15cc:	00029616 	andeq	r9, r2, r6, lsl r6
    15d0:	3e090400 	cfcpyscc	mvf0, mvf9
    15d4:	06000002 	streq	r0, [r0], -r2
    15d8:	05261668 	streq	r1, [r6, #-1640]!	; 0xfffff998
    15dc:	0a080000 	beq	2015e4 <__DATA_END+0x1ffcb8>
    15e0:	00000150 	andeq	r0, r0, r0, asr r1
    15e4:	96166906 	ldrls	r6, [r6], -r6, lsl #18
    15e8:	04000002 	streq	r0, [r0], #-2
    15ec:	02490a10 	subeq	r0, r9, #16, 20	; 0x10000
    15f0:	6a060000 	bvs	1815f8 <__DATA_END+0x17fccc>
    15f4:	0002a016 	andeq	sl, r2, r6, lsl r0
    15f8:	0a100800 	beq	403600 <__DATA_END+0x401cd4>
    15fc:	000002dc 	ldrdeq	r0, [r0], -ip
    1600:	96166b06 	ldrls	r6, [r6], -r6, lsl #22
    1604:	0c000002 	stceq	0, cr0, [r0], {2}
    1608:	00000a10 	andeq	r0, r0, r0, lsl sl
    160c:	6c060000 	stcvs	0, cr0, [r6], {-0}
    1610:	00029616 	andeq	r9, r2, r6, lsl r6
    1614:	0a101000 	beq	40561c <__DATA_END+0x403cf0>
    1618:	00000254 	andeq	r0, r0, r4, asr r2
    161c:	a0166d06 	andsge	r6, r6, r6, lsl #26
    1620:	14000002 	strne	r0, [r0], #-2
    1624:	015d0a10 	cmpeq	sp, r0, lsl sl
    1628:	6e060000 	cdpvs	0, 0, cr0, cr6, cr0, {0}
    162c:	00029616 	andeq	r9, r2, r6, lsl r6
    1630:	0a101800 	beq	407638 <__DATA_END+0x405d0c>
    1634:	0000025f 	andeq	r0, r0, pc, asr r2
    1638:	b0166f06 	andslt	r6, r6, r6, lsl #30
    163c:	1c000002 	stcne	0, cr0, [r0], {2}
    1640:	00120a10 	andseq	r0, r2, r0, lsl sl
    1644:	70060000 	andvc	r0, r6, r0
    1648:	00029b16 	andeq	r9, r2, r6, lsl fp
    164c:	0a102400 	beq	40a654 <__DATA_END+0x408d28>
    1650:	0000026a 	andeq	r0, r0, sl, ror #4
    1654:	37167106 	ldrcc	r7, [r6, -r6, lsl #2]
    1658:	28000005 	stmdacs	r0, {r0, r2}
    165c:	01380a10 	teqeq	r8, r0, lsl sl
    1660:	72060000 	andvc	r0, r6, #0
    1664:	00029616 	andeq	r9, r2, r6, lsl r6
    1668:	0a103400 	beq	40e670 <__DATA_END+0x40cd44>
    166c:	0000013e 	andeq	r0, r0, lr, lsr r1
    1670:	96167306 	ldrls	r7, [r6], -r6, lsl #6
    1674:	38000002 	stmdacc	r0, {r1}
    1678:	01440a10 	cmpeq	r4, r0, lsl sl
    167c:	74060000 	strvc	r0, [r6], #-0
    1680:	00029616 	andeq	r9, r2, r6, lsl r6
    1684:	0a103c00 	beq	41068c <__DATA_END+0x40ed60>
    1688:	0000014a 	andeq	r0, r0, sl, asr #2
    168c:	96167506 	ldrls	r7, [r6], -r6, lsl #10
    1690:	40000002 	andmi	r0, r0, r2
    1694:	01630a10 	cmneq	r3, r0, lsl sl
    1698:	76060000 	strvc	r0, [r6], -r0
    169c:	00029616 	andeq	r9, r2, r6, lsl r6
    16a0:	0a104400 	beq	4126a8 <__DATA_END+0x410d7c>
    16a4:	00000275 	andeq	r0, r0, r5, ror r2
    16a8:	a0167706 	andsge	r7, r6, r6, lsl #14
    16ac:	48000002 	stmdami	r0, {r1}
    16b0:	00060a10 	andeq	r0, r6, r0, lsl sl
    16b4:	78060000 	stmdavc	r6, {}	; <UNPREDICTABLE>
    16b8:	00029616 	andeq	r9, r2, r6, lsl r6
    16bc:	0a104c00 	beq	4146c4 <__DATA_END+0x412d98>
    16c0:	0000000c 	andeq	r0, r0, ip
    16c4:	9b167906 	blls	59fae4 <__DATA_END+0x59e1b8>
    16c8:	50000002 	andpl	r0, r0, r2
    16cc:	02800a10 	addeq	r0, r0, #16, 20	; 0x10000
    16d0:	7a060000 	bvc	1816d8 <__DATA_END+0x17fdac>
    16d4:	0002a016 	andeq	sl, r2, r6, lsl r0
    16d8:	0a105400 	beq	4166e0 <__DATA_END+0x414db4>
    16dc:	00000232 	andeq	r0, r0, r2, lsr r2
    16e0:	9b167b06 	blls	5a0300 <__DATA_END+0x59e9d4>
    16e4:	58000002 	stmdapl	r0, {r1}
    16e8:	02380a10 	eorseq	r0, r8, #16, 20	; 0x10000
    16ec:	7c060000 	stcvc	0, cr0, [r6], {-0}
    16f0:	00029b16 	andeq	r9, r2, r6, lsl fp
    16f4:	0a105c00 	beq	4186fc <__DATA_END+0x416dd0>
    16f8:	0000022d 	andeq	r0, r0, sp, lsr #4
    16fc:	9b167d06 	blls	5a0b1c <__DATA_END+0x59f1f0>
    1700:	60000002 	andvs	r0, r0, r2
    1704:	028b0a10 	addeq	r0, fp, #16, 20	; 0x10000
    1708:	7e060000 	cdpvc	0, 0, cr0, cr6, cr0, {0}
    170c:	0002c016 	andeq	ip, r2, r6, lsl r0
    1710:	0a106400 	beq	41a718 <__DATA_END+0x418dec>
    1714:	00000179 	andeq	r0, r0, r9, ror r1
    1718:	96167f06 	ldrls	r7, [r6], -r6, lsl #30
    171c:	00000002 	andeq	r0, r0, r2
    1720:	01560a11 	cmpeq	r6, r1, lsl sl
    1724:	80060000 	andhi	r0, r6, r0
    1728:	00029616 	andeq	r9, r2, r6, lsl r6
    172c:	00110400 	andseq	r0, r1, r0, lsl #8
    1730:	0000810c 	andeq	r8, r0, ip, lsl #2
    1734:	00053700 	andeq	r3, r5, r0, lsl #14
    1738:	023a1300 	eorseq	r1, sl, #0, 6
    173c:	0ffb0000 	svceq	0x00fb0000
    1740:	00810c00 	addeq	r0, r1, r0, lsl #24
    1744:	05470000 	strbeq	r0, [r7, #-0]
    1748:	3a0d0000 	bcc	341750 <__DATA_END+0x33fe24>
    174c:	0b000002 	bleq	175c <CwNumberData+0xf2>
    1750:	01030f00 	tsteq	r3, r0, lsl #30
    1754:	81060000 	mrshi	r0, (UNDEF: 6)
    1758:	0003a416 	andeq	sl, r3, r6, lsl r4
    175c:	07081400 	streq	r1, [r8, -r0, lsl #8]
    1760:	00057406 	andeq	r7, r5, r6, lsl #8
    1764:	090c1500 	stmdbeq	ip, {r8, sl, ip}
    1768:	07070000 	streq	r0, [r7, -r0]
    176c:	00000575 	andeq	r0, r0, r5, ror r5
    1770:	06f41500 	ldrbteq	r1, [r4], r0, lsl #10
    1774:	08070000 	stmdaeq	r7, {}	; <UNPREDICTABLE>
    1778:	00000575 	andeq	r0, r0, r5, ror r5
    177c:	17160004 	ldrne	r0, [r6, -r4]
    1780:	00057404 	andeq	r7, r5, r4, lsl #8
    1784:	07960300 	ldreq	r0, [r6, r0, lsl #6]
    1788:	09070000 	stmdbeq	r7, {}	; <UNPREDICTABLE>
    178c:	00000553 	andeq	r0, r0, r3, asr r5
    1790:	00076118 	andeq	r6, r7, r8, lsl r1
    1794:	01490300 	mrseq	r0, (UNDEF: 121)
    1798:	076e1903 	strbeq	r1, [lr, -r3, lsl #18]!
    179c:	72020000 	andvc	r0, r2, #0
    17a0:	05a90302 	streq	r0, [r9, #770]!	; 0x302
    17a4:	3a1a0000 	bcc	6817ac <__DATA_END+0x67fe80>
    17a8:	02000007 	andeq	r0, r0, #7
    17ac:	018d0272 	orreq	r0, sp, r2, ror r2
    17b0:	18000000 	stmdane	r0, {}	; <UNPREDICTABLE>
    17b4:	0000077d 	andeq	r0, r0, sp, ror r7
    17b8:	03015403 	movweq	r5, #5123	; 0x1403
    17bc:	0005081b 	andeq	r0, r5, fp, lsl r8
    17c0:	ec070100 	stfs	f0, [r7], {-0}
    17c4:	4c000008 	stcmi	0, cr0, [r0], {8}
    17c8:	01000000 	mrseq	r0, (UNDEF: 0)
    17cc:	00060f9c 	muleq	r6, ip, pc	; <UNPREDICTABLE>
    17d0:	090c1c00 	stmdbeq	ip, {sl, fp, ip}
    17d4:	07010000 	streq	r0, [r1, -r0]
    17d8:	00000575 	andeq	r0, r0, r5, ror r5
    17dc:	00000422 	andeq	r0, r0, r2, lsr #8
    17e0:	0006c61c 	andeq	ip, r6, ip, lsl r6
    17e4:	73070100 	movwvc	r0, #28928	; 0x7100
    17e8:	52000000 	andpl	r0, r0, #0
    17ec:	1d000004 	stcne	0, cr0, [r0, #-16]
    17f0:	0000058f 	andeq	r0, r0, pc, lsl #11
    17f4:	00000918 	andeq	r0, r0, r8, lsl r9
    17f8:	00000008 	andeq	r0, r0, r8
    17fc:	05ff1201 	ldrbeq	r1, [pc, #513]!	; 1a05 <__DATA_END+0xd9>
    1800:	9c1e0000 	ldcls	0, cr0, [lr], {-0}
    1804:	16000005 	strne	r0, [r0], -r5
    1808:	05861f00 	streq	r1, [r6, #3840]	; 0xf00
    180c:	09200000 	stmdbeq	r0!, {}	; <UNPREDICTABLE>
    1810:	00020000 	andeq	r0, r2, r0
    1814:	13010000 	movwne	r0, #4096	; 0x1000
    1818:	051c1b00 	ldreq	r1, [ip, #-2816]	; 0xfffff500
    181c:	15010000 	strne	r0, [r1, #-0]
    1820:	00000938 	andeq	r0, r0, r8, lsr r9
    1824:	0000004c 	andeq	r0, r0, ip, asr #32
    1828:	066c9c01 	strbteq	r9, [ip], -r1, lsl #24
    182c:	f41c0000 			; <UNDEFINED> instruction: 0xf41c0000
    1830:	01000006 	tsteq	r0, r6
    1834:	00057515 	andeq	r7, r5, r5, lsl r5
    1838:	00047f00 	andeq	r7, r4, r0, lsl #30
    183c:	06c61c00 	strbeq	r1, [r6], r0, lsl #24
    1840:	15010000 	strne	r0, [r1, #-0]
    1844:	00000073 	andeq	r0, r0, r3, ror r0
    1848:	000004af 	andeq	r0, r0, pc, lsr #9
    184c:	00058f1d 	andeq	r8, r5, sp, lsl pc
    1850:	00096400 	andeq	r6, r9, r0, lsl #8
    1854:	00000800 	andeq	r0, r0, r0, lsl #16
    1858:	5c210100 	stfpls	f0, [r1], #-0
    185c:	1e000006 	cdpne	0, 0, cr0, cr0, cr6, {0}
    1860:	0000059c 	muleq	r0, ip, r5
    1864:	861f0016 			; <UNDEFINED> instruction: 0x861f0016
    1868:	6c000005 	stcvs	0, cr0, [r0], {5}
    186c:	02000009 	andeq	r0, r0, #9
    1870:	01000000 	mrseq	r0, (UNDEF: 0)
    1874:	26200022 	strtcs	r0, [r0], -r2, lsr #32
    1878:	01000005 	tsteq	r0, r5
    187c:	00098425 	andeq	r8, r9, r5, lsr #8
    1880:	00000c00 	andeq	r0, r0, r0, lsl #24
    1884:	209c0100 	addscs	r0, ip, r0, lsl #2
    1888:	000005c5 	andeq	r0, r0, r5, asr #11
    188c:	09902901 	ldmibeq	r0, {r0, r8, fp, sp}
    1890:	000c0000 	andeq	r0, ip, r0
    1894:	9c010000 	stcls	0, cr0, [r1], {-0}
    1898:	0007bd21 	andeq	fp, r7, r1, lsr #26
    189c:	9c2d0100 	stflss	f0, [sp], #-0
    18a0:	34000009 	strcc	r0, [r0], #-9
    18a4:	01000000 	mrseq	r0, (UNDEF: 0)
    18a8:	0006c29c 	muleq	r6, ip, r2
    18ac:	05a91f00 	streq	r1, [r9, #3840]!	; 0xf00
    18b0:	099e0000 	ldmibeq	lr, {}	; <UNPREDICTABLE>
    18b4:	00020000 	andeq	r0, r2, r0
    18b8:	2f010000 	svccs	0x00010000
    18bc:	0005861f 	andeq	r8, r5, pc, lsl r6
    18c0:	0009c400 	andeq	ip, r9, r0, lsl #8
    18c4:	00000200 	andeq	r0, r0, r0, lsl #4
    18c8:	00380100 	eorseq	r0, r8, r0, lsl #2
    18cc:	00080722 	andeq	r0, r8, r2, lsr #14
    18d0:	7b060100 	blvc	181cd8 <__DATA_END+0x1803ac>
    18d4:	05000005 	streq	r0, [r0, #-5]
    18d8:	fff22c03 			; <UNDEFINED> instruction: 0xfff22c03
    18dc:	0f6e001f 	svceq	0x006e001f
    18e0:	00040000 	andeq	r0, r4, r0
    18e4:	000007e5 	andeq	r0, r0, r5, ror #15
    18e8:	00170104 	andseq	r0, r7, r4, lsl #2
    18ec:	ad0c0000 	stcge	0, cr0, [ip, #-0]
    18f0:	a3000009 	movwge	r0, #9
    18f4:	18000001 	stmdane	r0, {r0}
    18f8:	00000001 	andeq	r0, r0, r1
    18fc:	34000000 	strcc	r0, [r0], #-0
    1900:	02000007 	andeq	r0, r0, #7
    1904:	016d0601 	cmneq	sp, r1, lsl #12
    1908:	ee030000 	cdp	0, 0, cr0, cr3, cr0, {0}
    190c:	04000000 	streq	r0, [r0], #-0
    1910:	0000371d 	andeq	r3, r0, sp, lsl r7
    1914:	08010200 	stmdaeq	r1, {r9}
    1918:	0000016b 	andeq	r0, r0, fp, ror #2
    191c:	17050202 	strne	r0, [r5, -r2, lsl #4]
    1920:	02000001 	andeq	r0, r0, #1
    1924:	01dd0702 	bicseq	r0, sp, r2, lsl #14
    1928:	04020000 	streq	r0, [r2], #-0
    192c:	00012605 	andeq	r2, r1, r5, lsl #12
    1930:	00f80300 	rscseq	r0, r8, r0, lsl #6
    1934:	41040000 	mrsmi	r0, (UNDEF: 4)
    1938:	0000005e 	andeq	r0, r0, lr, asr r0
    193c:	83070402 	movwhi	r0, #29698	; 0x7402
    1940:	02000001 	andeq	r0, r0, #1
    1944:	01210508 	teqeq	r1, r8, lsl #10
    1948:	08020000 	stmdaeq	r2, {}	; <UNPREDICTABLE>
    194c:	00017e07 	andeq	r7, r1, r7, lsl #28
    1950:	05040400 	streq	r0, [r4, #-1024]	; 0xfffffc00
    1954:	00746e69 	rsbseq	r6, r4, r9, ror #28
    1958:	88070402 	stmdahi	r7, {r1, sl}
    195c:	03000001 	movweq	r0, #1
    1960:	000000f0 	strdeq	r0, [r0], -r0	; <UNPREDICTABLE>
    1964:	002c1405 	eoreq	r1, ip, r5, lsl #8
    1968:	fa030000 	blx	c1970 <__DATA_END+0xc0044>
    196c:	05000000 	streq	r0, [r0, #-0]
    1970:	00005320 	andeq	r5, r0, r0, lsr #6
    1974:	073a0500 	ldreq	r0, [sl, -r0, lsl #10]!
    1978:	25010000 	strcs	r0, [r1, #-0]
    197c:	06000000 	streq	r0, [r0], -r0
    1980:	00018d8b 	andeq	r8, r1, fp, lsl #27
    1984:	070e0600 	streq	r0, [lr, -r0, lsl #12]
    1988:	7f800000 	svcvc	0x00800000
    198c:	00087f06 	andeq	r7, r8, r6, lsl #30
    1990:	e7067200 	str	r7, [r6, -r0, lsl #4]
    1994:	73000007 	movwvc	r0, #7
    1998:	0007db06 	andeq	sp, r7, r6, lsl #22
    199c:	3f067b00 	svccc	0x00067b00
    19a0:	7e000007 	cdpvc	0, 0, cr0, cr0, cr7, {0}
    19a4:	0006af06 	andeq	sl, r6, r6, lsl #30
    19a8:	1c077f00 	stcne	15, cr7, [r7], {-0}
    19ac:	00000007 	andeq	r0, r0, r7
    19b0:	00086c07 	andeq	r6, r8, r7, lsl #24
    19b4:	04070100 	streq	r0, [r7], #-256	; 0xffffff00
    19b8:	02000007 	andeq	r0, r0, #7
    19bc:	0006d607 	andeq	sp, r6, r7, lsl #12
    19c0:	2f070300 	svccs	0x00070300
    19c4:	04000007 	streq	r0, [r0], #-7
    19c8:	0008b407 	andeq	fp, r8, r7, lsl #8
    19cc:	93070500 	movwls	r0, #29952	; 0x7500
    19d0:	06000008 	streq	r0, [r0], -r8
    19d4:	0008dc07 	andeq	sp, r8, r7, lsl #24
    19d8:	62070700 	andvs	r0, r7, #0, 14
    19dc:	08000008 	stmdaeq	r0, {r3}
    19e0:	0006fa07 	andeq	pc, r6, r7, lsl #20
    19e4:	cc070900 	stcgt	9, cr0, [r7], {-0}
    19e8:	0a000007 	beq	1a0c <__DATA_END+0xe0>
    19ec:	0006bc07 	andeq	fp, r6, r7, lsl #24
    19f0:	f0070b00 			; <UNDEFINED> instruction: 0xf0070b00
    19f4:	0c000008 	stceq	0, cr0, [r0], {8}
    19f8:	00078b07 	andeq	r8, r7, r7, lsl #22
    19fc:	fb070d00 	blx	1c4e06 <__DATA_END+0x1c34da>
    1a00:	0e000008 	cdpeq	0, 0, cr0, cr0, cr8, {0}
    1a04:	00083007 	andeq	r3, r8, r7
    1a08:	c8070f00 	stmdagt	r7, {r8, r9, sl, fp}
    1a0c:	10000008 	andne	r0, r0, r8
    1a10:	0008d207 	andeq	sp, r8, r7, lsl #4
    1a14:	4b071100 	blmi	1c5e1c <__DATA_END+0x1c44f0>
    1a18:	12000007 	andne	r0, r0, #7
    1a1c:	0008be07 	andeq	fp, r8, r7, lsl #28
    1a20:	76071300 	strvc	r1, [r7], -r0, lsl #6
    1a24:	14000008 	strne	r0, [r0], #-8
    1a28:	00080f07 	andeq	r0, r8, r7, lsl #30
    1a2c:	a6071500 	strge	r1, [r7], -r0, lsl #10
    1a30:	16000006 	strne	r0, [r0], -r6
    1a34:	0008e607 	andeq	lr, r8, r7, lsl #12
    1a38:	12071700 	andne	r1, r7, #0, 14
    1a3c:	18000009 	stmdane	r0, {r0, r3}
    1a40:	0006e007 	andeq	lr, r6, r7
    1a44:	58071900 	stmdapl	r7, {r8, fp, ip}
    1a48:	1a000008 	bne	1a70 <__DATA_END+0x144>
    1a4c:	0008a007 	andeq	sl, r8, r7
    1a50:	55071b00 	strpl	r1, [r7, #-2816]	; 0xfffff500
    1a54:	1c000007 	stcne	0, cr0, [r0], {7}
    1a58:	00082007 	andeq	r2, r8, r7
    1a5c:	a9071d00 	stmdbge	r7, {r8, sl, fp, ip}
    1a60:	1e000008 	cdpne	0, 0, cr0, cr0, cr8, {0}
    1a64:	0007f607 	andeq	pc, r7, r7, lsl #12
    1a68:	03001f00 	movweq	r1, #3840	; 0xf00
    1a6c:	000007ae 	andeq	r0, r0, lr, lsr #15
    1a70:	0097b706 	addseq	fp, r7, r6, lsl #14
    1a74:	20080000 	andcs	r0, r8, r0
    1a78:	01230303 	teqeq	r3, r3, lsl #6
    1a7c:	0000022a 	andeq	r0, r0, sl, lsr #4
    1a80:	00083f09 	andeq	r3, r8, r9, lsl #30
    1a84:	01250300 	teqeq	r5, r0, lsl #6
    1a88:	00000241 	andeq	r0, r0, r1, asr #4
    1a8c:	06cc0900 	strbeq	r0, [ip], r0, lsl #18
    1a90:	26030000 	strcs	r0, [r3], -r0
    1a94:	00024601 	andeq	r4, r2, r1, lsl #12
    1a98:	d6090400 	strle	r0, [r9], -r0, lsl #8
    1a9c:	03000007 	movweq	r0, #7
    1aa0:	02560127 	subseq	r0, r6, #-1073741815	; 0xc0000009
    1aa4:	09800000 	stmibeq	r0, {}	; <UNPREDICTABLE>
    1aa8:	00000726 	andeq	r0, r0, r6, lsr #14
    1aac:	46012803 	strmi	r2, [r1], -r3, lsl #16
    1ab0:	84000002 	strhi	r0, [r0], #-2
    1ab4:	00083a0a 	andeq	r3, r8, sl, lsl #20
    1ab8:	01290300 	teqeq	r9, r0, lsl #6
    1abc:	0000025b 	andeq	r0, r0, fp, asr r2
    1ac0:	4e0a0100 	adfmie	f0, f2, f0
    1ac4:	03000008 	movweq	r0, #8
    1ac8:	0246012a 	subeq	r0, r6, #-2147483638	; 0x8000000a
    1acc:	01040000 	mrseq	r0, (UNDEF: 4)
    1ad0:	0007b80a 	andeq	fp, r7, sl, lsl #16
    1ad4:	012b0300 	teqeq	fp, r0, lsl #6
    1ad8:	00000260 	andeq	r0, r0, r0, ror #4
    1adc:	ea0a0180 	b	2820e4 <__DATA_END+0x2807b8>
    1ae0:	03000006 	movweq	r0, #6
    1ae4:	0246012c 	subeq	r0, r6, #44, 2
    1ae8:	01840000 	orreq	r0, r4, r0
    1aec:	0008440a 	andeq	r4, r8, sl, lsl #8
    1af0:	012d0300 	teqeq	sp, r0, lsl #6
    1af4:	00000265 	andeq	r0, r0, r5, ror #4
    1af8:	490b0200 	stmdbmi	fp, {r9}
    1afc:	2e030050 	mcrcs	0, 0, r0, cr3, cr0, {2}
    1b00:	00028501 	andeq	r8, r2, r1, lsl #10
    1b04:	00030000 	andeq	r0, r3, r0
    1b08:	00008c0c 	andeq	r8, r0, ip, lsl #24
    1b0c:	00023a00 	andeq	r3, r2, r0, lsl #20
    1b10:	023a0d00 	eorseq	r0, sl, #0, 26
    1b14:	00000000 	andeq	r0, r0, r0
    1b18:	a2070402 	andge	r0, r7, #33554432	; 0x2000000
    1b1c:	0e000002 	cdpeq	0, 0, cr0, cr0, cr2, {0}
    1b20:	0000022a 	andeq	r0, r0, sl, lsr #4
    1b24:	00008c0c 	andeq	r8, r0, ip, lsl #24
    1b28:	00025600 	andeq	r5, r2, r0, lsl #12
    1b2c:	023a0d00 	eorseq	r0, sl, #0, 26
    1b30:	001e0000 	andseq	r0, lr, r0
    1b34:	00022a0e 	andeq	r2, r2, lr, lsl #20
    1b38:	022a0e00 	eoreq	r0, sl, #0, 28
    1b3c:	2a0e0000 	bcs	381b44 <__DATA_END+0x380218>
    1b40:	0c000002 	stceq	0, cr0, [r0], {2}
    1b44:	0000008c 	andeq	r0, r0, ip, lsl #1
    1b48:	00000275 	andeq	r0, r0, r5, ror r2
    1b4c:	00023a0d 	andeq	r3, r2, sp, lsl #20
    1b50:	0c003f00 	stceq	15, cr3, [r0], {-0}
    1b54:	0000008c 	andeq	r0, r0, ip, lsl #1
    1b58:	00000285 	andeq	r0, r0, r5, lsl #5
    1b5c:	00023a0d 	andeq	r3, r2, sp, lsl #20
    1b60:	0e000700 	cdpeq	7, 0, cr0, cr0, cr0, {0}
    1b64:	00000275 	andeq	r0, r0, r5, ror r2
    1b68:	0007a40f 	andeq	sl, r7, pc, lsl #8
    1b6c:	012f0300 	teqeq	pc, r0, lsl #6
    1b70:	00000198 	muleq	r0, r8, r1
    1b74:	00008c0e 	andeq	r8, r0, lr, lsl #24
    1b78:	02961000 	addseq	r1, r6, #0
    1b7c:	810c0000 	mrshi	r0, (UNDEF: 12)
    1b80:	b0000000 	andlt	r0, r0, r0
    1b84:	0d000002 	stceq	0, cr0, [r0, #-8]
    1b88:	0000023a 	andeq	r0, r0, sl, lsr r2
    1b8c:	810e0003 	tsthi	lr, r3
    1b90:	10000000 	andne	r0, r0, r0
    1b94:	000002b0 			; <UNDEFINED> instruction: 0x000002b0
    1b98:	ff061811 			; <UNDEFINED> instruction: 0xff061811
    1b9c:	00031206 	andeq	r1, r3, r6, lsl #4
    1ba0:	06300900 	ldrteq	r0, [r0], -r0, lsl #18
    1ba4:	00060000 	andeq	r0, r6, r0
    1ba8:	00029607 	andeq	r9, r2, r7, lsl #12
    1bac:	5c090000 	stcpl	0, cr0, [r9], {-0}
    1bb0:	06000006 	streq	r0, [r0], -r6
    1bb4:	02960701 	addseq	r0, r6, #262144	; 0x40000
    1bb8:	09040000 	stmdbeq	r4, {}	; <UNPREDICTABLE>
    1bbc:	000006a1 	andeq	r0, r0, r1, lsr #13
    1bc0:	96070206 	strls	r0, [r7], -r6, lsl #4
    1bc4:	08000002 	stmdaeq	r0, {r1}
    1bc8:	00068c09 	andeq	r8, r6, r9, lsl #24
    1bcc:	07030600 	streq	r0, [r3, -r0, lsl #12]
    1bd0:	00000296 	muleq	r0, r6, r2
    1bd4:	061c090c 	ldreq	r0, [ip], -ip, lsl #18
    1bd8:	04060000 	streq	r0, [r6], #-0
    1bdc:	00029b07 	andeq	r9, r2, r7, lsl #22
    1be0:	42091000 	andmi	r1, r9, #0
    1be4:	06000006 	streq	r0, [r0], -r6
    1be8:	02960705 	addseq	r0, r6, #1310720	; 0x140000
    1bec:	00140000 	andseq	r0, r4, r0
    1bf0:	0006470f 	andeq	r4, r6, pc, lsl #14
    1bf4:	07060600 	streq	r0, [r6, -r0, lsl #12]
    1bf8:	000002ba 			; <UNDEFINED> instruction: 0x000002ba
    1bfc:	0000810c 	andeq	r8, r0, ip, lsl #2
    1c00:	00032e00 	andeq	r2, r3, r0, lsl #28
    1c04:	023a0d00 	eorseq	r0, sl, #0, 26
    1c08:	00070000 	andeq	r0, r7, r0
    1c0c:	0000810c 	andeq	r8, r0, ip, lsl #2
    1c10:	00033e00 	andeq	r3, r3, r0, lsl #28
    1c14:	023a0d00 	eorseq	r0, sl, #0, 26
    1c18:	009b0000 	addseq	r0, fp, r0
    1c1c:	0000810c 	andeq	r8, r0, ip, lsl #2
    1c20:	00034e00 	andeq	r4, r3, r0, lsl #28
    1c24:	023a0d00 	eorseq	r0, sl, #0, 26
    1c28:	00170000 	andseq	r0, r7, r0
    1c2c:	c306a411 	movwgt	sl, #25617	; 0x6411
    1c30:	00039912 	andeq	r9, r3, r2, lsl r9
    1c34:	43501200 	cmpmi	r0, #0, 4
    1c38:	c4060052 	strgt	r0, [r6], #-82	; 0xffffffae
    1c3c:	0003a912 	andeq	sl, r3, r2, lsl r9
    1c40:	1c090000 	stcne	0, cr0, [r9], {-0}
    1c44:	06000009 	streq	r0, [r0], -r9
    1c48:	029612c5 	addseq	r1, r6, #1342177292	; 0x5000000c
    1c4c:	09800000 	stmibeq	r0, {}	; <UNPREDICTABLE>
    1c50:	00000aab 	andeq	r0, r0, fp, lsr #21
    1c54:	9612c606 	ldrls	ip, [r2], -r6, lsl #12
    1c58:	84000002 	strhi	r0, [r0], #-2
    1c5c:	00023e09 	andeq	r3, r2, r9, lsl #28
    1c60:	12c70600 	sbcne	r0, r7, #0, 12
    1c64:	0000033e 	andeq	r0, r0, lr, lsr r3
    1c68:	09870988 	stmibeq	r7, {r3, r7, r8, fp}
    1c6c:	c8060000 	stmdagt	r6, {}	; <UNPREDICTABLE>
    1c70:	00029612 	andeq	r9, r2, r2, lsl r6
    1c74:	0c00a000 	stceq	0, cr10, [r0], {-0}
    1c78:	0000008c 	andeq	r0, r0, ip, lsl #1
    1c7c:	000003a9 	andeq	r0, r0, r9, lsr #7
    1c80:	00023a0d 	andeq	r3, r2, sp, lsl #20
    1c84:	0e001f00 	cdpeq	15, 0, cr1, cr0, cr0, {0}
    1c88:	00000399 	muleq	r0, r9, r3
    1c8c:	00095c0f 	andeq	r5, r9, pc, lsl #24
    1c90:	12c90600 	sbcne	r0, r9, #0, 12
    1c94:	0000034e 	andeq	r0, r0, lr, asr #6
    1c98:	06110808 	ldreq	r0, [r1], -r8, lsl #16
    1c9c:	053c1665 	ldreq	r1, [ip, #-1637]!	; 0xfffff99b
    1ca0:	17090000 	strne	r0, [r9, -r0]
    1ca4:	06000002 	streq	r0, [r0], -r2
    1ca8:	02961666 	addseq	r1, r6, #106954752	; 0x6600000
    1cac:	09000000 	stmdbeq	r0, {}	; <UNPREDICTABLE>
    1cb0:	0000012f 	andeq	r0, r0, pc, lsr #2
    1cb4:	96166706 	ldrls	r6, [r6], -r6, lsl #14
    1cb8:	04000002 	streq	r0, [r0], #-2
    1cbc:	00023e09 	andeq	r3, r2, r9, lsl #28
    1cc0:	16680600 	strbtne	r0, [r8], -r0, lsl #12
    1cc4:	0000053c 	andeq	r0, r0, ip, lsr r5
    1cc8:	01500a08 	cmpeq	r0, r8, lsl #20
    1ccc:	69060000 	stmdbvs	r6, {}	; <UNPREDICTABLE>
    1cd0:	00029616 	andeq	r9, r2, r6, lsl r6
    1cd4:	0a100400 	beq	402cdc <__DATA_END+0x4013b0>
    1cd8:	00000249 	andeq	r0, r0, r9, asr #4
    1cdc:	a0166a06 	andsge	r6, r6, r6, lsl #20
    1ce0:	08000002 	stmdaeq	r0, {r1}
    1ce4:	02dc0a10 	sbcseq	r0, ip, #16, 20	; 0x10000
    1ce8:	6b060000 	blvs	181cf0 <__DATA_END+0x1803c4>
    1cec:	00029616 	andeq	r9, r2, r6, lsl r6
    1cf0:	0a100c00 	beq	404cf8 <__DATA_END+0x4033cc>
    1cf4:	00000000 	andeq	r0, r0, r0
    1cf8:	96166c06 	ldrls	r6, [r6], -r6, lsl #24
    1cfc:	10000002 	andne	r0, r0, r2
    1d00:	02540a10 	subseq	r0, r4, #16, 20	; 0x10000
    1d04:	6d060000 	stcvs	0, cr0, [r6, #-0]
    1d08:	0002a016 	andeq	sl, r2, r6, lsl r0
    1d0c:	0a101400 	beq	406d14 <__DATA_END+0x4053e8>
    1d10:	0000015d 	andeq	r0, r0, sp, asr r1
    1d14:	96166e06 	ldrls	r6, [r6], -r6, lsl #28
    1d18:	18000002 	stmdane	r0, {r1}
    1d1c:	025f0a10 	subseq	r0, pc, #16, 20	; 0x10000
    1d20:	6f060000 	svcvs	0x00060000
    1d24:	00031e16 	andeq	r1, r3, r6, lsl lr
    1d28:	0a101c00 	beq	408d30 <__DATA_END+0x407404>
    1d2c:	00000012 	andeq	r0, r0, r2, lsl r0
    1d30:	9b167006 	blls	59dd50 <__DATA_END+0x59c424>
    1d34:	24000002 	strcs	r0, [r0], #-2
    1d38:	026a0a10 	rsbeq	r0, sl, #16, 20	; 0x10000
    1d3c:	71060000 	mrsvc	r0, (UNDEF: 6)
    1d40:	00054d16 	andeq	r4, r5, r6, lsl sp
    1d44:	0a102800 	beq	40bd4c <__DATA_END+0x40a420>
    1d48:	00000138 	andeq	r0, r0, r8, lsr r1
    1d4c:	96167206 	ldrls	r7, [r6], -r6, lsl #4
    1d50:	34000002 	strcc	r0, [r0], #-2
    1d54:	013e0a10 	teqeq	lr, r0, lsl sl
    1d58:	73060000 	movwvc	r0, #24576	; 0x6000
    1d5c:	00029616 	andeq	r9, r2, r6, lsl r6
    1d60:	0a103800 	beq	40fd68 <__DATA_END+0x40e43c>
    1d64:	00000144 	andeq	r0, r0, r4, asr #2
    1d68:	96167406 	ldrls	r7, [r6], -r6, lsl #8
    1d6c:	3c000002 	stccc	0, cr0, [r0], {2}
    1d70:	014a0a10 	cmpeq	sl, r0, lsl sl
    1d74:	75060000 	strvc	r0, [r6, #-0]
    1d78:	00029616 	andeq	r9, r2, r6, lsl r6
    1d7c:	0a104000 	beq	411d84 <__DATA_END+0x410458>
    1d80:	00000163 	andeq	r0, r0, r3, ror #2
    1d84:	96167606 	ldrls	r7, [r6], -r6, lsl #12
    1d88:	44000002 	strmi	r0, [r0], #-2
    1d8c:	02750a10 	rsbseq	r0, r5, #16, 20	; 0x10000
    1d90:	77060000 	strvc	r0, [r6, -r0]
    1d94:	0002a016 	andeq	sl, r2, r6, lsl r0
    1d98:	0a104800 	beq	413da0 <__DATA_END+0x412474>
    1d9c:	00000006 	andeq	r0, r0, r6
    1da0:	96167806 	ldrls	r7, [r6], -r6, lsl #16
    1da4:	4c000002 	stcmi	0, cr0, [r0], {2}
    1da8:	000c0a10 	andeq	r0, ip, r0, lsl sl
    1dac:	79060000 	stmdbvc	r6, {}	; <UNPREDICTABLE>
    1db0:	00029b16 	andeq	r9, r2, r6, lsl fp
    1db4:	0a105000 	beq	415dbc <__DATA_END+0x414490>
    1db8:	00000280 	andeq	r0, r0, r0, lsl #5
    1dbc:	a0167a06 	andsge	r7, r6, r6, lsl #20
    1dc0:	54000002 	strpl	r0, [r0], #-2
    1dc4:	02320a10 	eorseq	r0, r2, #16, 20	; 0x10000
    1dc8:	7b060000 	blvc	181dd0 <__DATA_END+0x1804a4>
    1dcc:	00029b16 	andeq	r9, r2, r6, lsl fp
    1dd0:	0a105800 	beq	417dd8 <__DATA_END+0x4164ac>
    1dd4:	00000238 	andeq	r0, r0, r8, lsr r2
    1dd8:	9b167c06 	blls	5a0df8 <__DATA_END+0x59f4cc>
    1ddc:	5c000002 	stcpl	0, cr0, [r0], {2}
    1de0:	022d0a10 	eoreq	r0, sp, #16, 20	; 0x10000
    1de4:	7d060000 	stcvc	0, cr0, [r6, #-0]
    1de8:	00029b16 	andeq	r9, r2, r6, lsl fp
    1dec:	0a106000 	beq	419df4 <__DATA_END+0x4184c8>
    1df0:	0000028b 	andeq	r0, r0, fp, lsl #5
    1df4:	2e167e06 	cdpcs	14, 1, cr7, cr6, cr6, {0}
    1df8:	64000003 	strvs	r0, [r0], #-3
    1dfc:	01790a10 	cmneq	r9, r0, lsl sl
    1e00:	7f060000 	svcvc	0x00060000
    1e04:	00029616 	andeq	r9, r2, r6, lsl r6
    1e08:	0a110000 	beq	441e10 <__DATA_END+0x4404e4>
    1e0c:	00000156 	andeq	r0, r0, r6, asr r1
    1e10:	96168006 	ldrls	r8, [r6], -r6
    1e14:	04000002 	streq	r0, [r0], #-2
    1e18:	810c0011 	tsthi	ip, r1, lsl r0
    1e1c:	4d000000 	stcmi	0, cr0, [r0, #-0]
    1e20:	13000005 	movwne	r0, #5
    1e24:	0000023a 	andeq	r0, r0, sl, lsr r2
    1e28:	0c000ffb 	stceq	15, cr0, [r0], {251}	; 0xfb
    1e2c:	00000081 	andeq	r0, r0, r1, lsl #1
    1e30:	0000055d 	andeq	r0, r0, sp, asr r5
    1e34:	00023a0d 	andeq	r3, r2, sp, lsl #20
    1e38:	0f000b00 	svceq	0x00000b00
    1e3c:	00000103 	andeq	r0, r0, r3, lsl #2
    1e40:	ba168106 	blt	5a2260 <__DATA_END+0x5a0934>
    1e44:	11000003 	tstne	r0, r3
    1e48:	1bc30609 	blne	ff0c3674 <__StackTop+0xdf0c0674>
    1e4c:	000005e0 	andeq	r0, r0, r0, ror #11
    1e50:	48444212 	stmdami	r4, {r1, r4, r9, lr}^
    1e54:	1bc40600 	blne	ff10365c <__StackTop+0xdf10065c>
    1e58:	000002b0 			; <UNDEFINED> instruction: 0x000002b0
    1e5c:	44421200 	strbmi	r1, [r2], #-512	; 0xfffffe00
    1e60:	c506004c 	strgt	r0, [r6, #-76]	; 0xffffffb4
    1e64:	0002b01b 	andeq	fp, r2, fp, lsl r0
    1e68:	43120100 	tstmi	r2, #0, 2
    1e6c:	c6060031 			; <UNDEFINED> instruction: 0xc6060031
    1e70:	0002b01b 	andeq	fp, r2, fp, lsl r0
    1e74:	43120200 	tstmi	r2, #0, 4
    1e78:	c7060032 	smladxgt	r6, r2, r0, r0
    1e7c:	0002b01b 	andeq	fp, r2, fp, lsl r0
    1e80:	53120300 	tstpl	r2, #0, 6
    1e84:	c8060031 	stmdagt	r6, {r0, r4, r5}
    1e88:	0002b51b 	andeq	fp, r2, fp, lsl r5
    1e8c:	53120400 	tstpl	r2, #0, 8
    1e90:	c9060032 	stmdbgt	r6, {r1, r4, r5}
    1e94:	0002b01b 	andeq	fp, r2, fp, lsl r0
    1e98:	43120500 	tstmi	r2, #0, 10
    1e9c:	ca060033 	bgt	181f70 <__DATA_END+0x180644>
    1ea0:	0002b01b 	andeq	fp, r2, fp, lsl r0
    1ea4:	44120600 	ldrmi	r0, [r2], #-1536	; 0xfffffa00
    1ea8:	1bcb0600 	blne	ff2c36b0 <__StackTop+0xdf2c06b0>
    1eac:	000002b0 			; <UNDEFINED> instruction: 0x000002b0
    1eb0:	34431207 	strbcc	r1, [r3], #-519	; 0xfffffdf9
    1eb4:	1bcc0600 	blne	ff3036bc <__StackTop+0xdf3006bc>
    1eb8:	000002b0 			; <UNDEFINED> instruction: 0x000002b0
    1ebc:	cd0f0008 	stcgt	0, cr0, [pc, #-32]	; 1ea4 <__DATA_END+0x578>
    1ec0:	06000009 	streq	r0, [r0], -r9
    1ec4:	05691bcd 	strbeq	r1, [r9, #-3021]!	; 0xfffff433
    1ec8:	0c110000 	ldceq	0, cr0, [r1], {-0}
    1ecc:	891d2006 	ldmdbhi	sp, {r1, r2, sp}
    1ed0:	12000006 	andne	r0, r0, #6
    1ed4:	00484442 	subeq	r4, r8, r2, asr #8
    1ed8:	b01d2106 	andslt	r2, sp, r6, lsl #2
    1edc:	00000002 	andeq	r0, r0, r2
    1ee0:	4c444212 	sfmmi	f4, 2, [r4], {18}
    1ee4:	1d220600 	stcne	6, cr0, [r2, #-0]
    1ee8:	000002b0 			; <UNDEFINED> instruction: 0x000002b0
    1eec:	31431201 	cmpcc	r3, r1, lsl #4
    1ef0:	1d230600 	stcne	6, cr0, [r3, #-0]
    1ef4:	000002b0 			; <UNDEFINED> instruction: 0x000002b0
    1ef8:	32431202 	subcc	r1, r3, #536870912	; 0x20000000
    1efc:	1d240600 	stcne	6, cr0, [r4, #-0]
    1f00:	000002b0 			; <UNDEFINED> instruction: 0x000002b0
    1f04:	31531203 	cmpcc	r3, r3, lsl #4
    1f08:	1d250600 	stcne	6, cr0, [r5, #-0]
    1f0c:	000002b0 			; <UNDEFINED> instruction: 0x000002b0
    1f10:	32531204 	subscc	r1, r3, #4, 4	; 0x40000000
    1f14:	1d260600 	stcne	6, cr0, [r6, #-0]
    1f18:	000002b0 			; <UNDEFINED> instruction: 0x000002b0
    1f1c:	33431205 	movtcc	r1, #12805	; 0x3205
    1f20:	1d270600 	stcne	6, cr0, [r7, #-0]
    1f24:	000002b0 			; <UNDEFINED> instruction: 0x000002b0
    1f28:	00441206 	subeq	r1, r4, r6, lsl #4
    1f2c:	b01d2806 	andslt	r2, sp, r6, lsl #16
    1f30:	07000002 	streq	r0, [r0, -r2]
    1f34:	31414d12 	cmpcc	r1, r2, lsl sp
    1f38:	1d290600 	stcne	6, cr0, [r9, #-0]
    1f3c:	000002b0 			; <UNDEFINED> instruction: 0x000002b0
    1f40:	414d1208 	cmpmi	sp, r8, lsl #4
    1f44:	2a060032 	bcs	182014 <__DATA_END+0x1806e8>
    1f48:	0002b01d 	andeq	fp, r2, sp, lsl r0
    1f4c:	43120900 	tstmi	r2, #0, 18
    1f50:	2b060034 	blcs	182028 <__DATA_END+0x1806fc>
    1f54:	0002b01d 	andeq	fp, r2, sp, lsl r0
    1f58:	43120a00 	tstmi	r2, #0, 20
    1f5c:	2c060035 	stccs	0, cr0, [r6], {53}	; 0x35
    1f60:	0002b01d 	andeq	fp, r2, sp, lsl r0
    1f64:	0f000b00 	svceq	0x00000b00
    1f68:	00000a37 	andeq	r0, r0, r7, lsr sl
    1f6c:	ec1d2d06 	ldc	13, cr2, [sp], {6}
    1f70:	14000005 	strne	r0, [r0], #-5
    1f74:	da050760 	ble	143cfc <__DATA_END+0x1423d0>
    1f78:	15000006 	strne	r0, [r0, #-6]
    1f7c:	00000439 	andeq	r0, r0, r9, lsr r4
    1f80:	00730607 	rsbseq	r0, r3, r7, lsl #12
    1f84:	15000000 	strne	r0, [r0, #-0]
    1f88:	00000409 	andeq	r0, r0, r9, lsl #8
    1f8c:	00730707 	rsbseq	r0, r3, r7, lsl #14
    1f90:	15040000 	strne	r0, [r4, #-0]
    1f94:	0000041c 	andeq	r0, r0, ip, lsl r4
    1f98:	06da0907 	ldrbeq	r0, [sl], r7, lsl #18
    1f9c:	15080000 	strne	r0, [r8, #-0]
    1fa0:	000003f4 	strdeq	r0, [r0], -r4
    1fa4:	00730d07 	rsbseq	r0, r3, r7, lsl #26
    1fa8:	15580000 	ldrbne	r0, [r8, #-0]
    1fac:	0000045e 	andeq	r0, r0, lr, asr r4
    1fb0:	00730e07 	rsbseq	r0, r3, r7, lsl #28
    1fb4:	005c0000 	subseq	r0, ip, r0
    1fb8:	0006ea0c 	andeq	lr, r6, ip, lsl #20
    1fbc:	0006ea00 	andeq	lr, r6, r0, lsl #20
    1fc0:	023a0d00 	eorseq	r0, sl, #0, 26
    1fc4:	004f0000 	subeq	r0, pc, r0
    1fc8:	74080102 	strvc	r0, [r8], #-258	; 0xfffffefe
    1fcc:	03000001 	movweq	r0, #1
    1fd0:	00000421 	andeq	r0, r0, r1, lsr #8
    1fd4:	06950f07 	ldreq	r0, [r5], r7, lsl #30
    1fd8:	c4140000 	ldrgt	r0, [r4], #-0
    1fdc:	07290608 	streq	r0, [r9, -r8, lsl #12]!
    1fe0:	72160000 	andsvc	r0, r6, #0
    1fe4:	08005178 	stmdaeq	r0, {r3, r4, r5, r6, r8, ip, lr}
    1fe8:	00072907 	andeq	r2, r7, r7, lsl #18
    1fec:	74160000 	ldrvc	r0, [r6], #-0
    1ff0:	08005178 	stmdaeq	r0, {r3, r4, r5, r6, r8, ip, lr}
    1ff4:	00072908 	andeq	r2, r7, r8, lsl #18
    1ff8:	c2156000 	andsgt	r6, r5, #0
    1ffc:	0800000a 	stmdaeq	r0, {r1, r3}
    2000:	00072e09 	andeq	r2, r7, r9, lsl #28
    2004:	0e00c000 	cdpeq	0, 0, cr12, cr0, cr0, {0}
    2008:	000006f1 	strdeq	r0, [r0], -r1
    200c:	07340417 			; <UNDEFINED> instruction: 0x07340417
    2010:	e00e0000 	and	r0, lr, r0
    2014:	03000005 	movweq	r0, #5
    2018:	00000922 	andeq	r0, r0, r2, lsr #18
    201c:	06fc0a08 	ldrbteq	r0, [ip], r8, lsl #20
    2020:	61180000 	tstvs	r8, r0
    2024:	02000007 	andeq	r0, r0, #7
    2028:	19030149 	stmdbne	r3, {r0, r3, r6, r8}
    202c:	0000076e 	andeq	r0, r0, lr, ror #14
    2030:	03027203 	movweq	r7, #8707	; 0x2203
    2034:	00000767 	andeq	r0, r0, r7, ror #14
    2038:	00073a1a 	andeq	r3, r7, sl, lsl sl
    203c:	02720300 	rsbseq	r0, r2, #0, 6
    2040:	0000018d 	andeq	r0, r0, sp, lsl #3
    2044:	09bd1900 	ldmibeq	sp!, {r8, fp, ip}
    2048:	7e030000 	cdpvc	0, 0, cr0, cr3, cr0, {0}
    204c:	07810302 	streq	r0, [r1, r2, lsl #6]
    2050:	3a1a0000 	bcc	682058 <__DATA_END+0x68072c>
    2054:	03000007 	movweq	r0, #7
    2058:	018d027e 	orreq	r0, sp, lr, ror r2
    205c:	18000000 	stmdane	r0, {}	; <UNPREDICTABLE>
    2060:	0000077d 	andeq	r0, r0, sp, ror r7
    2064:	03015402 	movweq	r5, #5122	; 0x1402
    2068:	000b051b 	andeq	r0, fp, fp, lsl r5
    206c:	730d0100 	movwvc	r0, #53504	; 0xd100
    2070:	00000000 	andeq	r0, r0, r0
    2074:	10000000 	andne	r0, r0, r0
    2078:	01000000 	mrseq	r0, (UNDEF: 0)
    207c:	0007b29c 	muleq	r7, ip, r2
    2080:	09311c00 	ldmdbeq	r1!, {sl, fp, ip}
    2084:	0d010000 	stceq	0, cr0, [r1, #-0]
    2088:	00000739 	andeq	r0, r0, r9, lsr r7
    208c:	00709102 	rsbseq	r9, r0, r2, lsl #2
    2090:	000af41d 	andeq	pc, sl, sp, lsl r4	; <UNPREDICTABLE>
    2094:	d0100100 	andsle	r0, r0, r0, lsl #2
    2098:	12000009 	andne	r0, r0, #9
    209c:	01000000 	mrseq	r0, (UNDEF: 0)
    20a0:	0007d69c 	muleq	r7, ip, r6
    20a4:	09311c00 	ldmdbeq	r1!, {sl, fp, ip}
    20a8:	10010000 	andne	r0, r1, r0
    20ac:	00000739 	andeq	r0, r0, r9, lsr r7
    20b0:	00709102 	rsbseq	r9, r0, r2, lsl #2
    20b4:	0009b41d 	andeq	fp, r9, sp, lsl r4
    20b8:	e4150100 	ldr	r0, [r5], #-256	; 0xffffff00
    20bc:	00000009 	andeq	r0, r0, r9
    20c0:	01000001 	tsteq	r0, r1
    20c4:	0008439c 	muleq	r8, ip, r3
    20c8:	0ac71e00 	beq	ff1c98d0 <__StackTop+0xdf1c68d0>
    20cc:	15010000 	strne	r0, [r1, #-0]
    20d0:	00000843 	andeq	r0, r0, r3, asr #16
    20d4:	000004dc 	ldrdeq	r0, [r0], -ip
    20d8:	00099e1e 	andeq	r9, r9, lr, lsl lr
    20dc:	73150100 	tstvc	r5, #0, 2
    20e0:	34000000 	strcc	r0, [r0], #-0
    20e4:	1f000005 	svcne	0x00000005
    20e8:	00000744 	andeq	r0, r0, r4, asr #14
    20ec:	00000a9c 	muleq	r0, ip, sl
    20f0:	00000002 	andeq	r0, r0, r2
    20f4:	2e204701 	cdpcs	7, 2, cr4, cr0, cr1, {0}
    20f8:	2600000a 	strcs	r0, [r0], -sl
    20fc:	2f00000f 	svccs	0x0000000f
    2100:	21000008 	tstcs	r0, r8
    2104:	03055001 	movweq	r5, #20481	; 0x5001
    2108:	1ffff234 	svcne	0x00fff234
    210c:	0a342200 	beq	d0a914 <__DATA_END+0xd08fe8>
    2110:	0f260000 	svceq	0x00260000
    2114:	01210000 	teqeq	r1, r0
    2118:	94030550 	strls	r0, [r3], #-1360	; 0xfffffab0
    211c:	001ffff2 			; <UNDEFINED> instruction: 0x001ffff2
    2120:	e0041700 	and	r1, r4, r0, lsl #14
    2124:	23000005 	movwcs	r0, #5
    2128:	000009d7 	ldrdeq	r0, [r0], -r7
    212c:	00004a01 	andeq	r4, r0, r1, lsl #20
    2130:	00100000 	andseq	r0, r0, r0
    2134:	9c010000 	stcls	0, cr0, [r1], {-0}
    2138:	00000875 	andeq	r0, r0, r5, ror r8
    213c:	00074d24 	andeq	r4, r7, r4, lsr #26
    2140:	00000000 	andeq	r0, r0, r0
    2144:	00000800 	andeq	r0, r0, r0, lsl #16
    2148:	254b0100 	strbcs	r0, [fp, #-256]	; 0xffffff00
    214c:	0000075a 	andeq	r0, r0, sl, asr r7
    2150:	2300000d 	movwcs	r0, #13
    2154:	00000946 	andeq	r0, r0, r6, asr #18
    2158:	00005101 	andeq	r5, r0, r1, lsl #2
    215c:	001c0000 	andseq	r0, ip, r0
    2160:	9c010000 	stcls	0, cr0, [r1], {-0}
    2164:	000008a1 	andeq	r0, r0, r1, lsr #17
    2168:	00074d26 	andeq	r4, r7, r6, lsr #26
    216c:	00000000 	andeq	r0, r0, r0
    2170:	00010000 	andeq	r0, r1, r0
    2174:	25520100 	ldrbcs	r0, [r2, #-256]	; 0xffffff00
    2178:	0000075a 	andeq	r0, r0, sl, asr r7
    217c:	2700000d 	strcs	r0, [r0, -sp]
    2180:	00000a69 	andeq	r0, r0, r9, ror #20
    2184:	28015601 	stmdacs	r1, {r0, r9, sl, ip, lr}
    2188:	000008a1 	andeq	r0, r0, r1, lsr #17
    218c:	00000000 	andeq	r0, r0, r0
    2190:	00000010 	andeq	r0, r0, r0, lsl r0
    2194:	08d39c01 	ldmeq	r3, {r0, sl, fp, ip, pc}^
    2198:	67240000 	strvs	r0, [r4, -r0]!
    219c:	00000007 	andeq	r0, r0, r7
    21a0:	08000000 	stmdaeq	r0, {}	; <UNPREDICTABLE>
    21a4:	01000000 	mrseq	r0, (UNDEF: 0)
    21a8:	07742557 			; <UNDEFINED> instruction: 0x07742557
    21ac:	000d0000 	andeq	r0, sp, r0
    21b0:	0a9f1d00 	beq	fe7c95b8 <__StackTop+0xde7c65b8>
    21b4:	b1010000 	mrslt	r0, (UNDEF: 1)
    21b8:	00000000 	andeq	r0, r0, r0
    21bc:	0000003e 	andeq	r0, r0, lr, lsr r0
    21c0:	09339c01 	ldmdbeq	r3!, {r0, sl, fp, ip, pc}
    21c4:	311c0000 	tstcc	ip, r0
    21c8:	01000009 	tsteq	r0, r9
    21cc:	000739b1 			; <UNDEFINED> instruction: 0x000739b1
    21d0:	70910200 	addsvc	r0, r1, r0, lsl #4
    21d4:	00686329 	rsbeq	r6, r8, r9, lsr #6
    21d8:	06eab101 	strbteq	fp, [sl], r1, lsl #2
    21dc:	91030000 	mrsls	r0, (UNDEF: 3)
    21e0:	811f01b4 			; <UNDEFINED> instruction: 0x811f01b4
    21e4:	00000007 	andeq	r0, r0, r7
    21e8:	02000000 	andeq	r0, r0, #0
    21ec:	01000000 	mrseq	r0, (UNDEF: 0)
    21f0:	07441fb4 			; <UNDEFINED> instruction: 0x07441fb4
    21f4:	00000000 	andeq	r0, r0, r0
    21f8:	00020000 	andeq	r0, r2, r0
    21fc:	b6010000 	strlt	r0, [r1], -r0
    2200:	00000022 	andeq	r0, r0, r2, lsr #32
    2204:	000f3100 	andeq	r3, pc, r0, lsl #2
    2208:	50012100 	andpl	r2, r1, r0, lsl #2
    220c:	00309102 	eorseq	r9, r0, r2, lsl #2
    2210:	0a291d00 	beq	a49618 <__DATA_END+0xa47cec>
    2214:	9b010000 	blls	4221c <__DATA_END+0x408f0>
    2218:	00000000 	andeq	r0, r0, r0
    221c:	0000003c 	andeq	r0, r0, ip, lsr r0
    2220:	09ab9c01 	stmibeq	fp!, {r0, sl, fp, ip, pc}
    2224:	311c0000 	tstcc	ip, r0
    2228:	01000009 	tsteq	r0, r9
    222c:	0007399b 	muleq	r7, fp, r9
    2230:	70910200 	addsvc	r0, r1, r0, lsl #4
    2234:	72747329 	rsbsvc	r7, r4, #-1543503872	; 0xa4000000
    2238:	ab9b0100 	blge	fe6c2640 <__StackTop+0xde6bf640>
    223c:	03000009 	movweq	r0, #9
    2240:	2a01b491 	bcs	6f48c <__DATA_END+0x6db60>
    2244:	9c010069 	stcls	0, cr0, [r1], {105}	; 0x69
    2248:	00000073 	andeq	r0, r0, r3, ror r0
    224c:	00000587 	andeq	r0, r0, r7, lsl #11
    2250:	000a952b 	andeq	r9, sl, fp, lsr #10
    2254:	ea9d0100 	b	fe74265c <__StackTop+0xde73f65c>
    2258:	b4000006 	strlt	r0, [r0], #-6
    225c:	20000005 	andcs	r0, r0, r5
    2260:	00000000 	andeq	r0, r0, r0
    2264:	00000f3c 	andeq	r0, r0, ip, lsr pc
    2268:	000009a1 	andeq	r0, r0, r1, lsr #19
    226c:	02500121 	subseq	r0, r0, #1073741832	; 0x40000008
    2270:	0121007d 	teqeq	r1, sp, ror r0
    2274:	60910251 	addsvs	r0, r1, r1, asr r2
    2278:	02520121 	subseq	r0, r2, #1073741832	; 0x40000008
    227c:	2c00b408 	cfstrscs	mvf11, [r0], {8}
    2280:	00000000 	andeq	r0, r0, r0
    2284:	000008d3 	ldrdeq	r0, [r0], -r3
    2288:	ea041700 	b	107e90 <__DATA_END+0x106564>
    228c:	1d000006 	stcne	0, cr0, [r0, #-24]	; 0xffffffe8
    2290:	00000ad4 	ldrdeq	r0, [r0], -r4
    2294:	0ae4ba01 	beq	ff930aa0 <__StackTop+0xdf92daa0>
    2298:	00260000 	eoreq	r0, r6, r0
    229c:	9c010000 	stcls	0, cr0, [r1], {-0}
    22a0:	000009e3 	andeq	r0, r0, r3, ror #19
    22a4:	0009311c 	andeq	r3, r9, ip, lsl r1
    22a8:	39ba0100 	ldmibcc	sl!, {r8}
    22ac:	02000007 	andeq	r0, r0, #7
    22b0:	63297091 	teqvs	r9, #145	; 0x91
    22b4:	ba010068 	blt	4245c <__DATA_END+0x40b30>
    22b8:	000006ea 	andeq	r0, r0, sl, ror #13
    22bc:	01b49103 			; <UNDEFINED> instruction: 0x01b49103
    22c0:	09741d00 	ldmdbeq	r4!, {r8, sl, fp, ip}^
    22c4:	a6010000 	strge	r0, [r1], -r0
    22c8:	00000b0a 	andeq	r0, r0, sl, lsl #22
    22cc:	0000003c 	andeq	r0, r0, ip, lsr r0
    22d0:	0a5b9c01 	beq	16e92dc <__DATA_END+0x16e79b0>
    22d4:	311c0000 	tstcc	ip, r0
    22d8:	01000009 	tsteq	r0, r9
    22dc:	000739a6 	andeq	r3, r7, r6, lsr #19
    22e0:	70910200 	addsvc	r0, r1, r0, lsl #4
    22e4:	72747329 	rsbsvc	r7, r4, #-1543503872	; 0xa4000000
    22e8:	aba60100 	blge	fe9826f0 <__StackTop+0xde97f6f0>
    22ec:	03000009 	movweq	r0, #9
    22f0:	2a01b491 	bcs	6f53c <__DATA_END+0x6dc10>
    22f4:	a7010069 	strge	r0, [r1, -r9, rrx]
    22f8:	00000073 	andeq	r0, r0, r3, ror r0
    22fc:	000005d2 	ldrdeq	r0, [r0], -r2
    2300:	000a952b 	andeq	r9, sl, fp, lsr #10
    2304:	eaa80100 	b	fea0270c <__StackTop+0xde9ff70c>
    2308:	ff000006 			; <UNDEFINED> instruction: 0xff000006
    230c:	20000005 	andcs	r0, r0, r5
    2310:	00000b2e 	andeq	r0, r0, lr, lsr #22
    2314:	00000f3c 	andeq	r0, r0, ip, lsr pc
    2318:	00000a51 	andeq	r0, r0, r1, asr sl
    231c:	02500121 	subseq	r0, r0, #1073741832	; 0x40000008
    2320:	0121007d 	teqeq	r1, sp, ror r0
    2324:	60910251 	addsvs	r0, r1, r1, asr r2
    2328:	02520121 	subseq	r0, r2, #1073741832	; 0x40000008
    232c:	2c00b408 	cfstrscs	mvf11, [r0], {8}
    2330:	00000b3a 	andeq	r0, r0, sl, lsr fp
    2334:	000009b1 			; <UNDEFINED> instruction: 0x000009b1
    2338:	093a1b00 	ldmdbeq	sl!, {r8, r9, fp, ip}
    233c:	bf010000 	svclt	0x00010000
    2340:	000006ea 	andeq	r0, r0, sl, ror #13
    2344:	00000000 	andeq	r0, r0, r0
    2348:	00000038 	andeq	r0, r0, r8, lsr r0
    234c:	0ae39c01 	beq	ff8e9358 <__StackTop+0xdf8e6358>
    2350:	311c0000 	tstcc	ip, r0
    2354:	01000009 	tsteq	r0, r9
    2358:	000739bf 			; <UNDEFINED> instruction: 0x000739bf
    235c:	70910200 	addsvc	r0, r1, r0, lsl #4
    2360:	7465722a 	strbtvc	r7, [r5], #-554	; 0xfffffdd6
    2364:	eac00100 	b	ff00276c <__StackTop+0xdefff76c>
    2368:	1d000006 	stcne	0, cr0, [r0, #-24]	; 0xffffffe8
    236c:	2b000006 	blcs	238c <__DATA_END+0xa60>
    2370:	00000a80 	andeq	r0, r0, r0, lsl #21
    2374:	0073c101 	rsbseq	ip, r3, r1, lsl #2
    2378:	06300000 	ldrteq	r0, [r0], -r0
    237c:	811f0000 	tsthi	pc, r0
    2380:	00000007 	andeq	r0, r0, r7
    2384:	02000000 	andeq	r0, r0, #0
    2388:	01000000 	mrseq	r0, (UNDEF: 0)
    238c:	07441fc5 	strbeq	r1, [r4, -r5, asr #31]
    2390:	00000000 	andeq	r0, r0, r0
    2394:	00020000 	andeq	r0, r2, r0
    2398:	c7010000 	strgt	r0, [r1, -r0]
    239c:	00000020 	andeq	r0, r0, r0, lsr #32
    23a0:	000f4500 	andeq	r4, pc, r0, lsl #10
    23a4:	000ad200 	andeq	sp, sl, r0, lsl #4
    23a8:	50012100 	andpl	r2, r1, r0, lsl #2
    23ac:	00509102 	subseq	r9, r0, r2, lsl #2
    23b0:	00000022 	andeq	r0, r0, r2, lsr #32
    23b4:	000f5000 	andeq	r5, pc, r0
    23b8:	50012100 	andpl	r2, r1, r0, lsl #2
    23bc:	00509102 	subseq	r9, r0, r2, lsl #2
    23c0:	09661b00 	stmdbeq	r6!, {r8, r9, fp, ip}^
    23c4:	59010000 	stmdbpl	r1, {}	; <UNPREDICTABLE>
    23c8:	00000073 	andeq	r0, r0, r3, ror r0
    23cc:	00000000 	andeq	r0, r0, r0
    23d0:	00000086 	andeq	r0, r0, r6, lsl #1
    23d4:	0b9d9c01 	bleq	fe7693e0 <__StackTop+0xde7663e0>
    23d8:	311c0000 	tstcc	ip, r0
    23dc:	01000009 	tsteq	r0, r9
    23e0:	00073959 	andeq	r3, r7, r9, asr r9
    23e4:	70910200 	addsvc	r0, r1, r0, lsl #4
    23e8:	72747329 	rsbsvc	r7, r4, #-1543503872	; 0xa4000000
    23ec:	ab590100 	blge	16427f4 <__DATA_END+0x1640ec8>
    23f0:	03000009 	movweq	r0, #9
    23f4:	2d01b491 	cfstrscs	mvf11, [r1, #-580]	; 0xfffffdbc
    23f8:	006e656c 	rsbeq	r6, lr, ip, ror #10
    23fc:	00735901 	rsbseq	r5, r3, r1, lsl #18
    2400:	06900000 	ldreq	r0, [r0], r0
    2404:	e72e0000 	str	r0, [lr, -r0]!
    2408:	0100000a 	tsteq	r0, sl
    240c:	00007a5b 	andeq	r7, r0, fp, asr sl
    2410:	0a9a2b00 	beq	fe68d018 <__StackTop+0xde68a018>
    2414:	5c010000 	stcpl	0, cr0, [r1], {-0}
    2418:	000006ea 	andeq	r0, r0, sl, ror #13
    241c:	000006c1 	andeq	r0, r0, r1, asr #13
    2420:	0100692a 	tsteq	r0, sl, lsr #18
    2424:	0000735d 	andeq	r7, r0, sp, asr r3
    2428:	0006ea00 	andeq	lr, r6, r0, lsl #20
    242c:	00002000 	andeq	r2, r0, r0
    2430:	0f3c0000 	svceq	0x003c0000
    2434:	0b6f0000 	bleq	1bc243c <__DATA_END+0x1bc0b10>
    2438:	01210000 	teqeq	r1, r0
    243c:	007d0250 	rsbseq	r0, sp, r0, asr r2
    2440:	02510121 	subseq	r0, r1, #1073741832	; 0x40000008
    2444:	01216091 			; <UNDEFINED> instruction: 0x01216091
    2448:	b4080252 	strlt	r0, [r8], #-594	; 0xfffffdae
    244c:	00002c00 	andeq	r2, r0, r0, lsl #24
    2450:	0a5b0000 	beq	16c2458 <__DATA_END+0x16c0b2c>
    2454:	00200000 	eoreq	r0, r0, r0
    2458:	5b000000 	blpl	2460 <__DATA_END+0xb34>
    245c:	8c00000f 	stchi	0, cr0, [r0], {15}
    2460:	2100000b 	tstcs	r0, fp
    2464:	91025001 	tstls	r2, r1
    2468:	00220050 	eoreq	r0, r2, r0, asr r0
    246c:	50000000 	andpl	r0, r0, r0
    2470:	2100000f 	tstcs	r0, pc
    2474:	91025001 	tstls	r2, r1
    2478:	1b000050 	blne	25c0 <__DATA_END+0xc94>
    247c:	00000a5d 	andeq	r0, r0, sp, asr sl
    2480:	0073ce01 	rsbseq	ip, r3, r1, lsl #28
    2484:	00000000 	andeq	r0, r0, r0
    2488:	006c0000 	rsbeq	r0, ip, r0
    248c:	9c010000 	stcls	0, cr0, [r1], {-0}
    2490:	00000c60 	andeq	r0, r0, r0, ror #24
    2494:	0009311c 	andeq	r3, r9, ip, lsl r1
    2498:	39ce0100 	stmibcc	lr, {r8}^
    249c:	02000007 	andeq	r0, r0, #7
    24a0:	73297091 	teqvc	r9, #145	; 0x91
    24a4:	01007274 	tsteq	r0, r4, ror r2
    24a8:	0009abce 	andeq	sl, r9, lr, asr #23
    24ac:	b4910300 	ldrlt	r0, [r1], #768	; 0x300
    24b0:	656c2901 	strbvs	r2, [ip, #-2305]!	; 0xfffff6ff
    24b4:	ce01006e 	cdpgt	0, 0, cr0, cr1, cr14, {3}
    24b8:	00000073 	andeq	r0, r0, r3, ror r0
    24bc:	01b89103 			; <UNDEFINED> instruction: 0x01b89103
    24c0:	000a9a2b 	andeq	r9, sl, fp, lsr #20
    24c4:	ead00100 	b	ff4028cc <__StackTop+0xdf3ff8cc>
    24c8:	08000006 	stmdaeq	r0, {r1, r2}
    24cc:	2a000007 	bcs	24f0 <__DATA_END+0xbc4>
    24d0:	d1010069 	tstle	r1, r9, rrx
    24d4:	00000073 	andeq	r0, r0, r3, ror r0
    24d8:	00000735 	andeq	r0, r0, r5, lsr r7
    24dc:	000ae52b 	andeq	lr, sl, fp, lsr #10
    24e0:	73d20100 	bicsvc	r0, r2, #0, 2
    24e4:	77000000 	strvc	r0, [r0, -r0]
    24e8:	20000007 	andcs	r0, r0, r7
    24ec:	00000000 	andeq	r0, r0, r0
    24f0:	00000f3c 	andeq	r0, r0, ip, lsr pc
    24f4:	00000c2d 	andeq	r0, r0, sp, lsr #24
    24f8:	02500121 	subseq	r0, r0, #1073741832	; 0x40000008
    24fc:	0121007d 	teqeq	r1, sp, ror r0
    2500:	60910251 	addsvs	r0, r1, r1, asr r2
    2504:	02520121 	subseq	r0, r2, #1073741832	; 0x40000008
    2508:	2c00b408 	cfstrscs	mvf11, [r0], {8}
    250c:	00000000 	andeq	r0, r0, r0
    2510:	00000a5b 	andeq	r0, r0, fp, asr sl
    2514:	00000020 	andeq	r0, r0, r0, lsr #32
    2518:	000f3c00 	andeq	r3, pc, r0, lsl #24
    251c:	000c5600 	andeq	r5, ip, r0, lsl #12
    2520:	50012100 	andpl	r2, r1, r0, lsl #2
    2524:	21007d02 	tstcs	r0, r2, lsl #26
    2528:	91025101 	tstls	r2, r1, lsl #2
    252c:	52012160 	andpl	r2, r1, #96, 2
    2530:	00b40802 	adcseq	r0, r4, r2, lsl #16
    2534:	0000002c 	andeq	r0, r0, ip, lsr #32
    2538:	000a5b00 	andeq	r5, sl, r0, lsl #22
    253c:	f41b0000 			; <UNDEFINED> instruction: 0xf41b0000
    2540:	01000009 	tsteq	r0, r9
    2544:	0006eaed 	andeq	lr, r6, sp, ror #21
    2548:	00000000 	andeq	r0, r0, r0
    254c:	00004400 	andeq	r4, r0, r0, lsl #8
    2550:	af9c0100 	svcge	0x009c0100
    2554:	1c00000c 	stcne	0, cr0, [r0], {12}
    2558:	00000931 	andeq	r0, r0, r1, lsr r9
    255c:	0739ed01 	ldreq	lr, [r9, -r1, lsl #26]!
    2560:	91020000 	mrsls	r0, (UNDEF: 2)
    2564:	65722f70 	ldrbvs	r2, [r2, #-3952]!	; 0xfffff090
    2568:	ee010074 	mcr	0, 0, r0, cr1, cr4, {3}
    256c:	000006ea 	andeq	r0, r0, sl, ror #13
    2570:	ed2e5001 	stc	0, cr5, [lr, #-4]!
    2574:	01000009 	tsteq	r0, r9
    2578:	0006eaef 	andeq	lr, r6, pc, ror #21
    257c:	0ae72b00 	beq	ff9cd184 <__StackTop+0xdf9ca184>
    2580:	f0010000 			; <UNDEFINED> instruction: 0xf0010000
    2584:	00000073 	andeq	r0, r0, r3, ror r0
    2588:	0000078a 	andeq	r0, r0, sl, lsl #15
    258c:	0a161b00 	beq	589194 <__DATA_END+0x587868>
    2590:	7f010000 	svcvc	0x00010000
    2594:	00000073 	andeq	r0, r0, r3, ror r0
    2598:	00000000 	andeq	r0, r0, r0
    259c:	0000007e 	andeq	r0, r0, lr, ror r0
    25a0:	0d729c01 	ldcleq	12, cr9, [r2, #-4]!
    25a4:	311c0000 	tstcc	ip, r0
    25a8:	01000009 	tsteq	r0, r9
    25ac:	0007397f 	andeq	r3, r7, pc, ror r9
    25b0:	70910200 	addsvc	r0, r1, r0, lsl #4
    25b4:	72747329 	rsbsvc	r7, r4, #-1543503872	; 0xa4000000
    25b8:	ab7f0100 	blge	1fc29c0 <__DATA_END+0x1fc1094>
    25bc:	03000009 	movweq	r0, #9
    25c0:	2d01b491 	cfstrscs	mvf11, [r1, #-580]	; 0xfffffdbc
    25c4:	006e656c 	rsbeq	r6, lr, ip, ror #10
    25c8:	00737f01 	rsbseq	r7, r3, r1, lsl #30
    25cc:	07b60000 	ldreq	r0, [r6, r0]!
    25d0:	9a2b0000 	bls	ac25d8 <__DATA_END+0xac0cac>
    25d4:	0100000a 	tsteq	r0, sl
    25d8:	0006ea80 	andeq	lr, r6, r0, lsl #21
    25dc:	0007e700 	andeq	lr, r7, r0, lsl #14
    25e0:	00692a00 	rsbeq	r2, r9, r0, lsl #20
    25e4:	00738101 	rsbseq	r8, r3, r1, lsl #2
    25e8:	08050000 	stmdaeq	r5, {}	; <UNPREDICTABLE>
    25ec:	e72b0000 	str	r0, [fp, -r0]!
    25f0:	0100000a 	tsteq	r0, sl
    25f4:	00007382 	andeq	r7, r0, r2, lsl #7
    25f8:	00084600 	andeq	r4, r8, r0, lsl #12
    25fc:	00002000 	andeq	r2, r0, r0
    2600:	0f3c0000 	svceq	0x003c0000
    2604:	0d3f0000 	ldceq	0, cr0, [pc, #-0]	; 260c <__DATA_END+0xce0>
    2608:	01210000 	teqeq	r1, r0
    260c:	007d0250 	rsbseq	r0, sp, r0, asr r2
    2610:	02510121 	subseq	r0, r1, #1073741832	; 0x40000008
    2614:	01216091 			; <UNDEFINED> instruction: 0x01216091
    2618:	b4080252 	strlt	r0, [r8], #-594	; 0xfffffdae
    261c:	00002c00 	andeq	r2, r0, r0, lsl #24
    2620:	0c600000 	stcleq	0, cr0, [r0], #-0
    2624:	00200000 	eoreq	r0, r0, r0
    2628:	3c000000 	stccc	0, cr0, [r0], {-0}
    262c:	6800000f 	stmdavs	r0, {r0, r1, r2, r3}
    2630:	2100000d 	tstcs	r0, sp
    2634:	7d025001 	stcvc	0, cr5, [r2, #-4]
    2638:	51012100 	mrspl	r2, (UNDEF: 17)
    263c:	21609102 	cmncs	r0, r2, lsl #2
    2640:	08025201 	stmdaeq	r2, {r0, r9, ip, lr}
    2644:	002c00b4 	strhteq	r0, [ip], -r4
    2648:	60000000 	andvs	r0, r0, r0
    264c:	0000000c 	andeq	r0, r0, ip
    2650:	0009951d 	andeq	r9, r9, sp, lsl r5
    2654:	00fb0100 	rscseq	r0, fp, r0, lsl #2
    2658:	1e000000 	cdpne	0, 0, cr0, cr0, cr0, {0}
    265c:	01000000 	mrseq	r0, (UNDEF: 0)
    2660:	000d969c 	muleq	sp, ip, r6
    2664:	09311c00 	ldmdbeq	r1!, {sl, fp, ip}
    2668:	fb010000 	blx	42672 <__DATA_END+0x40d46>
    266c:	00000739 	andeq	r0, r0, r9, lsr r7
    2670:	00709102 	rsbseq	r9, r0, r2, lsl #2
    2674:	000ab11d 	andeq	fp, sl, sp, lsl r1
    2678:	48ff0100 	ldmmi	pc!, {r8}^	; <UNPREDICTABLE>
    267c:	7800000b 	stmdavc	r0, {r0, r1, r3}
    2680:	01000000 	mrseq	r0, (UNDEF: 0)
    2684:	000e169c 	muleq	lr, ip, r6
    2688:	041c3000 	ldreq	r3, [ip], #-0
    268c:	00010000 	andeq	r0, r1, r0
    2690:	0006ea01 	andeq	lr, r6, r1, lsl #20
    2694:	00087f00 	andeq	r7, r8, r0, lsl #30
    2698:	09ed3000 	stmibeq	sp!, {ip, sp}^
    269c:	01010000 	mrseq	r0, (UNDEF: 1)
    26a0:	0006ea01 	andeq	lr, r6, r1, lsl #20
    26a4:	00089200 	andeq	r9, r8, r0, lsl #4
    26a8:	07813100 	streq	r3, [r1, r0, lsl #2]
    26ac:	0b520000 	bleq	14826b4 <__DATA_END+0x1480d88>
    26b0:	00020000 	andeq	r0, r2, r0
    26b4:	03010000 	movweq	r0, #4096	; 0x1000
    26b8:	07443101 	strbeq	r3, [r4, -r1, lsl #2]
    26bc:	0baa0000 	bleq	fea826c4 <__StackTop+0xdea7f6c4>
    26c0:	00020000 	andeq	r0, r2, r0
    26c4:	19010000 	stmdbne	r1, {}	; <UNPREDICTABLE>
    26c8:	0b6a2001 	bleq	1a8a6d4 <__DATA_END+0x1a88da8>
    26cc:	0f500000 	svceq	0x00500000
    26d0:	0e020000 	cdpeq	0, 0, cr0, cr2, cr0, {0}
    26d4:	01210000 	teqeq	r1, r0
    26d8:	94030550 	strls	r0, [r3], #-1360	; 0xfffffab0
    26dc:	001ffff2 			; <UNDEFINED> instruction: 0x001ffff2
    26e0:	000baa22 	andeq	sl, fp, r2, lsr #20
    26e4:	000f3100 	andeq	r3, pc, r0, lsl #2
    26e8:	50012100 	andpl	r2, r1, r0, lsl #2
    26ec:	f2340305 	vcgt.s<illegal width 64>	d0, d4, d5
    26f0:	00001fff 	strdeq	r1, [r0], -pc	; <UNPREDICTABLE>
    26f4:	000a4c32 	andeq	r4, sl, r2, lsr ip
    26f8:	011b0100 	tsteq	fp, r0, lsl #2
    26fc:	00000bc0 	andeq	r0, r0, r0, asr #23
    2700:	00000048 	andeq	r0, r0, r8, asr #32
    2704:	0e7d9c01 	cdpeq	12, 7, cr9, cr13, cr1, {0}
    2708:	ed300000 	ldc	0, cr0, [r0, #-0]
    270c:	01000009 	tsteq	r0, r9
    2710:	06ea011d 	usateq	r0, #10, sp, lsl #2
    2714:	08b00000 	ldmeq	r0!, {}	; <UNPREDICTABLE>
    2718:	81310000 	teqhi	r1, r0
    271c:	c2000007 	andgt	r0, r0, #7
    2720:	0200000b 	andeq	r0, r0, #11
    2724:	01000000 	mrseq	r0, (UNDEF: 0)
    2728:	4431011e 	ldrtmi	r0, [r1], #-286	; 0xfffffee2
    272c:	f6000007 			; <UNDEFINED> instruction: 0xf6000007
    2730:	0200000b 	andeq	r0, r0, #11
    2734:	01000000 	mrseq	r0, (UNDEF: 0)
    2738:	d620012c 	strtle	r0, [r0], -ip, lsr #2
    273c:	5000000b 	andpl	r0, r0, fp
    2740:	7300000f 	movwvc	r0, #15
    2744:	2100000e 	tstcs	r0, lr
    2748:	03055001 	movweq	r5, #20481	; 0x5001
    274c:	1ffff358 	svcne	0x00fff358
    2750:	0bf62c00 	bleq	ffd8d758 <__StackTop+0xdfd8a758>
    2754:	0f660000 	svceq	0x00660000
    2758:	32000000 	andcc	r0, r0, #0
    275c:	00000a05 	andeq	r0, r0, r5, lsl #20
    2760:	08012e01 	stmdaeq	r1, {r0, r9, sl, fp, sp}
    2764:	4800000c 	stmdami	r0, {r2, r3}
    2768:	01000000 	mrseq	r0, (UNDEF: 0)
    276c:	000eee9c 	muleq	lr, ip, lr
    2770:	09ed3000 	stmibeq	sp!, {ip, sp}^
    2774:	30010000 	andcc	r0, r1, r0
    2778:	0006ea01 	andeq	lr, r6, r1, lsl #20
    277c:	0008c300 	andeq	ip, r8, r0, lsl #6
    2780:	07813100 	streq	r3, [r1, r0, lsl #2]
    2784:	0c0a0000 	stceq	0, cr0, [sl], {-0}
    2788:	00020000 	andeq	r0, r2, r0
    278c:	31010000 	mrscc	r0, (UNDEF: 1)
    2790:	07443101 	strbeq	r3, [r4, -r1, lsl #2]
    2794:	0c400000 	mareq	acc0, r0, r0
    2798:	00020000 	andeq	r0, r2, r0
    279c:	3e010000 	cdpcc	0, 0, cr0, cr1, cr0, {0}
    27a0:	0c1e2001 	ldceq	0, cr2, [lr], {1}
    27a4:	0f500000 	svceq	0x00500000
    27a8:	0eda0000 	cdpeq	0, 13, cr0, cr10, cr0, {0}
    27ac:	01210000 	teqeq	r1, r0
    27b0:	1c030550 	cfstr32ne	mvfx0, [r3], {80}	; 0x50
    27b4:	001ffff4 			; <UNDEFINED> instruction: 0x001ffff4
    27b8:	000c4022 	andeq	r4, ip, r2, lsr #32
    27bc:	000f3100 	andeq	r3, pc, r0, lsl #2
    27c0:	50012100 	andpl	r2, r1, r0, lsl #2
    27c4:	f3bc0305 	vsubw.u<illegal width 64>	q0, q6, d5
    27c8:	00001fff 	strdeq	r1, [r0], -pc	; <UNPREDICTABLE>
    27cc:	0009a333 	andeq	sl, r9, r3, lsr r3
    27d0:	ff090100 			; <UNDEFINED> instruction: 0xff090100
    27d4:	0500000e 	streq	r0, [r0, #-14]
    27d8:	fff23403 			; <UNDEFINED> instruction: 0xfff23403
    27dc:	07390e1f 			; <UNDEFINED> instruction: 0x07390e1f
    27e0:	42330000 	eorsmi	r0, r3, #0
    27e4:	0100000a 	tsteq	r0, sl
    27e8:	000eff0a 	andeq	pc, lr, sl, lsl #30
    27ec:	f8030500 			; <UNDEFINED> instruction: 0xf8030500
    27f0:	331ffff2 	tstcc	pc, #968	; 0x3c8
    27f4:	00000a8b 	andeq	r0, r0, fp, lsl #21
    27f8:	0eff0b01 	vmoveq.f64	d16, #241	; 0xf1
    27fc:	03050000 	movweq	r0, #20480	; 0x5000
    2800:	1ffff3bc 	svcne	0x00fff3bc
    2804:	00043f34 	andeq	r3, r4, r4, lsr pc
    2808:	00043f00 	andeq	r3, r4, r0, lsl #30
    280c:	34130700 	ldrcc	r0, [r3], #-1792	; 0xfffff900
    2810:	0000044e 	andeq	r0, r0, lr, asr #8
    2814:	0000044e 	andeq	r0, r0, lr, asr #8
    2818:	ed351107 	ldfs	f1, [r5, #-28]!	; 0xffffffe4
    281c:	ed00000a 	stc	0, cr0, [r0, #-40]	; 0xffffffd8
    2820:	3400000a 	strcc	r0, [r0], #-10
    2824:	00000410 	andeq	r0, r0, r0, lsl r4
    2828:	00000410 	andeq	r0, r0, r0, lsl r4
    282c:	56341807 	ldrtpl	r1, [r4], -r7, lsl #16
    2830:	56000004 	strpl	r0, [r0], -r4
    2834:	07000004 	streq	r0, [r0, -r4]
    2838:	042c3412 	strteq	r3, [ip], #-1042	; 0xfffffbee
    283c:	042c0000 	strteq	r0, [ip], #-0
    2840:	17070000 	strne	r0, [r7, -r0]
    2844:	00098c34 	andeq	r8, r9, r4, lsr ip
    2848:	00098c00 	andeq	r8, r9, r0, lsl #24
    284c:	00190900 	andseq	r0, r9, r0, lsl #18
    2850:	000007ce 	andeq	r0, r0, lr, asr #15
    2854:	0add0004 	beq	ff74286c <__StackTop+0xdf73f86c>
    2858:	01040000 	mrseq	r0, (UNDEF: 4)
    285c:	00000017 	andeq	r0, r0, r7, lsl r0
    2860:	000b7f0c 	andeq	r7, fp, ip, lsl #30
    2864:	0001a300 	andeq	sl, r1, r0, lsl #6
    2868:	0001b800 	andeq	fp, r1, r0, lsl #16
    286c:	00000000 	andeq	r0, r0, r0
    2870:	000ace00 	andeq	ip, sl, r0, lsl #28
    2874:	06010200 	streq	r0, [r1], -r0, lsl #4
    2878:	0000016d 	andeq	r0, r0, sp, ror #2
    287c:	0000ee03 	andeq	lr, r0, r3, lsl #28
    2880:	371d0200 	ldrcc	r0, [sp, -r0, lsl #4]
    2884:	02000000 	andeq	r0, r0, #0
    2888:	016b0801 	cmneq	fp, r1, lsl #16
    288c:	02020000 	andeq	r0, r2, #0
    2890:	00011705 	andeq	r1, r1, r5, lsl #14
    2894:	07020200 	streq	r0, [r2, -r0, lsl #4]
    2898:	000001dd 	ldrdeq	r0, [r0], -sp
    289c:	26050402 	strcs	r0, [r5], -r2, lsl #8
    28a0:	03000001 	movweq	r0, #1
    28a4:	000000f8 	strdeq	r0, [r0], -r8
    28a8:	005e4102 	subseq	r4, lr, r2, lsl #2
    28ac:	04020000 	streq	r0, [r2], #-0
    28b0:	00018307 	andeq	r8, r1, r7, lsl #6
    28b4:	05080200 	streq	r0, [r8, #-512]	; 0xfffffe00
    28b8:	00000121 	andeq	r0, r0, r1, lsr #2
    28bc:	7e070802 	cdpvc	8, 0, cr0, cr7, cr2, {0}
    28c0:	04000001 	streq	r0, [r0], #-1
    28c4:	6e690504 	cdpvs	5, 6, cr0, cr9, cr4, {0}
    28c8:	04020074 	streq	r0, [r2], #-116	; 0xffffff8c
    28cc:	00018807 	andeq	r8, r1, r7, lsl #16
    28d0:	00f00300 	rscseq	r0, r0, r0, lsl #6
    28d4:	14030000 	strne	r0, [r3], #-0
    28d8:	0000002c 	andeq	r0, r0, ip, lsr #32
    28dc:	0000fa03 	andeq	pc, r0, r3, lsl #20
    28e0:	53200300 	teqpl	r0, #0, 6
    28e4:	02000000 	andeq	r0, r0, #0
    28e8:	02a20704 	adceq	r0, r2, #4, 14	; 0x100000
    28ec:	8c050000 	stchi	0, cr0, [r5], {-0}
    28f0:	06000000 	streq	r0, [r0], -r0
    28f4:	0000009e 	muleq	r0, lr, r0
    28f8:	00008107 	andeq	r8, r0, r7, lsl #2
    28fc:	0000b800 	andeq	fp, r0, r0, lsl #16
    2900:	00970800 	addseq	r0, r7, r0, lsl #16
    2904:	00030000 	andeq	r0, r3, r0
    2908:	00008105 	andeq	r8, r0, r5, lsl #2
    290c:	00b80600 	adcseq	r0, r8, r0, lsl #12
    2910:	18090000 	stmdane	r9, {}	; <UNPREDICTABLE>
    2914:	1a06ff04 	bne	1c252c <__DATA_END+0x1c0c00>
    2918:	0a000001 	beq	2924 <__DATA_END+0xff8>
    291c:	00000630 	andeq	r0, r0, r0, lsr r6
    2920:	9e070004 	cdpls	0, 0, cr0, cr7, cr4, {0}
    2924:	00000000 	andeq	r0, r0, r0
    2928:	00065c0a 	andeq	r5, r6, sl, lsl #24
    292c:	07010400 	streq	r0, [r1, -r0, lsl #8]
    2930:	0000009e 	muleq	r0, lr, r0
    2934:	06a10a04 	strteq	r0, [r1], r4, lsl #20
    2938:	02040000 	andeq	r0, r4, #0
    293c:	00009e07 	andeq	r9, r0, r7, lsl #28
    2940:	8c0a0800 	stchi	8, cr0, [sl], {-0}
    2944:	04000006 	streq	r0, [r0], #-6
    2948:	009e0703 	addseq	r0, lr, r3, lsl #14
    294c:	0a0c0000 	beq	302954 <__DATA_END+0x301028>
    2950:	0000061c 	andeq	r0, r0, ip, lsl r6
    2954:	a3070404 	movwge	r0, #29700	; 0x7404
    2958:	10000000 	andne	r0, r0, r0
    295c:	0006420a 	andeq	r4, r6, sl, lsl #4
    2960:	07050400 	streq	r0, [r5, -r0, lsl #8]
    2964:	0000009e 	muleq	r0, lr, r0
    2968:	470b0014 	smladmi	fp, r4, r0, r0
    296c:	04000006 	streq	r0, [r0], #-6
    2970:	00c20706 	sbceq	r0, r2, r6, lsl #14
    2974:	0c090000 	stceq	0, cr0, [r9], {-0}
    2978:	c107ae04 	tstgt	r7, r4, lsl #28
    297c:	0c000001 	stceq	0, cr0, [r0], {1}
    2980:	04003141 	streq	r3, [r0], #-321	; 0xfffffebf
    2984:	00b807af 	adcseq	r0, r8, pc, lsr #15
    2988:	0c000000 	stceq	0, cr0, [r0], {-0}
    298c:	b0040046 	andlt	r0, r4, r6, asr #32
    2990:	0000b807 	andeq	fp, r0, r7, lsl #16
    2994:	430c0100 	movwmi	r0, #49408	; 0xc100
    2998:	b1040031 	tstlt	r4, r1, lsr r0
    299c:	0000b807 	andeq	fp, r0, r7, lsl #16
    29a0:	530c0200 	movwpl	r0, #49664	; 0xc200
    29a4:	07b20400 	ldreq	r0, [r2, r0, lsl #8]!
    29a8:	000000b8 	strheq	r0, [r0], -r8
    29ac:	00440c03 	subeq	r0, r4, r3, lsl #24
    29b0:	b807b304 	stmdalt	r7, {r2, r8, r9, ip, sp, pc}
    29b4:	04000000 	streq	r0, [r0], #-0
    29b8:	0032430c 	eorseq	r4, r2, ip, lsl #6
    29bc:	b807b404 	stmdalt	r7, {r2, sl, ip, sp, pc}
    29c0:	05000000 	streq	r0, [r0, #-0]
    29c4:	544c460c 	strbpl	r4, [ip], #-1548	; 0xfffff9f4
    29c8:	07b50400 	ldreq	r0, [r5, r0, lsl #8]!
    29cc:	000000b8 	strheq	r0, [r0], -r8
    29d0:	41520c06 	cmpmi	r2, r6, lsl #24
    29d4:	07b60400 	ldreq	r0, [r6, r0, lsl #8]!
    29d8:	000000b8 	strheq	r0, [r0], -r8
    29dc:	4d530c07 	ldclmi	12, cr0, [r3, #-28]	; 0xffffffe4
    29e0:	b7040042 	strlt	r0, [r4, -r2, asr #32]
    29e4:	0000b807 	andeq	fp, r0, r7, lsl #16
    29e8:	410c0800 	tstmi	ip, r0, lsl #16
    29ec:	b8040032 	stmdalt	r4, {r1, r4, r5}
    29f0:	0000b807 	andeq	fp, r0, r7, lsl #16
    29f4:	320a0900 	andcc	r0, sl, #0, 18
    29f8:	0400000b 	streq	r0, [r0], #-11
    29fc:	00b807b9 	ldrhteq	r0, [r8], r9
    2a00:	0a0a0000 	beq	282a08 <__DATA_END+0x2810dc>
    2a04:	00000b37 	andeq	r0, r0, r7, lsr fp
    2a08:	b807ba04 	stmdalt	r7, {r2, r9, fp, ip, sp, pc}
    2a0c:	0b000000 	bleq	2a14 <__DATA_END+0x10e8>
    2a10:	0b510b00 	bleq	1445618 <__DATA_END+0x1443cec>
    2a14:	bb040000 	bllt	102a1c <__DATA_END+0x1010f0>
    2a18:	00012607 	andeq	r2, r1, r7, lsl #12
    2a1c:	00810700 	addeq	r0, r1, r0, lsl #14
    2a20:	01dd0000 	bicseq	r0, sp, r0
    2a24:	97080000 	strls	r0, [r8, -r0]
    2a28:	07000000 	streq	r0, [r0, -r0]
    2a2c:	04100900 	ldreq	r0, [r0], #-2304	; 0xfffff700
    2a30:	02ac0c9b 	adceq	r0, ip, #39680	; 0x9b00
    2a34:	430c0000 	movwmi	r0, #49152	; 0xc000
    2a38:	9c040031 	stcls	0, cr0, [r4], {49}	; 0x31
    2a3c:	0000b80c 	andeq	fp, r0, ip, lsl #16
    2a40:	430c0000 	movwmi	r0, #49152	; 0xc000
    2a44:	9d040032 	stcls	0, cr0, [r4, #-200]	; 0xffffff38
    2a48:	0000b80c 	andeq	fp, r0, ip, lsl #16
    2a4c:	430c0100 	movwmi	r0, #49408	; 0xc100
    2a50:	9e040033 	mcrls	0, 0, r0, cr4, cr3, {1}
    2a54:	0000b80c 	andeq	fp, r0, ip, lsl #16
    2a58:	430c0200 	movwmi	r0, #49664	; 0xc200
    2a5c:	9f040034 	svcls	0x00040034
    2a60:	0000b80c 	andeq	fp, r0, ip, lsl #16
    2a64:	430c0300 	movwmi	r0, #49920	; 0xc300
    2a68:	a0040035 	andge	r0, r4, r5, lsr r0
    2a6c:	0000b80c 	andeq	fp, r0, ip, lsl #16
    2a70:	430c0400 	movwmi	r0, #50176	; 0xc400
    2a74:	a1040036 	tstge	r4, r6, lsr r0
    2a78:	0000b80c 	andeq	fp, r0, ip, lsl #16
    2a7c:	530c0500 	movwpl	r0, #50432	; 0xc500
    2a80:	0ca20400 	cfstrseq	mvf0, [r2]
    2a84:	000000b8 	strheq	r0, [r0], -r8
    2a88:	023e0a06 	eorseq	r0, lr, #24576	; 0x6000
    2a8c:	a3040000 	movwge	r0, #16384	; 0x4000
    2a90:	0002ac0c 	andeq	sl, r2, ip, lsl #24
    2a94:	530c0700 	movwpl	r0, #50944	; 0xc700
    2a98:	a4040043 	strge	r0, [r4], #-67	; 0xffffffbd
    2a9c:	0000b80c 	andeq	fp, r0, ip, lsl #16
    2aa0:	490a0800 	stmdbmi	sl, {fp}
    2aa4:	04000002 	streq	r0, [r0], #-2
    2aa8:	02ac0ca5 	adceq	r0, ip, #42240	; 0xa500
    2aac:	0a090000 	beq	242ab4 <__DATA_END+0x241188>
    2ab0:	000000e2 	andeq	r0, r0, r2, ror #1
    2ab4:	b80ca604 	stmdalt	ip, {r2, r9, sl, sp, pc}
    2ab8:	0a000000 	beq	2ac0 <__DATA_END+0x1194>
    2abc:	0000e80a 	andeq	lr, r0, sl, lsl #16
    2ac0:	0ca70400 	cfstrseq	mvf0, [r7]
    2ac4:	000000b8 	strheq	r0, [r0], -r8
    2ac8:	02540a0b 	subseq	r0, r4, #45056	; 0xb000
    2acc:	a8040000 	stmdage	r4, {}	; <UNPREDICTABLE>
    2ad0:	0002ac0c 	andeq	sl, r2, ip, lsl #24
    2ad4:	430c0c00 	movwmi	r0, #52224	; 0xcc00
    2ad8:	a9040038 	stmdbge	r4, {r3, r4, r5}
    2adc:	0000b80c 	andeq	fp, r0, ip, lsl #16
    2ae0:	430c0d00 	movwmi	r0, #52480	; 0xcd00
    2ae4:	aa040039 	bge	102bd0 <__DATA_END+0x1012a4>
    2ae8:	0000bd0c 	andeq	fp, r0, ip, lsl #26
    2aec:	430c0e00 	movwmi	r0, #52736	; 0xce00
    2af0:	04003031 	streq	r3, [r0], #-49	; 0xffffffcf
    2af4:	00bd0cab 	adcseq	r0, sp, fp, lsr #25
    2af8:	000f0000 	andeq	r0, pc, r0
    2afc:	00008107 	andeq	r8, r0, r7, lsl #2
    2b00:	0002bc00 	andeq	fp, r2, r0, lsl #24
    2b04:	00970800 	addseq	r0, r7, r0, lsl #16
    2b08:	00000000 	andeq	r0, r0, r0
    2b0c:	00020e0b 	andeq	r0, r2, fp, lsl #28
    2b10:	0cac0400 	cfstrseq	mvf0, [ip]
    2b14:	000001dd 	ldrdeq	r0, [r0], -sp
    2b18:	00008107 	andeq	r8, r0, r7, lsl #2
    2b1c:	0002d800 	andeq	sp, r2, r0, lsl #16
    2b20:	00970800 	addseq	r0, r7, r0, lsl #16
    2b24:	009b0000 	addseq	r0, fp, r0
    2b28:	20040109 	andcs	r0, r4, r9, lsl #2
    2b2c:	0002ee11 	andeq	lr, r2, r1, lsl lr
    2b30:	52430c00 	subpl	r0, r3, #0, 24
    2b34:	11210400 	teqne	r1, r0, lsl #8
    2b38:	000000b8 	strheq	r0, [r0], -r8
    2b3c:	860b0000 	strhi	r0, [fp], -r0
    2b40:	0400000b 	streq	r0, [r0], #-11
    2b44:	02d81122 	sbcseq	r1, r8, #-2147483640	; 0x80000008
    2b48:	81070000 	mrshi	r0, (UNDEF: 7)
    2b4c:	0a000000 	beq	2b54 <__DATA_END+0x1228>
    2b50:	08000003 	stmdaeq	r0, {r0, r1}
    2b54:	00000097 	muleq	r0, r7, r0
    2b58:	a4090017 	strge	r0, [r9], #-23	; 0xffffffe9
    2b5c:	5512c304 	ldrpl	ip, [r2, #-772]	; 0xfffffcfc
    2b60:	0c000003 	stceq	0, cr0, [r0], {3}
    2b64:	00524350 	subseq	r4, r2, r0, asr r3
    2b68:	6512c404 	ldrvs	ip, [r2, #-1028]	; 0xfffffbfc
    2b6c:	00000003 	andeq	r0, r0, r3
    2b70:	00091c0a 	andeq	r1, r9, sl, lsl #24
    2b74:	12c50400 	sbcne	r0, r5, #0, 8
    2b78:	0000009e 	muleq	r0, lr, r0
    2b7c:	0aab0a80 	beq	feac5584 <__StackTop+0xdeac2584>
    2b80:	c6040000 	strgt	r0, [r4], -r0
    2b84:	00009e12 	andeq	r9, r0, r2, lsl lr
    2b88:	3e0a8400 	cfcpyscc	mvf8, mvf10
    2b8c:	04000002 	streq	r0, [r0], #-2
    2b90:	02fa12c7 	rscseq	r1, sl, #1879048204	; 0x7000000c
    2b94:	0a880000 	beq	fe202b9c <__StackTop+0xde1ffb9c>
    2b98:	00000987 	andeq	r0, r0, r7, lsl #19
    2b9c:	9e12c804 	cdpls	8, 1, cr12, cr2, cr4, {0}
    2ba0:	a0000000 	andge	r0, r0, r0
    2ba4:	008c0700 	addeq	r0, ip, r0, lsl #14
    2ba8:	03650000 	cmneq	r5, #0
    2bac:	97080000 	strls	r0, [r8, -r0]
    2bb0:	1f000000 	svcne	0x00000000
    2bb4:	03550500 	cmpeq	r5, #0, 10
    2bb8:	5c0b0000 	stcpl	0, cr0, [fp], {-0}
    2bbc:	04000009 	streq	r0, [r0], #-9
    2bc0:	030a12c9 	movweq	r1, #41673	; 0xa2c9
    2bc4:	080d0000 	stmdaeq	sp, {}	; <UNPREDICTABLE>
    2bc8:	16650411 			; <UNDEFINED> instruction: 0x16650411
    2bcc:	000004f8 	strdeq	r0, [r0], -r8
    2bd0:	0002170a 	andeq	r1, r2, sl, lsl #14
    2bd4:	16660400 	strbtne	r0, [r6], -r0, lsl #8
    2bd8:	0000009e 	muleq	r0, lr, r0
    2bdc:	012f0a00 	teqeq	pc, r0, lsl #20
    2be0:	67040000 	strvs	r0, [r4, -r0]
    2be4:	00009e16 	andeq	r9, r0, r6, lsl lr
    2be8:	3e0a0400 	cfcpyscc	mvf0, mvf10
    2bec:	04000002 	streq	r0, [r0], #-2
    2bf0:	04f81668 	ldrbteq	r1, [r8], #1640	; 0x668
    2bf4:	0e080000 	cdpeq	0, 0, cr0, cr8, cr0, {0}
    2bf8:	00000150 	andeq	r0, r0, r0, asr r1
    2bfc:	9e166904 	cdpls	9, 1, cr6, cr6, cr4, {0}
    2c00:	04000000 	streq	r0, [r0], #-0
    2c04:	02490e10 	subeq	r0, r9, #16, 28	; 0x100
    2c08:	6a040000 	bvs	102c10 <__DATA_END+0x1012e4>
    2c0c:	0000a816 	andeq	sl, r0, r6, lsl r8
    2c10:	0e100800 	cdpeq	8, 1, cr0, cr0, cr0, {0}
    2c14:	000002dc 	ldrdeq	r0, [r0], -ip
    2c18:	9e166b04 	vnmlsls.f64	d6, d6, d4
    2c1c:	0c000000 	stceq	0, cr0, [r0], {-0}
    2c20:	00000e10 	andeq	r0, r0, r0, lsl lr
    2c24:	6c040000 	stcvs	0, cr0, [r4], {-0}
    2c28:	00009e16 	andeq	r9, r0, r6, lsl lr
    2c2c:	0e101000 	cdpeq	0, 1, cr1, cr0, cr0, {0}
    2c30:	00000254 	andeq	r0, r0, r4, asr r2
    2c34:	a8166d04 	ldmdage	r6, {r2, r8, sl, fp, sp, lr}
    2c38:	14000000 	strne	r0, [r0], #-0
    2c3c:	015d0e10 	cmpeq	sp, r0, lsl lr
    2c40:	6e040000 	cdpvs	0, 0, cr0, cr4, cr0, {0}
    2c44:	00009e16 	andeq	r9, r0, r6, lsl lr
    2c48:	0e101800 	cdpeq	8, 1, cr1, cr0, cr0, {0}
    2c4c:	0000025f 	andeq	r0, r0, pc, asr r2
    2c50:	cd166f04 	ldcgt	15, cr6, [r6, #-16]
    2c54:	1c000001 	stcne	0, cr0, [r0], {1}
    2c58:	00120e10 	andseq	r0, r2, r0, lsl lr
    2c5c:	70040000 	andvc	r0, r4, r0
    2c60:	0000a316 	andeq	sl, r0, r6, lsl r3
    2c64:	0e102400 	cfmulseq	mvf2, mvf0, mvf0
    2c68:	0000026a 	andeq	r0, r0, sl, ror #4
    2c6c:	09167104 	ldmdbeq	r6, {r2, r8, ip, sp, lr}
    2c70:	28000005 	stmdacs	r0, {r0, r2}
    2c74:	01380e10 	teqeq	r8, r0, lsl lr
    2c78:	72040000 	andvc	r0, r4, #0
    2c7c:	00009e16 	andeq	r9, r0, r6, lsl lr
    2c80:	0e103400 	cfmulseq	mvf3, mvf0, mvf0
    2c84:	0000013e 	andeq	r0, r0, lr, lsr r1
    2c88:	9e167304 	cdpls	3, 1, cr7, cr6, cr4, {0}
    2c8c:	38000000 	stmdacc	r0, {}	; <UNPREDICTABLE>
    2c90:	01440e10 	cmpeq	r4, r0, lsl lr
    2c94:	74040000 	strvc	r0, [r4], #-0
    2c98:	00009e16 	andeq	r9, r0, r6, lsl lr
    2c9c:	0e103c00 	cdpeq	12, 1, cr3, cr0, cr0, {0}
    2ca0:	0000014a 	andeq	r0, r0, sl, asr #2
    2ca4:	9e167504 	cfmul32ls	mvfx7, mvfx6, mvfx4
    2ca8:	40000000 	andmi	r0, r0, r0
    2cac:	01630e10 	cmneq	r3, r0, lsl lr
    2cb0:	76040000 	strvc	r0, [r4], -r0
    2cb4:	00009e16 	andeq	r9, r0, r6, lsl lr
    2cb8:	0e104400 	cfmulseq	mvf4, mvf0, mvf0
    2cbc:	00000275 	andeq	r0, r0, r5, ror r2
    2cc0:	a8167704 	ldmdage	r6, {r2, r8, r9, sl, ip, sp, lr}
    2cc4:	48000000 	stmdami	r0, {}	; <UNPREDICTABLE>
    2cc8:	00060e10 	andeq	r0, r6, r0, lsl lr
    2ccc:	78040000 	stmdavc	r4, {}	; <UNPREDICTABLE>
    2cd0:	00009e16 	andeq	r9, r0, r6, lsl lr
    2cd4:	0e104c00 	cdpeq	12, 1, cr4, cr0, cr0, {0}
    2cd8:	0000000c 	andeq	r0, r0, ip
    2cdc:	a3167904 	tstge	r6, #4, 18	; 0x10000
    2ce0:	50000000 	andpl	r0, r0, r0
    2ce4:	02800e10 	addeq	r0, r0, #16, 28	; 0x100
    2ce8:	7a040000 	bvc	102cf0 <__DATA_END+0x1013c4>
    2cec:	0000a816 	andeq	sl, r0, r6, lsl r8
    2cf0:	0e105400 	cfmulseq	mvf5, mvf0, mvf0
    2cf4:	00000232 	andeq	r0, r0, r2, lsr r2
    2cf8:	a3167b04 	tstge	r6, #4, 22	; 0x1000
    2cfc:	58000000 	stmdapl	r0, {}	; <UNPREDICTABLE>
    2d00:	02380e10 	eorseq	r0, r8, #16, 28	; 0x100
    2d04:	7c040000 	stcvc	0, cr0, [r4], {-0}
    2d08:	0000a316 	andeq	sl, r0, r6, lsl r3
    2d0c:	0e105c00 	cdpeq	12, 1, cr5, cr0, cr0, {0}
    2d10:	0000022d 	andeq	r0, r0, sp, lsr #4
    2d14:	a3167d04 	tstge	r6, #4, 26	; 0x100
    2d18:	60000000 	andvs	r0, r0, r0
    2d1c:	028b0e10 	addeq	r0, fp, #16, 28	; 0x100
    2d20:	7e040000 	cdpvc	0, 0, cr0, cr4, cr0, {0}
    2d24:	0002c816 	andeq	ip, r2, r6, lsl r8
    2d28:	0e106400 	cfmulseq	mvf6, mvf0, mvf0
    2d2c:	00000179 	andeq	r0, r0, r9, ror r1
    2d30:	9e167f04 	cdpls	15, 1, cr7, cr6, cr4, {0}
    2d34:	00000000 	andeq	r0, r0, r0
    2d38:	01560e11 	cmpeq	r6, r1, lsl lr
    2d3c:	80040000 	andhi	r0, r4, r0
    2d40:	00009e16 	andeq	r9, r0, r6, lsl lr
    2d44:	00110400 	andseq	r0, r1, r0, lsl #8
    2d48:	00008107 	andeq	r8, r0, r7, lsl #2
    2d4c:	00050900 	andeq	r0, r5, r0, lsl #18
    2d50:	00970f00 	addseq	r0, r7, r0, lsl #30
    2d54:	0ffb0000 	svceq	0x00fb0000
    2d58:	00810700 	addeq	r0, r1, r0, lsl #14
    2d5c:	05190000 	ldreq	r0, [r9, #-0]
    2d60:	97080000 	strls	r0, [r8, -r0]
    2d64:	0b000000 	bleq	2d6c <__DATA_END+0x1440>
    2d68:	01030b00 	tsteq	r3, r0, lsl #22
    2d6c:	81040000 	mrshi	r0, (UNDEF: 4)
    2d70:	00037616 	andeq	r7, r3, r6, lsl r6
    2d74:	04090900 	streq	r0, [r9], #-2304	; 0xfffff700
    2d78:	059c1bc3 	ldreq	r1, [ip, #3011]	; 0xbc3
    2d7c:	420c0000 	andmi	r0, ip, #0
    2d80:	04004844 	streq	r4, [r0], #-2116	; 0xfffff7bc
    2d84:	00b81bc4 	adcseq	r1, r8, r4, asr #23
    2d88:	0c000000 	stceq	0, cr0, [r0], {-0}
    2d8c:	004c4442 	subeq	r4, ip, r2, asr #8
    2d90:	b81bc504 	ldmdalt	fp, {r2, r8, sl, lr, pc}
    2d94:	01000000 	mrseq	r0, (UNDEF: 0)
    2d98:	0031430c 	eorseq	r4, r1, ip, lsl #6
    2d9c:	b81bc604 	ldmdalt	fp, {r2, r9, sl, lr, pc}
    2da0:	02000000 	andeq	r0, r0, #0
    2da4:	0032430c 	eorseq	r4, r2, ip, lsl #6
    2da8:	b81bc704 	ldmdalt	fp, {r2, r8, r9, sl, lr, pc}
    2dac:	03000000 	movweq	r0, #0
    2db0:	0031530c 	eorseq	r5, r1, ip, lsl #6
    2db4:	bd1bc804 	ldclt	8, cr12, [fp, #-16]
    2db8:	04000000 	streq	r0, [r0], #-0
    2dbc:	0032530c 	eorseq	r5, r2, ip, lsl #6
    2dc0:	b81bc904 	ldmdalt	fp, {r2, r8, fp, lr, pc}
    2dc4:	05000000 	streq	r0, [r0, #-0]
    2dc8:	0033430c 	eorseq	r4, r3, ip, lsl #6
    2dcc:	b81bca04 	ldmdalt	fp, {r2, r9, fp, lr, pc}
    2dd0:	06000000 	streq	r0, [r0], -r0
    2dd4:	0400440c 	streq	r4, [r0], #-1036	; 0xfffffbf4
    2dd8:	00b81bcb 	adcseq	r1, r8, fp, asr #23
    2ddc:	0c070000 	stceq	0, cr0, [r7], {-0}
    2de0:	04003443 	streq	r3, [r0], #-1091	; 0xfffffbbd
    2de4:	00b81bcc 	adcseq	r1, r8, ip, asr #23
    2de8:	00080000 	andeq	r0, r8, r0
    2dec:	0009cd0b 	andeq	ip, r9, fp, lsl #26
    2df0:	1bcd0400 	blne	ff343df8 <__StackTop+0xdf340df8>
    2df4:	00000525 	andeq	r0, r0, r5, lsr #10
    2df8:	74080102 	strvc	r0, [r8], #-258	; 0xfffffefe
    2dfc:	10000001 	andne	r0, r0, r1
    2e00:	00000b65 	andeq	r0, r0, r5, ror #22
    2e04:	0c501b01 	mrrceq	11, 0, r1, r0, cr1
    2e08:	00840000 	addeq	r0, r4, r0
    2e0c:	9c010000 	stcls	0, cr0, [r1], {-0}
    2e10:	000d6711 	andeq	r6, sp, r1, lsl r7
    2e14:	d43a0100 	ldrtle	r0, [sl], #-256	; 0xffffff00
    2e18:	9000000c 	andls	r0, r0, ip
    2e1c:	01000000 	mrseq	r0, (UNDEF: 0)
    2e20:	0006229c 	muleq	r6, ip, r2
    2e24:	0ce61200 	sfmeq	f1, 2, [r6]
    2e28:	05af0000 	streq	r0, [pc, #0]!	; 2e30 <__DATA_END+0x1504>
    2e2c:	36120000 	ldrcc	r0, [r2], -r0
    2e30:	3700000d 	strcc	r0, [r0, -sp]
    2e34:	12000007 	andne	r0, r0, #7
    2e38:	00000d3a 	andeq	r0, r0, sl, lsr sp
    2e3c:	00000742 	andeq	r0, r0, r2, asr #14
    2e40:	000d4413 	andeq	r4, sp, r3, lsl r4
    2e44:	00074d00 	andeq	r4, r7, r0, lsl #26
    2e48:	00060e00 	andeq	r0, r6, r0, lsl #28
    2e4c:	50011400 	andpl	r1, r1, r0, lsl #8
    2e50:	b0000c05 	andlt	r0, r0, r5, lsl #24
    2e54:	01144006 	tsteq	r4, r6
    2e58:	800a0351 	andhi	r0, sl, r1, asr r3
    2e5c:	4a150025 	bmi	542ef8 <__DATA_END+0x5415cc>
    2e60:	5800000d 	stmdapl	r0, {r0, r2, r3}
    2e64:	14000007 	strne	r0, [r0], #-7
    2e68:	0c055001 	stceq	0, cr5, [r5], {1}
    2e6c:	40066000 	andmi	r6, r6, r0
    2e70:	45160000 	ldrmi	r0, [r6, #-0]
    2e74:	0100000b 	tsteq	r0, fp
    2e78:	00007350 	andeq	r7, r0, r0, asr r3
    2e7c:	000d6400 	andeq	r6, sp, r0, lsl #8
    2e80:	00006400 	andeq	r6, r0, r0, lsl #8
    2e84:	379c0100 	ldrcc	r0, [ip, r0, lsl #2]
    2e88:	17000007 	strne	r0, [r0, -r7]
    2e8c:	01007762 	tsteq	r0, r2, ror #14
    2e90:	00008c52 	andeq	r8, r0, r2, asr ip
    2e94:	0d6a1200 	sfmeq	f1, 2, [sl, #-0]
    2e98:	05c00000 	strbeq	r0, [r0]
    2e9c:	6e120000 	cdpvs	0, 1, cr0, cr2, cr0, {0}
    2ea0:	6300000d 	movwvs	r0, #13
    2ea4:	12000007 	andne	r0, r0, #7
    2ea8:	00000d72 	andeq	r0, r0, r2, ror sp
    2eac:	0000076e 	andeq	r0, r0, lr, ror #14
    2eb0:	000d7612 	andeq	r7, sp, r2, lsl r6
    2eb4:	00077900 	andeq	r7, r7, r0, lsl #18
    2eb8:	0d7a1200 	lfmeq	f1, 2, [sl, #-0]
    2ebc:	07840000 	streq	r0, [r4, r0]
    2ec0:	80130000 	andshi	r0, r3, r0
    2ec4:	8f00000d 	svchi	0x0000000d
    2ec8:	87000007 	strhi	r0, [r0, -r7]
    2ecc:	14000006 	strne	r0, [r0], #-6
    2ed0:	0a035001 	beq	d6edc <__DATA_END+0xd55b0>
    2ed4:	12002710 	andne	r2, r0, #16, 14	; 0x400000
    2ed8:	00000d84 	andeq	r0, r0, r4, lsl #27
    2edc:	0000079a 	muleq	r0, sl, r7
    2ee0:	000d8c13 	andeq	r8, sp, r3, lsl ip
    2ee4:	00078f00 	andeq	r8, r7, r0, lsl #30
    2ee8:	0006a500 	andeq	sl, r6, r0, lsl #10
    2eec:	50011400 	andpl	r1, r1, r0, lsl #8
    2ef0:	07d00a03 	ldrbeq	r0, [r0, r3, lsl #20]
    2ef4:	0d901200 	lfmeq	f1, 4, [r0]
    2ef8:	07a50000 	streq	r0, [r5, r0]!
    2efc:	98130000 	ldmdals	r3, {}	; <UNPREDICTABLE>
    2f00:	8f00000d 	svchi	0x0000000d
    2f04:	c3000007 	movwgt	r0, #7
    2f08:	14000006 	strne	r0, [r0], #-6
    2f0c:	0a035001 	beq	d6f18 <__DATA_END+0xd55ec>
    2f10:	130001f4 	movwne	r0, #500	; 0x1f4
    2f14:	00000da0 	andeq	r0, r0, r0, lsr #27
    2f18:	000007b0 			; <UNDEFINED> instruction: 0x000007b0
    2f1c:	000006df 	ldrdeq	r0, [r0], -pc	; <UNPREDICTABLE>
    2f20:	05500114 	ldrbeq	r0, [r0, #-276]	; 0xfffffeec
    2f24:	00167403 	andseq	r7, r6, r3, lsl #8
    2f28:	51011400 	tstpl	r1, r0, lsl #8
    2f2c:	13003501 	movwne	r3, #1281	; 0x501
    2f30:	00000da6 	andeq	r0, r0, r6, lsr #27
    2f34:	0000078f 	andeq	r0, r0, pc, lsl #15
    2f38:	000006f3 	strdeq	r0, [r0], -r3
    2f3c:	02500114 	subseq	r0, r0, #20, 2
    2f40:	12006408 	andne	r6, r0, #8, 8	; 0x8000000
    2f44:	00000daa 	andeq	r0, r0, sl, lsr #27
    2f48:	000007bb 			; <UNDEFINED> instruction: 0x000007bb
    2f4c:	000db013 	andeq	fp, sp, r3, lsl r0
    2f50:	00078f00 	andeq	r8, r7, r0, lsl #30
    2f54:	00071000 	andeq	r1, r7, r0
    2f58:	50011400 	andpl	r1, r1, r0, lsl #8
    2f5c:	00c80802 	sbceq	r0, r8, r2, lsl #16
    2f60:	000db412 	andeq	fp, sp, r2, lsl r4
    2f64:	00076e00 	andeq	r6, r7, r0, lsl #28
    2f68:	0dba1300 	ldceq	3, cr1, [sl]
    2f6c:	078f0000 	streq	r0, [pc, r0]
    2f70:	072d0000 	streq	r0, [sp, -r0]!
    2f74:	01140000 	tsteq	r4, r0
    2f78:	c8080250 	stmdagt	r8, {r4, r6, r9}
    2f7c:	0dbe1200 	lfmeq	f1, 4, [lr]
    2f80:	07c60000 	strbeq	r0, [r6, r0]
    2f84:	18000000 	stmdane	r0, {}	; <UNPREDICTABLE>
    2f88:	00000b2a 	andeq	r0, r0, sl, lsr #22
    2f8c:	00000b2a 	andeq	r0, r0, sl, lsr #22
    2f90:	75181205 	ldrvc	r1, [r8, #-517]	; 0xfffffdfb
    2f94:	7500000b 	strvc	r0, [r0, #-11]
    2f98:	0500000b 	streq	r0, [r0, #-11]
    2f9c:	09b4181c 	ldmibeq	r4!, {r2, r3, r4, fp, ip}
    2fa0:	09b40000 	ldmibeq	r4!, {}	; <UNPREDICTABLE>
    2fa4:	11060000 	mrsne	r0, (UNDEF: 6)
    2fa8:	000b1918 	andeq	r1, fp, r8, lsl r9
    2fac:	000b1900 	andeq	r1, fp, r0, lsl #18
    2fb0:	18100700 	ldmdane	r0, {r8, r9, sl}
    2fb4:	00000b8f 	andeq	r0, r0, pc, lsl #23
    2fb8:	00000b8f 	andeq	r0, r0, pc, lsl #23
    2fbc:	13181608 	tstne	r8, #8, 12	; 0x800000
    2fc0:	1300000b 	movwne	r0, #11
    2fc4:	0800000b 	stmdaeq	r0, {r0, r1, r3}
    2fc8:	0b3c181d 	bleq	f09044 <__DATA_END+0xf07718>
    2fcc:	0b3c0000 	bleq	f02fd4 <__DATA_END+0xf016a8>
    2fd0:	18080000 	stmdane	r8, {}	; <UNPREDICTABLE>
    2fd4:	000b5a18 	andeq	r5, fp, r8, lsl sl
    2fd8:	000b5a00 	andeq	r5, fp, r0, lsl #20
    2fdc:	181b0800 	ldmdane	fp, {fp}
    2fe0:	00000621 	andeq	r0, r0, r1, lsr #12
    2fe4:	00000621 	andeq	r0, r0, r1, lsr #12
    2fe8:	97180b09 	ldrls	r0, [r8, -r9, lsl #22]
    2fec:	9700000b 	strls	r0, [r0, -fp]
    2ff0:	0800000b 	stmdaeq	r0, {r0, r1, r3}
    2ff4:	0b6f181f 	bleq	1bc9078 <__DATA_END+0x1bc774c>
    2ff8:	0b6f0000 	bleq	1bc3000 <__DATA_END+0x1bc16d4>
    2ffc:	1c080000 	stcne	0, cr0, [r8], {-0}
    3000:	00069a18 	andeq	r9, r6, r8, lsl sl
    3004:	00069a00 	andeq	r9, r6, r0, lsl #20
    3008:	18120a00 	ldmdane	r2, {r9, fp}
    300c:	00000b22 	andeq	r0, r0, r2, lsr #22
    3010:	00000b22 	andeq	r0, r0, r2, lsr #22
    3014:	4a18040b 	bmi	604048 <__DATA_END+0x60271c>
    3018:	4a00000b 	bmi	304c <__DATA_END+0x1720>
    301c:	0800000b 	stmdaeq	r0, {r0, r1, r3}
    3020:	009e0021 	addseq	r0, lr, r1, lsr #32
    3024:	00040000 	andeq	r0, r4, r0
    3028:	00000c2b 	andeq	r0, r0, fp, lsr #24
    302c:	00170104 	andseq	r0, r7, r4, lsl #2
    3030:	9d0c0000 	stcls	0, cr0, [ip, #-0]
    3034:	a300000b 	movwge	r0, #11
    3038:	45000001 	strmi	r0, [r0, #-1]
    303c:	0200000c 	andeq	r0, r0, #12
    3040:	016d0601 	cmneq	sp, r1, lsl #12
    3044:	01020000 	mrseq	r0, (UNDEF: 2)
    3048:	00016b08 	andeq	r6, r1, r8, lsl #22
    304c:	05020200 	streq	r0, [r2, #-512]	; 0xfffffe00
    3050:	00000117 	andeq	r0, r0, r7, lsl r1
    3054:	00010c03 	andeq	r0, r1, r3, lsl #24
    3058:	3d2b0100 	stfccs	f0, [fp, #-0]
    305c:	02000000 	andeq	r0, r0, #0
    3060:	01dd0702 	bicseq	r0, sp, r2, lsl #14
    3064:	04020000 	streq	r0, [r2], #-0
    3068:	00012605 	andeq	r2, r1, r5, lsl #12
    306c:	07040200 	streq	r0, [r4, -r0, lsl #4]
    3070:	00000183 	andeq	r0, r0, r3, lsl #3
    3074:	21050802 	tstcs	r5, r2, lsl #16
    3078:	02000001 	andeq	r0, r0, #1
    307c:	017e0708 	cmneq	lr, r8, lsl #14
    3080:	04040000 	streq	r0, [r4], #-0
    3084:	746e6905 	strbtvc	r6, [lr], #-2309	; 0xfffff6fb
    3088:	07040200 	streq	r0, [r4, -r0, lsl #4]
    308c:	00000188 	andeq	r0, r0, r8, lsl #3
    3090:	00010e03 	andeq	r0, r1, r3, lsl #28
    3094:	321a0200 	andscc	r0, sl, #0, 4
    3098:	05000000 	streq	r0, [r0, #-0]
    309c:	0000006e 	andeq	r0, r0, lr, rrx
    30a0:	00000089 	andeq	r0, r0, r9, lsl #1
    30a4:	00008906 	andeq	r8, r0, r6, lsl #18
    30a8:	02003f00 	andeq	r3, r0, #0, 30
    30ac:	02a20704 	adceq	r0, r2, #4, 14	; 0x100000
    30b0:	12070000 	andne	r0, r7, #0
    30b4:	03000005 	movweq	r0, #5
    30b8:	00007903 	andeq	r7, r0, r3, lsl #18
    30bc:	00030500 	andeq	r0, r3, r0, lsl #10
    30c0:	001ffff0 			; <UNDEFINED> instruction: 0x001ffff0
    30c4:	0000091b 	andeq	r0, r0, fp, lsl r9
    30c8:	0c810004 	stceq	0, cr0, [r1], {4}
    30cc:	01040000 	mrseq	r0, (UNDEF: 4)
    30d0:	00000017 	andeq	r0, r0, r7, lsl r0
    30d4:	000ba90c 	andeq	sl, fp, ip, lsl #18
    30d8:	0001a300 	andeq	sl, r1, r0, lsl #6
    30dc:	00020800 	andeq	r0, r2, r0, lsl #16
    30e0:	00000000 	andeq	r0, r0, r0
    30e4:	000cce00 	andeq	ip, ip, r0, lsl #28
    30e8:	06010200 	streq	r0, [r1], -r0, lsl #4
    30ec:	0000016d 	andeq	r0, r0, sp, ror #2
    30f0:	0000ee03 	andeq	lr, r0, r3, lsl #28
    30f4:	371d0200 	ldrcc	r0, [sp, -r0, lsl #4]
    30f8:	02000000 	andeq	r0, r0, #0
    30fc:	016b0801 	cmneq	fp, r1, lsl #16
    3100:	02020000 	andeq	r0, r2, #0
    3104:	00011705 	andeq	r1, r1, r5, lsl #14
    3108:	07020200 	streq	r0, [r2, -r0, lsl #4]
    310c:	000001dd 	ldrdeq	r0, [r0], -sp
    3110:	26050402 	strcs	r0, [r5], -r2, lsl #8
    3114:	03000001 	movweq	r0, #1
    3118:	000000f8 	strdeq	r0, [r0], -r8
    311c:	005e4102 	subseq	r4, lr, r2, lsl #2
    3120:	04020000 	streq	r0, [r2], #-0
    3124:	00018307 	andeq	r8, r1, r7, lsl #6
    3128:	05080200 	streq	r0, [r8, #-512]	; 0xfffffe00
    312c:	00000121 	andeq	r0, r0, r1, lsr #2
    3130:	7e070802 	cdpvc	8, 0, cr0, cr7, cr2, {0}
    3134:	04000001 	streq	r0, [r0], #-1
    3138:	6e690504 	cdpvs	5, 6, cr0, cr9, cr4, {0}
    313c:	04020074 	streq	r0, [r2], #-116	; 0xffffff8c
    3140:	00018807 	andeq	r8, r1, r7, lsl #16
    3144:	00f00300 	rscseq	r0, r0, r0, lsl #6
    3148:	14030000 	strne	r0, [r3], #-0
    314c:	0000002c 	andeq	r0, r0, ip, lsr #32
    3150:	0000fa03 	andeq	pc, r0, r3, lsl #20
    3154:	53200300 	teqpl	r0, #0, 6
    3158:	02000000 	andeq	r0, r0, #0
    315c:	02a20704 	adceq	r0, r2, #4, 14	; 0x100000
    3160:	8c050000 	stchi	0, cr0, [r5], {-0}
    3164:	06000000 	streq	r0, [r0], -r0
    3168:	0000009e 	muleq	r0, lr, r0
    316c:	00008107 	andeq	r8, r0, r7, lsl #2
    3170:	0000b800 	andeq	fp, r0, r0, lsl #16
    3174:	00970800 	addseq	r0, r7, r0, lsl #16
    3178:	00030000 	andeq	r0, r3, r0
    317c:	00008105 	andeq	r8, r0, r5, lsl #2
    3180:	00b80600 	adcseq	r0, r8, r0, lsl #12
    3184:	18090000 	stmdane	r9, {}	; <UNPREDICTABLE>
    3188:	1a06ff04 	bne	1c2da0 <__DATA_END+0x1c1474>
    318c:	0a000001 	beq	3198 <__DATA_END+0x186c>
    3190:	00000630 	andeq	r0, r0, r0, lsr r6
    3194:	9e070004 	cdpls	0, 0, cr0, cr7, cr4, {0}
    3198:	00000000 	andeq	r0, r0, r0
    319c:	00065c0a 	andeq	r5, r6, sl, lsl #24
    31a0:	07010400 	streq	r0, [r1, -r0, lsl #8]
    31a4:	0000009e 	muleq	r0, lr, r0
    31a8:	06a10a04 	strteq	r0, [r1], r4, lsl #20
    31ac:	02040000 	andeq	r0, r4, #0
    31b0:	00009e07 	andeq	r9, r0, r7, lsl #28
    31b4:	8c0a0800 	stchi	8, cr0, [sl], {-0}
    31b8:	04000006 	streq	r0, [r0], #-6
    31bc:	009e0703 	addseq	r0, lr, r3, lsl #14
    31c0:	0a0c0000 	beq	3031c8 <__DATA_END+0x30189c>
    31c4:	0000061c 	andeq	r0, r0, ip, lsl r6
    31c8:	a3070404 	movwge	r0, #29700	; 0x7404
    31cc:	10000000 	andne	r0, r0, r0
    31d0:	0006420a 	andeq	r4, r6, sl, lsl #4
    31d4:	07050400 	streq	r0, [r5, -r0, lsl #8]
    31d8:	0000009e 	muleq	r0, lr, r0
    31dc:	470b0014 	smladmi	fp, r4, r0, r0
    31e0:	04000006 	streq	r0, [r0], #-6
    31e4:	00c20706 	sbceq	r0, r2, r6, lsl #14
    31e8:	81070000 	mrshi	r0, (UNDEF: 7)
    31ec:	36000000 	strcc	r0, [r0], -r0
    31f0:	08000001 	stmdaeq	r0, {r0}
    31f4:	00000097 	muleq	r0, r7, r0
    31f8:	81070007 	tsthi	r7, r7
    31fc:	46000000 	strmi	r0, [r0], -r0
    3200:	08000001 	stmdaeq	r0, {r0}
    3204:	00000097 	muleq	r0, r7, r0
    3208:	8107009b 	swphi	r0, fp, [r7]
    320c:	56000000 	strpl	r0, [r0], -r0
    3210:	08000001 	stmdaeq	r0, {r0}
    3214:	00000097 	muleq	r0, r7, r0
    3218:	a4090017 	strge	r0, [r9], #-23	; 0xffffffe9
    321c:	a112c304 	tstge	r2, r4, lsl #6
    3220:	0c000001 	stceq	0, cr0, [r0], {1}
    3224:	00524350 	subseq	r4, r2, r0, asr r3
    3228:	b112c404 	tstlt	r2, r4, lsl #8
    322c:	00000001 	andeq	r0, r0, r1
    3230:	00091c0a 	andeq	r1, r9, sl, lsl #24
    3234:	12c50400 	sbcne	r0, r5, #0, 8
    3238:	0000009e 	muleq	r0, lr, r0
    323c:	0aab0a80 	beq	feac5c44 <__StackTop+0xdeac2c44>
    3240:	c6040000 	strgt	r0, [r4], -r0
    3244:	00009e12 	andeq	r9, r0, r2, lsl lr
    3248:	3e0a8400 	cfcpyscc	mvf8, mvf10
    324c:	04000002 	streq	r0, [r0], #-2
    3250:	014612c7 	smlalbteq	r1, r6, r7, r2
    3254:	0a880000 	beq	fe20325c <__StackTop+0xde20025c>
    3258:	00000987 	andeq	r0, r0, r7, lsl #19
    325c:	9e12c804 	cdpls	8, 1, cr12, cr2, cr4, {0}
    3260:	a0000000 	andge	r0, r0, r0
    3264:	008c0700 	addeq	r0, ip, r0, lsl #14
    3268:	01b10000 			; <UNDEFINED> instruction: 0x01b10000
    326c:	97080000 	strls	r0, [r8, -r0]
    3270:	1f000000 	svcne	0x00000000
    3274:	01a10500 			; <UNDEFINED> instruction: 0x01a10500
    3278:	5c0b0000 	stcpl	0, cr0, [fp], {-0}
    327c:	04000009 	streq	r0, [r0], #-9
    3280:	015612c9 	cmpeq	r6, r9, asr #5
    3284:	080d0000 	stmdaeq	sp, {}	; <UNPREDICTABLE>
    3288:	16650411 			; <UNDEFINED> instruction: 0x16650411
    328c:	00000344 	andeq	r0, r0, r4, asr #6
    3290:	0002170a 	andeq	r1, r2, sl, lsl #14
    3294:	16660400 	strbtne	r0, [r6], -r0, lsl #8
    3298:	0000009e 	muleq	r0, lr, r0
    329c:	012f0a00 	teqeq	pc, r0, lsl #20
    32a0:	67040000 	strvs	r0, [r4, -r0]
    32a4:	00009e16 	andeq	r9, r0, r6, lsl lr
    32a8:	3e0a0400 	cfcpyscc	mvf0, mvf10
    32ac:	04000002 	streq	r0, [r0], #-2
    32b0:	03441668 	movteq	r1, #18024	; 0x4668
    32b4:	0e080000 	cdpeq	0, 0, cr0, cr8, cr0, {0}
    32b8:	00000150 	andeq	r0, r0, r0, asr r1
    32bc:	9e166904 	cdpls	9, 1, cr6, cr6, cr4, {0}
    32c0:	04000000 	streq	r0, [r0], #-0
    32c4:	02490e10 	subeq	r0, r9, #16, 28	; 0x100
    32c8:	6a040000 	bvs	1032d0 <__DATA_END+0x1019a4>
    32cc:	0000a816 	andeq	sl, r0, r6, lsl r8
    32d0:	0e100800 	cdpeq	8, 1, cr0, cr0, cr0, {0}
    32d4:	000002dc 	ldrdeq	r0, [r0], -ip
    32d8:	9e166b04 	vnmlsls.f64	d6, d6, d4
    32dc:	0c000000 	stceq	0, cr0, [r0], {-0}
    32e0:	00000e10 	andeq	r0, r0, r0, lsl lr
    32e4:	6c040000 	stcvs	0, cr0, [r4], {-0}
    32e8:	00009e16 	andeq	r9, r0, r6, lsl lr
    32ec:	0e101000 	cdpeq	0, 1, cr1, cr0, cr0, {0}
    32f0:	00000254 	andeq	r0, r0, r4, asr r2
    32f4:	a8166d04 	ldmdage	r6, {r2, r8, sl, fp, sp, lr}
    32f8:	14000000 	strne	r0, [r0], #-0
    32fc:	015d0e10 	cmpeq	sp, r0, lsl lr
    3300:	6e040000 	cdpvs	0, 0, cr0, cr4, cr0, {0}
    3304:	00009e16 	andeq	r9, r0, r6, lsl lr
    3308:	0e101800 	cdpeq	8, 1, cr1, cr0, cr0, {0}
    330c:	0000025f 	andeq	r0, r0, pc, asr r2
    3310:	26166f04 	ldrcs	r6, [r6], -r4, lsl #30
    3314:	1c000001 	stcne	0, cr0, [r0], {1}
    3318:	00120e10 	andseq	r0, r2, r0, lsl lr
    331c:	70040000 	andvc	r0, r4, r0
    3320:	0000a316 	andeq	sl, r0, r6, lsl r3
    3324:	0e102400 	cfmulseq	mvf2, mvf0, mvf0
    3328:	0000026a 	andeq	r0, r0, sl, ror #4
    332c:	55167104 	ldrpl	r7, [r6, #-260]	; 0xfffffefc
    3330:	28000003 	stmdacs	r0, {r0, r1}
    3334:	01380e10 	teqeq	r8, r0, lsl lr
    3338:	72040000 	andvc	r0, r4, #0
    333c:	00009e16 	andeq	r9, r0, r6, lsl lr
    3340:	0e103400 	cfmulseq	mvf3, mvf0, mvf0
    3344:	0000013e 	andeq	r0, r0, lr, lsr r1
    3348:	9e167304 	cdpls	3, 1, cr7, cr6, cr4, {0}
    334c:	38000000 	stmdacc	r0, {}	; <UNPREDICTABLE>
    3350:	01440e10 	cmpeq	r4, r0, lsl lr
    3354:	74040000 	strvc	r0, [r4], #-0
    3358:	00009e16 	andeq	r9, r0, r6, lsl lr
    335c:	0e103c00 	cdpeq	12, 1, cr3, cr0, cr0, {0}
    3360:	0000014a 	andeq	r0, r0, sl, asr #2
    3364:	9e167504 	cfmul32ls	mvfx7, mvfx6, mvfx4
    3368:	40000000 	andmi	r0, r0, r0
    336c:	01630e10 	cmneq	r3, r0, lsl lr
    3370:	76040000 	strvc	r0, [r4], -r0
    3374:	00009e16 	andeq	r9, r0, r6, lsl lr
    3378:	0e104400 	cfmulseq	mvf4, mvf0, mvf0
    337c:	00000275 	andeq	r0, r0, r5, ror r2
    3380:	a8167704 	ldmdage	r6, {r2, r8, r9, sl, ip, sp, lr}
    3384:	48000000 	stmdami	r0, {}	; <UNPREDICTABLE>
    3388:	00060e10 	andeq	r0, r6, r0, lsl lr
    338c:	78040000 	stmdavc	r4, {}	; <UNPREDICTABLE>
    3390:	00009e16 	andeq	r9, r0, r6, lsl lr
    3394:	0e104c00 	cdpeq	12, 1, cr4, cr0, cr0, {0}
    3398:	0000000c 	andeq	r0, r0, ip
    339c:	a3167904 	tstge	r6, #4, 18	; 0x10000
    33a0:	50000000 	andpl	r0, r0, r0
    33a4:	02800e10 	addeq	r0, r0, #16, 28	; 0x100
    33a8:	7a040000 	bvc	1033b0 <__DATA_END+0x101a84>
    33ac:	0000a816 	andeq	sl, r0, r6, lsl r8
    33b0:	0e105400 	cfmulseq	mvf5, mvf0, mvf0
    33b4:	00000232 	andeq	r0, r0, r2, lsr r2
    33b8:	a3167b04 	tstge	r6, #4, 22	; 0x1000
    33bc:	58000000 	stmdapl	r0, {}	; <UNPREDICTABLE>
    33c0:	02380e10 	eorseq	r0, r8, #16, 28	; 0x100
    33c4:	7c040000 	stcvc	0, cr0, [r4], {-0}
    33c8:	0000a316 	andeq	sl, r0, r6, lsl r3
    33cc:	0e105c00 	cdpeq	12, 1, cr5, cr0, cr0, {0}
    33d0:	0000022d 	andeq	r0, r0, sp, lsr #4
    33d4:	a3167d04 	tstge	r6, #4, 26	; 0x100
    33d8:	60000000 	andvs	r0, r0, r0
    33dc:	028b0e10 	addeq	r0, fp, #16, 28	; 0x100
    33e0:	7e040000 	cdpvc	0, 0, cr0, cr4, cr0, {0}
    33e4:	00013616 	andeq	r3, r1, r6, lsl r6
    33e8:	0e106400 	cfmulseq	mvf6, mvf0, mvf0
    33ec:	00000179 	andeq	r0, r0, r9, ror r1
    33f0:	9e167f04 	cdpls	15, 1, cr7, cr6, cr4, {0}
    33f4:	00000000 	andeq	r0, r0, r0
    33f8:	01560e11 	cmpeq	r6, r1, lsl lr
    33fc:	80040000 	andhi	r0, r4, r0
    3400:	00009e16 	andeq	r9, r0, r6, lsl lr
    3404:	00110400 	andseq	r0, r1, r0, lsl #8
    3408:	00008107 	andeq	r8, r0, r7, lsl #2
    340c:	00035500 	andeq	r5, r3, r0, lsl #10
    3410:	00970f00 	addseq	r0, r7, r0, lsl #30
    3414:	0ffb0000 	svceq	0x00fb0000
    3418:	00810700 	addeq	r0, r1, r0, lsl #14
    341c:	03650000 	cmneq	r5, #0
    3420:	97080000 	strls	r0, [r8, -r0]
    3424:	0b000000 	bleq	342c <__DATA_END+0x1b00>
    3428:	01030b00 	tsteq	r3, r0, lsl #22
    342c:	81040000 	mrshi	r0, (UNDEF: 4)
    3430:	0001c216 	andeq	ip, r1, r6, lsl r2
    3434:	04090900 	streq	r0, [r9], #-2304	; 0xfffff700
    3438:	03e81bc3 	mvneq	r1, #199680	; 0x30c00
    343c:	420c0000 	andmi	r0, ip, #0
    3440:	04004844 	streq	r4, [r0], #-2116	; 0xfffff7bc
    3444:	00b81bc4 	adcseq	r1, r8, r4, asr #23
    3448:	0c000000 	stceq	0, cr0, [r0], {-0}
    344c:	004c4442 	subeq	r4, ip, r2, asr #8
    3450:	b81bc504 	ldmdalt	fp, {r2, r8, sl, lr, pc}
    3454:	01000000 	mrseq	r0, (UNDEF: 0)
    3458:	0031430c 	eorseq	r4, r1, ip, lsl #6
    345c:	b81bc604 	ldmdalt	fp, {r2, r9, sl, lr, pc}
    3460:	02000000 	andeq	r0, r0, #0
    3464:	0032430c 	eorseq	r4, r2, ip, lsl #6
    3468:	b81bc704 	ldmdalt	fp, {r2, r8, r9, sl, lr, pc}
    346c:	03000000 	movweq	r0, #0
    3470:	0031530c 	eorseq	r5, r1, ip, lsl #6
    3474:	bd1bc804 	ldclt	8, cr12, [fp, #-16]
    3478:	04000000 	streq	r0, [r0], #-0
    347c:	0032530c 	eorseq	r5, r2, ip, lsl #6
    3480:	b81bc904 	ldmdalt	fp, {r2, r8, fp, lr, pc}
    3484:	05000000 	streq	r0, [r0, #-0]
    3488:	0033430c 	eorseq	r4, r3, ip, lsl #6
    348c:	b81bca04 	ldmdalt	fp, {r2, r9, fp, lr, pc}
    3490:	06000000 	streq	r0, [r0], -r0
    3494:	0400440c 	streq	r4, [r0], #-1036	; 0xfffffbf4
    3498:	00b81bcb 	adcseq	r1, r8, fp, asr #23
    349c:	0c070000 	stceq	0, cr0, [r7], {-0}
    34a0:	04003443 	streq	r3, [r0], #-1091	; 0xfffffbbd
    34a4:	00b81bcc 	adcseq	r1, r8, ip, asr #23
    34a8:	00080000 	andeq	r0, r8, r0
    34ac:	0009cd0b 	andeq	ip, r9, fp, lsl #26
    34b0:	1bcd0400 	blne	ff3444b8 <__StackTop+0xdf3414b8>
    34b4:	00000371 	andeq	r0, r0, r1, ror r3
    34b8:	20040c09 	andcs	r0, r4, r9, lsl #24
    34bc:	0004911d 	andeq	r9, r4, sp, lsl r1
    34c0:	44420c00 	strbmi	r0, [r2], #-3072	; 0xfffff400
    34c4:	21040048 	tstcs	r4, r8, asr #32
    34c8:	0000b81d 	andeq	fp, r0, sp, lsl r8
    34cc:	420c0000 	andmi	r0, ip, #0
    34d0:	04004c44 	streq	r4, [r0], #-3140	; 0xfffff3bc
    34d4:	00b81d22 	adcseq	r1, r8, r2, lsr #26
    34d8:	0c010000 	stceq	0, cr0, [r1], {-0}
    34dc:	04003143 	streq	r3, [r0], #-323	; 0xfffffebd
    34e0:	00b81d23 	adcseq	r1, r8, r3, lsr #26
    34e4:	0c020000 	stceq	0, cr0, [r2], {-0}
    34e8:	04003243 	streq	r3, [r0], #-579	; 0xfffffdbd
    34ec:	00b81d24 	adcseq	r1, r8, r4, lsr #26
    34f0:	0c030000 	stceq	0, cr0, [r3], {-0}
    34f4:	04003153 	streq	r3, [r0], #-339	; 0xfffffead
    34f8:	00b81d25 	adcseq	r1, r8, r5, lsr #26
    34fc:	0c040000 	stceq	0, cr0, [r4], {-0}
    3500:	04003253 	streq	r3, [r0], #-595	; 0xfffffdad
    3504:	00b81d26 	adcseq	r1, r8, r6, lsr #26
    3508:	0c050000 	stceq	0, cr0, [r5], {-0}
    350c:	04003343 	streq	r3, [r0], #-835	; 0xfffffcbd
    3510:	00b81d27 	adcseq	r1, r8, r7, lsr #26
    3514:	0c060000 	stceq	0, cr0, [r6], {-0}
    3518:	28040044 	stmdacs	r4, {r2, r6}
    351c:	0000b81d 	andeq	fp, r0, sp, lsl r8
    3520:	4d0c0700 	stcmi	7, cr0, [ip, #-0]
    3524:	04003141 	streq	r3, [r0], #-321	; 0xfffffebf
    3528:	00b81d29 	adcseq	r1, r8, r9, lsr #26
    352c:	0c080000 	stceq	0, cr0, [r8], {-0}
    3530:	0032414d 	eorseq	r4, r2, sp, asr #2
    3534:	b81d2a04 	ldmdalt	sp, {r2, r9, fp, sp}
    3538:	09000000 	stmdbeq	r0, {}	; <UNPREDICTABLE>
    353c:	0034430c 	eorseq	r4, r4, ip, lsl #6
    3540:	b81d2b04 	ldmdalt	sp, {r2, r8, r9, fp, sp}
    3544:	0a000000 	beq	354c <__DATA_END+0x1c20>
    3548:	0035430c 	eorseq	r4, r5, ip, lsl #6
    354c:	b81d2c04 	ldmdalt	sp, {r2, sl, fp, sp}
    3550:	0b000000 	bleq	3558 <__DATA_END+0x1c2c>
    3554:	0a370b00 	beq	dc615c <__DATA_END+0xdc4830>
    3558:	2d040000 	stccs	0, cr0, [r4, #-0]
    355c:	0003f41d 	andeq	pc, r3, sp, lsl r4	; <UNPREDICTABLE>
    3560:	05601000 	strbeq	r1, [r0, #-0]!
    3564:	0004e205 	andeq	lr, r4, r5, lsl #4
    3568:	04391100 	ldrteq	r1, [r9], #-256	; 0xffffff00
    356c:	06050000 	streq	r0, [r5], -r0
    3570:	00000073 	andeq	r0, r0, r3, ror r0
    3574:	04091100 	streq	r1, [r9], #-256	; 0xffffff00
    3578:	07050000 	streq	r0, [r5, -r0]
    357c:	00000073 	andeq	r0, r0, r3, ror r0
    3580:	041c1104 	ldreq	r1, [ip], #-260	; 0xfffffefc
    3584:	09050000 	stmdbeq	r5, {}	; <UNPREDICTABLE>
    3588:	000004e2 	andeq	r0, r0, r2, ror #9
    358c:	03f41108 	mvnseq	r1, #8, 2
    3590:	0d050000 	stceq	0, cr0, [r5, #-0]
    3594:	00000073 	andeq	r0, r0, r3, ror r0
    3598:	045e1158 	ldrbeq	r1, [lr], #-344	; 0xfffffea8
    359c:	0e050000 	cdpeq	0, 0, cr0, cr5, cr0, {0}
    35a0:	00000073 	andeq	r0, r0, r3, ror r0
    35a4:	f207005c 	vqadd.s8	q0, <illegal reg q3.5>, q6
    35a8:	f2000004 	vhadd.s8	d0, d0, d4
    35ac:	08000004 	stmdaeq	r0, {r2}
    35b0:	00000097 	muleq	r0, r7, r0
    35b4:	0102004f 	tsteq	r2, pc, asr #32
    35b8:	00017408 	andeq	r7, r1, r8, lsl #8
    35bc:	04210300 	strteq	r0, [r1], #-768	; 0xfffffd00
    35c0:	0f050000 	svceq	0x00050000
    35c4:	0000049d 	muleq	r0, sp, r4
    35c8:	0606c410 			; <UNDEFINED> instruction: 0x0606c410
    35cc:	00000531 	andeq	r0, r0, r1, lsr r5
    35d0:	51787212 	cmnpl	r8, r2, lsl r2
    35d4:	31070600 	tstcc	r7, r0, lsl #12
    35d8:	00000005 	andeq	r0, r0, r5
    35dc:	51787412 	cmnpl	r8, r2, lsl r4
    35e0:	31080600 	tstcc	r8, r0, lsl #12
    35e4:	60000005 	andvs	r0, r0, r5
    35e8:	000ac211 	andeq	ip, sl, r1, lsl r2
    35ec:	36090600 	strcc	r0, [r9], -r0, lsl #12
    35f0:	c0000005 	andgt	r0, r0, r5
    35f4:	04f90500 	ldrbteq	r0, [r9], #1280	; 0x500
    35f8:	04130000 	ldreq	r0, [r3], #-0
    35fc:	0000053c 	andeq	r0, r0, ip, lsr r5
    3600:	0003e805 	andeq	lr, r3, r5, lsl #16
    3604:	09220300 	stmdbeq	r2!, {r8, r9}
    3608:	0a060000 	beq	183610 <__DATA_END+0x181ce4>
    360c:	00000504 	andeq	r0, r0, r4, lsl #10
    3610:	04f20413 	ldrbteq	r0, [r2], #1043	; 0x413
    3614:	1e100000 	cdpne	0, 1, cr0, cr0, cr0, {0}
    3618:	05970d07 	ldreq	r0, [r7, #3335]	; 0xd07
    361c:	13110000 	tstne	r1, #0
    3620:	0700000c 	streq	r0, [r0, -ip]
    3624:	0005970e 	andeq	r9, r5, lr, lsl #14
    3628:	d7110000 	ldrle	r0, [r1, -r0]
    362c:	0700000b 	streq	r0, [r0, -fp]
    3630:	0005970f 	andeq	r9, r5, pc, lsl #14
    3634:	e1110b00 	tst	r1, r0, lsl #22
    3638:	0700000b 	streq	r0, [r0, -fp]
    363c:	0005a710 	andeq	sl, r5, r0, lsl r7
    3640:	a3111600 	tstge	r1, #0, 12
    3644:	0700000b 	streq	r0, [r0, -fp]
    3648:	0005b711 	andeq	fp, r5, r1, lsl r7
    364c:	03111800 	tsteq	r1, #0, 16
    3650:	0700000c 	streq	r0, [r0, -ip]
    3654:	0004f213 	andeq	pc, r4, r3, lsl r2	; <UNPREDICTABLE>
    3658:	07001d00 	streq	r1, [r0, -r0, lsl #26]
    365c:	000004f2 	strdeq	r0, [r0], -r2
    3660:	000005a7 	andeq	r0, r0, r7, lsr #11
    3664:	00009708 	andeq	r9, r0, r8, lsl #14
    3668:	07000a00 	streq	r0, [r0, -r0, lsl #20]
    366c:	000004f2 	strdeq	r0, [r0], -r2
    3670:	000005b7 			; <UNDEFINED> instruction: 0x000005b7
    3674:	00009708 	andeq	r9, r0, r8, lsl #14
    3678:	07000100 	streq	r0, [r0, -r0, lsl #2]
    367c:	000004f2 	strdeq	r0, [r0], -r2
    3680:	000005c7 	andeq	r0, r0, r7, asr #11
    3684:	00009708 	andeq	r9, r0, r8, lsl #14
    3688:	03000400 	movweq	r0, #1024	; 0x400
    368c:	00000baf 	andeq	r0, r0, pc, lsr #23
    3690:	05521407 	ldrbeq	r1, [r2, #-1031]	; 0xfffffbf9
    3694:	ec140000 	ldc	0, cr0, [r4], {-0}
    3698:	0100000b 	tsteq	r0, fp
    369c:	00007308 	andeq	r7, r0, r8, lsl #6
    36a0:	000dc800 	andeq	ip, sp, r0, lsl #16
    36a4:	00001400 	andeq	r1, r0, r0, lsl #8
    36a8:	159c0100 	ldrne	r0, [ip, #256]	; 0x100
    36ac:	15000006 	strne	r0, [r0, #-6]
    36b0:	00747364 	rsbseq	r7, r4, r4, ror #6
    36b4:	054c0801 	strbeq	r0, [ip, #-2049]	; 0xfffff7ff
    36b8:	08d60000 	ldmeq	r6, {}^	; <UNPREDICTABLE>
    36bc:	73160000 	tstvc	r6, #0
    36c0:	01006372 	tsteq	r0, r2, ror r3
    36c4:	00054c08 	andeq	r4, r5, r8, lsl #24
    36c8:	17510100 	ldrbne	r0, [r1, -r0, lsl #2]
    36cc:	09010069 	stmdbeq	r1, {r0, r3, r5, r6}
    36d0:	00000073 	andeq	r0, r0, r3, ror r0
    36d4:	000008f7 	strdeq	r0, [r0], -r7
    36d8:	0b8f1400 	bleq	fe3c86e0 <__StackTop+0xde3c56e0>
    36dc:	13010000 	movwne	r0, #4096	; 0x1000
    36e0:	00000073 	andeq	r0, r0, r3, ror r0
    36e4:	00000ddc 	ldrdeq	r0, [r0], -ip
    36e8:	000000a8 	andeq	r0, r0, r8, lsr #1
    36ec:	06a89c01 	strteq	r9, [r8], r1, lsl #24
    36f0:	21180000 	tstcs	r8, r0
    36f4:	01000006 	tsteq	r0, r6
    36f8:	00007326 	andeq	r7, r0, r6, lsr #6
    36fc:	00063f00 	andeq	r3, r6, r0, lsl #30
    3700:	1a001900 	bne	9b08 <__DATA_END+0x81dc>
    3704:	00000de8 	andeq	r0, r0, r8, ror #27
    3708:	000005d2 	ldrdeq	r0, [r0], -r2
    370c:	0000065c 	andeq	r0, r0, ip, asr r6
    3710:	0550011b 	ldrbeq	r0, [r0, #-283]	; 0xfffffee5
    3714:	fff48003 			; <UNDEFINED> instruction: 0xfff48003
    3718:	51011b1f 	tstpl	r1, pc, lsl fp
    371c:	00007402 	andeq	r7, r0, r2, lsl #8
    3720:	000df01a 	andeq	pc, sp, sl, lsl r0	; <UNPREDICTABLE>
    3724:	0005d200 	andeq	sp, r5, r0, lsl #4
    3728:	00067900 	andeq	r7, r6, r0, lsl #18
    372c:	50011b00 	andpl	r1, r1, r0, lsl #22
    3730:	f48b0305 	vst4.8	{d0[0],d1[0],d2[0],d3[0]}, [fp], r5
    3734:	011b1fff 			; <UNDEFINED> instruction: 0x011b1fff
    3738:	00740251 	rsbseq	r0, r4, r1, asr r2
    373c:	0dfa1a00 	ldcleq	10, cr1, [sl]
    3740:	08e90000 	stmiaeq	r9!, {}^	; <UNPREDICTABLE>
    3744:	06970000 	ldreq	r0, [r7], r0
    3748:	011b0000 	tsteq	fp, r0
    374c:	000c0550 	andeq	r0, ip, r0, asr r5
    3750:	1b4006a0 	blne	10051d8 <__DATA_END+0x10038ac>
    3754:	0a035101 	beq	d7b60 <__DATA_END+0xd6234>
    3758:	1c002580 	cfstr32ne	mvfx2, [r0], {128}	; 0x80
    375c:	00000e48 	andeq	r0, r0, r8, asr #28
    3760:	000008f4 	strdeq	r0, [r0], -r4
    3764:	0250011b 	subseq	r0, r0, #-1073741818	; 0xc0000006
    3768:	00006408 	andeq	r6, r0, r8, lsl #8
    376c:	000b3c14 	andeq	r3, fp, r4, lsl ip
    3770:	f22d0100 	vrhadd.s32	d0, d13, d0
    3774:	84000004 	strhi	r0, [r0], #-4
    3778:	9c00000e 	stcls	0, cr0, [r0], {14}
    377c:	01000000 	mrseq	r0, (UNDEF: 0)
    3780:	0007799c 	muleq	r7, ip, r9
    3784:	0c0d1d00 	stceq	13, cr1, [sp], {-0}
    3788:	2e010000 	cdpcs	0, 0, cr0, cr1, cr0, {0}
    378c:	00000073 	andeq	r0, r0, r3, ror r0
    3790:	00000916 	andeq	r0, r0, r6, lsl r9
    3794:	7465721e 	strbtvc	r7, [r5], #-542	; 0xfffffde2
    3798:	792f0100 	stmdbvc	pc!, {r8}	; <UNPREDICTABLE>
    379c:	1f000007 	svcne	0x00000007
    37a0:	000001d8 	ldrdeq	r0, [r0], -r8
    37a4:	00062118 	andeq	r2, r6, r8, lsl r1
    37a8:	73260100 	teqvc	r6, #0, 2
    37ac:	f1000000 	cps	#0
    37b0:	19000006 	stmdbne	r0, {r1, r2}
    37b4:	0af41800 	beq	ffd097bc <__StackTop+0xdfd067bc>
    37b8:	3f010000 	svccc	0x00010000
    37bc:	00000073 	andeq	r0, r0, r3, ror r0
    37c0:	00000702 	andeq	r0, r0, r2, lsl #14
    37c4:	c21a0019 	andsgt	r0, sl, #25
    37c8:	f400000e 	vst4.8	{d0-d3}, [r0], lr
    37cc:	15000008 	strne	r0, [r0, #-8]
    37d0:	1b000007 	blne	37f4 <__DATA_END+0x1ec8>
    37d4:	3a015001 	bcc	577e0 <__DATA_END+0x55eb4>
    37d8:	0ed21a00 	vfnmseq.f32	s3, s4, s0
    37dc:	08ff0000 	ldmeq	pc!, {}^	; <UNPREDICTABLE>
    37e0:	07350000 	ldreq	r0, [r5, -r0]!
    37e4:	011b0000 	tsteq	fp, r0
    37e8:	007d0250 	rsbseq	r0, sp, r0, asr r2
    37ec:	0251011b 	subseq	r0, r1, #-1073741818	; 0xc0000006
    37f0:	011b0077 	tsteq	fp, r7, ror r0
    37f4:	b4080252 	strlt	r0, [r8], #-594	; 0xfffffdae
    37f8:	0ede2000 	cdpeq	0, 13, cr2, cr14, cr0, {0}
    37fc:	09080000 	stmdbeq	r8, {}	; <UNPREDICTABLE>
    3800:	ec1a0000 	ldc	0, cr0, [sl], {-0}
    3804:	ff00000e 			; <UNDEFINED> instruction: 0xff00000e
    3808:	5e000008 	cdppl	0, 0, cr0, cr0, cr8, {0}
    380c:	1b000007 	blne	3830 <__DATA_END+0x1f04>
    3810:	7d025001 	stcvc	0, cr5, [r2, #-4]
    3814:	51011b00 	tstpl	r1, r0, lsl #22
    3818:	1b007702 	blne	21428 <__DATA_END+0x1fafc>
    381c:	08025201 	stmdaeq	r2, {r0, r9, ip, lr}
    3820:	f82000b4 			; <UNDEFINED> instruction: 0xf82000b4
    3824:	1300000e 	movwne	r0, #14
    3828:	1c000009 	stcne	0, cr0, [r0], {9}
    382c:	00000efe 	strdeq	r0, [r0], -lr
    3830:	000008f4 	strdeq	r0, [r0], -r4
    3834:	0250011b 	subseq	r0, r0, #-1073741818	; 0xc0000006
    3838:	00006408 	andeq	r6, r0, r8, lsl #8
    383c:	04f20700 	ldrbteq	r0, [r2], #1792	; 0x700
    3840:	07890000 	streq	r0, [r9, r0]
    3844:	97080000 	strls	r0, [r8, -r0]
    3848:	27000000 	strcs	r0, [r0, -r0]
    384c:	0b5a1400 	bleq	1688854 <__DATA_END+0x1686f28>
    3850:	62010000 	andvs	r0, r1, #0
    3854:	000004f2 	strdeq	r0, [r0], -r2
    3858:	00000f20 	andeq	r0, r0, r0, lsr #30
    385c:	0000004c 	andeq	r0, r0, ip, asr #32
    3860:	08029c01 	stmdaeq	r2, {r0, sl, fp, ip, pc}
    3864:	0d1d0000 	ldceq	0, cr0, [sp, #-0]
    3868:	0100000c 	tsteq	r0, ip
    386c:	00007365 	andeq	r7, r0, r5, ror #6
    3870:	00095e00 	andeq	r5, r9, r0, lsl #28
    3874:	01f01f00 	mvnseq	r1, r0, lsl #30
    3878:	21180000 	tstcs	r8, r0
    387c:	01000006 	tsteq	r0, r6
    3880:	00007326 	andeq	r7, r0, r6, lsr #6
    3884:	0007c700 	andeq	ip, r7, r0, lsl #14
    3888:	1a001900 	bne	9c90 <__DATA_END+0x8364>
    388c:	00000f40 	andeq	r0, r0, r0, asr #30
    3890:	000008ff 	strdeq	r0, [r0], -pc	; <UNPREDICTABLE>
    3894:	000007e7 	andeq	r0, r0, r7, ror #15
    3898:	0250011b 	subseq	r0, r0, #-1073741818	; 0xc0000006
    389c:	011b007d 	tsteq	fp, sp, ror r0
    38a0:	10740251 	rsbsne	r0, r4, r1, asr r2
    38a4:	0252011b 	subseq	r0, r2, #-1073741818	; 0xc0000006
    38a8:	2000b408 	andcs	fp, r0, r8, lsl #8
    38ac:	00000f4c 	andeq	r0, r0, ip, asr #30
    38b0:	00000913 	andeq	r0, r0, r3, lsl r9
    38b4:	000f541c 	andeq	r5, pc, ip, lsl r4	; <UNPREDICTABLE>
    38b8:	0008f400 	andeq	pc, r8, r0, lsl #8
    38bc:	50011b00 	andpl	r1, r1, r0, lsl #22
    38c0:	00640802 	rsbeq	r0, r4, r2, lsl #16
    38c4:	f6140000 			; <UNDEFINED> instruction: 0xf6140000
    38c8:	0100000b 	tsteq	r0, fp
    38cc:	0004f250 	andeq	pc, r4, r0, asr r2	; <UNPREDICTABLE>
    38d0:	00000000 	andeq	r0, r0, r0
    38d4:	00001c00 	andeq	r1, r0, r0, lsl #24
    38d8:	439c0100 	orrsmi	r0, ip, #0, 2
    38dc:	21000008 	tstcs	r0, r8
    38e0:	00000bd2 	ldrdeq	r0, [r0], -r2
    38e4:	054c5001 	strbeq	r5, [ip, #-1]
    38e8:	09890000 	stmibeq	r9, {}	; <UNPREDICTABLE>
    38ec:	6c170000 	ldcvs	0, cr0, [r7], {-0}
    38f0:	01007663 	tsteq	r0, r3, ror #12
    38f4:	00007352 	andeq	r7, r0, r2, asr r3
    38f8:	0009aa00 	andeq	sl, r9, r0, lsl #20
    38fc:	00002000 	andeq	r2, r0, r0
    3900:	07890000 	streq	r0, [r9, r0]
    3904:	14000000 	strne	r0, [r0], #-0
    3908:	00000bbd 			; <UNDEFINED> instruction: 0x00000bbd
    390c:	04f25901 	ldrbteq	r5, [r2], #2305	; 0x901
    3910:	00000000 	andeq	r0, r0, r0
    3914:	001c0000 	andseq	r0, ip, r0
    3918:	9c010000 	stcls	0, cr0, [r1], {-0}
    391c:	00000884 	andeq	r0, r0, r4, lsl #17
    3920:	000bd221 	andeq	sp, fp, r1, lsr #4
    3924:	4c590100 	ldfmie	f0, [r9], {-0}
    3928:	c9000005 	stmdbgt	r0, {r0, r2}
    392c:	17000009 	strne	r0, [r0, -r9]
    3930:	0076636c 	rsbseq	r6, r6, ip, ror #6
    3934:	00735b01 	rsbseq	r5, r3, r1, lsl #22
    3938:	09ea0000 	stmibeq	sl!, {}^	; <UNPREDICTABLE>
    393c:	00200000 	eoreq	r0, r0, r0
    3940:	89000000 	stmdbhi	r0, {}	; <UNPREDICTABLE>
    3944:	00000007 	andeq	r0, r0, r7
    3948:	000b6f22 	andeq	r6, fp, r2, lsr #30
    394c:	6c790100 	ldfvse	f0, [r9], #-0
    3950:	1c00000f 	stcne	0, cr0, [r0], {15}
    3954:	01000000 	mrseq	r0, (UNDEF: 0)
    3958:	0b13229c 	bleq	4cc3d0 <__DATA_END+0x4caaa4>
    395c:	7e010000 	cdpvc	0, 0, cr0, cr1, cr0, {0}
    3960:	00000f88 	andeq	r0, r0, r8, lsl #31
    3964:	0000001c 	andeq	r0, r0, ip, lsl r0
    3968:	97229c01 	strls	r9, [r2, -r1, lsl #24]!
    396c:	0100000b 	tsteq	r0, fp
    3970:	000fa484 	andeq	sl, pc, r4, lsl #9
    3974:	00000c00 	andeq	r0, r0, r0, lsl #24
    3978:	229c0100 	addscs	r0, ip, #0, 2
    397c:	00000b4a 	andeq	r0, r0, sl, asr #22
    3980:	0fb08801 	svceq	0x00b08801
    3984:	00020000 	andeq	r0, r2, r0
    3988:	9c010000 	stcls	0, cr0, [r1], {-0}
    398c:	0009a323 	andeq	sl, r9, r3, lsr #6
    3990:	d30d0600 	movwle	r0, #54784	; 0xd600
    3994:	05000008 	streq	r0, [r0, #-8]
    3998:	00000541 	andeq	r0, r0, r1, asr #10
    399c:	000bca24 	andeq	ip, fp, r4, lsr #20
    39a0:	c7120100 	ldrgt	r0, [r2, -r0, lsl #2]
    39a4:	05000005 	streq	r0, [r0, #-5]
    39a8:	fff48003 			; <UNDEFINED> instruction: 0xfff48003
    39ac:	09b4251f 	ldmibeq	r4!, {r0, r1, r2, r3, r4, r8, sl, sp}
    39b0:	09b40000 	ldmibeq	r4!, {}	; <UNPREDICTABLE>
    39b4:	11060000 	mrsne	r0, (UNDEF: 6)
    39b8:	00062125 	andeq	r2, r6, r5, lsr #2
    39bc:	00062100 	andeq	r2, r6, r0, lsl #2
    39c0:	26260100 	strtcs	r0, [r6], -r0, lsl #2
    39c4:	00000aed 	andeq	r0, r0, sp, ror #21
    39c8:	00000aed 	andeq	r0, r0, sp, ror #21
    39cc:	000af425 	andeq	pc, sl, r5, lsr #8
    39d0:	000af400 	andeq	pc, sl, r0, lsl #8
    39d4:	253f0100 	ldrcs	r0, [pc, #-256]!	; 38dc <__DATA_END+0x1fb0>
    39d8:	00000974 	andeq	r0, r0, r4, ror r9
    39dc:	00000974 	andeq	r0, r0, r4, ror r9
    39e0:	2c001806 	stccs	8, cr1, [r0], {6}
    39e4:	04000003 	streq	r0, [r0], #-3
    39e8:	000e8300 	andeq	r8, lr, r0, lsl #6
    39ec:	17010400 	strne	r0, [r1, -r0, lsl #8]
    39f0:	0c000000 	stceq	0, cr0, [r0], {-0}
    39f4:	00000c80 	andeq	r0, r0, r0, lsl #25
    39f8:	000001a3 	andeq	r0, r0, r3, lsr #3
    39fc:	00000260 	andeq	r0, r0, r0, ror #4
    3a00:	00000000 	andeq	r0, r0, r0
    3a04:	00000ece 	andeq	r0, r0, lr, asr #29
    3a08:	6d060102 	stfvss	f0, [r6, #-8]
    3a0c:	02000001 	andeq	r0, r0, #1
    3a10:	016b0801 	cmneq	fp, r1, lsl #16
    3a14:	02020000 	andeq	r0, r2, #0
    3a18:	00011705 	andeq	r1, r1, r5, lsl #14
    3a1c:	07020200 	streq	r0, [r2, -r0, lsl #4]
    3a20:	000001dd 	ldrdeq	r0, [r0], -sp
    3a24:	26050402 	strcs	r0, [r5], -r2, lsl #8
    3a28:	03000001 	movweq	r0, #1
    3a2c:	000000f8 	strdeq	r0, [r0], -r8
    3a30:	00534102 	subseq	r4, r3, r2, lsl #2
    3a34:	04020000 	streq	r0, [r2], #-0
    3a38:	00018307 	andeq	r8, r1, r7, lsl #6
    3a3c:	05080200 	streq	r0, [r8, #-512]	; 0xfffffe00
    3a40:	00000121 	andeq	r0, r0, r1, lsr #2
    3a44:	7e070802 	cdpvc	8, 0, cr0, cr7, cr2, {0}
    3a48:	04000001 	streq	r0, [r0], #-1
    3a4c:	6e690504 	cdpvs	5, 6, cr0, cr9, cr4, {0}
    3a50:	04020074 	streq	r0, [r2], #-116	; 0xffffff8c
    3a54:	00018807 	andeq	r8, r1, r7, lsl #16
    3a58:	00fa0300 	rscseq	r0, sl, r0, lsl #6
    3a5c:	20030000 	andcs	r0, r3, r0
    3a60:	00000048 	andeq	r0, r0, r8, asr #32
    3a64:	a2070402 	andge	r0, r7, #33554432	; 0x2000000
    3a68:	05000002 	streq	r0, [r0, #-2]
    3a6c:	00000076 	andeq	r0, r0, r6, ror r0
    3a70:	00008806 	andeq	r8, r0, r6, lsl #16
    3a74:	04180700 	ldreq	r0, [r8], #-1792	; 0xfffff900
    3a78:	00ea06ff 	strdeq	r0, [sl], #111	; 0x6f	; <UNPREDICTABLE>
    3a7c:	30080000 	andcc	r0, r8, r0
    3a80:	04000006 	streq	r0, [r0], #-6
    3a84:	00880700 	addeq	r0, r8, r0, lsl #14
    3a88:	08000000 	stmdaeq	r0, {}	; <UNPREDICTABLE>
    3a8c:	0000065c 	andeq	r0, r0, ip, asr r6
    3a90:	88070104 	stmdahi	r7, {r2, r8}
    3a94:	04000000 	streq	r0, [r0], #-0
    3a98:	0006a108 	andeq	sl, r6, r8, lsl #2
    3a9c:	07020400 	streq	r0, [r2, -r0, lsl #8]
    3aa0:	00000088 	andeq	r0, r0, r8, lsl #1
    3aa4:	068c0808 	streq	r0, [ip], r8, lsl #16
    3aa8:	03040000 	movweq	r0, #16384	; 0x4000
    3aac:	00008807 	andeq	r8, r0, r7, lsl #16
    3ab0:	1c080c00 	stcne	12, cr0, [r8], {-0}
    3ab4:	04000006 	streq	r0, [r0], #-6
    3ab8:	008d0704 	addeq	r0, sp, r4, lsl #14
    3abc:	08100000 	ldmdaeq	r0, {}	; <UNPREDICTABLE>
    3ac0:	00000642 	andeq	r0, r0, r2, asr #12
    3ac4:	88070504 	stmdahi	r7, {r2, r8, sl}
    3ac8:	14000000 	strne	r0, [r0], #-0
    3acc:	06470900 	strbeq	r0, [r7], -r0, lsl #18
    3ad0:	06040000 	streq	r0, [r4], -r0
    3ad4:	00009207 	andeq	r9, r0, r7, lsl #4
    3ad8:	08010200 	stmdaeq	r1, {r9}
    3adc:	00000174 	andeq	r0, r0, r4, ror r1
    3ae0:	0605380a 	streq	r3, [r5], -sl, lsl #16
    3ae4:	00000172 	andeq	r0, r0, r2, ror r1
    3ae8:	000c560b 	andeq	r5, ip, fp, lsl #12
    3aec:	72070500 	andvc	r0, r7, #0, 10
    3af0:	00000001 	andeq	r0, r0, r1
    3af4:	000c1d0b 	andeq	r1, ip, fp, lsl #26
    3af8:	f6080500 			; <UNDEFINED> instruction: 0xf6080500
    3afc:	0b000000 	bleq	3b04 <__DATA_END+0x21d8>
    3b00:	74616c0c 	strbtvc	r6, [r1], #-3084	; 0xfffff3f4
    3b04:	72090500 	andvc	r0, r9, #0, 10
    3b08:	0c000001 	stceq	0, cr0, [r0], {1}
    3b0c:	000c470b 	andeq	r4, ip, fp, lsl #14
    3b10:	f60a0500 			; <UNDEFINED> instruction: 0xf60a0500
    3b14:	17000000 	strne	r0, [r0, -r0]
    3b18:	6e6f6c0c 	cdpvs	12, 6, cr6, cr15, cr12, {0}
    3b1c:	820b0500 	andhi	r0, fp, #0, 10
    3b20:	18000001 	stmdane	r0, {r0}
    3b24:	000c300b 	andeq	r3, ip, fp
    3b28:	f60c0500 			; <UNDEFINED> instruction: 0xf60c0500
    3b2c:	24000000 	strcs	r0, [r0], #-0
    3b30:	000c7a0b 	andeq	r7, ip, fp, lsl #20
    3b34:	920d0500 	andls	r0, sp, #0, 10
    3b38:	25000001 	strcs	r0, [r0, #-1]
    3b3c:	000c4f0b 	andeq	r4, ip, fp, lsl #30
    3b40:	920e0500 	andls	r0, lr, #0, 10
    3b44:	2b000001 	blcs	3b50 <__DATA_END+0x2224>
    3b48:	0002090b 	andeq	r0, r2, fp, lsl #18
    3b4c:	a20f0500 	andge	r0, pc, #0, 10
    3b50:	31000001 	tstcc	r0, r1
    3b54:	00f60d00 	rscseq	r0, r6, r0, lsl #26
    3b58:	01820000 	orreq	r0, r2, r0
    3b5c:	810e0000 	mrshi	r0, (UNDEF: 14)
    3b60:	0a000000 	beq	3b68 <__DATA_END+0x223c>
    3b64:	00f60d00 	rscseq	r0, r6, r0, lsl #26
    3b68:	01920000 	orrseq	r0, r2, r0
    3b6c:	810e0000 	mrshi	r0, (UNDEF: 14)
    3b70:	0b000000 	bleq	3b78 <__DATA_END+0x224c>
    3b74:	00f60d00 	rscseq	r0, r6, r0, lsl #26
    3b78:	01a20000 			; <UNDEFINED> instruction: 0x01a20000
    3b7c:	810e0000 	mrshi	r0, (UNDEF: 14)
    3b80:	05000000 	streq	r0, [r0, #-0]
    3b84:	00f60d00 	rscseq	r0, r6, r0, lsl #26
    3b88:	01b20000 			; <UNDEFINED> instruction: 0x01b20000
    3b8c:	810e0000 	mrshi	r0, (UNDEF: 14)
    3b90:	06000000 	streq	r0, [r0], -r0
    3b94:	0c280300 	stceq	3, cr0, [r8], #-0
    3b98:	10050000 	andne	r0, r5, r0
    3b9c:	000000fd 	strdeq	r0, [r0], -sp
    3ba0:	000b2a0f 	andeq	r2, fp, pc, lsl #20
    3ba4:	f60b0100 			; <UNDEFINED> instruction: 0xf60b0100
    3ba8:	b4000000 	strlt	r0, [r0], #-0
    3bac:	1c00000f 	stcne	0, cr0, [r0], {15}
    3bb0:	01000000 	mrseq	r0, (UNDEF: 0)
    3bb4:	098c109c 	stmibeq	ip, {r2, r3, r4, r7, ip}
    3bb8:	19010000 	stmdbne	r1, {}	; <UNPREDICTABLE>
    3bbc:	00000fd0 	ldrdeq	r0, [r0], -r0	; <UNPREDICTABLE>
    3bc0:	00000138 	andeq	r0, r0, r8, lsr r1
    3bc4:	02009c01 	andeq	r9, r0, #256	; 0x100
    3bc8:	63110000 	tstvs	r1, #0
    3bcc:	f6190100 			; <UNDEFINED> instruction: 0xf6190100
    3bd0:	09000000 	stmdbeq	r0, {}	; <UNPREDICTABLE>
    3bd4:	1200000a 	andne	r0, r0, #10
    3bd8:	00736f70 	rsbseq	r6, r3, r0, ror pc
    3bdc:	00f61a01 	rscseq	r1, r6, r1, lsl #20
    3be0:	13000000 	movwne	r0, #0
    3be4:	00000c38 	andeq	r0, r0, r8, lsr ip
    3be8:	00687401 	rsbeq	r7, r8, r1, lsl #8
    3bec:	00000000 	andeq	r0, r0, r0
    3bf0:	00500000 	subseq	r0, r0, r0
    3bf4:	9c010000 	stcls	0, cr0, [r1], {-0}
    3bf8:	0000023b 	andeq	r0, r0, fp, lsr r2
    3bfc:	000c8614 	andeq	r8, ip, r4, lsl r6
    3c00:	68750100 	ldmdavs	r5!, {r8}^
    3c04:	43000000 	movwmi	r0, #0
    3c08:	1500000a 	strne	r0, [r0, #-10]
    3c0c:	00000000 	andeq	r0, r0, r0
    3c10:	00000319 	andeq	r0, r0, r9, lsl r3
    3c14:	00000015 	andeq	r0, r0, r5, lsl r0
    3c18:	00032400 	andeq	r2, r3, r0, lsl #8
    3c1c:	75160000 	ldrvc	r0, [r6, #-0]
    3c20:	0100000b 	tsteq	r0, fp
    3c24:	00006882 	andeq	r6, r0, r2, lsl #17
    3c28:	00110800 	andseq	r0, r1, r0, lsl #16
    3c2c:	00001c00 	andeq	r1, r0, r0, lsl #24
    3c30:	6b9c0100 	blvs	fe704038 <__StackTop+0xde701038>
    3c34:	17000002 	strne	r0, [r0, -r2]
    3c38:	83010069 	movwhi	r0, #4201	; 0x1069
    3c3c:	00000068 	andeq	r0, r0, r8, rrx
    3c40:	00000a56 	andeq	r0, r0, r6, asr sl
    3c44:	00111a15 	andseq	r1, r1, r5, lsl sl
    3c48:	0001d200 	andeq	sp, r1, r0, lsl #4
    3c4c:	72180000 	andsvc	r0, r8, #0
    3c50:	0100000c 	tsteq	r0, ip
    3c54:	0001b205 	andeq	fp, r1, r5, lsl #4
    3c58:	ac030500 	cfstr32ge	mvfx0, [r3], {-0}
    3c5c:	181ffff4 	ldmdane	pc, {r2, r4, r5, r6, r7, r8, r9, sl, fp, ip, sp, lr, pc}	; <UNPREDICTABLE>
    3c60:	00000a9a 	muleq	r0, sl, sl
    3c64:	00680701 	rsbeq	r0, r8, r1, lsl #14
    3c68:	03050000 	movweq	r0, #20480	; 0x5000
    3c6c:	1ffff4a4 	svcne	0x00fff4a4
    3c70:	000c2218 	andeq	r2, ip, r8, lsl r2
    3c74:	68080100 	stmdavs	r8, {r8}
    3c78:	05000000 	streq	r0, [r0, #-0]
    3c7c:	fff4a803 			; <UNDEFINED> instruction: 0xfff4a803
    3c80:	6966191f 	stmdbvs	r6!, {r0, r1, r2, r3, r4, r8, fp, ip}^
    3c84:	09010078 	stmdbeq	r1, {r3, r4, r5, r6}
    3c88:	00000068 	andeq	r0, r0, r8, rrx
    3c8c:	f4e40305 	vld4.8	{d16[0],d17[0],d18[0],d19[0]}, [r4], r5
    3c90:	97181fff 			; <UNDEFINED> instruction: 0x97181fff
    3c94:	0100000c 	tsteq	r0, ip
    3c98:	0002c00a 	andeq	ip, r2, sl
    3c9c:	e8030500 	stmda	r3, {r8, sl}
    3ca0:	1a1ffff4 	bne	803c78 <__DATA_END+0x80234c>
    3ca4:	0000f604 	andeq	pc, r0, r4, lsl #12
    3ca8:	00f60d00 	rscseq	r0, r6, r0, lsl #26
    3cac:	02d60000 	sbcseq	r0, r6, #0
    3cb0:	810e0000 	mrshi	r0, (UNDEF: 14)
    3cb4:	21000000 	mrscs	r0, (UNDEF: 0)
    3cb8:	6d661900 	stclvs	9, cr1, [r6, #-0]
    3cbc:	15010074 	strne	r0, [r1, #-116]	; 0xffffff8c
    3cc0:	000002c6 	andeq	r0, r0, r6, asr #5
    3cc4:	f0800305 			; <UNDEFINED> instruction: 0xf0800305
    3cc8:	f60d1fff 			; <UNDEFINED> instruction: 0xf60d1fff
    3ccc:	f7000000 			; <UNDEFINED> instruction: 0xf7000000
    3cd0:	0e000002 	cdpeq	0, 0, cr0, cr0, cr2, {0}
    3cd4:	00000081 	andeq	r0, r0, r1, lsl #1
    3cd8:	8d180042 	ldchi	0, cr0, [r8, #-264]	; 0xfffffef8
    3cdc:	0100000c 	tsteq	r0, ip
    3ce0:	0002e716 	andeq	lr, r2, r6, lsl r7
    3ce4:	a2030500 	andge	r0, r3, #0, 10
    3ce8:	181ffff0 	ldmdane	pc, {r4, r5, r6, r7, r8, r9, sl, fp, ip, sp, lr, pc}	; <UNPREDICTABLE>
    3cec:	00000c3f 	andeq	r0, r0, pc, lsr ip
    3cf0:	00f61801 	rscseq	r1, r6, r1, lsl #16
    3cf4:	03050000 	movweq	r0, #20480	; 0x5000
    3cf8:	1ffff4a0 	svcne	0x00fff4a0
    3cfc:	0009d71b 	andeq	sp, r9, fp, lsl r7
    3d00:	0009d700 	andeq	sp, r9, r0, lsl #14
    3d04:	1b200600 	blne	80550c <__DATA_END+0x803be0>
    3d08:	00000c5b 	andeq	r0, r0, fp, asr ip
    3d0c:	00000c5b 	andeq	r0, r0, fp, asr ip
    3d10:	ed002106 	stfs	f2, [r0, #-24]	; 0xffffffe8
    3d14:	04000002 	streq	r0, [r0], #-2
    3d18:	00101900 	andseq	r1, r0, r0, lsl #18
    3d1c:	17010400 	strne	r0, [r1, -r0, lsl #8]
    3d20:	0c000000 	stceq	0, cr0, [r0], {-0}
    3d24:	00000cb8 			; <UNDEFINED> instruction: 0x00000cb8
    3d28:	000001a3 	andeq	r0, r0, r3, lsr #3
    3d2c:	00000288 	andeq	r0, r0, r8, lsl #5
    3d30:	00000000 	andeq	r0, r0, r0
    3d34:	0000101f 	andeq	r1, r0, pc, lsl r0
    3d38:	6d060102 	stfvss	f0, [r6, #-8]
    3d3c:	03000001 	movweq	r0, #1
    3d40:	000000ee 	andeq	r0, r0, lr, ror #1
    3d44:	00371d02 	eorseq	r1, r7, r2, lsl #26
    3d48:	01020000 	mrseq	r0, (UNDEF: 2)
    3d4c:	00016b08 	andeq	r6, r1, r8, lsl #22
    3d50:	05020200 	streq	r0, [r2, #-512]	; 0xfffffe00
    3d54:	00000117 	andeq	r0, r0, r7, lsl r1
    3d58:	dd070202 	sfmle	f0, 4, [r7, #-8]
    3d5c:	02000001 	andeq	r0, r0, #1
    3d60:	01260504 	teqeq	r6, r4, lsl #10
    3d64:	f8030000 			; <UNDEFINED> instruction: 0xf8030000
    3d68:	02000000 	andeq	r0, r0, #0
    3d6c:	00005e41 	andeq	r5, r0, r1, asr #28
    3d70:	07040200 	streq	r0, [r4, -r0, lsl #4]
    3d74:	00000183 	andeq	r0, r0, r3, lsl #3
    3d78:	21050802 	tstcs	r5, r2, lsl #16
    3d7c:	02000001 	andeq	r0, r0, #1
    3d80:	017e0708 	cmneq	lr, r8, lsl #14
    3d84:	04040000 	streq	r0, [r4], #-0
    3d88:	746e6905 	strbtvc	r6, [lr], #-2309	; 0xfffff6fb
    3d8c:	07040200 	streq	r0, [r4, -r0, lsl #4]
    3d90:	00000188 	andeq	r0, r0, r8, lsl #3
    3d94:	0000f003 	andeq	pc, r0, r3
    3d98:	2c140300 	ldccs	3, cr0, [r4], {-0}
    3d9c:	03000000 	movweq	r0, #0
    3da0:	000000fa 	strdeq	r0, [r0], -sl
    3da4:	00532003 	subseq	r2, r3, r3
    3da8:	04020000 	streq	r0, [r2], #-0
    3dac:	0002a207 	andeq	sl, r2, r7, lsl #4
    3db0:	008c0500 	addeq	r0, ip, r0, lsl #10
    3db4:	9e060000 	cdpls	0, 0, cr0, cr6, cr0, {0}
    3db8:	07000000 	streq	r0, [r0, -r0]
    3dbc:	00000081 	andeq	r0, r0, r1, lsl #1
    3dc0:	000000b8 	strheq	r0, [r0], -r8
    3dc4:	00009708 	andeq	r9, r0, r8, lsl #14
    3dc8:	07000300 	streq	r0, [r0, -r0, lsl #6]
    3dcc:	00000081 	andeq	r0, r0, r1, lsl #1
    3dd0:	000000c8 	andeq	r0, r0, r8, asr #1
    3dd4:	00009708 	andeq	r9, r0, r8, lsl #14
    3dd8:	09000700 	stmdbeq	r0, {r8, r9, sl}
    3ddc:	0c0a0410 	cfstrseq	mvf0, [sl], {16}
    3de0:	00000106 	andeq	r0, r0, r6, lsl #2
    3de4:	5253430a 	subspl	r4, r3, #671088640	; 0x28000000
    3de8:	0c0b0400 	cfstrseq	mvf0, [fp], {-0}
    3dec:	0000009e 	muleq	r0, lr, r0
    3df0:	53500a00 	cmppl	r0, #0, 20
    3df4:	0c040052 	stceq	0, cr0, [r4], {82}	; 0x52
    3df8:	00009e0c 	andeq	r9, r0, ip, lsl #28
    3dfc:	430a0400 	movwmi	r0, #41984	; 0xa400
    3e00:	0400524d 	streq	r5, [r0], #-589	; 0xfffffdb3
    3e04:	009e0c0d 	addseq	r0, lr, sp, lsl #24
    3e08:	0a080000 	beq	203e10 <__DATA_END+0x2024e4>
    3e0c:	00524e43 	subseq	r4, r2, r3, asr #28
    3e10:	9e0c0e04 	cdpls	14, 0, cr0, cr12, cr4, {0}
    3e14:	0c000000 	stceq	0, cr0, [r0], {-0}
    3e18:	0cad0b00 	vstmiaeq	sp!, {d0-d-1}
    3e1c:	0f040000 	svceq	0x00040000
    3e20:	0000c80c 	andeq	ip, r0, ip, lsl #16
    3e24:	00810700 	addeq	r0, r1, r0, lsl #14
    3e28:	01220000 	teqeq	r2, r0
    3e2c:	97080000 	strls	r0, [r8, -r0]
    3e30:	9b000000 	blls	3e38 <__DATA_END+0x250c>
    3e34:	11080c00 	tstne	r8, r0, lsl #24
    3e38:	a4166504 	ldrge	r6, [r6], #-1284	; 0xfffffafc
    3e3c:	0d000002 	stceq	0, cr0, [r0, #-8]
    3e40:	00000217 	andeq	r0, r0, r7, lsl r2
    3e44:	9e166604 	cfmsub32ls	mvax0, mvfx6, mvfx6, mvfx4
    3e48:	00000000 	andeq	r0, r0, r0
    3e4c:	00012f0d 	andeq	r2, r1, sp, lsl #30
    3e50:	16670400 	strbtne	r0, [r7], -r0, lsl #8
    3e54:	0000009e 	muleq	r0, lr, r0
    3e58:	023e0d04 	eorseq	r0, lr, #4, 26	; 0x100
    3e5c:	68040000 	stmdavs	r4, {}	; <UNPREDICTABLE>
    3e60:	0002a416 	andeq	sl, r2, r6, lsl r4
    3e64:	500e0800 	andpl	r0, lr, r0, lsl #16
    3e68:	04000001 	streq	r0, [r0], #-1
    3e6c:	009e1669 	addseq	r1, lr, r9, ror #12
    3e70:	10040000 	andne	r0, r4, r0
    3e74:	0002490e 	andeq	r4, r2, lr, lsl #18
    3e78:	166a0400 	strbtne	r0, [sl], -r0, lsl #8
    3e7c:	000000a8 	andeq	r0, r0, r8, lsr #1
    3e80:	dc0e1008 	stcle	0, cr1, [lr], {8}
    3e84:	04000002 	streq	r0, [r0], #-2
    3e88:	009e166b 	addseq	r1, lr, fp, ror #12
    3e8c:	100c0000 	andne	r0, ip, r0
    3e90:	0000000e 	andeq	r0, r0, lr
    3e94:	166c0400 	strbtne	r0, [ip], -r0, lsl #8
    3e98:	0000009e 	muleq	r0, lr, r0
    3e9c:	540e1010 	strpl	r1, [lr], #-16
    3ea0:	04000002 	streq	r0, [r0], #-2
    3ea4:	00a8166d 	adceq	r1, r8, sp, ror #12
    3ea8:	10140000 	andsne	r0, r4, r0
    3eac:	00015d0e 	andeq	r5, r1, lr, lsl #26
    3eb0:	166e0400 	strbtne	r0, [lr], -r0, lsl #8
    3eb4:	0000009e 	muleq	r0, lr, r0
    3eb8:	5f0e1018 	svcpl	0x000e1018
    3ebc:	04000002 	streq	r0, [r0], #-2
    3ec0:	00b8166f 	adcseq	r1, r8, pc, ror #12
    3ec4:	101c0000 	andsne	r0, ip, r0
    3ec8:	0000120e 	andeq	r1, r0, lr, lsl #4
    3ecc:	16700400 	ldrbtne	r0, [r0], -r0, lsl #8
    3ed0:	000000a3 	andeq	r0, r0, r3, lsr #1
    3ed4:	6a0e1024 	bvs	387f6c <__DATA_END+0x386640>
    3ed8:	04000002 	streq	r0, [r0], #-2
    3edc:	02b51671 	adcseq	r1, r5, #118489088	; 0x7100000
    3ee0:	10280000 	eorne	r0, r8, r0
    3ee4:	0001380e 	andeq	r3, r1, lr, lsl #16
    3ee8:	16720400 	ldrbtne	r0, [r2], -r0, lsl #8
    3eec:	0000009e 	muleq	r0, lr, r0
    3ef0:	3e0e1034 	mcrcc	0, 0, r1, cr14, cr4, {1}
    3ef4:	04000001 	streq	r0, [r0], #-1
    3ef8:	009e1673 	addseq	r1, lr, r3, ror r6
    3efc:	10380000 	eorsne	r0, r8, r0
    3f00:	0001440e 	andeq	r4, r1, lr, lsl #8
    3f04:	16740400 	ldrbtne	r0, [r4], -r0, lsl #8
    3f08:	0000009e 	muleq	r0, lr, r0
    3f0c:	4a0e103c 	bmi	388004 <__DATA_END+0x3866d8>
    3f10:	04000001 	streq	r0, [r0], #-1
    3f14:	009e1675 	addseq	r1, lr, r5, ror r6
    3f18:	10400000 	subne	r0, r0, r0
    3f1c:	0001630e 	andeq	r6, r1, lr, lsl #6
    3f20:	16760400 	ldrbtne	r0, [r6], -r0, lsl #8
    3f24:	0000009e 	muleq	r0, lr, r0
    3f28:	750e1044 	strvc	r1, [lr, #-68]	; 0xffffffbc
    3f2c:	04000002 	streq	r0, [r0], #-2
    3f30:	00a81677 	adceq	r1, r8, r7, ror r6
    3f34:	10480000 	subne	r0, r8, r0
    3f38:	0000060e 	andeq	r0, r0, lr, lsl #12
    3f3c:	16780400 	ldrbtne	r0, [r8], -r0, lsl #8
    3f40:	0000009e 	muleq	r0, lr, r0
    3f44:	0c0e104c 	stceq	0, cr1, [lr], {76}	; 0x4c
    3f48:	04000000 	streq	r0, [r0], #-0
    3f4c:	00a31679 	adceq	r1, r3, r9, ror r6
    3f50:	10500000 	subsne	r0, r0, r0
    3f54:	0002800e 	andeq	r8, r2, lr
    3f58:	167a0400 	ldrbtne	r0, [sl], -r0, lsl #8
    3f5c:	000000a8 	andeq	r0, r0, r8, lsr #1
    3f60:	320e1054 	andcc	r1, lr, #84	; 0x54
    3f64:	04000002 	streq	r0, [r0], #-2
    3f68:	00a3167b 	adceq	r1, r3, fp, ror r6
    3f6c:	10580000 	subsne	r0, r8, r0
    3f70:	0002380e 	andeq	r3, r2, lr, lsl #16
    3f74:	167c0400 	ldrbtne	r0, [ip], -r0, lsl #8
    3f78:	000000a3 	andeq	r0, r0, r3, lsr #1
    3f7c:	2d0e105c 	stccs	0, cr1, [lr, #-368]	; 0xfffffe90
    3f80:	04000002 	streq	r0, [r0], #-2
    3f84:	00a3167d 	adceq	r1, r3, sp, ror r6
    3f88:	10600000 	rsbne	r0, r0, r0
    3f8c:	00028b0e 	andeq	r8, r2, lr, lsl #22
    3f90:	167e0400 	ldrbtne	r0, [lr], -r0, lsl #8
    3f94:	00000112 	andeq	r0, r0, r2, lsl r1
    3f98:	790e1064 	stmdbvc	lr, {r2, r5, r6, ip}
    3f9c:	04000001 	streq	r0, [r0], #-1
    3fa0:	009e167f 	addseq	r1, lr, pc, ror r6
    3fa4:	11000000 	mrsne	r0, (UNDEF: 0)
    3fa8:	0001560e 	andeq	r5, r1, lr, lsl #12
    3fac:	16800400 	strne	r0, [r0], r0, lsl #8
    3fb0:	0000009e 	muleq	r0, lr, r0
    3fb4:	07001104 	streq	r1, [r0, -r4, lsl #2]
    3fb8:	00000081 	andeq	r0, r0, r1, lsl #1
    3fbc:	000002b5 			; <UNDEFINED> instruction: 0x000002b5
    3fc0:	0000970f 	andeq	r9, r0, pc, lsl #14
    3fc4:	000ffb00 	andeq	pc, pc, r0, lsl #22
    3fc8:	00008107 	andeq	r8, r0, r7, lsl #2
    3fcc:	0002c500 	andeq	ip, r2, r0, lsl #10
    3fd0:	00970800 	addseq	r0, r7, r0, lsl #16
    3fd4:	000b0000 	andeq	r0, fp, r0
    3fd8:	0001030b 	andeq	r0, r1, fp, lsl #6
    3fdc:	16810400 	strne	r0, [r1], r0, lsl #8
    3fe0:	00000122 	andeq	r0, r0, r2, lsr #2
    3fe4:	00062110 	andeq	r2, r6, r0, lsl r1
    3fe8:	240b0100 	strcs	r0, [fp], #-256	; 0xffffff00
    3fec:	38000011 	stmdacc	r0, {r0, r4}
    3ff0:	01000000 	mrseq	r0, (UNDEF: 0)
    3ff4:	0ca3119c 	stfeqs	f1, [r3], #624	; 0x270
    3ff8:	0b010000 	bleq	44000 <__DATA_END+0x426d4>
    3ffc:	0000007a 	andeq	r0, r0, sl, ror r0
    4000:	00005001 	andeq	r5, r0, r1
    4004:	00000b80 	andeq	r0, r0, r0, lsl #23
    4008:	10f40004 	rscsne	r0, r4, r4
    400c:	01040000 	mrseq	r0, (UNDEF: 4)
    4010:	00000017 	andeq	r0, r0, r7, lsl r0
    4014:	000cc00c 	andeq	ip, ip, ip
    4018:	0001a300 	andeq	sl, r1, r0, lsl #6
    401c:	0004a800 	andeq	sl, r4, r0, lsl #16
    4020:	00000000 	andeq	r0, r0, r0
    4024:	0010da00 	andseq	sp, r0, r0, lsl #20
    4028:	06010200 	streq	r0, [r1], -r0, lsl #4
    402c:	0000016d 	andeq	r0, r0, sp, ror #2
    4030:	0000ee03 	andeq	lr, r0, r3, lsl #28
    4034:	371d0200 	ldrcc	r0, [sp, -r0, lsl #4]
    4038:	02000000 	andeq	r0, r0, #0
    403c:	016b0801 	cmneq	fp, r1, lsl #16
    4040:	02020000 	andeq	r0, r2, #0
    4044:	00011705 	andeq	r1, r1, r5, lsl #14
    4048:	010c0300 	mrseq	r0, LR_mon
    404c:	2b020000 	blcs	84054 <__DATA_END+0x82728>
    4050:	00000050 	andeq	r0, r0, r0, asr r0
    4054:	dd070202 	sfmle	f0, 4, [r7, #-8]
    4058:	02000001 	andeq	r0, r0, #1
    405c:	01260504 	teqeq	r6, r4, lsl #10
    4060:	f8030000 			; <UNDEFINED> instruction: 0xf8030000
    4064:	02000000 	andeq	r0, r0, #0
    4068:	00006941 	andeq	r6, r0, r1, asr #18
    406c:	07040200 	streq	r0, [r4, -r0, lsl #4]
    4070:	00000183 	andeq	r0, r0, r3, lsl #3
    4074:	21050802 	tstcs	r5, r2, lsl #16
    4078:	02000001 	andeq	r0, r0, #1
    407c:	017e0708 	cmneq	lr, r8, lsl #14
    4080:	04040000 	streq	r0, [r4], #-0
    4084:	746e6905 	strbtvc	r6, [lr], #-2309	; 0xfffff6fb
    4088:	07040200 	streq	r0, [r4, -r0, lsl #4]
    408c:	00000188 	andeq	r0, r0, r8, lsl #3
    4090:	0000f003 	andeq	pc, r0, r3
    4094:	2c140300 	ldccs	3, cr0, [r4], {-0}
    4098:	03000000 	movweq	r0, #0
    409c:	0000010e 	andeq	r0, r0, lr, lsl #2
    40a0:	00451a03 	subeq	r1, r5, r3, lsl #20
    40a4:	fa030000 	blx	c40ac <__DATA_END+0xc2780>
    40a8:	03000000 	movweq	r0, #0
    40ac:	00005e20 	andeq	r5, r0, r0, lsr #28
    40b0:	07040200 	streq	r0, [r4, -r0, lsl #4]
    40b4:	000002a2 	andeq	r0, r0, r2, lsr #5
    40b8:	0000a205 	andeq	sl, r0, r5, lsl #4
    40bc:	00b40600 	adcseq	r0, r4, r0, lsl #12
    40c0:	8c070000 	stchi	0, cr0, [r7], {-0}
    40c4:	ce000000 	cdpgt	0, 0, cr0, cr0, cr0, {0}
    40c8:	08000000 	stmdaeq	r0, {}	; <UNPREDICTABLE>
    40cc:	000000ad 	andeq	r0, r0, sp, lsr #1
    40d0:	8c050003 	stchi	0, cr0, [r5], {3}
    40d4:	09000000 	stmdbeq	r0, {}	; <UNPREDICTABLE>
    40d8:	07ae040c 	streq	r0, [lr, ip, lsl #8]!
    40dc:	0000016e 	andeq	r0, r0, lr, ror #2
    40e0:	0031410a 	eorseq	r4, r1, sl, lsl #2
    40e4:	ce07af04 	cdpgt	15, 0, cr10, cr7, cr4, {0}
    40e8:	00000000 	andeq	r0, r0, r0
    40ec:	0400460a 	streq	r4, [r0], #-1546	; 0xfffff9f6
    40f0:	00ce07b0 	strheq	r0, [lr], #112	; 0x70
    40f4:	0a010000 	beq	440fc <__DATA_END+0x427d0>
    40f8:	04003143 	streq	r3, [r0], #-323	; 0xfffffebd
    40fc:	00ce07b1 	strheq	r0, [lr], #113	; 0x71
    4100:	0a020000 	beq	84108 <__DATA_END+0x827dc>
    4104:	b2040053 	andlt	r0, r4, #83	; 0x53
    4108:	0000ce07 	andeq	ip, r0, r7, lsl #28
    410c:	440a0300 	strmi	r0, [sl], #-768	; 0xfffffd00
    4110:	07b30400 	ldreq	r0, [r3, r0, lsl #8]!
    4114:	000000ce 	andeq	r0, r0, lr, asr #1
    4118:	32430a04 	subcc	r0, r3, #4, 20	; 0x4000
    411c:	07b40400 	ldreq	r0, [r4, r0, lsl #8]!
    4120:	000000ce 	andeq	r0, r0, lr, asr #1
    4124:	4c460a05 	mcrrmi	10, 0, r0, r6, cr5
    4128:	b5040054 	strlt	r0, [r4, #-84]	; 0xffffffac
    412c:	0000ce07 	andeq	ip, r0, r7, lsl #28
    4130:	520a0600 	andpl	r0, sl, #0, 12
    4134:	b6040041 	strlt	r0, [r4], -r1, asr #32
    4138:	0000ce07 	andeq	ip, r0, r7, lsl #28
    413c:	530a0700 	movwpl	r0, #42752	; 0xa700
    4140:	0400424d 	streq	r4, [r0], #-589	; 0xfffffdb3
    4144:	00ce07b7 	strheq	r0, [lr], #119	; 0x77
    4148:	0a080000 	beq	204150 <__DATA_END+0x202824>
    414c:	04003241 	streq	r3, [r0], #-577	; 0xfffffdbf
    4150:	00ce07b8 	strheq	r0, [lr], #120	; 0x78
    4154:	0b090000 	bleq	24415c <__DATA_END+0x242830>
    4158:	00000b32 	andeq	r0, r0, r2, lsr fp
    415c:	ce07b904 	cdpgt	9, 0, cr11, cr7, cr4, {0}
    4160:	0a000000 	beq	4168 <__DATA_END+0x283c>
    4164:	000b370b 	andeq	r3, fp, fp, lsl #14
    4168:	07ba0400 	ldreq	r0, [sl, r0, lsl #8]!
    416c:	000000ce 	andeq	r0, r0, lr, asr #1
    4170:	510c000b 	tstpl	ip, fp
    4174:	0400000b 	streq	r0, [r0], #-11
    4178:	00d307bb 	ldrheq	r0, [r3], #123	; 0x7b
    417c:	8c070000 	stchi	0, cr0, [r7], {-0}
    4180:	8a000000 	bhi	4188 <__DATA_END+0x285c>
    4184:	08000001 	stmdaeq	r0, {r0}
    4188:	000000ad 	andeq	r0, r0, sp, lsr #1
    418c:	8c070007 	stchi	0, cr0, [r7], {7}
    4190:	9a000000 	bls	4198 <__DATA_END+0x286c>
    4194:	08000001 	stmdaeq	r0, {r0}
    4198:	000000ad 	andeq	r0, r0, sp, lsr #1
    419c:	8c07009b 	stchi	0, cr0, [r7], {155}	; 0x9b
    41a0:	aa000000 	bge	41a8 <__DATA_END+0x287c>
    41a4:	08000001 	stmdaeq	r0, {r0}
    41a8:	000000ad 	andeq	r0, r0, sp, lsr #1
    41ac:	a4090017 	strge	r0, [r9], #-23	; 0xffffffe9
    41b0:	f512c304 			; <UNDEFINED> instruction: 0xf512c304
    41b4:	0a000001 	beq	41c0 <__DATA_END+0x2894>
    41b8:	00524350 	subseq	r4, r2, r0, asr r3
    41bc:	0512c404 	ldreq	ip, [r2, #-1028]	; 0xfffffbfc
    41c0:	00000002 	andeq	r0, r0, r2
    41c4:	00091c0b 	andeq	r1, r9, fp, lsl #24
    41c8:	12c50400 	sbcne	r0, r5, #0, 8
    41cc:	000000b4 	strheq	r0, [r0], -r4
    41d0:	0aab0b80 	beq	feac6fd8 <__StackTop+0xdeac3fd8>
    41d4:	c6040000 	strgt	r0, [r4], -r0
    41d8:	0000b412 	andeq	fp, r0, r2, lsl r4
    41dc:	3e0b8400 	cfcpyscc	mvf8, mvf11
    41e0:	04000002 	streq	r0, [r0], #-2
    41e4:	019a12c7 	orrseq	r1, sl, r7, asr #5
    41e8:	0b880000 	bleq	fe2041f0 <__StackTop+0xde2011f0>
    41ec:	00000987 	andeq	r0, r0, r7, lsl #19
    41f0:	b412c804 	ldrlt	ip, [r2], #-2052	; 0xfffff7fc
    41f4:	a0000000 	andge	r0, r0, r0
    41f8:	00a20700 	adceq	r0, r2, r0, lsl #14
    41fc:	02050000 	andeq	r0, r5, #0
    4200:	ad080000 	stcge	0, cr0, [r8, #-0]
    4204:	1f000000 	svcne	0x00000000
    4208:	01f50500 	mvnseq	r0, r0, lsl #10
    420c:	5c0c0000 	stcpl	0, cr0, [ip], {-0}
    4210:	04000009 	streq	r0, [r0], #-9
    4214:	01aa12c9 			; <UNDEFINED> instruction: 0x01aa12c9
    4218:	080d0000 	stmdaeq	sp, {}	; <UNPREDICTABLE>
    421c:	16650411 			; <UNDEFINED> instruction: 0x16650411
    4220:	00000398 	muleq	r0, r8, r3
    4224:	0002170b 	andeq	r1, r2, fp, lsl #14
    4228:	16660400 	strbtne	r0, [r6], -r0, lsl #8
    422c:	000000b4 	strheq	r0, [r0], -r4
    4230:	012f0b00 	teqeq	pc, r0, lsl #22
    4234:	67040000 	strvs	r0, [r4, -r0]
    4238:	0000b416 	andeq	fp, r0, r6, lsl r4
    423c:	3e0b0400 	cfcpyscc	mvf0, mvf11
    4240:	04000002 	streq	r0, [r0], #-2
    4244:	03981668 	orrseq	r1, r8, #104, 12	; 0x6800000
    4248:	0e080000 	cdpeq	0, 0, cr0, cr8, cr0, {0}
    424c:	00000150 	andeq	r0, r0, r0, asr r1
    4250:	b4166904 	ldrlt	r6, [r6], #-2308	; 0xfffff6fc
    4254:	04000000 	streq	r0, [r0], #-0
    4258:	02490e10 	subeq	r0, r9, #16, 28	; 0x100
    425c:	6a040000 	bvs	104264 <__DATA_END+0x102938>
    4260:	0000be16 	andeq	fp, r0, r6, lsl lr
    4264:	0e100800 	cdpeq	8, 1, cr0, cr0, cr0, {0}
    4268:	000002dc 	ldrdeq	r0, [r0], -ip
    426c:	b4166b04 	ldrlt	r6, [r6], #-2820	; 0xfffff4fc
    4270:	0c000000 	stceq	0, cr0, [r0], {-0}
    4274:	00000e10 	andeq	r0, r0, r0, lsl lr
    4278:	6c040000 	stcvs	0, cr0, [r4], {-0}
    427c:	0000b416 	andeq	fp, r0, r6, lsl r4
    4280:	0e101000 	cdpeq	0, 1, cr1, cr0, cr0, {0}
    4284:	00000254 	andeq	r0, r0, r4, asr r2
    4288:	be166d04 	cdplt	13, 1, cr6, cr6, cr4, {0}
    428c:	14000000 	strne	r0, [r0], #-0
    4290:	015d0e10 	cmpeq	sp, r0, lsl lr
    4294:	6e040000 	cdpvs	0, 0, cr0, cr4, cr0, {0}
    4298:	0000b416 	andeq	fp, r0, r6, lsl r4
    429c:	0e101800 	cdpeq	8, 1, cr1, cr0, cr0, {0}
    42a0:	0000025f 	andeq	r0, r0, pc, asr r2
    42a4:	7a166f04 	bvc	59febc <__DATA_END+0x59e590>
    42a8:	1c000001 	stcne	0, cr0, [r0], {1}
    42ac:	00120e10 	andseq	r0, r2, r0, lsl lr
    42b0:	70040000 	andvc	r0, r4, r0
    42b4:	0000b916 	andeq	fp, r0, r6, lsl r9
    42b8:	0e102400 	cfmulseq	mvf2, mvf0, mvf0
    42bc:	0000026a 	andeq	r0, r0, sl, ror #4
    42c0:	a9167104 	ldmdbge	r6, {r2, r8, ip, sp, lr}
    42c4:	28000003 	stmdacs	r0, {r0, r1}
    42c8:	01380e10 	teqeq	r8, r0, lsl lr
    42cc:	72040000 	andvc	r0, r4, #0
    42d0:	0000b416 	andeq	fp, r0, r6, lsl r4
    42d4:	0e103400 	cfmulseq	mvf3, mvf0, mvf0
    42d8:	0000013e 	andeq	r0, r0, lr, lsr r1
    42dc:	b4167304 	ldrlt	r7, [r6], #-772	; 0xfffffcfc
    42e0:	38000000 	stmdacc	r0, {}	; <UNPREDICTABLE>
    42e4:	01440e10 	cmpeq	r4, r0, lsl lr
    42e8:	74040000 	strvc	r0, [r4], #-0
    42ec:	0000b416 	andeq	fp, r0, r6, lsl r4
    42f0:	0e103c00 	cdpeq	12, 1, cr3, cr0, cr0, {0}
    42f4:	0000014a 	andeq	r0, r0, sl, asr #2
    42f8:	b4167504 	ldrlt	r7, [r6], #-1284	; 0xfffffafc
    42fc:	40000000 	andmi	r0, r0, r0
    4300:	01630e10 	cmneq	r3, r0, lsl lr
    4304:	76040000 	strvc	r0, [r4], -r0
    4308:	0000b416 	andeq	fp, r0, r6, lsl r4
    430c:	0e104400 	cfmulseq	mvf4, mvf0, mvf0
    4310:	00000275 	andeq	r0, r0, r5, ror r2
    4314:	be167704 	cdplt	7, 1, cr7, cr6, cr4, {0}
    4318:	48000000 	stmdami	r0, {}	; <UNPREDICTABLE>
    431c:	00060e10 	andeq	r0, r6, r0, lsl lr
    4320:	78040000 	stmdavc	r4, {}	; <UNPREDICTABLE>
    4324:	0000b416 	andeq	fp, r0, r6, lsl r4
    4328:	0e104c00 	cdpeq	12, 1, cr4, cr0, cr0, {0}
    432c:	0000000c 	andeq	r0, r0, ip
    4330:	b9167904 	ldmdblt	r6, {r2, r8, fp, ip, sp, lr}
    4334:	50000000 	andpl	r0, r0, r0
    4338:	02800e10 	addeq	r0, r0, #16, 28	; 0x100
    433c:	7a040000 	bvc	104344 <__DATA_END+0x102a18>
    4340:	0000be16 	andeq	fp, r0, r6, lsl lr
    4344:	0e105400 	cfmulseq	mvf5, mvf0, mvf0
    4348:	00000232 	andeq	r0, r0, r2, lsr r2
    434c:	b9167b04 	ldmdblt	r6, {r2, r8, r9, fp, ip, sp, lr}
    4350:	58000000 	stmdapl	r0, {}	; <UNPREDICTABLE>
    4354:	02380e10 	eorseq	r0, r8, #16, 28	; 0x100
    4358:	7c040000 	stcvc	0, cr0, [r4], {-0}
    435c:	0000b916 	andeq	fp, r0, r6, lsl r9
    4360:	0e105c00 	cdpeq	12, 1, cr5, cr0, cr0, {0}
    4364:	0000022d 	andeq	r0, r0, sp, lsr #4
    4368:	b9167d04 	ldmdblt	r6, {r2, r8, sl, fp, ip, sp, lr}
    436c:	60000000 	andvs	r0, r0, r0
    4370:	028b0e10 	addeq	r0, fp, #16, 28	; 0x100
    4374:	7e040000 	cdpvc	0, 0, cr0, cr4, cr0, {0}
    4378:	00018a16 	andeq	r8, r1, r6, lsl sl
    437c:	0e106400 	cfmulseq	mvf6, mvf0, mvf0
    4380:	00000179 	andeq	r0, r0, r9, ror r1
    4384:	b4167f04 	ldrlt	r7, [r6], #-3844	; 0xfffff0fc
    4388:	00000000 	andeq	r0, r0, r0
    438c:	01560e11 	cmpeq	r6, r1, lsl lr
    4390:	80040000 	andhi	r0, r4, r0
    4394:	0000b416 	andeq	fp, r0, r6, lsl r4
    4398:	00110400 	andseq	r0, r1, r0, lsl #8
    439c:	00008c07 	andeq	r8, r0, r7, lsl #24
    43a0:	0003a900 	andeq	sl, r3, r0, lsl #18
    43a4:	00ad0f00 	adceq	r0, sp, r0, lsl #30
    43a8:	0ffb0000 	svceq	0x00fb0000
    43ac:	008c0700 	addeq	r0, ip, r0, lsl #14
    43b0:	03b90000 			; <UNDEFINED> instruction: 0x03b90000
    43b4:	ad080000 	stcge	0, cr0, [r8, #-0]
    43b8:	0b000000 	bleq	43c0 <__DATA_END+0x2a94>
    43bc:	01030c00 	tsteq	r3, r0, lsl #24
    43c0:	81040000 	mrshi	r0, (UNDEF: 4)
    43c4:	00021616 	andeq	r1, r2, r6, lsl r6
    43c8:	0d281000 	stceq	0, cr1, [r8, #-0]
    43cc:	20010000 	andcs	r0, r1, r0
    43d0:	0003db03 	andeq	sp, r3, r3, lsl #22
    43d4:	00701100 	rsbseq	r1, r0, r0, lsl #2
    43d8:	03db2001 	bicseq	r2, fp, #1
    43dc:	12000000 	andne	r0, r0, #0
    43e0:	00016e04 	andeq	r6, r1, r4, lsl #28
    43e4:	0d541000 	ldcleq	0, cr1, [r4, #-0]
    43e8:	23010000 	movwcs	r0, #4096	; 0x1000
    43ec:	0003f703 	andeq	pc, r3, r3, lsl #14
    43f0:	00701100 	rsbseq	r1, r0, r0, lsl #2
    43f4:	03db2301 	bicseq	r2, fp, #67108864	; 0x4000000
    43f8:	10000000 	andne	r0, r0, r0
    43fc:	00000d6d 	andeq	r0, r0, sp, ror #26
    4400:	0d032101 	stfeqs	f2, [r3, #-4]
    4404:	11000004 	tstne	r0, r4
    4408:	21010070 	tstcs	r1, r0, ror r0
    440c:	000003db 	ldrdeq	r0, [r0], -fp
    4410:	0cc61000 	stcleq	0, cr1, [r6], {0}
    4414:	22010000 	andcs	r0, r1, #0
    4418:	00042303 	andeq	r2, r4, r3, lsl #6
    441c:	00701100 	rsbseq	r1, r0, r0, lsl #2
    4420:	03db2201 	bicseq	r2, fp, #268435456	; 0x10000000
    4424:	10000000 	andne	r0, r0, r0
    4428:	00000ce1 	andeq	r0, r0, r1, ror #25
    442c:	39033501 	stmdbcc	r3, {r0, r8, sl, ip, sp}
    4430:	11000004 	tstne	r0, r4
    4434:	35010070 	strcc	r0, [r1, #-112]	; 0xffffff90
    4438:	000003db 	ldrdeq	r0, [r0], -fp
    443c:	0cea1300 	stcleq	3, cr1, [sl]
    4440:	27010000 	strcs	r0, [r1, -r0]
    4444:	0000008c 	andeq	r0, r0, ip, lsl #1
    4448:	00045303 	andeq	r5, r4, r3, lsl #6
    444c:	00701100 	rsbseq	r1, r0, r0, lsl #2
    4450:	03db2701 	bicseq	r2, fp, #262144	; 0x40000
    4454:	13000000 	movwne	r0, #0
    4458:	00000d3c 	andeq	r0, r0, ip, lsr sp
    445c:	007e3e01 	rsbseq	r3, lr, r1, lsl #28
    4460:	78030000 	stmdavc	r3, {}	; <UNPREDICTABLE>
    4464:	11000004 	tstne	r0, r4
    4468:	3e010070 	mcrcc	0, 0, r0, cr1, cr0, {3}
    446c:	000003db 	ldrdeq	r0, [r0], -fp
    4470:	00041c14 	andeq	r1, r4, r4, lsl ip
    4474:	8c3e0100 	ldfhis	f0, [lr], #-0
    4478:	00000000 	andeq	r0, r0, r0
    447c:	000d0210 	andeq	r0, sp, r0, lsl r2
    4480:	03260100 	teqeq	r6, #0, 2
    4484:	0000048e 	andeq	r0, r0, lr, lsl #9
    4488:	01007011 	tsteq	r0, r1, lsl r0
    448c:	0003db26 	andeq	sp, r3, r6, lsr #22
    4490:	63100000 	tstvs	r0, #0
    4494:	0100000d 	tsteq	r0, sp
    4498:	04a40329 	strteq	r0, [r4], #809	; 0x329
    449c:	70110000 	andsvc	r0, r1, r0
    44a0:	db290100 	blle	a448a8 <__DATA_END+0xa42f7c>
    44a4:	00000003 	andeq	r0, r0, r3
    44a8:	000d7810 	andeq	r7, sp, r0, lsl r8
    44ac:	03250100 	teqeq	r5, #0, 2
    44b0:	000004ba 			; <UNDEFINED> instruction: 0x000004ba
    44b4:	01007011 	tsteq	r0, r1, lsl r0
    44b8:	0003db25 	andeq	sp, r3, r5, lsr #22
    44bc:	33100000 	tstcc	r0, #0
    44c0:	0100000d 	tsteq	r0, sp
    44c4:	04d0032f 	ldrbeq	r0, [r0], #815	; 0x32f
    44c8:	70110000 	andsvc	r0, r1, r0
    44cc:	db2f0100 	blle	bc48d4 <__DATA_END+0xbc2fa8>
    44d0:	00000003 	andeq	r0, r0, r3
    44d4:	000d1a10 	andeq	r1, sp, r0, lsl sl
    44d8:	03240100 	teqeq	r4, #0, 2
    44dc:	000004e6 	andeq	r0, r0, r6, ror #9
    44e0:	01007011 	tsteq	r0, r1, lsl r0
    44e4:	0003db24 	andeq	sp, r3, r4, lsr #22
    44e8:	19150000 	ldmdbne	r5, {}	; <UNPREDICTABLE>
    44ec:	0100000b 	tsteq	r0, fp
    44f0:	00115c11 	andseq	r5, r1, r1, lsl ip
    44f4:	00004000 	andeq	r4, r0, r0
    44f8:	079c0100 	ldreq	r0, [ip, r0, lsl #2]
    44fc:	16000005 	strne	r0, [r0], -r5
    4500:	11010070 	tstne	r1, r0, ror r0
    4504:	000003db 	ldrdeq	r0, [r0], -fp
    4508:	17005001 	strne	r5, [r0, -r1]
    450c:	00000cd4 	ldrdeq	r0, [r0], -r4
    4510:	008c4601 	addeq	r4, ip, r1, lsl #12
    4514:	00000000 	andeq	r0, r0, r0
    4518:	00f40000 	rscseq	r0, r4, r0
    451c:	9c010000 	stcls	0, cr0, [r1], {-0}
    4520:	00000803 	andeq	r0, r0, r3, lsl #16
    4524:	000d1518 	andeq	r1, sp, r8, lsl r5
    4528:	97460100 	strbls	r0, [r6, -r0, lsl #2]
    452c:	75000000 	strvc	r0, [r0, #-0]
    4530:	1800000a 	stmdane	r0, {r1, r3}
    4534:	00000cf3 	strdeq	r0, [r0], -r3
    4538:	007e4601 	rsbseq	r4, lr, r1, lsl #12
    453c:	0a960000 	beq	fe584544 <__StackTop+0xde581544>
    4540:	2f180000 	svccs	0x00180000
    4544:	01000005 	tsteq	r0, r5
    4548:	00080346 	andeq	r0, r8, r6, asr #6
    454c:	000acc00 	andeq	ip, sl, r0, lsl #24
    4550:	65721900 	ldrbvs	r1, [r2, #-2304]!	; 0xfffff700
    4554:	47010074 	smlsdxmi	r1, r4, r0, r0
    4558:	0000007e 	andeq	r0, r0, lr, ror r0
    455c:	000cfc1a 	andeq	pc, ip, sl, lsl ip	; <UNPREDICTABLE>
    4560:	7e480100 	dvfvce	f0, f0, f0
    4564:	ed000000 	stc	0, cr0, [r0, #-0]
    4568:	1b00000a 	blne	4598 <__DATA_END+0x2c6c>
    456c:	0000048e 	andeq	r0, r0, lr, lsl #9
    4570:	00000000 	andeq	r0, r0, r0
    4574:	00000298 	muleq	r0, r8, r2
    4578:	05ba4b01 	ldreq	r4, [sl, #2817]!	; 0xb01
    457c:	9a1c0000 	bls	704584 <__DATA_END+0x702c58>
    4580:	00000004 	andeq	r0, r0, r4
    4584:	1b400660 	blne	1005f0c <__DATA_END+0x10045e0>
    4588:	000003e1 	andeq	r0, r0, r1, ror #7
    458c:	00000000 	andeq	r0, r0, r0
    4590:	000002b8 			; <UNDEFINED> instruction: 0x000002b8
    4594:	05a02b01 	streq	r2, [r0, #2817]!	; 0xb01
    4598:	ed1c0000 	ldc	0, cr0, [ip, #-0]
    459c:	00000003 	andeq	r0, r0, r3
    45a0:	00400660 	subeq	r0, r0, r0, ror #12
    45a4:	0003c51d 	andeq	ip, r3, sp, lsl r5
    45a8:	00000000 	andeq	r0, r0, r0
    45ac:	00000800 	andeq	r0, r0, r0, lsl #16
    45b0:	1c2c0100 	stfnes	f0, [ip], #-0
    45b4:	000003d1 	ldrdeq	r0, [r0], -r1
    45b8:	40066000 	andmi	r6, r6, r0
    45bc:	531b0000 	tstpl	fp, #0
    45c0:	00000004 	andeq	r0, r0, r4
    45c4:	d8000000 	stmdale	r0, {}	; <UNPREDICTABLE>
    45c8:	01000002 	tsteq	r0, r2
    45cc:	0005f74c 	andeq	pc, r5, ip, asr #14
    45d0:	046c1e00 	strbteq	r1, [ip], #-3584	; 0xfffff200
    45d4:	7fa00000 	svcvc	0x00a00000
    45d8:	0004631c 	andeq	r6, r4, ip, lsl r3
    45dc:	06600000 	strbteq	r0, [r0], -r0
    45e0:	04231f40 	strteq	r1, [r3], #-3904	; 0xfffff0c0
    45e4:	00000000 	andeq	r0, r0, r0
    45e8:	02f80000 	rscseq	r0, r8, #0
    45ec:	42010000 	andmi	r0, r1, #0
    45f0:	00042f1c 	andeq	r2, r4, ip, lsl pc
    45f4:	06600000 	strbteq	r0, [r0], -r0
    45f8:	1b000040 	blne	4700 <__DATA_END+0x2dd4>
    45fc:	00000453 	andeq	r0, r0, r3, asr r4
    4600:	00000000 	andeq	r0, r0, r0
    4604:	00000310 	andeq	r0, r0, r0, lsl r3
    4608:	06364e01 	ldrteq	r4, [r6], -r1, lsl #28
    460c:	6c200000 	stcvs	0, cr0, [r0], #-0
    4610:	3f000004 	svccc	0x00000004
    4614:	1c00000b 	stcne	0, cr0, [r0], {11}
    4618:	00000463 	andeq	r0, r0, r3, ror #8
    461c:	40066000 	andmi	r6, r6, r0
    4620:	0004231f 	andeq	r2, r4, pc, lsl r3
    4624:	00000000 	andeq	r0, r0, r0
    4628:	00032800 	andeq	r2, r3, r0, lsl #16
    462c:	1c420100 	stfnee	f0, [r2], {-0}
    4630:	0000042f 	andeq	r0, r0, pc, lsr #8
    4634:	40066000 	andmi	r6, r6, r0
    4638:	531b0000 	tstpl	fp, #0
    463c:	00000004 	andeq	r0, r0, r4
    4640:	40000000 	andmi	r0, r0, r0
    4644:	01000003 	tsteq	r0, r3
    4648:	00067550 	andeq	r7, r6, r0, asr r5
    464c:	046c2000 	strbteq	r2, [ip], #-0
    4650:	0b5e0000 	bleq	1784658 <__DATA_END+0x1782d2c>
    4654:	631c0000 	tstvs	ip, #0
    4658:	00000004 	andeq	r0, r0, r4
    465c:	1f400660 	svcne	0x00400660
    4660:	00000423 	andeq	r0, r0, r3, lsr #8
    4664:	00000000 	andeq	r0, r0, r0
    4668:	00000358 	andeq	r0, r0, r8, asr r3
    466c:	2f1c4201 	svccs	0x001c4201
    4670:	00000004 	andeq	r0, r0, r4
    4674:	00400660 	subeq	r0, r0, r0, ror #12
    4678:	04781b00 	ldrbteq	r1, [r8], #-2816	; 0xfffff500
    467c:	00000000 	andeq	r0, r0, r0
    4680:	03700000 	cmneq	r0, #0
    4684:	52010000 	andpl	r0, r1, #0
    4688:	00000692 	muleq	r0, r2, r6
    468c:	0004841c 	andeq	r8, r4, ip, lsl r4
    4690:	06600000 	strbteq	r0, [r0], -r0
    4694:	531b0040 	tstpl	fp, #64	; 0x40
    4698:	00000004 	andeq	r0, r0, r4
    469c:	88000000 	stmdahi	r0, {}	; <UNPREDICTABLE>
    46a0:	01000003 	tsteq	r0, r3
    46a4:	0006cf53 	andeq	ip, r6, r3, asr pc
    46a8:	046c1e00 	strbteq	r1, [ip], #-3584	; 0xfffff200
    46ac:	7fa10000 	svcvc	0x00a10000
    46b0:	0004631c 	andeq	r6, r4, ip, lsl r3
    46b4:	06600000 	strbteq	r0, [r0], -r0
    46b8:	04231f40 	strteq	r1, [r3], #-3904	; 0xfffff0c0
    46bc:	00000000 	andeq	r0, r0, r0
    46c0:	03a00000 	moveq	r0, #0
    46c4:	42010000 	andmi	r0, r1, #0
    46c8:	00042f1c 	andeq	r2, r4, ip, lsl pc
    46cc:	06600000 	strbteq	r0, [r0], -r0
    46d0:	1b000040 	blne	47d8 <__DATA_END+0x2eac>
    46d4:	000003f7 	strdeq	r0, [r0], -r7
    46d8:	00000000 	andeq	r0, r0, r0
    46dc:	000003b8 			; <UNDEFINED> instruction: 0x000003b8
    46e0:	06ec5401 	strbteq	r5, [ip], r1, lsl #8
    46e4:	031c0000 	tsteq	ip, #0
    46e8:	00000004 	andeq	r0, r0, r4
    46ec:	00400660 	subeq	r0, r0, r0, ror #12
    46f0:	00043921 	andeq	r3, r4, r1, lsr #18
    46f4:	00000000 	andeq	r0, r0, r0
    46f8:	00000200 	andeq	r0, r0, r0, lsl #4
    46fc:	09550100 	ldmdbeq	r5, {r8}^
    4700:	1c000007 	stcne	0, cr0, [r0], {7}
    4704:	00000449 	andeq	r0, r0, r9, asr #8
    4708:	40066000 	andmi	r6, r6, r0
    470c:	04232100 	strteq	r2, [r3], #-256	; 0xffffff00
    4710:	00000000 	andeq	r0, r0, r0
    4714:	00140000 	andseq	r0, r4, r0
    4718:	56010000 	strpl	r0, [r1], -r0
    471c:	00000726 	andeq	r0, r0, r6, lsr #14
    4720:	00042f1c 	andeq	r2, r4, ip, lsl pc
    4724:	06600000 	strbteq	r0, [r0], -r0
    4728:	a41b0040 	ldrge	r0, [fp], #-64	; 0xffffffc0
    472c:	00000004 	andeq	r0, r0, r4
    4730:	d0000000 	andle	r0, r0, r0
    4734:	01000003 	tsteq	r0, r3
    4738:	0007435a 	andeq	r4, r7, sl, asr r3
    473c:	04b02000 	ldrteq	r2, [r0], #0
    4740:	0b7d0000 	bleq	1f44748 <__DATA_END+0x1f42e1c>
    4744:	21000000 	mrscs	r0, (UNDEF: 0)
    4748:	00000439 	andeq	r0, r0, r9, lsr r4
    474c:	00000000 	andeq	r0, r0, r0
    4750:	00000002 	andeq	r0, r0, r2
    4754:	07605901 	strbeq	r5, [r0, -r1, lsl #18]!
    4758:	49200000 	stmdbmi	r0!, {}	; <UNPREDICTABLE>
    475c:	95000004 	strls	r0, [r0, #-4]
    4760:	0000000b 	andeq	r0, r0, fp
    4764:	00042321 	andeq	r2, r4, r1, lsr #6
    4768:	00000000 	andeq	r0, r0, r0
    476c:	00001800 	andeq	r1, r0, r0, lsl #16
    4770:	795b0100 	ldmdbvc	fp, {r8}^
    4774:	22000007 	andcs	r0, r0, #7
    4778:	0000042f 	andeq	r0, r0, pc, lsr #8
    477c:	04392100 	ldrteq	r2, [r9], #-256	; 0xffffff00
    4780:	00000000 	andeq	r0, r0, r0
    4784:	00020000 	andeq	r0, r2, r0
    4788:	5d010000 	stcpl	0, cr0, [r1, #-0]
    478c:	00000796 	muleq	r0, r6, r7
    4790:	0004491c 	andeq	r4, r4, ip, lsl r9
    4794:	06600000 	strbteq	r0, [r0], -r0
    4798:	d0210040 	eorle	r0, r1, r0, asr #32
    479c:	00000004 	andeq	r0, r0, r4
    47a0:	08000000 	stmdaeq	r0, {}	; <UNPREDICTABLE>
    47a4:	01000000 	mrseq	r0, (UNDEF: 0)
    47a8:	0007b35e 	andeq	fp, r7, lr, asr r3
    47ac:	04dc1c00 	ldrbeq	r1, [ip], #3072	; 0xc00
    47b0:	60000000 	andvs	r0, r0, r0
    47b4:	1d004006 	stcne	0, cr4, [r0, #-24]	; 0xffffffe8
    47b8:	000004ba 			; <UNDEFINED> instruction: 0x000004ba
    47bc:	00000000 	andeq	r0, r0, r0
    47c0:	00000010 	andeq	r0, r0, r0, lsl r0
    47c4:	c61c5f01 	ldrgt	r5, [ip], -r1, lsl #30
    47c8:	00000004 	andeq	r0, r0, r4
    47cc:	21400660 	cmpcs	r0, r0, ror #12
    47d0:	0000040d 	andeq	r0, r0, sp, lsl #8
    47d4:	00000000 	andeq	r0, r0, r0
    47d8:	00000008 	andeq	r0, r0, r8
    47dc:	07e83101 	strbeq	r3, [r8, r1, lsl #2]!
    47e0:	191c0000 	ldmdbne	ip, {}	; <UNPREDICTABLE>
    47e4:	00000004 	andeq	r0, r0, r4
    47e8:	00400660 	subeq	r0, r0, r0, ror #12
    47ec:	0003f71d 	andeq	pc, r3, sp, lsl r7	; <UNPREDICTABLE>
    47f0:	00000000 	andeq	r0, r0, r0
    47f4:	00000800 	andeq	r0, r0, r0, lsl #16
    47f8:	1c320100 	ldfnes	f0, [r2], #-0
    47fc:	00000403 	andeq	r0, r0, r3, lsl #8
    4800:	40066000 	andmi	r6, r6, r0
    4804:	12000000 	andne	r0, r0, #0
    4808:	00080904 	andeq	r0, r8, r4, lsl #18
    480c:	08010200 	stmdaeq	r1, {r9}
    4810:	00000174 	andeq	r0, r0, r4, ror r1
    4814:	000d4617 	andeq	r4, sp, r7, lsl r6
    4818:	8c620100 	stfhie	f0, [r2], #-0
    481c:	00000000 	andeq	r0, r0, r0
    4820:	20000000 	andcs	r0, r0, r0
    4824:	01000001 	tsteq	r0, r1
    4828:	000b789c 	muleq	fp, ip, r8
    482c:	0d151800 	ldceq	8, cr1, [r5, #-0]
    4830:	62010000 	andvs	r0, r1, #0
    4834:	00000097 	muleq	r0, r7, r0
    4838:	00000bad 	andeq	r0, r0, sp, lsr #23
    483c:	000cf318 	andeq	pc, ip, r8, lsl r3	; <UNPREDICTABLE>
    4840:	7e620100 	powvcs	f0, f2, f0
    4844:	e4000000 	str	r0, [r0], #-0
    4848:	1800000b 	stmdane	r0, {r0, r1, r3}
    484c:	0000052f 	andeq	r0, r0, pc, lsr #10
    4850:	08036201 	stmdaeq	r3, {r0, r9, sp, lr}
    4854:	0c380000 	ldceq	0, cr0, [r8], #-0
    4858:	fc1a0000 	ldc2	0, cr0, [sl], {-0}
    485c:	0100000c 	tsteq	r0, ip
    4860:	00007e63 	andeq	r7, r0, r3, ror #28
    4864:	000c5900 	andeq	r5, ip, r0, lsl #18
    4868:	048e1b00 	streq	r1, [lr], #2816	; 0xb00
    486c:	00000000 	andeq	r0, r0, r0
    4870:	03e80000 	mvneq	r0, #0
    4874:	65010000 	strvs	r0, [r1, #-0]
    4878:	000008b8 			; <UNDEFINED> instruction: 0x000008b8
    487c:	00049a1c 	andeq	r9, r4, ip, lsl sl
    4880:	06600000 	strbteq	r0, [r0], -r0
    4884:	03e11b40 	mvneq	r1, #64, 22	; 0x10000
    4888:	00000000 	andeq	r0, r0, r0
    488c:	04000000 	streq	r0, [r0], #-0
    4890:	2b010000 	blcs	44898 <__DATA_END+0x42f6c>
    4894:	0000089e 	muleq	r0, lr, r8
    4898:	0003ed1c 	andeq	lr, r3, ip, lsl sp
    489c:	06600000 	strbteq	r0, [r0], -r0
    48a0:	c51d0040 	ldrgt	r0, [sp, #-64]	; 0xffffffc0
    48a4:	00000003 	andeq	r0, r0, r3
    48a8:	08000000 	stmdaeq	r0, {}	; <UNPREDICTABLE>
    48ac:	01000000 	mrseq	r0, (UNDEF: 0)
    48b0:	03d11c2c 	bicseq	r1, r1, #44, 24	; 0x2c00
    48b4:	60000000 	andvs	r0, r0, r0
    48b8:	00004006 	andeq	r4, r0, r6
    48bc:	0004531b 	andeq	r5, r4, fp, lsl r3
    48c0:	00000000 	andeq	r0, r0, r0
    48c4:	00041800 	andeq	r1, r4, r0, lsl #16
    48c8:	f5660100 			; <UNDEFINED> instruction: 0xf5660100
    48cc:	1e000008 	cdpne	0, 0, cr0, cr0, cr8, {0}
    48d0:	0000046c 	andeq	r0, r0, ip, ror #8
    48d4:	631c7fa0 	tstvs	ip, #160, 30	; 0x280
    48d8:	00000004 	andeq	r0, r0, r4
    48dc:	1f400660 	svcne	0x00400660
    48e0:	00000423 	andeq	r0, r0, r3, lsr #8
    48e4:	00000000 	andeq	r0, r0, r0
    48e8:	00000430 	andeq	r0, r0, r0, lsr r4
    48ec:	2f1c4201 	svccs	0x001c4201
    48f0:	00000004 	andeq	r0, r0, r4
    48f4:	00400660 	subeq	r0, r0, r0, ror #12
    48f8:	04532100 	ldrbeq	r2, [r3], #-256	; 0xffffff00
    48fc:	00000000 	andeq	r0, r0, r0
    4900:	00160000 	andseq	r0, r6, r0
    4904:	68010000 	stmdavs	r1, {}	; <UNPREDICTABLE>
    4908:	00000934 	andeq	r0, r0, r4, lsr r9
    490c:	00046c20 	andeq	r6, r4, r0, lsr #24
    4910:	000ca200 	andeq	sl, ip, r0, lsl #4
    4914:	04631c00 	strbteq	r1, [r3], #-3072	; 0xfffff400
    4918:	60000000 	andvs	r0, r0, r0
    491c:	231d4006 	tstcs	sp, #6
    4920:	00000004 	andeq	r0, r0, r4
    4924:	12000000 	andne	r0, r0, #0
    4928:	01000000 	mrseq	r0, (UNDEF: 0)
    492c:	042f1c42 	strteq	r1, [pc], #-3138	; 4934 <__DATA_END+0x3008>
    4930:	60000000 	andvs	r0, r0, r0
    4934:	00004006 	andeq	r4, r0, r6
    4938:	00045321 	andeq	r5, r4, r1, lsr #6
    493c:	00000000 	andeq	r0, r0, r0
    4940:	00001a00 	andeq	r1, r0, r0, lsl #20
    4944:	736a0100 	cmnvc	sl, #0, 2
    4948:	20000009 	andcs	r0, r0, r9
    494c:	0000046c 	andeq	r0, r0, ip, ror #8
    4950:	00000cd0 	ldrdeq	r0, [r0], -r0	; <UNPREDICTABLE>
    4954:	0004631c 	andeq	r6, r4, ip, lsl r3
    4958:	06600000 	strbteq	r0, [r0], -r0
    495c:	04231d40 	strteq	r1, [r3], #-3392	; 0xfffff2c0
    4960:	00000000 	andeq	r0, r0, r0
    4964:	00120000 	andseq	r0, r2, r0
    4968:	42010000 	andmi	r0, r1, #0
    496c:	00042f1c 	andeq	r2, r4, ip, lsl pc
    4970:	06600000 	strbteq	r0, [r0], -r0
    4974:	1b000040 	blne	4a7c <__DATA_END+0x3150>
    4978:	00000453 	andeq	r0, r0, r3, asr r4
    497c:	00000000 	andeq	r0, r0, r0
    4980:	00000448 	andeq	r0, r0, r8, asr #8
    4984:	09b26d01 	ldmibeq	r2!, {r0, r8, sl, fp, sp, lr}
    4988:	6c200000 	stcvs	0, cr0, [r0], #-0
    498c:	fa000004 	blx	49a4 <__DATA_END+0x3078>
    4990:	2000000c 	andcs	r0, r0, ip
    4994:	00000463 	andeq	r0, r0, r3, ror #8
    4998:	00000d19 	andeq	r0, r0, r9, lsl sp
    499c:	0004231f 	andeq	r2, r4, pc, lsl r3
    49a0:	00000000 	andeq	r0, r0, r0
    49a4:	00046000 	andeq	r6, r4, r0
    49a8:	20420100 	subcs	r0, r2, r0, lsl #2
    49ac:	0000042f 	andeq	r0, r0, pc, lsr #8
    49b0:	00000d31 	andeq	r0, r0, r1, lsr sp
    49b4:	ba210000 	blt	8449bc <__DATA_END+0x843090>
    49b8:	00000004 	andeq	r0, r0, r4
    49bc:	10000000 	andne	r0, r0, r0
    49c0:	01000000 	mrseq	r0, (UNDEF: 0)
    49c4:	000a0572 	andeq	r0, sl, r2, ror r5
    49c8:	04c62000 	strbeq	r2, [r6], #0
    49cc:	0d490000 	stcleq	0, cr0, [r9, #-0]
    49d0:	0d210000 	stceq	0, cr0, [r1, #-0]
    49d4:	00000004 	andeq	r0, r0, r4
    49d8:	08000000 	stmdaeq	r0, {}	; <UNPREDICTABLE>
    49dc:	01000000 	mrseq	r0, (UNDEF: 0)
    49e0:	0009eb31 	andeq	lr, r9, r1, lsr fp
    49e4:	04192000 	ldreq	r2, [r9], #-0
    49e8:	0d490000 	stcleq	0, cr0, [r9, #-0]
    49ec:	1d000000 	stcne	0, cr0, [r0, #-0]
    49f0:	000003f7 	strdeq	r0, [r0], -r7
    49f4:	00000000 	andeq	r0, r0, r0
    49f8:	00000008 	andeq	r0, r0, r8
    49fc:	03203201 	teqeq	r0, #268435456	; 0x10000000
    4a00:	61000004 	tstvs	r0, r4
    4a04:	0000000d 	andeq	r0, r0, sp
    4a08:	048e2100 	streq	r2, [lr], #256	; 0x100
    4a0c:	00000000 	andeq	r0, r0, r0
    4a10:	00100000 	andseq	r0, r0, r0
    4a14:	75010000 	strvc	r0, [r1, #-0]
    4a18:	00000a58 	andeq	r0, r0, r8, asr sl
    4a1c:	00049a20 	andeq	r9, r4, r0, lsr #20
    4a20:	000d7900 	andeq	r7, sp, r0, lsl #18
    4a24:	03e12100 	mvneq	r2, #0, 2
    4a28:	00000000 	andeq	r0, r0, r0
    4a2c:	00080000 	andeq	r0, r8, r0
    4a30:	2b010000 	blcs	44a38 <__DATA_END+0x4310c>
    4a34:	00000a3e 	andeq	r0, r0, lr, lsr sl
    4a38:	0003ed20 	andeq	lr, r3, r0, lsr #26
    4a3c:	000d7900 	andeq	r7, sp, r0, lsl #18
    4a40:	c51d0000 	ldrgt	r0, [sp, #-0]
    4a44:	00000003 	andeq	r0, r0, r3
    4a48:	08000000 	stmdaeq	r0, {}	; <UNPREDICTABLE>
    4a4c:	01000000 	mrseq	r0, (UNDEF: 0)
    4a50:	03d1202c 	bicseq	r2, r1, #44	; 0x2c
    4a54:	0d910000 	ldceq	0, cr0, [r1]
    4a58:	00000000 	andeq	r0, r0, r0
    4a5c:	00045321 	andeq	r5, r4, r1, lsr #6
    4a60:	00000000 	andeq	r0, r0, r0
    4a64:	00001800 	andeq	r1, r0, r0, lsl #16
    4a68:	97760100 	ldrbls	r0, [r6, -r0, lsl #2]!
    4a6c:	2000000a 	andcs	r0, r0, sl
    4a70:	0000046c 	andeq	r0, r0, ip, ror #8
    4a74:	00000da9 	andeq	r0, r0, r9, lsr #27
    4a78:	00046320 	andeq	r6, r4, r0, lsr #6
    4a7c:	000dbe00 	andeq	fp, sp, r0, lsl #28
    4a80:	04231d00 	strteq	r1, [r3], #-3328	; 0xfffff300
    4a84:	00000000 	andeq	r0, r0, r0
    4a88:	00120000 	andseq	r0, r2, r0
    4a8c:	42010000 	andmi	r0, r1, #0
    4a90:	00042f20 	andeq	r2, r4, r0, lsr #30
    4a94:	000dd600 	andeq	sp, sp, r0, lsl #12
    4a98:	21000000 	mrscs	r0, (UNDEF: 0)
    4a9c:	00000453 	andeq	r0, r0, r3, asr r4
    4aa0:	00000000 	andeq	r0, r0, r0
    4aa4:	00000016 	andeq	r0, r0, r6, lsl r0
    4aa8:	0ad67801 	beq	ff5a2ab4 <__StackTop+0xdf59fab4>
    4aac:	6c200000 	stcvs	0, cr0, [r0], #-0
    4ab0:	ee000004 	cdp	0, 0, cr0, cr0, cr4, {0}
    4ab4:	2000000d 	andcs	r0, r0, sp
    4ab8:	00000463 	andeq	r0, r0, r3, ror #8
    4abc:	00000e1c 	andeq	r0, r0, ip, lsl lr
    4ac0:	0004231d 	andeq	r2, r4, sp, lsl r3
    4ac4:	00000000 	andeq	r0, r0, r0
    4ac8:	00001200 	andeq	r1, r0, r0, lsl #4
    4acc:	20420100 	subcs	r0, r2, r0, lsl #2
    4ad0:	0000042f 	andeq	r0, r0, pc, lsr #8
    4ad4:	00000e34 	andeq	r0, r0, r4, lsr lr
    4ad8:	53210000 	teqpl	r1, #0
    4adc:	00000004 	andeq	r0, r0, r4
    4ae0:	1a000000 	bne	4ae8 <__DATA_END+0x31bc>
    4ae4:	01000000 	mrseq	r0, (UNDEF: 0)
    4ae8:	000b157a 	andeq	r1, fp, sl, ror r5
    4aec:	046c2000 	strbteq	r2, [ip], #-0
    4af0:	0e4c0000 	cdpeq	0, 4, cr0, cr12, cr0, {0}
    4af4:	63200000 	teqvs	r0, #0
    4af8:	76000004 	strvc	r0, [r0], -r4
    4afc:	1d00000e 	stcne	0, cr0, [r0, #-56]	; 0xffffffc8
    4b00:	00000423 	andeq	r0, r0, r3, lsr #8
    4b04:	00000000 	andeq	r0, r0, r0
    4b08:	00000012 	andeq	r0, r0, r2, lsl r0
    4b0c:	2f204201 	svccs	0x00204201
    4b10:	8e000004 	cdphi	0, 0, cr0, cr0, cr4, {0}
    4b14:	0000000e 	andeq	r0, r0, lr
    4b18:	04ba1b00 	ldrteq	r1, [sl], #2816	; 0xb00
    4b1c:	00000000 	andeq	r0, r0, r0
    4b20:	04780000 	ldrbteq	r0, [r8], #-0
    4b24:	7e010000 	cdpvc	0, 0, cr0, cr1, cr0, {0}
    4b28:	00000b68 	andeq	r0, r0, r8, ror #22
    4b2c:	0004c61c 	andeq	ip, r4, ip, lsl r6
    4b30:	06600000 	strbteq	r0, [r0], -r0
    4b34:	040d1b40 	streq	r1, [sp], #-2880	; 0xfffff4c0
    4b38:	00000000 	andeq	r0, r0, r0
    4b3c:	04900000 	ldreq	r0, [r0], #0
    4b40:	31010000 	mrscc	r0, (UNDEF: 1)
    4b44:	00000b4e 	andeq	r0, r0, lr, asr #22
    4b48:	0004191c 	andeq	r1, r4, ip, lsl r9
    4b4c:	06600000 	strbteq	r0, [r0], -r0
    4b50:	f71d0040 			; <UNDEFINED> instruction: 0xf71d0040
    4b54:	00000003 	andeq	r0, r0, r3
    4b58:	08000000 	stmdaeq	r0, {}	; <UNPREDICTABLE>
    4b5c:	01000000 	mrseq	r0, (UNDEF: 0)
    4b60:	04031c32 	streq	r1, [r3], #-3122	; 0xfffff3ce
    4b64:	60000000 	andvs	r0, r0, r0
    4b68:	00004006 	andeq	r4, r0, r6
    4b6c:	00000023 	andeq	r0, r0, r3, lsr #32
    4b70:	000b7800 	andeq	r7, fp, r0, lsl #16
    4b74:	50012400 	andpl	r2, r1, r0, lsl #8
    4b78:	00003101 	andeq	r3, r0, r1, lsl #2
    4b7c:	00062125 	andeq	r2, r6, r5, lsr #2
    4b80:	00062100 	andeq	r2, r6, r0, lsl #2
    4b84:	000b0500 	andeq	r0, fp, r0, lsl #10
    4b88:	00000402 	andeq	r0, r0, r2, lsl #8
    4b8c:	12ed0004 	rscne	r0, sp, #4
    4b90:	01040000 	mrseq	r0, (UNDEF: 4)
    4b94:	00000017 	andeq	r0, r0, r7, lsl r0
    4b98:	000d8e0c 	andeq	r8, sp, ip, lsl #28
    4b9c:	0001a300 	andeq	sl, r1, r0, lsl #6
    4ba0:	0004c800 	andeq	ip, r4, r0, lsl #16
    4ba4:	00000000 	andeq	r0, r0, r0
    4ba8:	0012ac00 	andseq	sl, r2, r0, lsl #24
    4bac:	06010200 	streq	r0, [r1], -r0, lsl #4
    4bb0:	0000016d 	andeq	r0, r0, sp, ror #2
    4bb4:	0000ee03 	andeq	lr, r0, r3, lsl #28
    4bb8:	371d0200 	ldrcc	r0, [sp, -r0, lsl #4]
    4bbc:	02000000 	andeq	r0, r0, #0
    4bc0:	016b0801 	cmneq	fp, r1, lsl #16
    4bc4:	02020000 	andeq	r0, r2, #0
    4bc8:	00011705 	andeq	r1, r1, r5, lsl #14
    4bcc:	010c0300 	mrseq	r0, LR_mon
    4bd0:	2b020000 	blcs	84bd8 <__DATA_END+0x832ac>
    4bd4:	00000050 	andeq	r0, r0, r0, asr r0
    4bd8:	dd070202 	sfmle	f0, 4, [r7, #-8]
    4bdc:	02000001 	andeq	r0, r0, #1
    4be0:	01260504 	teqeq	r6, r4, lsl #10
    4be4:	f8030000 			; <UNDEFINED> instruction: 0xf8030000
    4be8:	02000000 	andeq	r0, r0, #0
    4bec:	00006941 	andeq	r6, r0, r1, asr #18
    4bf0:	07040200 	streq	r0, [r4, -r0, lsl #4]
    4bf4:	00000183 	andeq	r0, r0, r3, lsl #3
    4bf8:	21050802 	tstcs	r5, r2, lsl #16
    4bfc:	02000001 	andeq	r0, r0, #1
    4c00:	017e0708 	cmneq	lr, r8, lsl #14
    4c04:	04040000 	streq	r0, [r4], #-0
    4c08:	746e6905 	strbtvc	r6, [lr], #-2309	; 0xfffff6fb
    4c0c:	07040200 	streq	r0, [r4, -r0, lsl #4]
    4c10:	00000188 	andeq	r0, r0, r8, lsl #3
    4c14:	0000f003 	andeq	pc, r0, r3
    4c18:	2c140300 	ldccs	3, cr0, [r4], {-0}
    4c1c:	03000000 	movweq	r0, #0
    4c20:	0000010e 	andeq	r0, r0, lr, lsl #2
    4c24:	00451a03 	subeq	r1, r5, r3, lsl #20
    4c28:	fa030000 	blx	c4c30 <__DATA_END+0xc3304>
    4c2c:	03000000 	movweq	r0, #0
    4c30:	00005e20 	andeq	r5, r0, r0, lsr #28
    4c34:	07040200 	streq	r0, [r4, -r0, lsl #4]
    4c38:	000002a2 	andeq	r0, r0, r2, lsr #5
    4c3c:	0000a205 	andeq	sl, r0, r5, lsl #4
    4c40:	00b40600 	adcseq	r0, r4, r0, lsl #12
    4c44:	8c070000 	stchi	0, cr0, [r7], {-0}
    4c48:	ce000000 	cdpgt	0, 0, cr0, cr0, cr0, {0}
    4c4c:	08000000 	stmdaeq	r0, {}	; <UNPREDICTABLE>
    4c50:	000000ad 	andeq	r0, r0, sp, lsr #1
    4c54:	8c050003 	stchi	0, cr0, [r5], {3}
    4c58:	09000000 	stmdbeq	r0, {}	; <UNPREDICTABLE>
    4c5c:	03330402 	teqeq	r3, #33554432	; 0x2000000
    4c60:	000000f7 	strdeq	r0, [r0], -r7
    4c64:	000d990a 	andeq	r9, sp, sl, lsl #18
    4c68:	03340400 	teqeq	r4, #0, 8
    4c6c:	000000ce 	andeq	r0, r0, lr, asr #1
    4c70:	0d940a00 	vldreq	s0, [r4]
    4c74:	35040000 	strcc	r0, [r4, #-0]
    4c78:	0000ce03 	andeq	ip, r0, r3, lsl #28
    4c7c:	09000100 	stmdbeq	r0, {r8}
    4c80:	03320424 	teqeq	r2, #36, 8	; 0x24000000
    4c84:	0000014b 	andeq	r0, r0, fp, asr #2
    4c88:	5441440b 	strbpl	r4, [r1], #-1035	; 0xfffffbf5
    4c8c:	03360400 	teqeq	r6, #0, 8
    4c90:	0000014b 	andeq	r0, r0, fp, asr #2
    4c94:	023e0a00 	eorseq	r0, lr, #0, 20
    4c98:	37040000 	strcc	r0, [r4, -r0]
    4c9c:	00015b03 	andeq	r5, r1, r3, lsl #22
    4ca0:	530b0400 	movwpl	r0, #46080	; 0xb400
    4ca4:	38040052 	stmdacc	r4, {r1, r4, r6}
    4ca8:	0000ce03 	andeq	ip, r0, r3, lsl #28
    4cac:	430b2000 	movwmi	r2, #45056	; 0xb000
    4cb0:	39040030 	stmdbcc	r4, {r4, r5}
    4cb4:	0000ce03 	andeq	ip, r0, r3, lsl #28
    4cb8:	430b2100 	movwmi	r2, #45312	; 0xb100
    4cbc:	3a040031 	bcc	104d88 <__DATA_END+0x10345c>
    4cc0:	0000ce03 	andeq	ip, r0, r3, lsl #28
    4cc4:	430b2200 	movwmi	r2, #45568	; 0xb200
    4cc8:	3b040032 	blcc	104d98 <__DATA_END+0x10346c>
    4ccc:	0000ce03 	andeq	ip, r0, r3, lsl #28
    4cd0:	07002300 	streq	r2, [r0, -r0, lsl #6]
    4cd4:	000000d3 	ldrdeq	r0, [r0], -r3
    4cd8:	0000015b 	andeq	r0, r0, fp, asr r1
    4cdc:	0000ad08 	andeq	sl, r0, r8, lsl #26
    4ce0:	07000100 	streq	r0, [r0, -r0, lsl #2]
    4ce4:	0000008c 	andeq	r0, r0, ip, lsl #1
    4ce8:	0000016b 	andeq	r0, r0, fp, ror #2
    4cec:	0000ad08 	andeq	sl, r0, r8, lsl #26
    4cf0:	0c001b00 	stceq	11, cr1, [r0], {-0}
    4cf4:	00000d85 	andeq	r0, r0, r5, lsl #27
    4cf8:	f7033c04 			; <UNDEFINED> instruction: 0xf7033c04
    4cfc:	07000000 	streq	r0, [r0, -r0]
    4d00:	0000008c 	andeq	r0, r0, ip, lsl #1
    4d04:	00000187 	andeq	r0, r0, r7, lsl #3
    4d08:	0000ad08 	andeq	sl, r0, r8, lsl #26
    4d0c:	07000700 	streq	r0, [r0, -r0, lsl #14]
    4d10:	0000008c 	andeq	r0, r0, ip, lsl #1
    4d14:	00000197 	muleq	r0, r7, r1
    4d18:	0000ad08 	andeq	sl, r0, r8, lsl #26
    4d1c:	07009b00 	streq	r9, [r0, -r0, lsl #22]
    4d20:	0000008c 	andeq	r0, r0, ip, lsl #1
    4d24:	000001a7 	andeq	r0, r0, r7, lsr #3
    4d28:	0000ad08 	andeq	sl, r0, r8, lsl #26
    4d2c:	09001700 	stmdbeq	r0, {r8, r9, sl, ip}
    4d30:	12c304a4 	sbcne	r0, r3, #164, 8	; 0xa4000000
    4d34:	000001f2 	strdeq	r0, [r0], -r2
    4d38:	5243500b 	subpl	r5, r3, #11
    4d3c:	12c40400 	sbcne	r0, r4, #0, 8
    4d40:	00000202 	andeq	r0, r0, r2, lsl #4
    4d44:	091c0a00 	ldmdbeq	ip, {r9, fp}
    4d48:	c5040000 	strgt	r0, [r4, #-0]
    4d4c:	0000b412 	andeq	fp, r0, r2, lsl r4
    4d50:	ab0a8000 	blge	2a4d58 <__DATA_END+0x2a342c>
    4d54:	0400000a 	streq	r0, [r0], #-10
    4d58:	00b412c6 	adcseq	r1, r4, r6, asr #5
    4d5c:	0a840000 	beq	fe104d64 <__StackTop+0xde101d64>
    4d60:	0000023e 	andeq	r0, r0, lr, lsr r2
    4d64:	9712c704 	ldrls	ip, [r2, -r4, lsl #14]
    4d68:	88000001 	stmdahi	r0, {r0}
    4d6c:	0009870a 	andeq	r8, r9, sl, lsl #14
    4d70:	12c80400 	sbcne	r0, r8, #0, 8
    4d74:	000000b4 	strheq	r0, [r0], -r4
    4d78:	a20700a0 	andge	r0, r7, #160	; 0xa0
    4d7c:	02000000 	andeq	r0, r0, #0
    4d80:	08000002 	stmdaeq	r0, {r1}
    4d84:	000000ad 	andeq	r0, r0, sp, lsr #1
    4d88:	f205001f 	vqadd.s8	d0, d5, d15
    4d8c:	0c000001 	stceq	0, cr0, [r0], {1}
    4d90:	0000095c 	andeq	r0, r0, ip, asr r9
    4d94:	a712c904 	ldrge	ip, [r2, -r4, lsl #18]
    4d98:	0d000001 	stceq	0, cr0, [r0, #-4]
    4d9c:	65041108 	strvs	r1, [r4, #-264]	; 0xfffffef8
    4da0:	00039516 	andeq	r9, r3, r6, lsl r5
    4da4:	02170a00 	andseq	r0, r7, #0, 20
    4da8:	66040000 	strvs	r0, [r4], -r0
    4dac:	0000b416 	andeq	fp, r0, r6, lsl r4
    4db0:	2f0a0000 	svccs	0x000a0000
    4db4:	04000001 	streq	r0, [r0], #-1
    4db8:	00b41667 	adcseq	r1, r4, r7, ror #12
    4dbc:	0a040000 	beq	104dc4 <__DATA_END+0x103498>
    4dc0:	0000023e 	andeq	r0, r0, lr, lsr r2
    4dc4:	95166804 	ldrls	r6, [r6, #-2052]	; 0xfffff7fc
    4dc8:	08000003 	stmdaeq	r0, {r0, r1}
    4dcc:	0001500e 	andeq	r5, r1, lr
    4dd0:	16690400 	strbtne	r0, [r9], -r0, lsl #8
    4dd4:	000000b4 	strheq	r0, [r0], -r4
    4dd8:	490e1004 	stmdbmi	lr, {r2, ip}
    4ddc:	04000002 	streq	r0, [r0], #-2
    4de0:	00be166a 	adcseq	r1, lr, sl, ror #12
    4de4:	10080000 	andne	r0, r8, r0
    4de8:	0002dc0e 	andeq	sp, r2, lr, lsl #24
    4dec:	166b0400 	strbtne	r0, [fp], -r0, lsl #8
    4df0:	000000b4 	strheq	r0, [r0], -r4
    4df4:	000e100c 	andeq	r1, lr, ip
    4df8:	04000000 	streq	r0, [r0], #-0
    4dfc:	00b4166c 	adcseq	r1, r4, ip, ror #12
    4e00:	10100000 	andsne	r0, r0, r0
    4e04:	0002540e 	andeq	r5, r2, lr, lsl #8
    4e08:	166d0400 	strbtne	r0, [sp], -r0, lsl #8
    4e0c:	000000be 	strheq	r0, [r0], -lr
    4e10:	5d0e1014 	stcpl	0, cr1, [lr, #-80]	; 0xffffffb0
    4e14:	04000001 	streq	r0, [r0], #-1
    4e18:	00b4166e 	adcseq	r1, r4, lr, ror #12
    4e1c:	10180000 	andsne	r0, r8, r0
    4e20:	00025f0e 	andeq	r5, r2, lr, lsl #30
    4e24:	166f0400 	strbtne	r0, [pc], -r0, lsl #8
    4e28:	00000177 	andeq	r0, r0, r7, ror r1
    4e2c:	120e101c 	andne	r1, lr, #28
    4e30:	04000000 	streq	r0, [r0], #-0
    4e34:	00b91670 	adcseq	r1, r9, r0, ror r6
    4e38:	10240000 	eorne	r0, r4, r0
    4e3c:	00026a0e 	andeq	r6, r2, lr, lsl #20
    4e40:	16710400 	ldrbtne	r0, [r1], -r0, lsl #8
    4e44:	000003a6 	andeq	r0, r0, r6, lsr #7
    4e48:	380e1028 	stmdacc	lr, {r3, r5, ip}
    4e4c:	04000001 	streq	r0, [r0], #-1
    4e50:	00b41672 	adcseq	r1, r4, r2, ror r6
    4e54:	10340000 	eorsne	r0, r4, r0
    4e58:	00013e0e 	andeq	r3, r1, lr, lsl #28
    4e5c:	16730400 	ldrbtne	r0, [r3], -r0, lsl #8
    4e60:	000000b4 	strheq	r0, [r0], -r4
    4e64:	440e1038 	strmi	r1, [lr], #-56	; 0xffffffc8
    4e68:	04000001 	streq	r0, [r0], #-1
    4e6c:	00b41674 	adcseq	r1, r4, r4, ror r6
    4e70:	103c0000 	eorsne	r0, ip, r0
    4e74:	00014a0e 	andeq	r4, r1, lr, lsl #20
    4e78:	16750400 	ldrbtne	r0, [r5], -r0, lsl #8
    4e7c:	000000b4 	strheq	r0, [r0], -r4
    4e80:	630e1040 	movwvs	r1, #57408	; 0xe040
    4e84:	04000001 	streq	r0, [r0], #-1
    4e88:	00b41676 	adcseq	r1, r4, r6, ror r6
    4e8c:	10440000 	subne	r0, r4, r0
    4e90:	0002750e 	andeq	r7, r2, lr, lsl #10
    4e94:	16770400 	ldrbtne	r0, [r7], -r0, lsl #8
    4e98:	000000be 	strheq	r0, [r0], -lr
    4e9c:	060e1048 	streq	r1, [lr], -r8, asr #32
    4ea0:	04000000 	streq	r0, [r0], #-0
    4ea4:	00b41678 	adcseq	r1, r4, r8, ror r6
    4ea8:	104c0000 	subne	r0, ip, r0
    4eac:	00000c0e 	andeq	r0, r0, lr, lsl #24
    4eb0:	16790400 	ldrbtne	r0, [r9], -r0, lsl #8
    4eb4:	000000b9 	strheq	r0, [r0], -r9
    4eb8:	800e1050 	andhi	r1, lr, r0, asr r0
    4ebc:	04000002 	streq	r0, [r0], #-2
    4ec0:	00be167a 	adcseq	r1, lr, sl, ror r6
    4ec4:	10540000 	subsne	r0, r4, r0
    4ec8:	0002320e 	andeq	r3, r2, lr, lsl #4
    4ecc:	167b0400 	ldrbtne	r0, [fp], -r0, lsl #8
    4ed0:	000000b9 	strheq	r0, [r0], -r9
    4ed4:	380e1058 	stmdacc	lr, {r3, r4, r6, ip}
    4ed8:	04000002 	streq	r0, [r0], #-2
    4edc:	00b9167c 	adcseq	r1, r9, ip, ror r6
    4ee0:	105c0000 	subsne	r0, ip, r0
    4ee4:	00022d0e 	andeq	r2, r2, lr, lsl #26
    4ee8:	167d0400 	ldrbtne	r0, [sp], -r0, lsl #8
    4eec:	000000b9 	strheq	r0, [r0], -r9
    4ef0:	8b0e1060 	blhi	389078 <__DATA_END+0x38774c>
    4ef4:	04000002 	streq	r0, [r0], #-2
    4ef8:	0187167e 	orreq	r1, r7, lr, ror r6
    4efc:	10640000 	rsbne	r0, r4, r0
    4f00:	0001790e 	andeq	r7, r1, lr, lsl #18
    4f04:	167f0400 	ldrbtne	r0, [pc], -r0, lsl #8
    4f08:	000000b4 	strheq	r0, [r0], -r4
    4f0c:	560e1100 	strpl	r1, [lr], -r0, lsl #2
    4f10:	04000001 	streq	r0, [r0], #-1
    4f14:	00b41680 	adcseq	r1, r4, r0, lsl #13
    4f18:	11040000 	mrsne	r0, (UNDEF: 4)
    4f1c:	008c0700 	addeq	r0, ip, r0, lsl #14
    4f20:	03a60000 			; <UNDEFINED> instruction: 0x03a60000
    4f24:	ad0f0000 	stcge	0, cr0, [pc, #-0]	; 4f2c <__DATA_END+0x3600>
    4f28:	fb000000 	blx	4f32 <__DATA_END+0x3606>
    4f2c:	8c07000f 	stchi	0, cr0, [r7], {15}
    4f30:	b6000000 	strlt	r0, [r0], -r0
    4f34:	08000003 	stmdaeq	r0, {r0, r1}
    4f38:	000000ad 	andeq	r0, r0, sp, lsr #1
    4f3c:	030c000b 	movweq	r0, #49163	; 0xc00b
    4f40:	04000001 	streq	r0, [r0], #-1
    4f44:	02131681 	andseq	r1, r3, #135266304	; 0x8100000
    4f48:	65100000 	ldrvs	r0, [r0, #-0]
    4f4c:	01000004 	tsteq	r0, r4
    4f50:	00119c03 	andseq	r9, r1, r3, lsl #24
    4f54:	00004400 	andeq	r4, r0, r0, lsl #8
    4f58:	109c0100 	addsne	r0, ip, r0, lsl #2
    4f5c:	00000d9e 	muleq	r0, lr, sp
    4f60:	00000c01 	andeq	r0, r0, r1, lsl #24
    4f64:	00020000 	andeq	r0, r2, r0
    4f68:	9c010000 	stcls	0, cr0, [r1], {-0}
    4f6c:	00048211 	andeq	r8, r4, r1, lsl r2
    4f70:	e00f0100 	and	r0, pc, r0, lsl #2
    4f74:	14000011 	strne	r0, [r0], #-17	; 0xffffffef
    4f78:	01000000 	mrseq	r0, (UNDEF: 0)
    4f7c:	6176129c 			; <UNDEFINED> instruction: 0x6176129c
    4f80:	0f01006c 	svceq	0x0001006c
    4f84:	00000097 	muleq	r0, r7, r0
    4f88:	00000ea6 	andeq	r0, r0, r6, lsr #29
    4f8c:	02030000 	andeq	r0, r3, #0
    4f90:	00040000 	andeq	r0, r4, r0
    4f94:	000013e0 	andeq	r1, r0, r0, ror #7
    4f98:	00170104 	andseq	r0, r7, r4, lsl #2
    4f9c:	a80c0000 	stmdage	ip, {}	; <UNPREDICTABLE>
    4fa0:	a300000d 	movwge	r0, #13
    4fa4:	e8000001 	stmda	r0, {r0}
    4fa8:	00000004 	andeq	r0, r0, r4
    4fac:	81000000 	mrshi	r0, (UNDEF: 0)
    4fb0:	02000013 	andeq	r0, r0, #19
    4fb4:	016d0601 	cmneq	sp, r1, lsl #12
    4fb8:	01020000 	mrseq	r0, (UNDEF: 2)
    4fbc:	00016b08 	andeq	r6, r1, r8, lsl #22
    4fc0:	05020200 	streq	r0, [r2, #-512]	; 0xfffffe00
    4fc4:	00000117 	andeq	r0, r0, r7, lsl r1
    4fc8:	dd070202 	sfmle	f0, 4, [r7, #-8]
    4fcc:	02000001 	andeq	r0, r0, #1
    4fd0:	01260504 	teqeq	r6, r4, lsl #10
    4fd4:	04020000 	streq	r0, [r2], #-0
    4fd8:	00018307 	andeq	r8, r1, r7, lsl #6
    4fdc:	05080200 	streq	r0, [r8, #-512]	; 0xfffffe00
    4fe0:	00000121 	andeq	r0, r0, r1, lsr #2
    4fe4:	7e070802 	cdpvc	8, 0, cr0, cr7, cr2, {0}
    4fe8:	03000001 	movweq	r0, #1
    4fec:	6e690504 	cdpvs	5, 6, cr0, cr9, cr4, {0}
    4ff0:	04020074 	streq	r0, [r2], #-116	; 0xffffff8c
    4ff4:	00018807 	andeq	r8, r1, r7, lsl #16
    4ff8:	07040200 	streq	r0, [r4, -r0, lsl #4]
    4ffc:	000002a2 	andeq	r0, r0, r2, lsr #5
    5000:	74080102 	strvc	r0, [r8], #-258	; 0xfffffefe
    5004:	04000001 	streq	r0, [r0], #-1
    5008:	00000072 	andeq	r0, r0, r2, ror r0
    500c:	00000089 	andeq	r0, r0, r9, lsl #1
    5010:	00006b05 	andeq	r6, r0, r5, lsl #22
    5014:	06000a00 	streq	r0, [r0], -r0, lsl #20
    5018:	fe060238 	mcr2	2, 0, r0, cr6, cr8, {1}
    501c:	07000000 	streq	r0, [r0, -r0]
    5020:	00000c56 	andeq	r0, r0, r6, asr ip
    5024:	00790702 	rsbseq	r0, r9, r2, lsl #14
    5028:	07000000 	streq	r0, [r0, -r0]
    502c:	00000c1d 	andeq	r0, r0, sp, lsl ip
    5030:	00720802 	rsbseq	r0, r2, r2, lsl #16
    5034:	080b0000 	stmdaeq	fp, {}	; <UNPREDICTABLE>
    5038:	0074616c 	rsbseq	r6, r4, ip, ror #2
    503c:	00790902 	rsbseq	r0, r9, r2, lsl #18
    5040:	070c0000 	streq	r0, [ip, -r0]
    5044:	00000c47 	andeq	r0, r0, r7, asr #24
    5048:	00720a02 	rsbseq	r0, r2, r2, lsl #20
    504c:	08170000 	ldmdaeq	r7, {}	; <UNPREDICTABLE>
    5050:	006e6f6c 	rsbeq	r6, lr, ip, ror #30
    5054:	00fe0b02 	rscseq	r0, lr, r2, lsl #22
    5058:	07180000 	ldreq	r0, [r8, -r0]
    505c:	00000c30 	andeq	r0, r0, r0, lsr ip
    5060:	00720c02 	rsbseq	r0, r2, r2, lsl #24
    5064:	07240000 	streq	r0, [r4, -r0]!
    5068:	00000c7a 	andeq	r0, r0, sl, ror ip
    506c:	010e0d02 	tsteq	lr, r2, lsl #26
    5070:	07250000 	streq	r0, [r5, -r0]!
    5074:	00000c4f 	andeq	r0, r0, pc, asr #24
    5078:	010e0e02 	tsteq	lr, r2, lsl #28
    507c:	072b0000 	streq	r0, [fp, -r0]!
    5080:	00000209 	andeq	r0, r0, r9, lsl #4
    5084:	011e0f02 	tsteq	lr, r2, lsl #30
    5088:	00310000 	eorseq	r0, r1, r0
    508c:	00007204 	andeq	r7, r0, r4, lsl #4
    5090:	00010e00 	andeq	r0, r1, r0, lsl #28
    5094:	006b0500 	rsbeq	r0, fp, r0, lsl #10
    5098:	000b0000 	andeq	r0, fp, r0
    509c:	00007204 	andeq	r7, r0, r4, lsl #4
    50a0:	00011e00 	andeq	r1, r1, r0, lsl #28
    50a4:	006b0500 	rsbeq	r0, fp, r0, lsl #10
    50a8:	00050000 	andeq	r0, r5, r0
    50ac:	00007204 	andeq	r7, r0, r4, lsl #4
    50b0:	00012e00 	andeq	r2, r1, r0, lsl #28
    50b4:	006b0500 	rsbeq	r0, fp, r0, lsl #10
    50b8:	00060000 	andeq	r0, r6, r0
    50bc:	000c2809 	andeq	r2, ip, r9, lsl #16
    50c0:	89100200 	ldmdbhi	r0, {r9}
    50c4:	0a000000 	beq	50cc <__DATA_END+0x37a0>
    50c8:	00000b22 	andeq	r0, r0, r2, lsr #22
    50cc:	005d0401 	subseq	r0, sp, r1, lsl #8
    50d0:	11f40000 	mvnsne	r0, r0
    50d4:	00400000 	subeq	r0, r0, r0
    50d8:	9c010000 	stcls	0, cr0, [r1], {-0}
    50dc:	000001e0 	andeq	r0, r0, r0, ror #3
    50e0:	7274730b 	rsbsvc	r7, r4, #738197504	; 0x2c000000
    50e4:	e0050100 	and	r0, r5, r0, lsl #2
    50e8:	0c000001 	stceq	0, cr0, [r0], {1}
    50ec:	000009ed 	andeq	r0, r0, sp, ror #19
    50f0:	005d0601 	subseq	r0, sp, r1, lsl #12
    50f4:	fe0d0000 	cdp2	0, 0, cr0, cr13, cr0, {0}
    50f8:	fb000011 	blx	5146 <__DATA_END+0x381a>
    50fc:	84000001 	strhi	r0, [r0], #-1
    5100:	0e000001 	cdpeq	0, 0, cr0, cr0, cr1, {0}
    5104:	03055001 	movweq	r5, #20481	; 0x5001
    5108:	000016c6 	andeq	r1, r0, r6, asr #13
    510c:	0151010e 	cmpeq	r1, lr, lsl #2
    5110:	060d003f 			; <UNDEFINED> instruction: 0x060d003f
    5114:	fb000012 	blx	5166 <__DATA_END+0x383a>
    5118:	97000001 	strls	r0, [r0, -r1]
    511c:	0e000001 	cdpeq	0, 0, cr0, cr0, cr1, {0}
    5120:	36015101 	strcc	r5, [r1], -r1, lsl #2
    5124:	120e0d00 	andne	r0, lr, #0, 26
    5128:	01fb0000 	mvnseq	r0, r0
    512c:	01b30000 			; <UNDEFINED> instruction: 0x01b30000
    5130:	010e0000 	mrseq	r0, (UNDEF: 14)
    5134:	da030550 	ble	c667c <__DATA_END+0xc4d50>
    5138:	0e000016 	mcreq	0, 0, r0, cr0, cr6, {0}
    513c:	37015101 	strcc	r5, [r1, -r1, lsl #2]
    5140:	12160d00 	andsne	r0, r6, #0, 26
    5144:	01fb0000 	mvnseq	r0, r0
    5148:	01d00000 	bicseq	r0, r0, r0
    514c:	010e0000 	mrseq	r0, (UNDEF: 14)
    5150:	e2030550 	and	r0, r3, #80, 10	; 0x14000000
    5154:	0e000016 	mcreq	0, 0, r0, cr0, cr6, {0}
    5158:	08025101 	stmdaeq	r2, {r0, r8, ip, lr}
    515c:	1e0f00c8 	cdpne	0, 0, cr0, cr15, cr8, {6}
    5160:	fb000012 	blx	51b2 <__DATA_END+0x3886>
    5164:	0e000001 	cdpeq	0, 0, cr0, cr0, cr1, {0}
    5168:	36015101 	strcc	r5, [r1], -r1, lsl #2
    516c:	72040000 	andvc	r0, r4, #0
    5170:	f0000000 			; <UNDEFINED> instruction: 0xf0000000
    5174:	05000001 	streq	r0, [r0, #-1]
    5178:	0000006b 	andeq	r0, r0, fp, rrx
    517c:	72100063 	andsvc	r0, r0, #99	; 0x63
    5180:	0200000c 	andeq	r0, r0, #12
    5184:	00012e17 	andeq	r2, r1, r7, lsl lr
    5188:	05401100 	strbeq	r1, [r0, #-256]	; 0xffffff00
    518c:	05400000 	strbeq	r0, [r0, #-0]
    5190:	25030000 	strcs	r0, [r3, #-0]
    5194:	00007600 	andeq	r7, r0, r0, lsl #12
    5198:	ce000200 	cdpgt	2, 0, cr0, cr0, cr0, {0}
    519c:	04000014 	streq	r0, [r0], #-20	; 0xffffffec
    51a0:	0013d001 	andseq	sp, r3, r1
    51a4:	00047c00 	andeq	r7, r4, r0, lsl #24
    51a8:	00049400 	andeq	r9, r4, r0, lsl #8
    51ac:	2f2e2e00 	svccs	0x002e2e00
    51b0:	69736d63 	ldmdbvs	r3!, {r0, r1, r5, r6, r8, sl, fp, sp, lr}^
    51b4:	4b4d2f73 	blmi	1350f88 <__DATA_END+0x134f65c>
    51b8:	5a36324c 	bpl	d91af0 <__DATA_END+0xd901c4>
    51bc:	74732f34 	ldrbtvc	r2, [r3], #-3892	; 0xfffff0cc
    51c0:	75747261 	ldrbvc	r7, [r4, #-609]!	; 0xfffffd9f
    51c4:	4b4d5f70 	blmi	135cf8c <__DATA_END+0x135b660>
    51c8:	5a36324c 	bpl	d91b00 <__DATA_END+0xd901d4>
    51cc:	00732e34 	rsbseq	r2, r3, r4, lsr lr
    51d0:	6d6f682f 	stclvs	8, cr6, [pc, #-188]!	; 511c <__DATA_END+0x37f0>
    51d4:	68632f65 	stmdavs	r3!, {r0, r2, r5, r6, r8, r9, sl, fp, sp}^
    51d8:	2f736972 	svccs	0x00736972
    51dc:	65646f43 	strbvs	r6, [r4, #-3907]!	; 0xfffff0bd
    51e0:	5250412f 	subspl	r4, r0, #-1073741813	; 0xc000000b
    51e4:	6e6f4453 	mcrvs	4, 3, r4, cr15, cr3, {2}
    51e8:	2f656c67 	svccs	0x00656c67
    51ec:	74666f73 	strbtvc	r6, [r6], #-3955	; 0xfffff08d
    51f0:	65726177 	ldrbvs	r6, [r2, #-375]!	; 0xfffffe89
    51f4:	69616d2f 	stmdbvs	r1!, {r0, r1, r2, r3, r5, r8, sl, fp, sp, lr}^
    51f8:	616f426e 	cmnvs	pc, lr, ror #4
    51fc:	47006472 	smlsdxmi	r0, r2, r4, r6
    5200:	4120554e 	teqmi	r0, lr, asr #10
    5204:	2e322053 	mrccs	0, 1, r2, cr2, cr3, {2}
    5208:	312e3532 	teqcc	lr, r2, lsr r5
    520c:	Address 0x000000000000520c is out of bounds.


Disassembly of section .debug_abbrev:

00000000 <.debug_abbrev>:
       0:	25011101 	strcs	r1, [r1, #-257]	; 0xfffffeff
       4:	030b130e 	movweq	r1, #45838	; 0xb30e
       8:	550e1b0e 	strpl	r1, [lr, #-2830]	; 0xfffff4f2
       c:	10011117 	andne	r1, r1, r7, lsl r1
      10:	02000017 	andeq	r0, r0, #23
      14:	0b0b0024 	bleq	2c00ac <__DATA_END+0x2be780>
      18:	0e030b3e 	vmoveq.16	d3[0], r0
      1c:	16030000 	strne	r0, [r3], -r0
      20:	3a0e0300 	bcc	380c28 <__DATA_END+0x37f2fc>
      24:	490b3b0b 	stmdbmi	fp, {r0, r1, r3, r8, r9, fp, ip, sp}
      28:	04000013 	streq	r0, [r0], #-19	; 0xffffffed
      2c:	0b0b0024 	bleq	2c00c4 <__DATA_END+0x2be798>
      30:	08030b3e 	stmdaeq	r3, {r1, r2, r3, r4, r5, r8, r9, fp}
      34:	35050000 	strcc	r0, [r5, #-0]
      38:	00134900 	andseq	r4, r3, r0, lsl #18
      3c:	00260600 	eoreq	r0, r6, r0, lsl #12
      40:	00001349 	andeq	r1, r0, r9, asr #6
      44:	49010107 	stmdbmi	r1, {r0, r1, r2, r8}
      48:	00130113 	andseq	r0, r3, r3, lsl r1
      4c:	00210800 	eoreq	r0, r1, r0, lsl #16
      50:	0b2f1349 	bleq	bc4d7c <__DATA_END+0xbc3450>
      54:	13090000 	movwne	r0, #36864	; 0x9000
      58:	3a0b0b01 	bcc	2c2c64 <__DATA_END+0x2c1338>
      5c:	01053b0b 	tsteq	r5, fp, lsl #22
      60:	0a000013 	beq	b4 <M_VECTOR_RAM_SIZE+0xb4>
      64:	0803000d 	stmdaeq	r3, {r0, r2, r3}
      68:	053b0b3a 	ldreq	r0, [fp, #-2874]!	; 0xfffff4c6
      6c:	0b381349 	bleq	e04d98 <__DATA_END+0xe0346c>
      70:	0d0b0000 	stceq	0, cr0, [fp, #-0]
      74:	3a0e0300 	bcc	380c7c <__DATA_END+0x37f350>
      78:	49053b0b 	stmdbmi	r5, {r0, r1, r3, r8, r9, fp, ip, sp}
      7c:	000b3813 	andeq	r3, fp, r3, lsl r8
      80:	00160c00 	andseq	r0, r6, r0, lsl #24
      84:	0b3a0e03 	bleq	e83898 <__DATA_END+0xe81f6c>
      88:	1349053b 	movtne	r0, #38203	; 0x953b
      8c:	130d0000 	movwne	r0, #53248	; 0xd000
      90:	3a050b01 	bcc	142c9c <__DATA_END+0x141370>
      94:	01053b0b 	tsteq	r5, fp, lsl #22
      98:	0e000013 	mcreq	0, 0, r0, cr0, cr3, {0}
      9c:	0e03000d 	cdpeq	0, 0, cr0, cr3, cr13, {0}
      a0:	053b0b3a 	ldreq	r0, [fp, #-2874]!	; 0xfffff4c6
      a4:	05381349 	ldreq	r1, [r8, #-841]!	; 0xfffffcb7
      a8:	210f0000 	mrscs	r0, CPSR
      ac:	2f134900 	svccs	0x00134900
      b0:	10000005 	andne	r0, r0, r5
      b4:	193f002e 	ldmdbne	pc!, {r1, r2, r3, r5}	; <UNPREDICTABLE>
      b8:	0b3a0e03 	bleq	e838cc <__DATA_END+0xe81fa0>
      bc:	19270b3b 	stmdbne	r7!, {r0, r1, r3, r4, r5, r8, r9, fp}
      c0:	06120111 			; <UNDEFINED> instruction: 0x06120111
      c4:	42971840 	addsmi	r1, r7, #64, 16	; 0x400000
      c8:	11000019 	tstne	r0, r9, lsl r0
      cc:	193f012e 	ldmdbne	pc!, {r1, r2, r3, r5, r8}	; <UNPREDICTABLE>
      d0:	0b3a0e03 	bleq	e838e4 <__DATA_END+0xe81fb8>
      d4:	1927053b 	stmdbne	r7!, {r0, r1, r3, r4, r5, r8, sl}
      d8:	06120111 			; <UNDEFINED> instruction: 0x06120111
      dc:	42961840 	addsmi	r1, r6, #64, 16	; 0x400000
      e0:	00130119 	andseq	r0, r3, r9, lsl r1
      e4:	00341200 	eorseq	r1, r4, r0, lsl #4
      e8:	0b3a0e03 	bleq	e838fc <__DATA_END+0xe81fd0>
      ec:	1349053b 	movtne	r0, #38203	; 0x953b
      f0:	00001702 	andeq	r1, r0, r2, lsl #14
      f4:	03003413 	movweq	r3, #1043	; 0x413
      f8:	3b0b3a0e 	blcc	2ce938 <__DATA_END+0x2cd00c>
      fc:	3f13490b 	svccc	0x0013490b
     100:	00180219 	andseq	r0, r8, r9, lsl r2
     104:	11010000 	mrsne	r0, (UNDEF: 1)
     108:	130e2501 	movwne	r2, #58625	; 0xe501
     10c:	1b0e030b 	blne	380d40 <__DATA_END+0x37f414>
     110:	1117550e 	tstne	r7, lr, lsl #10
     114:	00171001 	andseq	r1, r7, r1
     118:	00240200 	eoreq	r0, r4, r0, lsl #4
     11c:	0b3e0b0b 	bleq	f82d50 <__DATA_END+0xf81424>
     120:	00000e03 	andeq	r0, r0, r3, lsl #28
     124:	03001603 	movweq	r1, #1539	; 0x603
     128:	3b0b3a0e 	blcc	2ce968 <__DATA_END+0x2cd03c>
     12c:	0013490b 	andseq	r4, r3, fp, lsl #18
     130:	00240400 	eoreq	r0, r4, r0, lsl #8
     134:	0b3e0b0b 	bleq	f82d68 <__DATA_END+0xf8143c>
     138:	00000803 	andeq	r0, r0, r3, lsl #16
     13c:	0b011305 	bleq	44d58 <__DATA_END+0x4342c>
     140:	3b0b3a0b 	blcc	2ce974 <__DATA_END+0x2cd048>
     144:	00130105 	andseq	r0, r3, r5, lsl #2
     148:	000d0600 	andeq	r0, sp, r0, lsl #12
     14c:	0b3a0e03 	bleq	e83960 <__DATA_END+0xe82034>
     150:	1349053b 	movtne	r0, #38203	; 0x953b
     154:	00000b38 	andeq	r0, r0, r8, lsr fp
     158:	03000d07 	movweq	r0, #3335	; 0xd07
     15c:	3b0b3a08 	blcc	2ce984 <__DATA_END+0x2cd058>
     160:	38134905 	ldmdacc	r3, {r0, r2, r8, fp, lr}
     164:	0800000b 	stmdaeq	r0, {r0, r1, r3}
     168:	13490035 	movtne	r0, #36917	; 0x9035
     16c:	26090000 	strcs	r0, [r9], -r0
     170:	00134900 	andseq	r4, r3, r0, lsl #18
     174:	01010a00 	tsteq	r1, r0, lsl #20
     178:	13011349 	movwne	r1, #4937	; 0x1349
     17c:	210b0000 	mrscs	r0, (UNDEF: 11)
     180:	2f134900 	svccs	0x00134900
     184:	0c00000b 	stceq	0, cr0, [r0], {11}
     188:	0e030016 	mcreq	0, 0, r0, cr3, cr6, {0}
     18c:	053b0b3a 	ldreq	r0, [fp, #-2874]!	; 0xfffff4c6
     190:	00001349 	andeq	r1, r0, r9, asr #6
     194:	3f012e0d 	svccc	0x00012e0d
     198:	3a0e0319 	bcc	380e04 <__DATA_END+0x37f4d8>
     19c:	270b3b0b 	strcs	r3, [fp, -fp, lsl #22]
     1a0:	12011119 	andne	r1, r1, #1073741830	; 0x40000006
     1a4:	97184006 	ldrls	r4, [r8, -r6]
     1a8:	13011942 	movwne	r1, #6466	; 0x1942
     1ac:	340e0000 	strcc	r0, [lr], #-0
     1b0:	3a080300 	bcc	200db8 <__DATA_END+0x1ff48c>
     1b4:	490b3b0b 	stmdbmi	fp, {r0, r1, r3, r8, r9, fp, ip, sp}
     1b8:	00170213 	andseq	r0, r7, r3, lsl r2
     1bc:	00340f00 	eorseq	r0, r4, r0, lsl #30
     1c0:	0b3a0e03 	bleq	e839d4 <__DATA_END+0xe820a8>
     1c4:	13490b3b 	movtne	r0, #39739	; 0x9b3b
     1c8:	193c193f 	ldmdbne	ip!, {r0, r1, r2, r3, r4, r5, r8, fp, ip}
     1cc:	34100000 	ldrcc	r0, [r0], #-0
     1d0:	3a0e0300 	bcc	380dd8 <__DATA_END+0x37f4ac>
     1d4:	490b3b0b 	stmdbmi	fp, {r0, r1, r3, r8, r9, fp, ip, sp}
     1d8:	11000013 	tstne	r0, r3, lsl r0
     1dc:	00000021 	andeq	r0, r0, r1, lsr #32
     1e0:	0b000f12 	bleq	3e30 <__DATA_END+0x2504>
     1e4:	0013490b 	andseq	r4, r3, fp, lsl #18
     1e8:	11010000 	mrsne	r0, (UNDEF: 1)
     1ec:	130e2501 	movwne	r2, #58625	; 0xe501
     1f0:	1b0e030b 	blne	380e24 <__DATA_END+0x37f4f8>
     1f4:	1117550e 	tstne	r7, lr, lsl #10
     1f8:	00171001 	andseq	r1, r7, r1
     1fc:	00240200 	eoreq	r0, r4, r0, lsl #4
     200:	0b3e0b0b 	bleq	f82e34 <__DATA_END+0xf81508>
     204:	00000e03 	andeq	r0, r0, r3, lsl #28
     208:	0b002403 	bleq	921c <__DATA_END+0x78f0>
     20c:	030b3e0b 	movweq	r3, #48651	; 0xbe0b
     210:	04000008 	streq	r0, [r0], #-8
     214:	0b0b0113 	bleq	2c0668 <__DATA_END+0x2bed3c>
     218:	0b3b0b3a 	bleq	ec2f08 <__DATA_END+0xec15dc>
     21c:	00001301 	andeq	r1, r0, r1, lsl #6
     220:	03000d05 	movweq	r0, #3333	; 0xd05
     224:	3b0b3a0e 	blcc	2cea64 <__DATA_END+0x2cd138>
     228:	3813490b 	ldmdacc	r3, {r0, r1, r3, r8, fp, lr}
     22c:	0600000b 	streq	r0, [r0], -fp
     230:	13490101 	movtne	r0, #37121	; 0x9101
     234:	00001301 	andeq	r1, r0, r1, lsl #6
     238:	49002107 	stmdbmi	r0, {r0, r1, r2, r8, sp}
     23c:	000b2f13 	andeq	r2, fp, r3, lsl pc
     240:	00160800 	andseq	r0, r6, r0, lsl #16
     244:	0b3a0e03 	bleq	e83a58 <__DATA_END+0xe8212c>
     248:	13490b3b 	movtne	r0, #39739	; 0x9b3b
     24c:	2e090000 	cdpcs	0, 0, cr0, cr9, cr0, {0}
     250:	03193f01 	tsteq	r9, #1, 30
     254:	3b0b3a0e 	blcc	2cea94 <__DATA_END+0x2cd168>
     258:	4919270b 	ldmdbmi	r9, {r0, r1, r3, r8, r9, sl, sp}
     25c:	12011113 	andne	r1, r1, #-1073741820	; 0xc0000004
     260:	97184006 	ldrls	r4, [r8, -r6]
     264:	13011942 	movwne	r1, #6466	; 0x1942
     268:	050a0000 	streq	r0, [sl, #-0]
     26c:	3a080300 	bcc	200e74 <__DATA_END+0x1ff548>
     270:	490b3b0b 	stmdbmi	fp, {r0, r1, r3, r8, r9, fp, ip, sp}
     274:	00170213 	andseq	r0, r7, r3, lsl r2
     278:	00050b00 	andeq	r0, r5, r0, lsl #22
     27c:	0b3a0803 	bleq	e82290 <__DATA_END+0xe80964>
     280:	13490b3b 	movtne	r0, #39739	; 0x9b3b
     284:	00001802 	andeq	r1, r0, r2, lsl #16
     288:	0b000f0c 	bleq	3ec0 <__DATA_END+0x2594>
     28c:	0013490b 	andseq	r4, r3, fp, lsl #18
     290:	00350d00 	eorseq	r0, r5, r0, lsl #26
     294:	00001349 	andeq	r1, r0, r9, asr #6
     298:	0300340e 	movweq	r3, #1038	; 0x40e
     29c:	3b0b3a08 	blcc	2ceac4 <__DATA_END+0x2cd198>
     2a0:	0213490b 	andseq	r4, r3, #180224	; 0x2c000
     2a4:	0f000017 	svceq	0x00000017
     2a8:	08030034 	stmdaeq	r3, {r2, r4, r5}
     2ac:	0b3b0b3a 	bleq	ec2f9c <__DATA_END+0xec1670>
     2b0:	18021349 	stmdane	r2, {r0, r3, r6, r8, r9, ip}
     2b4:	89100000 	ldmdbhi	r0, {}	; <UNPREDICTABLE>
     2b8:	11010182 	smlabbne	r1, r2, r1, r0
     2bc:	01133101 	tsteq	r3, r1, lsl #2
     2c0:	11000013 	tstne	r0, r3, lsl r0
     2c4:	0001828a 	andeq	r8, r1, sl, lsl #5
     2c8:	42911802 	addsmi	r1, r1, #131072	; 0x20000
     2cc:	12000018 	andne	r0, r0, #24
     2d0:	01018289 	smlabbeq	r1, r9, r2, r8
     2d4:	13310111 	teqne	r1, #1073741828	; 0x40000004
     2d8:	2e130000 	cdpcs	0, 1, cr0, cr3, cr0, {0}
     2dc:	3c193f00 	ldccc	15, cr3, [r9], {-0}
     2e0:	030e6e19 	movweq	r6, #60953	; 0xee19
     2e4:	3b0b3a0e 	blcc	2ceb24 <__DATA_END+0x2cd1f8>
     2e8:	0000000b 	andeq	r0, r0, fp
     2ec:	25011101 	strcs	r1, [r1, #-257]	; 0xfffffeff
     2f0:	030b130e 	movweq	r1, #45838	; 0xb30e
     2f4:	550e1b0e 	strpl	r1, [lr, #-2830]	; 0xfffff4f2
     2f8:	10011117 	andne	r1, r1, r7, lsl r1
     2fc:	02000017 	andeq	r0, r0, #23
     300:	0b0b0024 	bleq	2c0398 <__DATA_END+0x2bea6c>
     304:	0e030b3e 	vmoveq.16	d3[0], r0
     308:	16030000 	strne	r0, [r3], -r0
     30c:	3a0e0300 	bcc	380f14 <__DATA_END+0x37f5e8>
     310:	490b3b0b 	stmdbmi	fp, {r0, r1, r3, r8, r9, fp, ip, sp}
     314:	04000013 	streq	r0, [r0], #-19	; 0xffffffed
     318:	0b0b0024 	bleq	2c03b0 <__DATA_END+0x2bea84>
     31c:	08030b3e 	stmdaeq	r3, {r1, r2, r3, r4, r5, r8, r9, fp}
     320:	35050000 	strcc	r0, [r5, #-0]
     324:	00134900 	andseq	r4, r3, r0, lsl #18
     328:	00260600 	eoreq	r0, r6, r0, lsl #12
     32c:	00001349 	andeq	r1, r0, r9, asr #6
     330:	49010107 	stmdbmi	r1, {r0, r1, r2, r8}
     334:	00130113 	andseq	r0, r3, r3, lsl r1
     338:	00210800 	eoreq	r0, r1, r0, lsl #16
     33c:	0b2f1349 	bleq	bc5068 <__DATA_END+0xbc373c>
     340:	13090000 	movwne	r0, #36864	; 0x9000
     344:	3a0b0b01 	bcc	2c2f50 <__DATA_END+0x2c1624>
     348:	01053b0b 	tsteq	r5, fp, lsl #22
     34c:	0a000013 	beq	3a0 <M_VECTOR_RAM_SIZE+0x3a0>
     350:	0e03000d 	cdpeq	0, 0, cr0, cr3, cr13, {0}
     354:	053b0b3a 	ldreq	r0, [fp, #-2874]!	; 0xfffff4c6
     358:	0b381349 	bleq	e05084 <__DATA_END+0xe03758>
     35c:	130b0000 	movwne	r0, #45056	; 0xb000
     360:	3a050b01 	bcc	142f6c <__DATA_END+0x141640>
     364:	01053b0b 	tsteq	r5, fp, lsl #22
     368:	0c000013 	stceq	0, cr0, [r0], {19}
     36c:	0803000d 	stmdaeq	r3, {r0, r2, r3}
     370:	053b0b3a 	ldreq	r0, [fp, #-2874]!	; 0xfffff4c6
     374:	0b381349 	bleq	e050a0 <__DATA_END+0xe03774>
     378:	0d0d0000 	stceq	0, cr0, [sp, #-0]
     37c:	3a0e0300 	bcc	380f84 <__DATA_END+0x37f658>
     380:	49053b0b 	stmdbmi	r5, {r0, r1, r3, r8, r9, fp, ip, sp}
     384:	00053813 	andeq	r3, r5, r3, lsl r8
     388:	00160e00 	andseq	r0, r6, r0, lsl #28
     38c:	0b3a0e03 	bleq	e83ba0 <__DATA_END+0xe82274>
     390:	1349053b 	movtne	r0, #38203	; 0x953b
     394:	210f0000 	mrscs	r0, CPSR
     398:	2f134900 	svccs	0x00134900
     39c:	10000005 	andne	r0, r0, r5
     3a0:	193f002e 	ldmdbne	pc!, {r1, r2, r3, r5}	; <UNPREDICTABLE>
     3a4:	0b3a0e03 	bleq	e83bb8 <__DATA_END+0xe8228c>
     3a8:	19270b3b 	stmdbne	r7!, {r0, r1, r3, r4, r5, r8, r9, fp}
     3ac:	00000b20 	andeq	r0, r0, r0, lsr #22
     3b0:	31012e11 	tstcc	r1, r1, lsl lr
     3b4:	12011113 	andne	r1, r1, #-1073741820	; 0xc0000004
     3b8:	97184006 	ldrls	r4, [r8, -r6]
     3bc:	13011942 	movwne	r1, #6466	; 0x1942
     3c0:	89120000 	ldmdbhi	r2, {}	; <UNPREDICTABLE>
     3c4:	11000182 	smlabbne	r0, r2, r1, r0
     3c8:	00133101 	andseq	r3, r3, r1, lsl #2
     3cc:	002e1300 	eoreq	r1, lr, r0, lsl #6
     3d0:	0e03193f 	mcreq	9, 0, r1, cr3, cr15, {1}
     3d4:	0b3b0b3a 	bleq	ec30c4 <__DATA_END+0xec1798>
     3d8:	13491927 	movtne	r1, #39207	; 0x9927
     3dc:	06120111 			; <UNDEFINED> instruction: 0x06120111
     3e0:	42971840 	addsmi	r1, r7, #64, 16	; 0x400000
     3e4:	14000019 	strne	r0, [r0], #-25	; 0xffffffe7
     3e8:	193f012e 	ldmdbne	pc!, {r1, r2, r3, r5, r8}	; <UNPREDICTABLE>
     3ec:	0b3a0e03 	bleq	e83c00 <__DATA_END+0xe822d4>
     3f0:	19270b3b 	stmdbne	r7!, {r0, r1, r3, r4, r5, r8, r9, fp}
     3f4:	06120111 			; <UNDEFINED> instruction: 0x06120111
     3f8:	42971840 	addsmi	r1, r7, #64, 16	; 0x400000
     3fc:	00130119 	andseq	r0, r3, r9, lsl r1
     400:	82891500 	addhi	r1, r9, #0, 10
     404:	01110101 	tsteq	r1, r1, lsl #2
     408:	00001331 	andeq	r1, r0, r1, lsr r3
     40c:	01828a16 	orreq	r8, r2, r6, lsl sl
     410:	91180200 	tstls	r8, r0, lsl #4
     414:	00001842 	andeq	r1, r0, r2, asr #16
     418:	3f012e17 	svccc	0x00012e17
     41c:	3a0e0319 	bcc	381088 <__DATA_END+0x37f75c>
     420:	270b3b0b 	strcs	r3, [fp, -fp, lsl #22]
     424:	11134919 	tstne	r3, r9, lsl r9
     428:	40061201 	andmi	r1, r6, r1, lsl #4
     42c:	19429718 	stmdbne	r2, {r3, r4, r8, r9, sl, ip, pc}^
     430:	00001301 	andeq	r1, r0, r1, lsl #6
     434:	03000518 	movweq	r0, #1304	; 0x518
     438:	3b0b3a0e 	blcc	2cec78 <__DATA_END+0x2cd34c>
     43c:	0213490b 	andseq	r4, r3, #180224	; 0x2c000
     440:	19000017 	stmdbne	r0, {r0, r1, r2, r4}
     444:	08030005 	stmdaeq	r3, {r0, r2}
     448:	0b3b0b3a 	bleq	ec3138 <__DATA_END+0xec180c>
     44c:	17021349 	strne	r1, [r2, -r9, asr #6]
     450:	341a0000 	ldrcc	r0, [sl], #-0
     454:	3a0e0300 	bcc	38105c <__DATA_END+0x37f730>
     458:	490b3b0b 	stmdbmi	fp, {r0, r1, r3, r8, r9, fp, ip, sp}
     45c:	00170213 	andseq	r0, r7, r3, lsl r2
     460:	000f1b00 	andeq	r1, pc, r0, lsl #22
     464:	13490b0b 	movtne	r0, #39691	; 0x9b0b
     468:	2e1c0000 	cdpcs	0, 1, cr0, cr12, cr0, {0}
     46c:	03193f00 	tsteq	r9, #0, 30
     470:	3b0b3a0e 	blcc	2cecb0 <__DATA_END+0x2cd384>
     474:	1119270b 	tstne	r9, fp, lsl #14
     478:	40061201 	andmi	r1, r6, r1, lsl #4
     47c:	19429718 	stmdbne	r2, {r3, r4, r8, r9, sl, ip, pc}^
     480:	341d0000 	ldrcc	r0, [sp], #-0
     484:	3a0e0300 	bcc	38108c <__DATA_END+0x37f760>
     488:	490b3b0b 	stmdbmi	fp, {r0, r1, r3, r8, r9, fp, ip, sp}
     48c:	3c193f13 	ldccc	15, cr3, [r9], {19}
     490:	1e000019 	mcrne	0, 0, r0, cr0, cr9, {0}
     494:	0e030034 	mcreq	0, 0, r0, cr3, cr4, {1}
     498:	0b3b0b3a 	bleq	ec3188 <__DATA_END+0xec185c>
     49c:	193f1349 	ldmdbne	pc!, {r0, r3, r6, r8, r9, ip}	; <UNPREDICTABLE>
     4a0:	00001802 	andeq	r1, r0, r2, lsl #16
     4a4:	3f002e1f 	svccc	0x00002e1f
     4a8:	6e193c19 	mrcvs	12, 0, r3, cr9, cr9, {0}
     4ac:	3a0e030e 	bcc	3810ec <__DATA_END+0x37f7c0>
     4b0:	000b3b0b 	andeq	r3, fp, fp, lsl #22
     4b4:	11010000 	mrsne	r0, (UNDEF: 1)
     4b8:	130e2501 	movwne	r2, #58625	; 0xe501
     4bc:	1b0e030b 	blne	3810f0 <__DATA_END+0x37f7c4>
     4c0:	1117550e 	tstne	r7, lr, lsl #10
     4c4:	00171001 	andseq	r1, r7, r1
     4c8:	00240200 	eoreq	r0, r4, r0, lsl #4
     4cc:	0b3e0b0b 	bleq	f83100 <__DATA_END+0xf817d4>
     4d0:	00000e03 	andeq	r0, r0, r3, lsl #28
     4d4:	03001603 	movweq	r1, #1539	; 0x603
     4d8:	3b0b3a0e 	blcc	2ced18 <__DATA_END+0x2cd3ec>
     4dc:	0013490b 	andseq	r4, r3, fp, lsl #18
     4e0:	00240400 	eoreq	r0, r4, r0, lsl #8
     4e4:	0b3e0b0b 	bleq	f83118 <__DATA_END+0xf817ec>
     4e8:	00000803 	andeq	r0, r0, r3, lsl #16
     4ec:	49003505 	stmdbmi	r0, {r0, r2, r8, sl, ip, sp}
     4f0:	06000013 			; <UNDEFINED> instruction: 0x06000013
     4f4:	13490026 	movtne	r0, #36902	; 0x9026
     4f8:	13070000 	movwne	r0, #28672	; 0x7000
     4fc:	3a0b0b01 	bcc	2c3108 <__DATA_END+0x2c17dc>
     500:	01053b0b 	tsteq	r5, fp, lsl #22
     504:	08000013 	stmdaeq	r0, {r0, r1, r4}
     508:	0e03000d 	cdpeq	0, 0, cr0, cr3, cr13, {0}
     50c:	053b0b3a 	ldreq	r0, [fp, #-2874]!	; 0xfffff4c6
     510:	0b381349 	bleq	e0523c <__DATA_END+0xe03910>
     514:	16090000 	strne	r0, [r9], -r0
     518:	3a0e0300 	bcc	381120 <__DATA_END+0x37f7f4>
     51c:	49053b0b 	stmdbmi	r5, {r0, r1, r3, r8, r9, fp, ip, sp}
     520:	0a000013 	beq	574 <init_data_bss+0x58>
     524:	193f012e 	ldmdbne	pc!, {r1, r2, r3, r5, r8}	; <UNPREDICTABLE>
     528:	0b3a0e03 	bleq	e83d3c <__DATA_END+0xe82410>
     52c:	19270b3b 	stmdbne	r7!, {r0, r1, r3, r4, r5, r8, r9, fp}
     530:	06120111 			; <UNDEFINED> instruction: 0x06120111
     534:	42971840 	addsmi	r1, r7, #64, 16	; 0x400000
     538:	00130119 	andseq	r0, r3, r9, lsl r1
     53c:	82890b00 	addhi	r0, r9, #0, 22
     540:	01110001 	tsteq	r1, r1
     544:	00001331 	andeq	r1, r0, r1, lsr r3
     548:	0300050c 	movweq	r0, #1292	; 0x50c
     54c:	3b0b3a0e 	blcc	2ced8c <__DATA_END+0x2cd460>
     550:	0213490b 	andseq	r4, r3, #180224	; 0x2c000
     554:	0d000017 	stceq	0, cr0, [r0, #-92]	; 0xffffffa4
     558:	0e030034 	mcreq	0, 0, r0, cr3, cr4, {1}
     55c:	0b3b0b3a 	bleq	ec324c <__DATA_END+0xec1920>
     560:	00001349 	andeq	r1, r0, r9, asr #6
     564:	0182890e 	orreq	r8, r2, lr, lsl #18
     568:	31011101 	tstcc	r1, r1, lsl #2
     56c:	00130113 	andseq	r0, r3, r3, lsl r1
     570:	828a0f00 	addhi	r0, sl, #0, 30
     574:	18020001 	stmdane	r2, {r0}
     578:	00184291 	mulseq	r8, r1, r2
     57c:	012e1000 	teqeq	lr, r0
     580:	0e03193f 	mcreq	9, 0, r1, cr3, cr15, {1}
     584:	0b3b0b3a 	bleq	ec3274 <__DATA_END+0xec1948>
     588:	13491927 	movtne	r1, #39207	; 0x9927
     58c:	06120111 			; <UNDEFINED> instruction: 0x06120111
     590:	42971840 	addsmi	r1, r7, #64, 16	; 0x400000
     594:	00130119 	andseq	r0, r3, r9, lsl r1
     598:	00051100 	andeq	r1, r5, r0, lsl #2
     59c:	0b3a0803 	bleq	e825b0 <__DATA_END+0xe80c84>
     5a0:	13490b3b 	movtne	r0, #39739	; 0x9b3b
     5a4:	00001702 	andeq	r1, r0, r2, lsl #14
     5a8:	03003412 	movweq	r3, #1042	; 0x412
     5ac:	3b0b3a0e 	blcc	2cedec <__DATA_END+0x2cd4c0>
     5b0:	0213490b 	andseq	r4, r3, #180224	; 0x2c000
     5b4:	13000017 	movwne	r0, #23
     5b8:	01018289 	smlabbeq	r1, r9, r2, r8
     5bc:	13310111 	teqne	r1, #1073741828	; 0x40000004
     5c0:	0f140000 	svceq	0x00140000
     5c4:	490b0b00 	stmdbmi	fp, {r8, r9, fp}
     5c8:	15000013 	strne	r0, [r0, #-19]	; 0xffffffed
     5cc:	13490101 	movtne	r0, #37121	; 0x9101
     5d0:	00001301 	andeq	r1, r0, r1, lsl #6
     5d4:	49002116 	stmdbmi	r0, {r1, r2, r4, r8, sp}
     5d8:	000b2f13 	andeq	r2, fp, r3, lsl pc
     5dc:	00341700 	eorseq	r1, r4, r0, lsl #14
     5e0:	0b3a0e03 	bleq	e83df4 <__DATA_END+0xe824c8>
     5e4:	13490b3b 	movtne	r0, #39739	; 0x9b3b
     5e8:	193c193f 	ldmdbne	ip!, {r0, r1, r2, r3, r4, r5, r8, fp, ip}
     5ec:	34180000 	ldrcc	r0, [r8], #-0
     5f0:	3a0e0300 	bcc	3811f8 <__DATA_END+0x37f8cc>
     5f4:	490b3b0b 	stmdbmi	fp, {r0, r1, r3, r8, r9, fp, ip, sp}
     5f8:	02193f13 	andseq	r3, r9, #19, 30	; 0x4c
     5fc:	19000018 	stmdbne	r0, {r3, r4}
     600:	193f002e 	ldmdbne	pc!, {r1, r2, r3, r5}	; <UNPREDICTABLE>
     604:	0e6e193c 	mcreq	9, 3, r1, cr14, cr12, {1}
     608:	0b3a0e03 	bleq	e83e1c <__DATA_END+0xe824f0>
     60c:	00000b3b 	andeq	r0, r0, fp, lsr fp
     610:	01110100 	tsteq	r1, r0, lsl #2
     614:	0b130e25 	bleq	4c3eb0 <__DATA_END+0x4c2584>
     618:	0e1b0e03 	cdpeq	14, 1, cr0, cr11, cr3, {0}
     61c:	01111755 	tsteq	r1, r5, asr r7
     620:	00001710 	andeq	r1, r0, r0, lsl r7
     624:	0b002402 	bleq	9634 <__DATA_END+0x7d08>
     628:	030b3e0b 	movweq	r3, #48651	; 0xbe0b
     62c:	0300000e 	movweq	r0, #14
     630:	0e030016 	mcreq	0, 0, r0, cr3, cr6, {0}
     634:	0b3b0b3a 	bleq	ec3324 <__DATA_END+0xec19f8>
     638:	00001349 	andeq	r1, r0, r9, asr #6
     63c:	0b002404 	bleq	9654 <__DATA_END+0x7d28>
     640:	030b3e0b 	movweq	r3, #48651	; 0xbe0b
     644:	05000008 	streq	r0, [r0, #-8]
     648:	0e030104 	adfeqs	f0, f3, f4
     64c:	13490b0b 	movtne	r0, #39691	; 0x9b0b
     650:	0b3b0b3a 	bleq	ec3340 <__DATA_END+0xec1a14>
     654:	00001301 	andeq	r1, r0, r1, lsl #6
     658:	03002806 	movweq	r2, #2054	; 0x806
     65c:	000d1c0e 	andeq	r1, sp, lr, lsl #24
     660:	00280700 	eoreq	r0, r8, r0, lsl #14
     664:	0b1c0e03 	bleq	703e78 <__DATA_END+0x70254c>
     668:	13080000 	movwne	r0, #32768	; 0x8000
     66c:	3a050b01 	bcc	143278 <__DATA_END+0x14194c>
     670:	01053b0b 	tsteq	r5, fp, lsl #22
     674:	09000013 	stmdbeq	r0, {r0, r1, r4}
     678:	0e03000d 	cdpeq	0, 0, cr0, cr3, cr13, {0}
     67c:	053b0b3a 	ldreq	r0, [fp, #-2874]!	; 0xfffff4c6
     680:	0b381349 	bleq	e053ac <__DATA_END+0xe03a80>
     684:	0d0a0000 	stceq	0, cr0, [sl, #-0]
     688:	3a0e0300 	bcc	381290 <__DATA_END+0x37f964>
     68c:	49053b0b 	stmdbmi	r5, {r0, r1, r3, r8, r9, fp, ip, sp}
     690:	00053813 	andeq	r3, r5, r3, lsl r8
     694:	000d0b00 	andeq	r0, sp, r0, lsl #22
     698:	0b3a0803 	bleq	e826ac <__DATA_END+0xe80d80>
     69c:	1349053b 	movtne	r0, #38203	; 0x953b
     6a0:	00000538 	andeq	r0, r0, r8, lsr r5
     6a4:	4901010c 	stmdbmi	r1, {r2, r3, r8}
     6a8:	00130113 	andseq	r0, r3, r3, lsl r1
     6ac:	00210d00 	eoreq	r0, r1, r0, lsl #26
     6b0:	0b2f1349 	bleq	bc53dc <__DATA_END+0xbc3ab0>
     6b4:	350e0000 	strcc	r0, [lr, #-0]
     6b8:	00134900 	andseq	r4, r3, r0, lsl #18
     6bc:	00160f00 	andseq	r0, r6, r0, lsl #30
     6c0:	0b3a0e03 	bleq	e83ed4 <__DATA_END+0xe825a8>
     6c4:	1349053b 	movtne	r0, #38203	; 0x953b
     6c8:	26100000 	ldrcs	r0, [r0], -r0
     6cc:	00134900 	andseq	r4, r3, r0, lsl #18
     6d0:	01131100 	tsteq	r3, r0, lsl #2
     6d4:	0b3a0b0b 	bleq	e83308 <__DATA_END+0xe819dc>
     6d8:	1301053b 	movwne	r0, #5435	; 0x153b
     6dc:	0d120000 	ldceq	0, cr0, [r2, #-0]
     6e0:	3a080300 	bcc	2012e8 <__DATA_END+0x1ff9bc>
     6e4:	49053b0b 	stmdbmi	r5, {r0, r1, r3, r8, r9, fp, ip, sp}
     6e8:	000b3813 	andeq	r3, fp, r3, lsl r8
     6ec:	00211300 	eoreq	r1, r1, r0, lsl #6
     6f0:	052f1349 	streq	r1, [pc, #-841]!	; 3af <M_VECTOR_RAM_SIZE+0x3af>
     6f4:	13140000 	tstne	r4, #0
     6f8:	3a0b0b01 	bcc	2c3304 <__DATA_END+0x2c19d8>
     6fc:	010b3b0b 	tsteq	fp, fp, lsl #22
     700:	15000013 	strne	r0, [r0, #-19]	; 0xffffffed
     704:	0e03000d 	cdpeq	0, 0, cr0, cr3, cr13, {0}
     708:	0b3b0b3a 	bleq	ec33f8 <__DATA_END+0xec1acc>
     70c:	0b381349 	bleq	e05438 <__DATA_END+0xe03b0c>
     710:	15160000 	ldrne	r0, [r6, #-0]
     714:	00192700 	andseq	r2, r9, r0, lsl #14
     718:	000f1700 	andeq	r1, pc, r0, lsl #14
     71c:	13490b0b 	movtne	r0, #39691	; 0x9b0b
     720:	2e180000 	cdpcs	0, 1, cr0, cr8, cr0, {0}
     724:	3a0e0300 	bcc	38132c <__DATA_END+0x37fa00>
     728:	27053b0b 	strcs	r3, [r5, -fp, lsl #22]
     72c:	000b2019 	andeq	r2, fp, r9, lsl r0
     730:	012e1900 	teqeq	lr, r0, lsl #18
     734:	0b3a0e03 	bleq	e83f48 <__DATA_END+0xe8261c>
     738:	1927053b 	stmdbne	r7!, {r0, r1, r3, r4, r5, r8, sl}
     73c:	13010b20 	movwne	r0, #6944	; 0x1b20
     740:	051a0000 	ldreq	r0, [sl, #-0]
     744:	3a0e0300 	bcc	38134c <__DATA_END+0x37fa20>
     748:	49053b0b 	stmdbmi	r5, {r0, r1, r3, r8, r9, fp, ip, sp}
     74c:	1b000013 	blne	7a0 <ax25ChangeBit+0x5c>
     750:	193f012e 	ldmdbne	pc!, {r1, r2, r3, r5, r8}	; <UNPREDICTABLE>
     754:	0b3a0e03 	bleq	e83f68 <__DATA_END+0xe8263c>
     758:	19270b3b 	stmdbne	r7!, {r0, r1, r3, r4, r5, r8, r9, fp}
     75c:	06120111 			; <UNDEFINED> instruction: 0x06120111
     760:	42971840 	addsmi	r1, r7, #64, 16	; 0x400000
     764:	00130119 	andseq	r0, r3, r9, lsl r1
     768:	00051c00 	andeq	r1, r5, r0, lsl #24
     76c:	0b3a0e03 	bleq	e83f80 <__DATA_END+0xe82654>
     770:	13490b3b 	movtne	r0, #39739	; 0x9b3b
     774:	00001702 	andeq	r1, r0, r2, lsl #14
     778:	31011d1d 	tstcc	r1, sp, lsl sp
     77c:	12011113 	andne	r1, r1, #-1073741820	; 0xc0000004
     780:	590b5806 	stmdbpl	fp, {r1, r2, fp, ip, lr}
     784:	0013010b 	andseq	r0, r3, fp, lsl #2
     788:	00051e00 	andeq	r1, r5, r0, lsl #28
     78c:	0b1c1331 	bleq	705458 <__DATA_END+0x703b2c>
     790:	1d1f0000 	ldcne	0, cr0, [pc, #-0]	; 798 <ax25ChangeBit+0x54>
     794:	11133100 	tstne	r3, r0, lsl #2
     798:	58061201 	stmdapl	r6, {r0, r9, ip}
     79c:	000b590b 	andeq	r5, fp, fp, lsl #18
     7a0:	002e2000 	eoreq	r2, lr, r0
     7a4:	0e03193f 	mcreq	9, 0, r1, cr3, cr15, {1}
     7a8:	0b3b0b3a 	bleq	ec3498 <__DATA_END+0xec1b6c>
     7ac:	01111927 	tsteq	r1, r7, lsr #18
     7b0:	18400612 	stmdane	r0, {r1, r4, r9, sl}^
     7b4:	00194297 	mulseq	r9, r7, r2
     7b8:	012e2100 	teqeq	lr, r0, lsl #2
     7bc:	0e03193f 	mcreq	9, 0, r1, cr3, cr15, {1}
     7c0:	0b3b0b3a 	bleq	ec34b0 <__DATA_END+0xec1b84>
     7c4:	01111927 	tsteq	r1, r7, lsr #18
     7c8:	18400612 	stmdane	r0, {r1, r4, r9, sl}^
     7cc:	01194296 			; <UNDEFINED> instruction: 0x01194296
     7d0:	22000013 	andcs	r0, r0, #19
     7d4:	0e030034 	mcreq	0, 0, r0, cr3, cr4, {1}
     7d8:	0b3b0b3a 	bleq	ec34c8 <__DATA_END+0xec1b9c>
     7dc:	193f1349 	ldmdbne	pc!, {r0, r3, r6, r8, r9, ip}	; <UNPREDICTABLE>
     7e0:	00001802 	andeq	r1, r0, r2, lsl #16
     7e4:	01110100 	tsteq	r1, r0, lsl #2
     7e8:	0b130e25 	bleq	4c4084 <__DATA_END+0x4c2758>
     7ec:	0e1b0e03 	cdpeq	14, 1, cr0, cr11, cr3, {0}
     7f0:	01111755 	tsteq	r1, r5, asr r7
     7f4:	00001710 	andeq	r1, r0, r0, lsl r7
     7f8:	0b002402 	bleq	9808 <__DATA_END+0x7edc>
     7fc:	030b3e0b 	movweq	r3, #48651	; 0xbe0b
     800:	0300000e 	movweq	r0, #14
     804:	0e030016 	mcreq	0, 0, r0, cr3, cr6, {0}
     808:	0b3b0b3a 	bleq	ec34f8 <__DATA_END+0xec1bcc>
     80c:	00001349 	andeq	r1, r0, r9, asr #6
     810:	0b002404 	bleq	9828 <__DATA_END+0x7efc>
     814:	030b3e0b 	movweq	r3, #48651	; 0xbe0b
     818:	05000008 	streq	r0, [r0, #-8]
     81c:	0e030104 	adfeqs	f0, f3, f4
     820:	13490b0b 	movtne	r0, #39691	; 0x9b0b
     824:	0b3b0b3a 	bleq	ec3514 <__DATA_END+0xec1be8>
     828:	00001301 	andeq	r1, r0, r1, lsl #6
     82c:	03002806 	movweq	r2, #2054	; 0x806
     830:	000d1c0e 	andeq	r1, sp, lr, lsl #24
     834:	00280700 	eoreq	r0, r8, r0, lsl #14
     838:	0b1c0e03 	bleq	70404c <__DATA_END+0x702720>
     83c:	13080000 	movwne	r0, #32768	; 0x8000
     840:	3a050b01 	bcc	14344c <__DATA_END+0x141b20>
     844:	01053b0b 	tsteq	r5, fp, lsl #22
     848:	09000013 	stmdbeq	r0, {r0, r1, r4}
     84c:	0e03000d 	cdpeq	0, 0, cr0, cr3, cr13, {0}
     850:	053b0b3a 	ldreq	r0, [fp, #-2874]!	; 0xfffff4c6
     854:	0b381349 	bleq	e05580 <__DATA_END+0xe03c54>
     858:	0d0a0000 	stceq	0, cr0, [sl, #-0]
     85c:	3a0e0300 	bcc	381464 <__DATA_END+0x37fb38>
     860:	49053b0b 	stmdbmi	r5, {r0, r1, r3, r8, r9, fp, ip, sp}
     864:	00053813 	andeq	r3, r5, r3, lsl r8
     868:	000d0b00 	andeq	r0, sp, r0, lsl #22
     86c:	0b3a0803 	bleq	e82880 <__DATA_END+0xe80f54>
     870:	1349053b 	movtne	r0, #38203	; 0x953b
     874:	00000538 	andeq	r0, r0, r8, lsr r5
     878:	4901010c 	stmdbmi	r1, {r2, r3, r8}
     87c:	00130113 	andseq	r0, r3, r3, lsl r1
     880:	00210d00 	eoreq	r0, r1, r0, lsl #26
     884:	0b2f1349 	bleq	bc55b0 <__DATA_END+0xbc3c84>
     888:	350e0000 	strcc	r0, [lr, #-0]
     88c:	00134900 	andseq	r4, r3, r0, lsl #18
     890:	00160f00 	andseq	r0, r6, r0, lsl #30
     894:	0b3a0e03 	bleq	e840a8 <__DATA_END+0xe8277c>
     898:	1349053b 	movtne	r0, #38203	; 0x953b
     89c:	26100000 	ldrcs	r0, [r0], -r0
     8a0:	00134900 	andseq	r4, r3, r0, lsl #18
     8a4:	01131100 	tsteq	r3, r0, lsl #2
     8a8:	0b3a0b0b 	bleq	e834dc <__DATA_END+0xe81bb0>
     8ac:	1301053b 	movwne	r0, #5435	; 0x153b
     8b0:	0d120000 	ldceq	0, cr0, [r2, #-0]
     8b4:	3a080300 	bcc	2014bc <__DATA_END+0x1ffb90>
     8b8:	49053b0b 	stmdbmi	r5, {r0, r1, r3, r8, r9, fp, ip, sp}
     8bc:	000b3813 	andeq	r3, fp, r3, lsl r8
     8c0:	00211300 	eoreq	r1, r1, r0, lsl #6
     8c4:	052f1349 	streq	r1, [pc, #-841]!	; 583 <init_data_bss+0x67>
     8c8:	13140000 	tstne	r4, #0
     8cc:	3a0b0b01 	bcc	2c34d8 <__DATA_END+0x2c1bac>
     8d0:	010b3b0b 	tsteq	fp, fp, lsl #22
     8d4:	15000013 	strne	r0, [r0, #-19]	; 0xffffffed
     8d8:	0e03000d 	cdpeq	0, 0, cr0, cr3, cr13, {0}
     8dc:	0b3b0b3a 	bleq	ec35cc <__DATA_END+0xec1ca0>
     8e0:	0b381349 	bleq	e0560c <__DATA_END+0xe03ce0>
     8e4:	0d160000 	ldceq	0, cr0, [r6, #-0]
     8e8:	3a080300 	bcc	2014f0 <__DATA_END+0x1ffbc4>
     8ec:	490b3b0b 	stmdbmi	fp, {r0, r1, r3, r8, r9, fp, ip, sp}
     8f0:	000b3813 	andeq	r3, fp, r3, lsl r8
     8f4:	000f1700 	andeq	r1, pc, r0, lsl #14
     8f8:	13490b0b 	movtne	r0, #39691	; 0x9b0b
     8fc:	2e180000 	cdpcs	0, 1, cr0, cr8, cr0, {0}
     900:	3a0e0300 	bcc	381508 <__DATA_END+0x37fbdc>
     904:	27053b0b 	strcs	r3, [r5, -fp, lsl #22]
     908:	000b2019 	andeq	r2, fp, r9, lsl r0
     90c:	012e1900 	teqeq	lr, r0, lsl #18
     910:	0b3a0e03 	bleq	e84124 <__DATA_END+0xe827f8>
     914:	1927053b 	stmdbne	r7!, {r0, r1, r3, r4, r5, r8, sl}
     918:	13010b20 	movwne	r0, #6944	; 0x1b20
     91c:	051a0000 	ldreq	r0, [sl, #-0]
     920:	3a0e0300 	bcc	381528 <__DATA_END+0x37fbfc>
     924:	49053b0b 	stmdbmi	r5, {r0, r1, r3, r8, r9, fp, ip, sp}
     928:	1b000013 	blne	97c <startPIT1+0x44>
     92c:	193f012e 	ldmdbne	pc!, {r1, r2, r3, r5, r8}	; <UNPREDICTABLE>
     930:	0b3a0e03 	bleq	e84144 <__DATA_END+0xe82818>
     934:	19270b3b 	stmdbne	r7!, {r0, r1, r3, r4, r5, r8, r9, fp}
     938:	01111349 	tsteq	r1, r9, asr #6
     93c:	18400612 	stmdane	r0, {r1, r4, r9, sl}^
     940:	01194297 			; <UNDEFINED> instruction: 0x01194297
     944:	1c000013 	stcne	0, cr0, [r0], {19}
     948:	0e030005 	cdpeq	0, 0, cr0, cr3, cr5, {0}
     94c:	0b3b0b3a 	bleq	ec363c <__DATA_END+0xec1d10>
     950:	18021349 	stmdane	r2, {r0, r3, r6, r8, r9, ip}
     954:	2e1d0000 	cdpcs	0, 1, cr0, cr13, cr0, {0}
     958:	03193f01 	tsteq	r9, #1, 30
     95c:	3b0b3a0e 	blcc	2cf19c <__DATA_END+0x2cd870>
     960:	1119270b 	tstne	r9, fp, lsl #14
     964:	40061201 	andmi	r1, r6, r1, lsl #4
     968:	19429718 	stmdbne	r2, {r3, r4, r8, r9, sl, ip, pc}^
     96c:	00001301 	andeq	r1, r0, r1, lsl #6
     970:	0300051e 	movweq	r0, #1310	; 0x51e
     974:	3b0b3a0e 	blcc	2cf1b4 <__DATA_END+0x2cd888>
     978:	0213490b 	andseq	r4, r3, #180224	; 0x2c000
     97c:	1f000017 	svcne	0x00000017
     980:	1331001d 	teqne	r1, #29
     984:	06120111 			; <UNDEFINED> instruction: 0x06120111
     988:	0b590b58 	bleq	16436f0 <__DATA_END+0x1641dc4>
     98c:	89200000 	stmdbhi	r0!, {}	; <UNPREDICTABLE>
     990:	11010182 	smlabbne	r1, r2, r1, r0
     994:	01133101 	tsteq	r3, r1, lsl #2
     998:	21000013 	tstcs	r0, r3, lsl r0
     99c:	0001828a 	andeq	r8, r1, sl, lsl #5
     9a0:	42911802 	addsmi	r1, r1, #131072	; 0x20000
     9a4:	22000018 	andcs	r0, r0, #24
     9a8:	01018289 	smlabbeq	r1, r9, r2, r8
     9ac:	13310111 	teqne	r1, #1073741828	; 0x40000004
     9b0:	2e230000 	cdpcs	0, 2, cr0, cr3, cr0, {0}
     9b4:	03193f01 	tsteq	r9, #1, 30
     9b8:	3b0b3a0e 	blcc	2cf1f8 <__DATA_END+0x2cd8cc>
     9bc:	1201110b 	andne	r1, r1, #-1073741822	; 0xc0000002
     9c0:	97184006 	ldrls	r4, [r8, -r6]
     9c4:	13011942 	movwne	r1, #6466	; 0x1942
     9c8:	1d240000 	stcne	0, cr0, [r4, #-0]
     9cc:	11133101 	tstne	r3, r1, lsl #2
     9d0:	58061201 	stmdapl	r6, {r0, r9, ip}
     9d4:	000b590b 	andeq	r5, fp, fp, lsl #18
     9d8:	00052500 	andeq	r2, r5, r0, lsl #10
     9dc:	0b1c1331 	bleq	7056a8 <__DATA_END+0x703d7c>
     9e0:	1d260000 	stcne	0, cr0, [r6, #-0]
     9e4:	52133101 	andspl	r3, r3, #1073741824	; 0x40000000
     9e8:	58175501 	ldmdapl	r7, {r0, r8, sl, ip, lr}
     9ec:	000b590b 	andeq	r5, fp, fp, lsl #18
     9f0:	002e2700 	eoreq	r2, lr, r0, lsl #14
     9f4:	0e03193f 	mcreq	9, 0, r1, cr3, cr15, {1}
     9f8:	0b3b0b3a 	bleq	ec36e8 <__DATA_END+0xec1dbc>
     9fc:	00000b20 	andeq	r0, r0, r0, lsr #22
     a00:	31012e28 	tstcc	r1, r8, lsr #28
     a04:	12011113 	andne	r1, r1, #-1073741820	; 0xc0000004
     a08:	97184006 	ldrls	r4, [r8, -r6]
     a0c:	13011942 	movwne	r1, #6466	; 0x1942
     a10:	05290000 	streq	r0, [r9, #-0]!
     a14:	3a080300 	bcc	20161c <__DATA_END+0x1ffcf0>
     a18:	490b3b0b 	stmdbmi	fp, {r0, r1, r3, r8, r9, fp, ip, sp}
     a1c:	00180213 	andseq	r0, r8, r3, lsl r2
     a20:	00342a00 	eorseq	r2, r4, r0, lsl #20
     a24:	0b3a0803 	bleq	e82a38 <__DATA_END+0xe8110c>
     a28:	13490b3b 	movtne	r0, #39739	; 0x9b3b
     a2c:	00001702 	andeq	r1, r0, r2, lsl #14
     a30:	0300342b 	movweq	r3, #1067	; 0x42b
     a34:	3b0b3a0e 	blcc	2cf274 <__DATA_END+0x2cd948>
     a38:	0213490b 	andseq	r4, r3, #180224	; 0x2c000
     a3c:	2c000017 	stccs	0, cr0, [r0], {23}
     a40:	00018289 	andeq	r8, r1, r9, lsl #5
     a44:	13310111 	teqne	r1, #1073741828	; 0x40000004
     a48:	052d0000 	streq	r0, [sp, #-0]!
     a4c:	3a080300 	bcc	201654 <__DATA_END+0x1ffd28>
     a50:	490b3b0b 	stmdbmi	fp, {r0, r1, r3, r8, r9, fp, ip, sp}
     a54:	00170213 	andseq	r0, r7, r3, lsl r2
     a58:	00342e00 	eorseq	r2, r4, r0, lsl #28
     a5c:	0b3a0e03 	bleq	e84270 <__DATA_END+0xe82944>
     a60:	13490b3b 	movtne	r0, #39739	; 0x9b3b
     a64:	342f0000 	strtcc	r0, [pc], #-0	; a6c <uartInit+0x88>
     a68:	3a080300 	bcc	201670 <__DATA_END+0x1ffd44>
     a6c:	490b3b0b 	stmdbmi	fp, {r0, r1, r3, r8, r9, fp, ip, sp}
     a70:	00180213 	andseq	r0, r8, r3, lsl r2
     a74:	00343000 	eorseq	r3, r4, r0
     a78:	0b3a0e03 	bleq	e8428c <__DATA_END+0xe82960>
     a7c:	1349053b 	movtne	r0, #38203	; 0x953b
     a80:	00001702 	andeq	r1, r0, r2, lsl #14
     a84:	31001d31 	tstcc	r0, r1, lsr sp
     a88:	12011113 	andne	r1, r1, #-1073741820	; 0xc0000004
     a8c:	590b5806 	stmdbpl	fp, {r1, r2, fp, ip, lr}
     a90:	32000005 	andcc	r0, r0, #5
     a94:	193f012e 	ldmdbne	pc!, {r1, r2, r3, r5, r8}	; <UNPREDICTABLE>
     a98:	0b3a0e03 	bleq	e842ac <__DATA_END+0xe82980>
     a9c:	1927053b 	stmdbne	r7!, {r0, r1, r3, r4, r5, r8, sl}
     aa0:	06120111 			; <UNDEFINED> instruction: 0x06120111
     aa4:	42971840 	addsmi	r1, r7, #64, 16	; 0x400000
     aa8:	00130119 	andseq	r0, r3, r9, lsl r1
     aac:	00343300 	eorseq	r3, r4, r0, lsl #6
     ab0:	0b3a0e03 	bleq	e842c4 <__DATA_END+0xe82998>
     ab4:	13490b3b 	movtne	r0, #39739	; 0x9b3b
     ab8:	1802193f 	stmdane	r2, {r0, r1, r2, r3, r4, r5, r8, fp, ip}
     abc:	2e340000 	cdpcs	0, 3, cr0, cr4, cr0, {0}
     ac0:	3c193f00 	ldccc	15, cr3, [r9], {-0}
     ac4:	030e6e19 	movweq	r6, #60953	; 0xee19
     ac8:	3b0b3a0e 	blcc	2cf308 <__DATA_END+0x2cd9dc>
     acc:	3500000b 	strcc	r0, [r0, #-11]
     ad0:	193f002e 	ldmdbne	pc!, {r1, r2, r3, r5}	; <UNPREDICTABLE>
     ad4:	0e6e193c 	mcreq	9, 3, r1, cr14, cr12, {1}
     ad8:	00000e03 	andeq	r0, r0, r3, lsl #28
     adc:	01110100 	tsteq	r1, r0, lsl #2
     ae0:	0b130e25 	bleq	4c437c <__DATA_END+0x4c2a50>
     ae4:	0e1b0e03 	cdpeq	14, 1, cr0, cr11, cr3, {0}
     ae8:	01111755 	tsteq	r1, r5, asr r7
     aec:	00001710 	andeq	r1, r0, r0, lsl r7
     af0:	0b002402 	bleq	9b00 <__DATA_END+0x81d4>
     af4:	030b3e0b 	movweq	r3, #48651	; 0xbe0b
     af8:	0300000e 	movweq	r0, #14
     afc:	0e030016 	mcreq	0, 0, r0, cr3, cr6, {0}
     b00:	0b3b0b3a 	bleq	ec37f0 <__DATA_END+0xec1ec4>
     b04:	00001349 	andeq	r1, r0, r9, asr #6
     b08:	0b002404 	bleq	9b20 <__DATA_END+0x81f4>
     b0c:	030b3e0b 	movweq	r3, #48651	; 0xbe0b
     b10:	05000008 	streq	r0, [r0, #-8]
     b14:	13490035 	movtne	r0, #36917	; 0x9035
     b18:	26060000 	strcs	r0, [r6], -r0
     b1c:	00134900 	andseq	r4, r3, r0, lsl #18
     b20:	01010700 	tsteq	r1, r0, lsl #14
     b24:	13011349 	movwne	r1, #4937	; 0x1349
     b28:	21080000 	mrscs	r0, (UNDEF: 8)
     b2c:	2f134900 	svccs	0x00134900
     b30:	0900000b 	stmdbeq	r0, {r0, r1, r3}
     b34:	0b0b0113 	bleq	2c0f88 <__DATA_END+0x2bf65c>
     b38:	053b0b3a 	ldreq	r0, [fp, #-2874]!	; 0xfffff4c6
     b3c:	00001301 	andeq	r1, r0, r1, lsl #6
     b40:	03000d0a 	movweq	r0, #3338	; 0xd0a
     b44:	3b0b3a0e 	blcc	2cf384 <__DATA_END+0x2cda58>
     b48:	38134905 	ldmdacc	r3, {r0, r2, r8, fp, lr}
     b4c:	0b00000b 	bleq	b80 <UART0_IRQHandler+0x38>
     b50:	0e030016 	mcreq	0, 0, r0, cr3, cr6, {0}
     b54:	053b0b3a 	ldreq	r0, [fp, #-2874]!	; 0xfffff4c6
     b58:	00001349 	andeq	r1, r0, r9, asr #6
     b5c:	03000d0c 	movweq	r0, #3340	; 0xd0c
     b60:	3b0b3a08 	blcc	2cf388 <__DATA_END+0x2cda5c>
     b64:	38134905 	ldmdacc	r3, {r0, r2, r8, fp, lr}
     b68:	0d00000b 	stceq	0, cr0, [r0, #-44]	; 0xffffffd4
     b6c:	050b0113 	streq	r0, [fp, #-275]	; 0xfffffeed
     b70:	053b0b3a 	ldreq	r0, [fp, #-2874]!	; 0xfffff4c6
     b74:	00001301 	andeq	r1, r0, r1, lsl #6
     b78:	03000d0e 	movweq	r0, #3342	; 0xd0e
     b7c:	3b0b3a0e 	blcc	2cf3bc <__DATA_END+0x2cda90>
     b80:	38134905 	ldmdacc	r3, {r0, r2, r8, fp, lr}
     b84:	0f000005 	svceq	0x00000005
     b88:	13490021 	movtne	r0, #36897	; 0x9021
     b8c:	0000052f 	andeq	r0, r0, pc, lsr #10
     b90:	3f002e10 	svccc	0x00002e10
     b94:	3a0e0319 	bcc	381800 <__DATA_END+0x37fed4>
     b98:	110b3b0b 	tstne	fp, fp, lsl #22
     b9c:	40061201 	andmi	r1, r6, r1, lsl #4
     ba0:	19429718 	stmdbne	r2, {r3, r4, r8, r9, sl, ip, pc}^
     ba4:	2e110000 	cdpcs	0, 1, cr0, cr1, cr0, {0}
     ba8:	03193f01 	tsteq	r9, #1, 30
     bac:	3b0b3a0e 	blcc	2cf3ec <__DATA_END+0x2cdac0>
     bb0:	1201110b 	andne	r1, r1, #-1073741822	; 0xc0000002
     bb4:	97184006 	ldrls	r4, [r8, -r6]
     bb8:	13011942 	movwne	r1, #6466	; 0x1942
     bbc:	89120000 	ldmdbhi	r2, {}	; <UNPREDICTABLE>
     bc0:	11000182 	smlabbne	r0, r2, r1, r0
     bc4:	00133101 	andseq	r3, r3, r1, lsl #2
     bc8:	82891300 	addhi	r1, r9, #0, 6
     bcc:	01110101 	tsteq	r1, r1, lsl #2
     bd0:	13011331 	movwne	r1, #4913	; 0x1331
     bd4:	8a140000 	bhi	500bdc <__DATA_END+0x4ff2b0>
     bd8:	02000182 	andeq	r0, r0, #-2147483616	; 0x80000020
     bdc:	18429118 	stmdane	r2, {r3, r4, r8, ip, pc}^
     be0:	89150000 	ldmdbhi	r5, {}	; <UNPREDICTABLE>
     be4:	11010182 	smlabbne	r1, r2, r1, r0
     be8:	00133101 	andseq	r3, r3, r1, lsl #2
     bec:	012e1600 	teqeq	lr, r0, lsl #12
     bf0:	0e03193f 	mcreq	9, 0, r1, cr3, cr15, {1}
     bf4:	0b3b0b3a 	bleq	ec38e4 <__DATA_END+0xec1fb8>
     bf8:	13491927 	movtne	r1, #39207	; 0x9927
     bfc:	11190187 	tstne	r9, r7, lsl #3
     c00:	40061201 	andmi	r1, r6, r1, lsl #4
     c04:	19429718 	stmdbne	r2, {r3, r4, r8, r9, sl, ip, pc}^
     c08:	00001301 	andeq	r1, r0, r1, lsl #6
     c0c:	03003417 	movweq	r3, #1047	; 0x417
     c10:	3b0b3a08 	blcc	2cf438 <__DATA_END+0x2cdb0c>
     c14:	0013490b 	andseq	r4, r3, fp, lsl #18
     c18:	002e1800 	eoreq	r1, lr, r0, lsl #16
     c1c:	193c193f 	ldmdbne	ip!, {r0, r1, r2, r3, r4, r5, r8, fp, ip}
     c20:	0e030e6e 	cdpeq	14, 0, cr0, cr3, cr14, {3}
     c24:	0b3b0b3a 	bleq	ec3914 <__DATA_END+0xec1fe8>
     c28:	01000000 	mrseq	r0, (UNDEF: 0)
     c2c:	0e250111 	mcreq	1, 1, r0, cr5, cr1, {0}
     c30:	0e030b13 	vmoveq.32	d3[0], r0
     c34:	17100e1b 			; <UNDEFINED> instruction: 0x17100e1b
     c38:	24020000 	strcs	r0, [r2], #-0
     c3c:	3e0b0b00 	vmlacc.f64	d0, d11, d0
     c40:	000e030b 	andeq	r0, lr, fp, lsl #6
     c44:	00160300 	andseq	r0, r6, r0, lsl #6
     c48:	0b3a0e03 	bleq	e8445c <__DATA_END+0xe82b30>
     c4c:	13490b3b 	movtne	r0, #39739	; 0x9b3b
     c50:	24040000 	strcs	r0, [r4], #-0
     c54:	3e0b0b00 	vmlacc.f64	d0, d11, d0
     c58:	0008030b 	andeq	r0, r8, fp, lsl #6
     c5c:	01010500 	tsteq	r1, r0, lsl #10
     c60:	13011349 	movwne	r1, #4937	; 0x1349
     c64:	21060000 	mrscs	r0, (UNDEF: 6)
     c68:	2f134900 	svccs	0x00134900
     c6c:	0700000b 	streq	r0, [r0, -fp]
     c70:	0e030034 	mcreq	0, 0, r0, cr3, cr4, {1}
     c74:	0b3b0b3a 	bleq	ec3964 <__DATA_END+0xec2038>
     c78:	193f1349 	ldmdbne	pc!, {r0, r3, r6, r8, r9, ip}	; <UNPREDICTABLE>
     c7c:	00001802 	andeq	r1, r0, r2, lsl #16
     c80:	01110100 	tsteq	r1, r0, lsl #2
     c84:	0b130e25 	bleq	4c4520 <__DATA_END+0x4c2bf4>
     c88:	0e1b0e03 	cdpeq	14, 1, cr0, cr11, cr3, {0}
     c8c:	01111755 	tsteq	r1, r5, asr r7
     c90:	00001710 	andeq	r1, r0, r0, lsl r7
     c94:	0b002402 	bleq	9ca4 <__DATA_END+0x8378>
     c98:	030b3e0b 	movweq	r3, #48651	; 0xbe0b
     c9c:	0300000e 	movweq	r0, #14
     ca0:	0e030016 	mcreq	0, 0, r0, cr3, cr6, {0}
     ca4:	0b3b0b3a 	bleq	ec3994 <__DATA_END+0xec2068>
     ca8:	00001349 	andeq	r1, r0, r9, asr #6
     cac:	0b002404 	bleq	9cc4 <__DATA_END+0x8398>
     cb0:	030b3e0b 	movweq	r3, #48651	; 0xbe0b
     cb4:	05000008 	streq	r0, [r0, #-8]
     cb8:	13490035 	movtne	r0, #36917	; 0x9035
     cbc:	26060000 	strcs	r0, [r6], -r0
     cc0:	00134900 	andseq	r4, r3, r0, lsl #18
     cc4:	01010700 	tsteq	r1, r0, lsl #14
     cc8:	13011349 	movwne	r1, #4937	; 0x1349
     ccc:	21080000 	mrscs	r0, (UNDEF: 8)
     cd0:	2f134900 	svccs	0x00134900
     cd4:	0900000b 	stmdbeq	r0, {r0, r1, r3}
     cd8:	0b0b0113 	bleq	2c112c <__DATA_END+0x2bf800>
     cdc:	053b0b3a 	ldreq	r0, [fp, #-2874]!	; 0xfffff4c6
     ce0:	00001301 	andeq	r1, r0, r1, lsl #6
     ce4:	03000d0a 	movweq	r0, #3338	; 0xd0a
     ce8:	3b0b3a0e 	blcc	2cf528 <__DATA_END+0x2cdbfc>
     cec:	38134905 	ldmdacc	r3, {r0, r2, r8, fp, lr}
     cf0:	0b00000b 	bleq	d24 <start+0x50>
     cf4:	0e030016 	mcreq	0, 0, r0, cr3, cr6, {0}
     cf8:	053b0b3a 	ldreq	r0, [fp, #-2874]!	; 0xfffff4c6
     cfc:	00001349 	andeq	r1, r0, r9, asr #6
     d00:	03000d0c 	movweq	r0, #3340	; 0xd0c
     d04:	3b0b3a08 	blcc	2cf52c <__DATA_END+0x2cdc00>
     d08:	38134905 	ldmdacc	r3, {r0, r2, r8, fp, lr}
     d0c:	0d00000b 	stceq	0, cr0, [r0, #-44]	; 0xffffffd4
     d10:	050b0113 	streq	r0, [fp, #-275]	; 0xfffffeed
     d14:	053b0b3a 	ldreq	r0, [fp, #-2874]!	; 0xfffff4c6
     d18:	00001301 	andeq	r1, r0, r1, lsl #6
     d1c:	03000d0e 	movweq	r0, #3342	; 0xd0e
     d20:	3b0b3a0e 	blcc	2cf560 <__DATA_END+0x2cdc34>
     d24:	38134905 	ldmdacc	r3, {r0, r2, r8, fp, lr}
     d28:	0f000005 	svceq	0x00000005
     d2c:	13490021 	movtne	r0, #36897	; 0x9021
     d30:	0000052f 	andeq	r0, r0, pc, lsr #10
     d34:	0b011310 	bleq	4597c <__DATA_END+0x44050>
     d38:	3b0b3a0b 	blcc	2cf56c <__DATA_END+0x2cdc40>
     d3c:	0013010b 	andseq	r0, r3, fp, lsl #2
     d40:	000d1100 	andeq	r1, sp, r0, lsl #2
     d44:	0b3a0e03 	bleq	e84558 <__DATA_END+0xe82c2c>
     d48:	13490b3b 	movtne	r0, #39739	; 0x9b3b
     d4c:	00000b38 	andeq	r0, r0, r8, lsr fp
     d50:	03000d12 	movweq	r0, #3346	; 0xd12
     d54:	3b0b3a08 	blcc	2cf57c <__DATA_END+0x2cdc50>
     d58:	3813490b 	ldmdacc	r3, {r0, r1, r3, r8, fp, lr}
     d5c:	1300000b 	movwne	r0, #11
     d60:	0b0b000f 	bleq	2c0da4 <__DATA_END+0x2bf478>
     d64:	00001349 	andeq	r1, r0, r9, asr #6
     d68:	3f012e14 	svccc	0x00012e14
     d6c:	3a0e0319 	bcc	3819d8 <__DATA_END+0x3800ac>
     d70:	270b3b0b 	strcs	r3, [fp, -fp, lsl #22]
     d74:	11134919 	tstne	r3, r9, lsl r9
     d78:	40061201 	andmi	r1, r6, r1, lsl #4
     d7c:	19429718 	stmdbne	r2, {r3, r4, r8, r9, sl, ip, pc}^
     d80:	00001301 	andeq	r1, r0, r1, lsl #6
     d84:	03000515 	movweq	r0, #1301	; 0x515
     d88:	3b0b3a08 	blcc	2cf5b0 <__DATA_END+0x2cdc84>
     d8c:	0213490b 	andseq	r4, r3, #180224	; 0x2c000
     d90:	16000017 			; <UNDEFINED> instruction: 0x16000017
     d94:	08030005 	stmdaeq	r3, {r0, r2}
     d98:	0b3b0b3a 	bleq	ec3a88 <__DATA_END+0xec215c>
     d9c:	18021349 	stmdane	r2, {r0, r3, r6, r8, r9, ip}
     da0:	34170000 	ldrcc	r0, [r7], #-0
     da4:	3a080300 	bcc	2019ac <__DATA_END+0x200080>
     da8:	490b3b0b 	stmdbmi	fp, {r0, r1, r3, r8, r9, fp, ip, sp}
     dac:	00170213 	andseq	r0, r7, r3, lsl r2
     db0:	012e1800 	teqeq	lr, r0, lsl #16
     db4:	0e03193f 	mcreq	9, 0, r1, cr3, cr15, {1}
     db8:	0b3b0b3a 	bleq	ec3aa8 <__DATA_END+0xec217c>
     dbc:	193c1349 	ldmdbne	ip!, {r0, r3, r6, r8, r9, ip}
     dc0:	00001301 	andeq	r1, r0, r1, lsl #6
     dc4:	00001819 	andeq	r1, r0, r9, lsl r8
     dc8:	82891a00 	addhi	r1, r9, #0, 20
     dcc:	01110101 	tsteq	r1, r1, lsl #2
     dd0:	13011331 	movwne	r1, #4913	; 0x1331
     dd4:	8a1b0000 	bhi	6c0ddc <__DATA_END+0x6bf4b0>
     dd8:	02000182 	andeq	r0, r0, #-2147483616	; 0x80000020
     ddc:	18429118 	stmdane	r2, {r3, r4, r8, ip, pc}^
     de0:	891c0000 	ldmdbhi	ip, {}	; <UNPREDICTABLE>
     de4:	11010182 	smlabbne	r1, r2, r1, r0
     de8:	00133101 	andseq	r3, r3, r1, lsl #2
     dec:	00341d00 	eorseq	r1, r4, r0, lsl #26
     df0:	0b3a0e03 	bleq	e84604 <__DATA_END+0xe82cd8>
     df4:	13490b3b 	movtne	r0, #39739	; 0x9b3b
     df8:	00001702 	andeq	r1, r0, r2, lsl #14
     dfc:	0300341e 	movweq	r3, #1054	; 0x41e
     e00:	3b0b3a08 	blcc	2cf628 <__DATA_END+0x2cdcfc>
     e04:	0013490b 	andseq	r4, r3, fp, lsl #18
     e08:	010b1f00 	tsteq	fp, r0, lsl #30
     e0c:	00001755 	andeq	r1, r0, r5, asr r7
     e10:	01828920 	orreq	r8, r2, r0, lsr #18
     e14:	31011100 	mrscc	r1, (UNDEF: 17)
     e18:	21000013 	tstcs	r0, r3, lsl r0
     e1c:	0e030005 	cdpeq	0, 0, cr0, cr3, cr5, {0}
     e20:	0b3b0b3a 	bleq	ec3b10 <__DATA_END+0xec21e4>
     e24:	17021349 	strne	r1, [r2, -r9, asr #6]
     e28:	2e220000 	cdpcs	0, 2, cr0, cr2, cr0, {0}
     e2c:	03193f00 	tsteq	r9, #0, 30
     e30:	3b0b3a0e 	blcc	2cf670 <__DATA_END+0x2cdd44>
     e34:	1119270b 	tstne	r9, fp, lsl #14
     e38:	40061201 	andmi	r1, r6, r1, lsl #4
     e3c:	19429718 	stmdbne	r2, {r3, r4, r8, r9, sl, ip, pc}^
     e40:	34230000 	strtcc	r0, [r3], #-0
     e44:	3a0e0300 	bcc	381a4c <__DATA_END+0x380120>
     e48:	490b3b0b 	stmdbmi	fp, {r0, r1, r3, r8, r9, fp, ip, sp}
     e4c:	3c193f13 	ldccc	15, cr3, [r9], {19}
     e50:	24000019 	strcs	r0, [r0], #-25	; 0xffffffe7
     e54:	0e030034 	mcreq	0, 0, r0, cr3, cr4, {1}
     e58:	0b3b0b3a 	bleq	ec3b48 <__DATA_END+0xec221c>
     e5c:	193f1349 	ldmdbne	pc!, {r0, r3, r6, r8, r9, ip}	; <UNPREDICTABLE>
     e60:	00001802 	andeq	r1, r0, r2, lsl #16
     e64:	3f002e25 	svccc	0x00002e25
     e68:	6e193c19 	mrcvs	12, 0, r3, cr9, cr9, {0}
     e6c:	3a0e030e 	bcc	381aac <__DATA_END+0x380180>
     e70:	000b3b0b 	andeq	r3, fp, fp, lsl #22
     e74:	002e2600 	eoreq	r2, lr, r0, lsl #12
     e78:	193c193f 	ldmdbne	ip!, {r0, r1, r2, r3, r4, r5, r8, fp, ip}
     e7c:	0e030e6e 	cdpeq	14, 0, cr0, cr3, cr14, {3}
     e80:	01000000 	mrseq	r0, (UNDEF: 0)
     e84:	0e250111 	mcreq	1, 1, r0, cr5, cr1, {0}
     e88:	0e030b13 	vmoveq.32	d3[0], r0
     e8c:	17550e1b 	smmlane	r5, fp, lr, r0
     e90:	17100111 			; <UNDEFINED> instruction: 0x17100111
     e94:	24020000 	strcs	r0, [r2], #-0
     e98:	3e0b0b00 	vmlacc.f64	d0, d11, d0
     e9c:	000e030b 	andeq	r0, lr, fp, lsl #6
     ea0:	00160300 	andseq	r0, r6, r0, lsl #6
     ea4:	0b3a0e03 	bleq	e846b8 <__DATA_END+0xe82d8c>
     ea8:	13490b3b 	movtne	r0, #39739	; 0x9b3b
     eac:	24040000 	strcs	r0, [r4], #-0
     eb0:	3e0b0b00 	vmlacc.f64	d0, d11, d0
     eb4:	0008030b 	andeq	r0, r8, fp, lsl #6
     eb8:	00350500 	eorseq	r0, r5, r0, lsl #10
     ebc:	00001349 	andeq	r1, r0, r9, asr #6
     ec0:	49002606 	stmdbmi	r0, {r1, r2, r9, sl, sp}
     ec4:	07000013 	smladeq	r0, r3, r0, r0
     ec8:	0b0b0113 	bleq	2c131c <__DATA_END+0x2bf9f0>
     ecc:	053b0b3a 	ldreq	r0, [fp, #-2874]!	; 0xfffff4c6
     ed0:	00001301 	andeq	r1, r0, r1, lsl #6
     ed4:	03000d08 	movweq	r0, #3336	; 0xd08
     ed8:	3b0b3a0e 	blcc	2cf718 <__DATA_END+0x2cddec>
     edc:	38134905 	ldmdacc	r3, {r0, r2, r8, fp, lr}
     ee0:	0900000b 	stmdbeq	r0, {r0, r1, r3}
     ee4:	0e030016 	mcreq	0, 0, r0, cr3, cr6, {0}
     ee8:	053b0b3a 	ldreq	r0, [fp, #-2874]!	; 0xfffff4c6
     eec:	00001349 	andeq	r1, r0, r9, asr #6
     ef0:	0b01130a 	bleq	45b20 <__DATA_END+0x441f4>
     ef4:	3b0b3a0b 	blcc	2cf728 <__DATA_END+0x2cddfc>
     ef8:	0013010b 	andseq	r0, r3, fp, lsl #2
     efc:	000d0b00 	andeq	r0, sp, r0, lsl #22
     f00:	0b3a0e03 	bleq	e84714 <__DATA_END+0xe82de8>
     f04:	13490b3b 	movtne	r0, #39739	; 0x9b3b
     f08:	00000b38 	andeq	r0, r0, r8, lsr fp
     f0c:	03000d0c 	movweq	r0, #3340	; 0xd0c
     f10:	3b0b3a08 	blcc	2cf738 <__DATA_END+0x2cde0c>
     f14:	3813490b 	ldmdacc	r3, {r0, r1, r3, r8, fp, lr}
     f18:	0d00000b 	stceq	0, cr0, [r0, #-44]	; 0xffffffd4
     f1c:	13490101 	movtne	r0, #37121	; 0x9101
     f20:	00001301 	andeq	r1, r0, r1, lsl #6
     f24:	4900210e 	stmdbmi	r0, {r1, r2, r3, r8, sp}
     f28:	000b2f13 	andeq	r2, fp, r3, lsl pc
     f2c:	002e0f00 	eoreq	r0, lr, r0, lsl #30
     f30:	0e03193f 	mcreq	9, 0, r1, cr3, cr15, {1}
     f34:	0b3b0b3a 	bleq	ec3c24 <__DATA_END+0xec22f8>
     f38:	13491927 	movtne	r1, #39207	; 0x9927
     f3c:	06120111 			; <UNDEFINED> instruction: 0x06120111
     f40:	42971840 	addsmi	r1, r7, #64, 16	; 0x400000
     f44:	10000019 	andne	r0, r0, r9, lsl r0
     f48:	193f012e 	ldmdbne	pc!, {r1, r2, r3, r5, r8}	; <UNPREDICTABLE>
     f4c:	0b3a0e03 	bleq	e84760 <__DATA_END+0xe82e34>
     f50:	19270b3b 	stmdbne	r7!, {r0, r1, r3, r4, r5, r8, r9, fp}
     f54:	06120111 			; <UNDEFINED> instruction: 0x06120111
     f58:	42971840 	addsmi	r1, r7, #64, 16	; 0x400000
     f5c:	00130119 	andseq	r0, r3, r9, lsl r1
     f60:	00051100 	andeq	r1, r5, r0, lsl #2
     f64:	0b3a0803 	bleq	e82f78 <__DATA_END+0xe8164c>
     f68:	13490b3b 	movtne	r0, #39739	; 0x9b3b
     f6c:	00001702 	andeq	r1, r0, r2, lsl #14
     f70:	03003412 	movweq	r3, #1042	; 0x412
     f74:	3b0b3a08 	blcc	2cf79c <__DATA_END+0x2cde70>
     f78:	0013490b 	andseq	r4, r3, fp, lsl #18
     f7c:	012e1300 	teqeq	lr, r0, lsl #6
     f80:	0e03193f 	mcreq	9, 0, r1, cr3, cr15, {1}
     f84:	0b3b0b3a 	bleq	ec3c74 <__DATA_END+0xec2348>
     f88:	01111349 	tsteq	r1, r9, asr #6
     f8c:	18400612 	stmdane	r0, {r1, r4, r9, sl}^
     f90:	01194297 			; <UNDEFINED> instruction: 0x01194297
     f94:	14000013 	strne	r0, [r0], #-19	; 0xffffffed
     f98:	0e030034 	mcreq	0, 0, r0, cr3, cr4, {1}
     f9c:	0b3b0b3a 	bleq	ec3c8c <__DATA_END+0xec2360>
     fa0:	17021349 	strne	r1, [r2, -r9, asr #6]
     fa4:	89150000 	ldmdbhi	r5, {}	; <UNPREDICTABLE>
     fa8:	11000182 	smlabbne	r0, r2, r1, r0
     fac:	00133101 	andseq	r3, r3, r1, lsl #2
     fb0:	012e1600 	teqeq	lr, r0, lsl #12
     fb4:	0e03193f 	mcreq	9, 0, r1, cr3, cr15, {1}
     fb8:	0b3b0b3a 	bleq	ec3ca8 <__DATA_END+0xec237c>
     fbc:	13491927 	movtne	r1, #39207	; 0x9927
     fc0:	06120111 			; <UNDEFINED> instruction: 0x06120111
     fc4:	42971840 	addsmi	r1, r7, #64, 16	; 0x400000
     fc8:	00130119 	andseq	r0, r3, r9, lsl r1
     fcc:	00341700 	eorseq	r1, r4, r0, lsl #14
     fd0:	0b3a0803 	bleq	e82fe4 <__DATA_END+0xe816b8>
     fd4:	13490b3b 	movtne	r0, #39739	; 0x9b3b
     fd8:	00001702 	andeq	r1, r0, r2, lsl #14
     fdc:	03003418 	movweq	r3, #1048	; 0x418
     fe0:	3b0b3a0e 	blcc	2cf820 <__DATA_END+0x2cdef4>
     fe4:	3f13490b 	svccc	0x0013490b
     fe8:	00180219 	andseq	r0, r8, r9, lsl r2
     fec:	00341900 	eorseq	r1, r4, r0, lsl #18
     ff0:	0b3a0803 	bleq	e83004 <__DATA_END+0xe816d8>
     ff4:	13490b3b 	movtne	r0, #39739	; 0x9b3b
     ff8:	1802193f 	stmdane	r2, {r0, r1, r2, r3, r4, r5, r8, fp, ip}
     ffc:	0f1a0000 	svceq	0x001a0000
    1000:	490b0b00 	stmdbmi	fp, {r8, r9, fp}
    1004:	1b000013 	blne	1058 <ParseGPS+0x88>
    1008:	193f002e 	ldmdbne	pc!, {r1, r2, r3, r5}	; <UNPREDICTABLE>
    100c:	0e6e193c 	mcreq	9, 3, r1, cr14, cr12, {1}
    1010:	0b3a0e03 	bleq	e84824 <__DATA_END+0xe82ef8>
    1014:	00000b3b 	andeq	r0, r0, fp, lsr fp
    1018:	01110100 	tsteq	r1, r0, lsl #2
    101c:	0b130e25 	bleq	4c48b8 <__DATA_END+0x4c2f8c>
    1020:	0e1b0e03 	cdpeq	14, 1, cr0, cr11, cr3, {0}
    1024:	01111755 	tsteq	r1, r5, asr r7
    1028:	00001710 	andeq	r1, r0, r0, lsl r7
    102c:	0b002402 	bleq	a03c <__DATA_END+0x8710>
    1030:	030b3e0b 	movweq	r3, #48651	; 0xbe0b
    1034:	0300000e 	movweq	r0, #14
    1038:	0e030016 	mcreq	0, 0, r0, cr3, cr6, {0}
    103c:	0b3b0b3a 	bleq	ec3d2c <__DATA_END+0xec2400>
    1040:	00001349 	andeq	r1, r0, r9, asr #6
    1044:	0b002404 	bleq	a05c <__DATA_END+0x8730>
    1048:	030b3e0b 	movweq	r3, #48651	; 0xbe0b
    104c:	05000008 	streq	r0, [r0, #-8]
    1050:	13490035 	movtne	r0, #36917	; 0x9035
    1054:	26060000 	strcs	r0, [r6], -r0
    1058:	00134900 	andseq	r4, r3, r0, lsl #18
    105c:	01010700 	tsteq	r1, r0, lsl #14
    1060:	13011349 	movwne	r1, #4937	; 0x1349
    1064:	21080000 	mrscs	r0, (UNDEF: 8)
    1068:	2f134900 	svccs	0x00134900
    106c:	0900000b 	stmdbeq	r0, {r0, r1, r3}
    1070:	0b0b0113 	bleq	2c14c4 <__DATA_END+0x2bfb98>
    1074:	053b0b3a 	ldreq	r0, [fp, #-2874]!	; 0xfffff4c6
    1078:	00001301 	andeq	r1, r0, r1, lsl #6
    107c:	03000d0a 	movweq	r0, #3338	; 0xd0a
    1080:	3b0b3a08 	blcc	2cf8a8 <__DATA_END+0x2cdf7c>
    1084:	38134905 	ldmdacc	r3, {r0, r2, r8, fp, lr}
    1088:	0b00000b 	bleq	10bc <ParseGPS+0xec>
    108c:	0e030016 	mcreq	0, 0, r0, cr3, cr6, {0}
    1090:	053b0b3a 	ldreq	r0, [fp, #-2874]!	; 0xfffff4c6
    1094:	00001349 	andeq	r1, r0, r9, asr #6
    1098:	0b01130c 	bleq	45cd0 <__DATA_END+0x443a4>
    109c:	3b0b3a05 	blcc	2cf8b8 <__DATA_END+0x2cdf8c>
    10a0:	00130105 	andseq	r0, r3, r5, lsl #2
    10a4:	000d0d00 	andeq	r0, sp, r0, lsl #26
    10a8:	0b3a0e03 	bleq	e848bc <__DATA_END+0xe82f90>
    10ac:	1349053b 	movtne	r0, #38203	; 0x953b
    10b0:	00000b38 	andeq	r0, r0, r8, lsr fp
    10b4:	03000d0e 	movweq	r0, #3342	; 0xd0e
    10b8:	3b0b3a0e 	blcc	2cf8f8 <__DATA_END+0x2cdfcc>
    10bc:	38134905 	ldmdacc	r3, {r0, r2, r8, fp, lr}
    10c0:	0f000005 	svceq	0x00000005
    10c4:	13490021 	movtne	r0, #36897	; 0x9021
    10c8:	0000052f 	andeq	r0, r0, pc, lsr #10
    10cc:	3f012e10 	svccc	0x00012e10
    10d0:	3a0e0319 	bcc	381d3c <__DATA_END+0x380410>
    10d4:	270b3b0b 	strcs	r3, [fp, -fp, lsl #22]
    10d8:	12011119 	andne	r1, r1, #1073741830	; 0x40000006
    10dc:	97184006 	ldrls	r4, [r8, -r6]
    10e0:	00001942 	andeq	r1, r0, r2, asr #18
    10e4:	03000511 	movweq	r0, #1297	; 0x511
    10e8:	3b0b3a0e 	blcc	2cf928 <__DATA_END+0x2cdffc>
    10ec:	0213490b 	andseq	r4, r3, #180224	; 0x2c000
    10f0:	00000018 	andeq	r0, r0, r8, lsl r0
    10f4:	25011101 	strcs	r1, [r1, #-257]	; 0xfffffeff
    10f8:	030b130e 	movweq	r1, #45838	; 0xb30e
    10fc:	550e1b0e 	strpl	r1, [lr, #-2830]	; 0xfffff4f2
    1100:	10011117 	andne	r1, r1, r7, lsl r1
    1104:	02000017 	andeq	r0, r0, #23
    1108:	0b0b0024 	bleq	2c11a0 <__DATA_END+0x2bf874>
    110c:	0e030b3e 	vmoveq.16	d3[0], r0
    1110:	16030000 	strne	r0, [r3], -r0
    1114:	3a0e0300 	bcc	381d1c <__DATA_END+0x3803f0>
    1118:	490b3b0b 	stmdbmi	fp, {r0, r1, r3, r8, r9, fp, ip, sp}
    111c:	04000013 	streq	r0, [r0], #-19	; 0xffffffed
    1120:	0b0b0024 	bleq	2c11b8 <__DATA_END+0x2bf88c>
    1124:	08030b3e 	stmdaeq	r3, {r1, r2, r3, r4, r5, r8, r9, fp}
    1128:	35050000 	strcc	r0, [r5, #-0]
    112c:	00134900 	andseq	r4, r3, r0, lsl #18
    1130:	00260600 	eoreq	r0, r6, r0, lsl #12
    1134:	00001349 	andeq	r1, r0, r9, asr #6
    1138:	49010107 	stmdbmi	r1, {r0, r1, r2, r8}
    113c:	00130113 	andseq	r0, r3, r3, lsl r1
    1140:	00210800 	eoreq	r0, r1, r0, lsl #16
    1144:	0b2f1349 	bleq	bc5e70 <__DATA_END+0xbc4544>
    1148:	13090000 	movwne	r0, #36864	; 0x9000
    114c:	3a0b0b01 	bcc	2c3d58 <__DATA_END+0x2c242c>
    1150:	01053b0b 	tsteq	r5, fp, lsl #22
    1154:	0a000013 	beq	11a8 <dacInit+0xc>
    1158:	0803000d 	stmdaeq	r3, {r0, r2, r3}
    115c:	053b0b3a 	ldreq	r0, [fp, #-2874]!	; 0xfffff4c6
    1160:	0b381349 	bleq	e05e8c <__DATA_END+0xe04560>
    1164:	0d0b0000 	stceq	0, cr0, [fp, #-0]
    1168:	3a0e0300 	bcc	381d70 <__DATA_END+0x380444>
    116c:	49053b0b 	stmdbmi	r5, {r0, r1, r3, r8, r9, fp, ip, sp}
    1170:	000b3813 	andeq	r3, fp, r3, lsl r8
    1174:	00160c00 	andseq	r0, r6, r0, lsl #24
    1178:	0b3a0e03 	bleq	e8498c <__DATA_END+0xe83060>
    117c:	1349053b 	movtne	r0, #38203	; 0x953b
    1180:	130d0000 	movwne	r0, #53248	; 0xd000
    1184:	3a050b01 	bcc	143d90 <__DATA_END+0x142464>
    1188:	01053b0b 	tsteq	r5, fp, lsl #22
    118c:	0e000013 	mcreq	0, 0, r0, cr0, cr3, {0}
    1190:	0e03000d 	cdpeq	0, 0, cr0, cr3, cr13, {0}
    1194:	053b0b3a 	ldreq	r0, [fp, #-2874]!	; 0xfffff4c6
    1198:	05381349 	ldreq	r1, [r8, #-841]!	; 0xfffffcb7
    119c:	210f0000 	mrscs	r0, CPSR
    11a0:	2f134900 	svccs	0x00134900
    11a4:	10000005 	andne	r0, r0, r5
    11a8:	193f012e 	ldmdbne	pc!, {r1, r2, r3, r5, r8}	; <UNPREDICTABLE>
    11ac:	0b3a0e03 	bleq	e849c0 <__DATA_END+0xe83094>
    11b0:	19270b3b 	stmdbne	r7!, {r0, r1, r3, r4, r5, r8, r9, fp}
    11b4:	13010b20 	movwne	r0, #6944	; 0x1b20
    11b8:	05110000 	ldreq	r0, [r1, #-0]
    11bc:	3a080300 	bcc	201dc4 <__DATA_END+0x200498>
    11c0:	490b3b0b 	stmdbmi	fp, {r0, r1, r3, r8, r9, fp, ip, sp}
    11c4:	12000013 	andne	r0, r0, #19
    11c8:	0b0b000f 	bleq	2c120c <__DATA_END+0x2bf8e0>
    11cc:	00001349 	andeq	r1, r0, r9, asr #6
    11d0:	3f012e13 	svccc	0x00012e13
    11d4:	3a0e0319 	bcc	381e40 <__DATA_END+0x380514>
    11d8:	270b3b0b 	strcs	r3, [fp, -fp, lsl #22]
    11dc:	20134919 	andscs	r4, r3, r9, lsl r9
    11e0:	0013010b 	andseq	r0, r3, fp, lsl #2
    11e4:	00051400 	andeq	r1, r5, r0, lsl #8
    11e8:	0b3a0e03 	bleq	e849fc <__DATA_END+0xe830d0>
    11ec:	13490b3b 	movtne	r0, #39739	; 0x9b3b
    11f0:	2e150000 	cdpcs	0, 1, cr0, cr5, cr0, {0}
    11f4:	03193f01 	tsteq	r9, #1, 30
    11f8:	3b0b3a0e 	blcc	2cfa38 <__DATA_END+0x2ce10c>
    11fc:	1119270b 	tstne	r9, fp, lsl #14
    1200:	40061201 	andmi	r1, r6, r1, lsl #4
    1204:	19429718 	stmdbne	r2, {r3, r4, r8, r9, sl, ip, pc}^
    1208:	00001301 	andeq	r1, r0, r1, lsl #6
    120c:	03000516 	movweq	r0, #1302	; 0x516
    1210:	3b0b3a08 	blcc	2cfa38 <__DATA_END+0x2ce10c>
    1214:	0213490b 	andseq	r4, r3, #180224	; 0x2c000
    1218:	17000018 	smladne	r0, r8, r0, r0
    121c:	193f012e 	ldmdbne	pc!, {r1, r2, r3, r5, r8}	; <UNPREDICTABLE>
    1220:	0b3a0e03 	bleq	e84a34 <__DATA_END+0xe83108>
    1224:	19270b3b 	stmdbne	r7!, {r0, r1, r3, r4, r5, r8, r9, fp}
    1228:	01111349 	tsteq	r1, r9, asr #6
    122c:	18400612 	stmdane	r0, {r1, r4, r9, sl}^
    1230:	01194297 			; <UNDEFINED> instruction: 0x01194297
    1234:	18000013 	stmdane	r0, {r0, r1, r4}
    1238:	0e030005 	cdpeq	0, 0, cr0, cr3, cr5, {0}
    123c:	0b3b0b3a 	bleq	ec3f2c <__DATA_END+0xec2600>
    1240:	17021349 	strne	r1, [r2, -r9, asr #6]
    1244:	34190000 	ldrcc	r0, [r9], #-0
    1248:	3a080300 	bcc	201e50 <__DATA_END+0x200524>
    124c:	490b3b0b 	stmdbmi	fp, {r0, r1, r3, r8, r9, fp, ip, sp}
    1250:	1a000013 	bne	12a4 <__libc_init_array+0xc>
    1254:	0e030034 	mcreq	0, 0, r0, cr3, cr4, {1}
    1258:	0b3b0b3a 	bleq	ec3f48 <__DATA_END+0xec261c>
    125c:	17021349 	strne	r1, [r2, -r9, asr #6]
    1260:	1d1b0000 	ldcne	0, cr0, [fp, #-0]
    1264:	52133101 	andspl	r3, r3, #1073741824	; 0x40000000
    1268:	58175501 	ldmdapl	r7, {r0, r8, sl, ip, lr}
    126c:	010b590b 	tsteq	fp, fp, lsl #18
    1270:	1c000013 	stcne	0, cr0, [r0], {19}
    1274:	13310005 	teqne	r1, #5
    1278:	0000061c 	andeq	r0, r0, ip, lsl r6
    127c:	31011d1d 	tstcc	r1, sp, lsl sp
    1280:	12011113 	andne	r1, r1, #-1073741820	; 0xc0000004
    1284:	590b5806 	stmdbpl	fp, {r1, r2, fp, ip, lr}
    1288:	1e00000b 	cdpne	0, 0, cr0, cr0, cr11, {0}
    128c:	13310005 	teqne	r1, #5
    1290:	00000d1c 	andeq	r0, r0, ip, lsl sp
    1294:	31011d1f 	tstcc	r1, pc, lsl sp
    1298:	55015213 	strpl	r5, [r1, #-531]	; 0xfffffded
    129c:	590b5817 	stmdbpl	fp, {r0, r1, r2, r4, fp, ip, lr}
    12a0:	2000000b 	andcs	r0, r0, fp
    12a4:	13310005 	teqne	r1, #5
    12a8:	00001702 	andeq	r1, r0, r2, lsl #14
    12ac:	31011d21 	tstcc	r1, r1, lsr #26
    12b0:	12011113 	andne	r1, r1, #-1073741820	; 0xc0000004
    12b4:	590b5806 	stmdbpl	fp, {r1, r2, fp, ip, lr}
    12b8:	0013010b 	andseq	r0, r3, fp, lsl #2
    12bc:	00052200 	andeq	r2, r5, r0, lsl #4
    12c0:	00001331 	andeq	r1, r0, r1, lsr r3
    12c4:	01828923 	orreq	r8, r2, r3, lsr #18
    12c8:	31011101 	tstcc	r1, r1, lsl #2
    12cc:	24000013 	strcs	r0, [r0], #-19	; 0xffffffed
    12d0:	0001828a 	andeq	r8, r1, sl, lsl #5
    12d4:	42911802 	addsmi	r1, r1, #131072	; 0x20000
    12d8:	25000018 	strcs	r0, [r0, #-24]	; 0xffffffe8
    12dc:	193f002e 	ldmdbne	pc!, {r1, r2, r3, r5}	; <UNPREDICTABLE>
    12e0:	0e6e193c 	mcreq	9, 3, r1, cr14, cr12, {1}
    12e4:	0b3a0e03 	bleq	e84af8 <__DATA_END+0xe831cc>
    12e8:	00000b3b 	andeq	r0, r0, fp, lsr fp
    12ec:	01110100 	tsteq	r1, r0, lsl #2
    12f0:	0b130e25 	bleq	4c4b8c <__DATA_END+0x4c3260>
    12f4:	0e1b0e03 	cdpeq	14, 1, cr0, cr11, cr3, {0}
    12f8:	01111755 	tsteq	r1, r5, asr r7
    12fc:	00001710 	andeq	r1, r0, r0, lsl r7
    1300:	0b002402 	bleq	a310 <__DATA_END+0x89e4>
    1304:	030b3e0b 	movweq	r3, #48651	; 0xbe0b
    1308:	0300000e 	movweq	r0, #14
    130c:	0e030016 	mcreq	0, 0, r0, cr3, cr6, {0}
    1310:	0b3b0b3a 	bleq	ec4000 <__DATA_END+0xec26d4>
    1314:	00001349 	andeq	r1, r0, r9, asr #6
    1318:	0b002404 	bleq	a330 <__DATA_END+0x8a04>
    131c:	030b3e0b 	movweq	r3, #48651	; 0xbe0b
    1320:	05000008 	streq	r0, [r0, #-8]
    1324:	13490035 	movtne	r0, #36917	; 0x9035
    1328:	26060000 	strcs	r0, [r6], -r0
    132c:	00134900 	andseq	r4, r3, r0, lsl #18
    1330:	01010700 	tsteq	r1, r0, lsl #14
    1334:	13011349 	movwne	r1, #4937	; 0x1349
    1338:	21080000 	mrscs	r0, (UNDEF: 8)
    133c:	2f134900 	svccs	0x00134900
    1340:	0900000b 	stmdbeq	r0, {r0, r1, r3}
    1344:	0b0b0113 	bleq	2c1798 <__DATA_END+0x2bfe6c>
    1348:	053b0b3a 	ldreq	r0, [fp, #-2874]!	; 0xfffff4c6
    134c:	00001301 	andeq	r1, r0, r1, lsl #6
    1350:	03000d0a 	movweq	r0, #3338	; 0xd0a
    1354:	3b0b3a0e 	blcc	2cfb94 <__DATA_END+0x2ce268>
    1358:	38134905 	ldmdacc	r3, {r0, r2, r8, fp, lr}
    135c:	0b00000b 	bleq	1390 <_free_r+0x60>
    1360:	0803000d 	stmdaeq	r3, {r0, r2, r3}
    1364:	053b0b3a 	ldreq	r0, [fp, #-2874]!	; 0xfffff4c6
    1368:	0b381349 	bleq	e06094 <__DATA_END+0xe04768>
    136c:	160c0000 	strne	r0, [ip], -r0
    1370:	3a0e0300 	bcc	381f78 <__DATA_END+0x38064c>
    1374:	49053b0b 	stmdbmi	r5, {r0, r1, r3, r8, r9, fp, ip, sp}
    1378:	0d000013 	stceq	0, cr0, [r0, #-76]	; 0xffffffb4
    137c:	050b0113 	streq	r0, [fp, #-275]	; 0xfffffeed
    1380:	053b0b3a 	ldreq	r0, [fp, #-2874]!	; 0xfffff4c6
    1384:	00001301 	andeq	r1, r0, r1, lsl #6
    1388:	03000d0e 	movweq	r0, #3342	; 0xd0e
    138c:	3b0b3a0e 	blcc	2cfbcc <__DATA_END+0x2ce2a0>
    1390:	38134905 	ldmdacc	r3, {r0, r2, r8, fp, lr}
    1394:	0f000005 	svceq	0x00000005
    1398:	13490021 	movtne	r0, #36897	; 0x9021
    139c:	0000052f 	andeq	r0, r0, pc, lsr #10
    13a0:	3f002e10 	svccc	0x00002e10
    13a4:	3a0e0319 	bcc	382010 <__DATA_END+0x3806e4>
    13a8:	270b3b0b 	strcs	r3, [fp, -fp, lsl #22]
    13ac:	12011119 	andne	r1, r1, #1073741830	; 0x40000006
    13b0:	97184006 	ldrls	r4, [r8, -r6]
    13b4:	00001942 	andeq	r1, r0, r2, asr #18
    13b8:	3f012e11 	svccc	0x00012e11
    13bc:	3a0e0319 	bcc	382028 <__DATA_END+0x3806fc>
    13c0:	270b3b0b 	strcs	r3, [fp, -fp, lsl #22]
    13c4:	12011119 	andne	r1, r1, #1073741830	; 0x40000006
    13c8:	97184006 	ldrls	r4, [r8, -r6]
    13cc:	00001942 	andeq	r1, r0, r2, asr #18
    13d0:	03000512 	movweq	r0, #1298	; 0x512
    13d4:	3b0b3a08 	blcc	2cfbfc <__DATA_END+0x2ce2d0>
    13d8:	0213490b 	andseq	r4, r3, #180224	; 0x2c000
    13dc:	00000017 	andeq	r0, r0, r7, lsl r0
    13e0:	25011101 	strcs	r1, [r1, #-257]	; 0xfffffeff
    13e4:	030b130e 	movweq	r1, #45838	; 0xb30e
    13e8:	550e1b0e 	strpl	r1, [lr, #-2830]	; 0xfffff4f2
    13ec:	10011117 	andne	r1, r1, r7, lsl r1
    13f0:	02000017 	andeq	r0, r0, #23
    13f4:	0b0b0024 	bleq	2c148c <__DATA_END+0x2bfb60>
    13f8:	0e030b3e 	vmoveq.16	d3[0], r0
    13fc:	24030000 	strcs	r0, [r3], #-0
    1400:	3e0b0b00 	vmlacc.f64	d0, d11, d0
    1404:	0008030b 	andeq	r0, r8, fp, lsl #6
    1408:	01010400 	tsteq	r1, r0, lsl #8
    140c:	13011349 	movwne	r1, #4937	; 0x1349
    1410:	21050000 	mrscs	r0, (UNDEF: 5)
    1414:	2f134900 	svccs	0x00134900
    1418:	0600000b 	streq	r0, [r0], -fp
    141c:	0b0b0113 	bleq	2c1870 <__DATA_END+0x2bff44>
    1420:	0b3b0b3a 	bleq	ec4110 <__DATA_END+0xec27e4>
    1424:	00001301 	andeq	r1, r0, r1, lsl #6
    1428:	03000d07 	movweq	r0, #3335	; 0xd07
    142c:	3b0b3a0e 	blcc	2cfc6c <__DATA_END+0x2ce340>
    1430:	3813490b 	ldmdacc	r3, {r0, r1, r3, r8, fp, lr}
    1434:	0800000b 	stmdaeq	r0, {r0, r1, r3}
    1438:	0803000d 	stmdaeq	r3, {r0, r2, r3}
    143c:	0b3b0b3a 	bleq	ec412c <__DATA_END+0xec2800>
    1440:	0b381349 	bleq	e0616c <__DATA_END+0xe04840>
    1444:	16090000 	strne	r0, [r9], -r0
    1448:	3a0e0300 	bcc	382050 <__DATA_END+0x380724>
    144c:	490b3b0b 	stmdbmi	fp, {r0, r1, r3, r8, r9, fp, ip, sp}
    1450:	0a000013 	beq	14a4 <__register_exitproc+0x18>
    1454:	193f012e 	ldmdbne	pc!, {r1, r2, r3, r5, r8}	; <UNPREDICTABLE>
    1458:	0b3a0e03 	bleq	e84c6c <__DATA_END+0xe83340>
    145c:	13490b3b 	movtne	r0, #39739	; 0x9b3b
    1460:	06120111 			; <UNDEFINED> instruction: 0x06120111
    1464:	42971840 	addsmi	r1, r7, #64, 16	; 0x400000
    1468:	00130119 	andseq	r0, r3, r9, lsl r1
    146c:	00340b00 	eorseq	r0, r4, r0, lsl #22
    1470:	0b3a0803 	bleq	e83484 <__DATA_END+0xe81b58>
    1474:	13490b3b 	movtne	r0, #39739	; 0x9b3b
    1478:	340c0000 	strcc	r0, [ip], #-0
    147c:	3a0e0300 	bcc	382084 <__DATA_END+0x380758>
    1480:	490b3b0b 	stmdbmi	fp, {r0, r1, r3, r8, r9, fp, ip, sp}
    1484:	0d000013 	stceq	0, cr0, [r0, #-76]	; 0xffffffb4
    1488:	01018289 	smlabbeq	r1, r9, r2, r8
    148c:	13310111 	teqne	r1, #1073741828	; 0x40000004
    1490:	00001301 	andeq	r1, r0, r1, lsl #6
    1494:	01828a0e 	orreq	r8, r2, lr, lsl #20
    1498:	91180200 	tstls	r8, r0, lsl #4
    149c:	00001842 	andeq	r1, r0, r2, asr #16
    14a0:	0182890f 	orreq	r8, r2, pc, lsl #18
    14a4:	31011101 	tstcc	r1, r1, lsl #2
    14a8:	10000013 	andne	r0, r0, r3, lsl r0
    14ac:	0e030034 	mcreq	0, 0, r0, cr3, cr4, {1}
    14b0:	0b3b0b3a 	bleq	ec41a0 <__DATA_END+0xec2874>
    14b4:	193f1349 	ldmdbne	pc!, {r0, r3, r6, r8, r9, ip}	; <UNPREDICTABLE>
    14b8:	0000193c 	andeq	r1, r0, ip, lsr r9
    14bc:	3f002e11 	svccc	0x00002e11
    14c0:	6e193c19 	mrcvs	12, 0, r3, cr9, cr9, {0}
    14c4:	3a0e030e 	bcc	382104 <__DATA_END+0x3807d8>
    14c8:	000b3b0b 	andeq	r3, fp, fp, lsl #22
    14cc:	11010000 	mrsne	r0, (UNDEF: 1)
    14d0:	11061000 	mrsne	r1, (UNDEF: 6)
    14d4:	03011201 	movweq	r1, #4609	; 0x1201
    14d8:	25081b08 	strcs	r1, [r8, #-2824]	; 0xfffff4f8
    14dc:	00051308 	andeq	r1, r5, r8, lsl #6
	...

Disassembly of section .debug_loc:

00000000 <.debug_loc>:
	...
   8:	000c0006 	andeq	r0, ip, r6
   c:	9f007a12 	svcls	0x00007a12
	...
  18:	00500001 	subseq	r0, r0, r1
  1c:	00000000 	andeq	r0, r0, r0
  20:	01000000 	mrseq	r0, (UNDEF: 0)
  24:	00005000 	andeq	r5, r0, r0
  28:	00000000 	andeq	r0, r0, r0
  2c:	00010000 	andeq	r0, r1, r0
  30:	00000050 	andeq	r0, r0, r0, asr r0
  34:	00000000 	andeq	r0, r0, r0
  38:	50000100 	andpl	r0, r0, r0, lsl #2
	...
  44:	00500001 	subseq	r0, r0, r1
  48:	00000000 	andeq	r0, r0, r0
  4c:	01000000 	mrseq	r0, (UNDEF: 0)
  50:	00005000 	andeq	r5, r0, r0
  54:	00000000 	andeq	r0, r0, r0
  58:	00010000 	andeq	r0, r1, r0
  5c:	00000050 	andeq	r0, r0, r0, asr r0
  60:	00000000 	andeq	r0, r0, r0
  64:	50000100 	andpl	r0, r0, r0, lsl #2
	...
  70:	00500001 	subseq	r0, r0, r1
	...
  80:	01000000 	mrseq	r0, (UNDEF: 0)
  84:	00005100 	andeq	r5, r0, r0, lsl #2
  88:	00000000 	andeq	r0, r0, r0
  8c:	00010000 	andeq	r0, r1, r0
  90:	00000051 	andeq	r0, r0, r1, asr r0
  94:	00000000 	andeq	r0, r0, r0
  98:	71000a00 	tstvc	r0, r0, lsl #20
  9c:	081a4f00 	ldmdaeq	sl, {r8, r9, sl, fp, lr}
  a0:	01231aff 	strdeq	r1, [r3, -pc]!
  a4:	0000009f 	muleq	r0, pc, r0	; <UNPREDICTABLE>
  a8:	00000000 	andeq	r0, r0, r0
  ac:	73000a00 	movwvc	r0, #2560	; 0xa00
  b0:	081a4f00 	ldmdaeq	sl, {r8, r9, sl, fp, lr}
  b4:	18231aff 	stmdane	r3!, {r0, r1, r2, r3, r4, r5, r6, r7, r9, fp, ip}
  b8:	0000009f 	muleq	r0, pc, r0	; <UNPREDICTABLE>
  bc:	00000000 	andeq	r0, r0, r0
  c0:	31000c00 	tstcc	r0, r0, lsl #24
  c4:	1a3e0073 	bne	f80298 <__DATA_END+0xf7e96c>
  c8:	311aff08 	tstcc	sl, r8, lsl #30
  cc:	009f2425 	addseq	r2, pc, r5, lsr #8
  d0:	00000000 	andeq	r0, r0, r0
  d4:	50000000 	andpl	r0, r0, r0
  d8:	5a000005 	bpl	f4 <M_VECTOR_RAM_SIZE+0xf4>
  dc:	07000005 	streq	r0, [r0, -r5]
  e0:	20007300 	andcs	r7, r0, r0, lsl #6
  e4:	9f220071 	svcls	0x00220071
  e8:	0000055a 	andeq	r0, r0, sl, asr r5
  ec:	0000055c 	andeq	r0, r0, ip, asr r5
  f0:	00710006 	rsbseq	r0, r1, r6
  f4:	9f1c0073 	svcls	0x001c0073
  f8:	0000055c 	andeq	r0, r0, ip, asr r5
  fc:	0000055e 	andeq	r0, r0, lr, asr r5
 100:	00730007 	rsbseq	r0, r3, r7
 104:	22007120 	andcs	r7, r0, #32, 2
 108:	0005669f 	muleq	r5, pc, r6	; <UNPREDICTABLE>
 10c:	00057000 	andeq	r7, r5, r0
 110:	73000700 	movwvc	r0, #1792	; 0x700
 114:	00712000 	rsbseq	r2, r1, r0
 118:	05709f22 	ldrbeq	r9, [r0, #-3874]!	; 0xfffff0de
 11c:	05720000 	ldrbeq	r0, [r2, #-0]!
 120:	00060000 	andeq	r0, r6, r0
 124:	00730071 	rsbseq	r0, r3, r1, ror r0
 128:	05729f1c 	ldrbeq	r9, [r2, #-3868]!	; 0xfffff0e4
 12c:	05980000 	ldreq	r0, [r8]
 130:	00070000 	andeq	r0, r7, r0
 134:	71200073 	teqvc	r0, r3, ror r0
 138:	009f2200 	addseq	r2, pc, r0, lsl #4
 13c:	00000000 	andeq	r0, r0, r0
 140:	98000000 	stmdals	r0, {}	; <UNPREDICTABLE>
 144:	c2000005 	andgt	r0, r0, #5
 148:	01000005 	tsteq	r0, r5
 14c:	05c25000 	strbeq	r5, [r2]
 150:	05c40000 	strbeq	r0, [r4]
 154:	00040000 	andeq	r0, r4, r0
 158:	9f5001f3 	svcls	0x005001f3
 15c:	000005c4 	andeq	r0, r0, r4, asr #11
 160:	000005c6 	andeq	r0, r0, r6, asr #11
 164:	c6500001 	ldrbgt	r0, [r0], -r1
 168:	ca000005 	bgt	184 <M_VECTOR_RAM_SIZE+0x184>
 16c:	04000005 	streq	r0, [r0], #-5
 170:	5001f300 	andpl	pc, r1, r0, lsl #6
 174:	0000009f 	muleq	r0, pc, r0	; <UNPREDICTABLE>
	...
 184:	50000100 	andpl	r0, r0, r0, lsl #2
	...
 190:	01f30004 	mvnseq	r0, r4
 194:	00009f50 	andeq	r9, r0, r0, asr pc
 198:	00000000 	andeq	r0, r0, r0
 19c:	05ca0000 	strbeq	r0, [sl]
 1a0:	05d00000 	ldrbeq	r0, [r0]
 1a4:	00010000 	andeq	r0, r1, r0
 1a8:	0005d050 	andeq	sp, r5, r0, asr r0
 1ac:	0005f800 	andeq	pc, r5, r0, lsl #16
 1b0:	53000100 	movwpl	r0, #256	; 0x100
	...
 1bc:	000005e0 	andeq	r0, r0, r0, ror #11
 1c0:	000005f6 	strdeq	r0, [r0], -r6
 1c4:	00500001 	subseq	r0, r0, r1
 1c8:	00000000 	andeq	r0, r0, r0
 1cc:	f8000000 			; <UNDEFINED> instruction: 0xf8000000
 1d0:	12000005 	andne	r0, r0, #5
 1d4:	01000006 	tsteq	r0, r6
 1d8:	06125000 	ldreq	r5, [r2], -r0
 1dc:	06140000 	ldreq	r0, [r4], -r0
 1e0:	00040000 	andeq	r0, r4, r0
 1e4:	9f5001f3 	svcls	0x005001f3
	...
 1f8:	00500001 	subseq	r0, r0, r1
 1fc:	00000000 	andeq	r0, r0, r0
 200:	04000000 	streq	r0, [r0], #-0
 204:	5001f300 	andpl	pc, r1, r0, lsl #6
 208:	0000009f 	muleq	r0, pc, r0	; <UNPREDICTABLE>
	...
 218:	50000100 	andpl	r0, r0, r0, lsl #2
	...
 224:	00540001 	subseq	r0, r4, r1
 228:	00000000 	andeq	r0, r0, r0
 22c:	04000000 	streq	r0, [r0], #-0
 230:	5001f300 	andpl	pc, r1, r0, lsl #6
 234:	0000009f 	muleq	r0, pc, r0	; <UNPREDICTABLE>
 238:	00000000 	andeq	r0, r0, r0
 23c:	0006a800 	andeq	sl, r6, r0, lsl #16
 240:	0006e300 	andeq	lr, r6, r0, lsl #6
 244:	50000100 	andpl	r0, r0, r0, lsl #2
 248:	000006e3 	andeq	r0, r0, r3, ror #13
 24c:	0000072c 	andeq	r0, r0, ip, lsr #14
 250:	01f30004 	mvnseq	r0, r4
 254:	00009f50 	andeq	r9, r0, r0, asr pc
 258:	00000000 	andeq	r0, r0, r0
 25c:	06a80000 	strteq	r0, [r8], r0
 260:	06b20000 	ldrteq	r0, [r2], r0
 264:	00010000 	andeq	r0, r1, r0
 268:	0006b251 	andeq	fp, r6, r1, asr r2
 26c:	0006be00 	andeq	fp, r6, r0, lsl #28
 270:	03000500 	movweq	r0, #1280	; 0x500
 274:	1ffff224 	svcne	0x00fff224
 278:	000006be 			; <UNDEFINED> instruction: 0x000006be
 27c:	0000072c 	andeq	r0, r0, ip, lsr #14
 280:	01f30004 	mvnseq	r0, r4
 284:	00009f51 	andeq	r9, r0, r1, asr pc
 288:	00000000 	andeq	r0, r0, r0
 28c:	06f40000 	ldrbteq	r0, [r4], r0
 290:	06f60000 	ldrbteq	r0, [r6], r0
 294:	00010000 	andeq	r0, r1, r0
 298:	00000053 	andeq	r0, r0, r3, asr r0
	...
 2a8:	50000100 	andpl	r0, r0, r0, lsl #2
	...
 2b4:	01f30004 	mvnseq	r0, r4
 2b8:	00009f50 	andeq	r9, r0, r0, asr pc
 2bc:	00000000 	andeq	r0, r0, r0
 2c0:	082c0000 	stmdaeq	ip!, {}	; <UNPREDICTABLE>
 2c4:	08380000 	ldmdaeq	r8!, {}	; <UNPREDICTABLE>
 2c8:	00010000 	andeq	r0, r1, r0
 2cc:	00083850 	andeq	r3, r8, r0, asr r8
 2d0:	00086400 	andeq	r6, r8, r0, lsl #8
 2d4:	f3000400 	vshl.u8	d0, d0, d0
 2d8:	009f5001 	addseq	r5, pc, r1
 2dc:	00000000 	andeq	r0, r0, r0
 2e0:	64000000 	strvs	r0, [r0], #-0
 2e4:	77000008 	strvc	r0, [r0, -r8]
 2e8:	01000008 	tsteq	r0, r8
 2ec:	08775000 	ldmdaeq	r7!, {ip, lr}^
 2f0:	08ec0000 	stmiaeq	ip!, {}^	; <UNPREDICTABLE>
 2f4:	00040000 	andeq	r0, r4, r0
 2f8:	9f5001f3 	svcls	0x005001f3
	...
 304:	00000864 	andeq	r0, r0, r4, ror #16
 308:	00000877 	andeq	r0, r0, r7, ror r8
 30c:	77510001 	ldrbvc	r0, [r1, -r1]
 310:	ec000008 	stc	0, cr0, [r0], {8}
 314:	04000008 	streq	r0, [r0], #-8
 318:	5101f300 	mrspl	pc, SP_irq	; <UNPREDICTABLE>
 31c:	0000009f 	muleq	r0, pc, r0	; <UNPREDICTABLE>
 320:	00000000 	andeq	r0, r0, r0
 324:	0008a400 	andeq	sl, r8, r0, lsl #8
 328:	0008ac00 	andeq	sl, r8, r0, lsl #24
 32c:	77000500 	strvc	r0, [r0, -r0, lsl #10]
 330:	9f253500 	svcls	0x00253500
 334:	000008ac 	andeq	r0, r0, ip, lsr #17
 338:	000008ca 	andeq	r0, r0, sl, asr #17
 33c:	0077000a 	rsbseq	r0, r7, sl
 340:	00762535 	rsbseq	r2, r6, r5, lsr r5
 344:	9f03231c 	svcls	0x0003231c
 348:	000008ca 	andeq	r0, r0, sl, asr #17
 34c:	000008cc 	andeq	r0, r0, ip, asr #17
 350:	0077000a 	rsbseq	r0, r7, sl
 354:	00762535 	rsbseq	r2, r6, r5, lsr r5
 358:	9f02231c 	svcls	0x0002231c
 35c:	000008ce 	andeq	r0, r0, lr, asr #17
 360:	000008da 	ldrdeq	r0, [r0], -sl
 364:	0077000a 	rsbseq	r0, r7, sl
 368:	00762535 	rsbseq	r2, r6, r5, lsr r5
 36c:	9f03231c 	svcls	0x0003231c
	...
 378:	00000888 	andeq	r0, r0, r8, lsl #17
 37c:	00000894 	muleq	r0, r4, r8
 380:	94530001 	ldrbls	r0, [r3], #-1
 384:	96000008 	strls	r0, [r0], -r8
 388:	04000008 	streq	r0, [r0], #-8
 38c:	00c17200 	sbceq	r7, r1, r0, lsl #4
 390:	0008969f 	muleq	r8, pc, r6	; <UNPREDICTABLE>
 394:	00089800 	andeq	r9, r8, r0, lsl #16
 398:	53000100 	movwpl	r0, #256	; 0x100
 39c:	00000898 	muleq	r0, r8, r8
 3a0:	000008a2 	andeq	r0, r0, r2, lsr #17
 3a4:	30730003 	rsbscc	r0, r3, r3
 3a8:	0008a29f 	muleq	r8, pc, r2	; <UNPREDICTABLE>
 3ac:	0008a400 	andeq	sl, r8, r0, lsl #8
 3b0:	75000200 	strvc	r0, [r0, #-512]	; 0xfffffe00
 3b4:	0008a400 	andeq	sl, r8, r0, lsl #8
 3b8:	0008da00 	andeq	sp, r8, r0, lsl #20
 3bc:	57000100 	strpl	r0, [r0, -r0, lsl #2]
	...
 3c8:	00000878 	andeq	r0, r0, r8, ror r8
 3cc:	0000087c 	andeq	r0, r0, ip, ror r8
 3d0:	007d0002 	rsbseq	r0, sp, r2
 3d4:	0000087c 	andeq	r0, r0, ip, ror r8
 3d8:	000008dc 	ldrdeq	r0, [r0], -ip
 3dc:	00550001 	subseq	r0, r5, r1
 3e0:	00000000 	andeq	r0, r0, r0
 3e4:	a4000000 	strge	r0, [r0], #-0
 3e8:	ac000008 	stcge	0, cr0, [r0], {8}
 3ec:	02000008 	andeq	r0, r0, #8
 3f0:	ac9f3000 	ldcge	0, cr3, [pc], {0}
 3f4:	ca000008 	bgt	41c <_mainCRTStartup+0xc>
 3f8:	03000008 	movweq	r0, #8
 3fc:	9f7d7600 	svcls	0x007d7600
 400:	000008ca 	andeq	r0, r0, sl, asr #17
 404:	000008cc 	andeq	r0, r0, ip, asr #17
 408:	7e760003 	cdpvc	0, 7, cr0, cr6, cr3, {0}
 40c:	0008ce9f 	muleq	r8, pc, lr	; <UNPREDICTABLE>
 410:	0008da00 	andeq	sp, r8, r0, lsl #20
 414:	76000300 	strvc	r0, [r0], -r0, lsl #6
 418:	00009f7d 	andeq	r9, r0, sp, ror pc
 41c:	00000000 	andeq	r0, r0, r0
 420:	08ec0000 	stmiaeq	ip!, {}^	; <UNPREDICTABLE>
 424:	08f80000 	ldmeq	r8!, {}^	; <UNPREDICTABLE>
 428:	00010000 	andeq	r0, r1, r0
 42c:	0008f850 	andeq	pc, r8, r0, asr r8	; <UNPREDICTABLE>
 430:	00090000 	andeq	r0, r9, r0
 434:	03000500 	movweq	r0, #1280	; 0x500
 438:	1ffff22c 	svcne	0x00fff22c
 43c:	00000900 	andeq	r0, r0, r0, lsl #18
 440:	00000938 	andeq	r0, r0, r8, lsr r9
 444:	01f30004 	mvnseq	r0, r4
 448:	00009f50 	andeq	r9, r0, r0, asr pc
 44c:	00000000 	andeq	r0, r0, r0
 450:	08ec0000 	stmiaeq	ip!, {}^	; <UNPREDICTABLE>
 454:	090c0000 	stmdbeq	ip, {}	; <UNPREDICTABLE>
 458:	00010000 	andeq	r0, r1, r0
 45c:	00090c51 	andeq	r0, r9, r1, asr ip
 460:	00091000 	andeq	r1, r9, r0
 464:	73000200 	movwvc	r0, #512	; 0x200
 468:	00091004 	andeq	r1, r9, r4
 46c:	00093800 	andeq	r3, r9, r0, lsl #16
 470:	f3000400 	vshl.u8	d0, d0, d0
 474:	009f5101 	addseq	r5, pc, r1, lsl #2
 478:	00000000 	andeq	r0, r0, r0
 47c:	38000000 	stmdacc	r0, {}	; <UNPREDICTABLE>
 480:	44000009 	strmi	r0, [r0], #-9
 484:	01000009 	tsteq	r0, r9
 488:	09445000 	stmdbeq	r4, {ip, lr}^
 48c:	094c0000 	stmdbeq	ip, {}^	; <UNPREDICTABLE>
 490:	00050000 	andeq	r0, r5, r0
 494:	fff23003 			; <UNDEFINED> instruction: 0xfff23003
 498:	00094c1f 	andeq	r4, r9, pc, lsl ip
 49c:	00098400 	andeq	r8, r9, r0, lsl #8
 4a0:	f3000400 	vshl.u8	d0, d0, d0
 4a4:	009f5001 	addseq	r5, pc, r1
 4a8:	00000000 	andeq	r0, r0, r0
 4ac:	38000000 	stmdacc	r0, {}	; <UNPREDICTABLE>
 4b0:	58000009 	stmdapl	r0, {r0, r3}
 4b4:	01000009 	tsteq	r0, r9
 4b8:	09585100 	ldmdbeq	r8, {r8, ip, lr}^
 4bc:	095c0000 	ldmdbeq	ip, {}^	; <UNPREDICTABLE>
 4c0:	00020000 	andeq	r0, r2, r0
 4c4:	095c1473 	ldmdbeq	ip, {r0, r1, r4, r5, r6, sl, ip}^
 4c8:	09840000 	stmibeq	r4, {}	; <UNPREDICTABLE>
 4cc:	00040000 	andeq	r0, r4, r0
 4d0:	9f5101f3 	svcls	0x005101f3
	...
 4dc:	000009e4 	andeq	r0, r0, r4, ror #19
 4e0:	000009f0 	strdeq	r0, [r0], -r0	; <UNPREDICTABLE>
 4e4:	f0500001 			; <UNDEFINED> instruction: 0xf0500001
 4e8:	36000009 	strcc	r0, [r0], -r9
 4ec:	0100000a 	tsteq	r0, sl
 4f0:	0a365400 	beq	d954f8 <__DATA_END+0xd93bcc>
 4f4:	0a3e0000 	beq	f804fc <__DATA_END+0xf7ebd0>
 4f8:	00010000 	andeq	r0, r1, r0
 4fc:	000a3e50 	andeq	r3, sl, r0, asr lr
 500:	000a6400 	andeq	r6, sl, r0, lsl #8
 504:	54000100 	strpl	r0, [r0], #-256	; 0xffffff00
 508:	00000a64 	andeq	r0, r0, r4, ror #20
 50c:	00000a6c 	andeq	r0, r0, ip, ror #20
 510:	6c500001 	mrrcvs	0, 0, r0, r0, cr1	; <UNPREDICTABLE>
 514:	9e00000a 	cdpls	0, 0, cr0, cr0, cr10, {0}
 518:	0100000a 	tsteq	r0, sl
 51c:	0a9e5400 	beq	fe795524 <__StackTop+0xde792524>
 520:	0ae40000 	beq	ff900528 <__StackTop+0xdf8fd528>
 524:	00040000 	andeq	r0, r4, r0
 528:	9f5001f3 	svcls	0x005001f3
	...
 534:	000009e4 	andeq	r0, r0, r4, ror #19
 538:	000009f4 	strdeq	r0, [r0], -r4
 53c:	f4510001 			; <UNDEFINED> instruction: 0xf4510001
 540:	36000009 	strcc	r0, [r0], -r9
 544:	0400000a 	streq	r0, [r0], #-10
 548:	5101f300 	mrspl	pc, SP_irq	; <UNPREDICTABLE>
 54c:	000a369f 	muleq	sl, pc, r6	; <UNPREDICTABLE>
 550:	000a4600 	andeq	r4, sl, r0, lsl #12
 554:	51000100 	mrspl	r0, (UNDEF: 16)
 558:	00000a46 	andeq	r0, r0, r6, asr #20
 55c:	00000a64 	andeq	r0, r0, r4, ror #20
 560:	01f30004 	mvnseq	r0, r4
 564:	0a649f51 	beq	19282b0 <__DATA_END+0x1926984>
 568:	0a740000 	beq	1d00570 <__DATA_END+0x1cfec44>
 56c:	00010000 	andeq	r0, r1, r0
 570:	000a7451 	andeq	r7, sl, r1, asr r4
 574:	000ae400 	andeq	lr, sl, r0, lsl #8
 578:	f3000400 	vshl.u8	d0, d0, d0
 57c:	009f5101 	addseq	r5, pc, r1, lsl #2
	...
 58c:	08000000 	stmdaeq	r0, {}	; <UNPREDICTABLE>
 590:	91007400 	tstls	r0, r0, lsl #8
 594:	1c060194 	stfnes	f0, [r6], {148}	; 0x94
 598:	0000009f 	muleq	r0, pc, r0	; <UNPREDICTABLE>
 59c:	00000000 	andeq	r0, r0, r0
 5a0:	91000900 	tstls	r0, r0, lsl #18
 5a4:	20060194 	mulcs	r6, r4, r1
 5a8:	9f220074 	svcls	0x00220074
	...
 5bc:	00530001 	subseq	r0, r3, r1
 5c0:	00000000 	andeq	r0, r0, r0
 5c4:	01000000 	mrseq	r0, (UNDEF: 0)
 5c8:	00005300 	andeq	r5, r0, r0, lsl #6
 5cc:	00000000 	andeq	r0, r0, r0
 5d0:	0b1a0000 	bleq	6805d8 <__DATA_END+0x67ecac>
 5d4:	0b1e0000 	bleq	7805dc <__DATA_END+0x77ecb0>
 5d8:	00080000 	andeq	r0, r8, r0
 5dc:	94910074 	ldrls	r0, [r1], #116	; 0x74
 5e0:	9f1c0601 	svcls	0x001c0601
 5e4:	00000b1e 	andeq	r0, r0, lr, lsl fp
 5e8:	00000b3e 	andeq	r0, r0, lr, lsr fp
 5ec:	94910009 	ldrls	r0, [r1], #9
 5f0:	74200601 	strtvc	r0, [r0], #-1537	; 0xfffff9ff
 5f4:	009f2200 	addseq	r2, pc, r0, lsl #4
 5f8:	00000000 	andeq	r0, r0, r0
 5fc:	1c000000 	stcne	0, cr0, [r0], {-0}
 600:	2d00000b 	stccs	0, cr0, [r0, #-44]	; 0xffffffd4
 604:	0100000b 	tsteq	r0, fp
 608:	0b3c5300 	bleq	f15210 <__DATA_END+0xf138e4>
 60c:	0b460000 	bleq	1180614 <__DATA_END+0x117ece8>
 610:	00010000 	andeq	r0, r1, r0
 614:	00000053 	andeq	r0, r0, r3, asr r0
	...
 624:	50000100 	andpl	r0, r0, r0, lsl #2
	...
 638:	9f300002 	svcls	0x00300002
	...
 644:	a20c0009 	andge	r0, ip, #9
 648:	74000186 	strvc	r0, [r0], #-390	; 0xfffffe7a
 64c:	009f1c00 	addseq	r1, pc, r0, lsl #24
 650:	00000000 	andeq	r0, r0, r0
 654:	09000000 	stmdbeq	r0, {}	; <UNPREDICTABLE>
 658:	86a10c00 	strthi	r0, [r1], r0, lsl #24
 65c:	00740001 	rsbseq	r0, r4, r1
 660:	00009f1c 	andeq	r9, r0, ip, lsl pc
 664:	00000000 	andeq	r0, r0, r0
 668:	00090000 	andeq	r0, r9, r0
 66c:	0186a20c 	orreq	sl, r6, ip, lsl #4
 670:	1c007400 	cfstrsne	mvf7, [r0], {-0}
 674:	0000009f 	muleq	r0, pc, r0	; <UNPREDICTABLE>
 678:	00000000 	andeq	r0, r0, r0
 67c:	0c000900 	stceq	9, cr0, [r0], {-0}
 680:	000186a1 	andeq	r8, r1, r1, lsr #13
 684:	9f1c0074 	svcls	0x001c0074
	...
 698:	b8910003 	ldmlt	r1, {r0, r1}
 69c:	00000001 	andeq	r0, r0, r1
 6a0:	00000000 	andeq	r0, r0, r0
 6a4:	56000100 	strpl	r0, [r0], -r0, lsl #2
	...
 6b0:	98910007 	ldmls	r1, {r0, r1, r2}
 6b4:	1c310601 	ldcne	6, cr0, [r1], #-4
 6b8:	0000009f 	muleq	r0, pc, r0	; <UNPREDICTABLE>
	...
 6c8:	50000100 	andpl	r0, r0, r0, lsl #2
	...
 6d4:	00500001 	subseq	r0, r0, r1
 6d8:	00000000 	andeq	r0, r0, r0
 6dc:	01000000 	mrseq	r0, (UNDEF: 0)
 6e0:	00005000 	andeq	r5, r0, r0
	...
 6f0:	00010000 	andeq	r0, r1, r0
 6f4:	00000054 	andeq	r0, r0, r4, asr r0
 6f8:	00000000 	andeq	r0, r0, r0
 6fc:	52000100 	andpl	r0, r0, #0, 2
	...
 710:	00500001 	subseq	r0, r0, r1
 714:	00000000 	andeq	r0, r0, r0
 718:	05000000 	streq	r0, [r0, #-0]
 71c:	74007300 	strvc	r7, [r0], #-768	; 0xfffffd00
 720:	00002200 	andeq	r2, r0, r0, lsl #4
 724:	00000000 	andeq	r0, r0, r0
 728:	00010000 	andeq	r0, r1, r0
 72c:	00000050 	andeq	r0, r0, r0, asr r0
	...
 73c:	30000200 	andcc	r0, r0, r0, lsl #4
 740:	0000009f 	muleq	r0, pc, r0	; <UNPREDICTABLE>
 744:	00000000 	andeq	r0, r0, r0
 748:	54000100 	strpl	r0, [r0], #-256	; 0xffffff00
	...
 754:	01740003 	cmneq	r4, r3
 758:	0000009f 	muleq	r0, pc, r0	; <UNPREDICTABLE>
 75c:	00000000 	andeq	r0, r0, r0
 760:	54000100 	strpl	r0, [r0], #-256	; 0xffffff00
	...
 76c:	00500001 	subseq	r0, r0, r1
	...
 77c:	01000000 	mrseq	r0, (UNDEF: 0)
 780:	00005500 	andeq	r5, r0, r0, lsl #10
	...
 790:	00020000 	andeq	r0, r2, r0
 794:	00009f30 	andeq	r9, r0, r0, lsr pc
 798:	00000000 	andeq	r0, r0, r0
 79c:	00030000 	andeq	r0, r3, r0
 7a0:	009f0173 	addseq	r0, pc, r3, ror r1	; <UNPREDICTABLE>
 7a4:	00000000 	andeq	r0, r0, r0
 7a8:	01000000 	mrseq	r0, (UNDEF: 0)
 7ac:	00005300 	andeq	r5, r0, r0, lsl #6
	...
 7bc:	00030000 	andeq	r0, r3, r0
 7c0:	0001b891 	muleq	r1, r1, r8
 7c4:	00000000 	andeq	r0, r0, r0
 7c8:	01000000 	mrseq	r0, (UNDEF: 0)
 7cc:	00005500 	andeq	r5, r0, r0, lsl #10
 7d0:	00000000 	andeq	r0, r0, r0
 7d4:	00070000 	andeq	r0, r7, r0
 7d8:	06019891 			; <UNDEFINED> instruction: 0x06019891
 7dc:	009f1c31 	addseq	r1, pc, r1, lsr ip	; <UNPREDICTABLE>
	...
 7ec:	01000000 	mrseq	r0, (UNDEF: 0)
 7f0:	00005000 	andeq	r5, r0, r0
 7f4:	00000000 	andeq	r0, r0, r0
 7f8:	00010000 	andeq	r0, r1, r0
 7fc:	00000050 	andeq	r0, r0, r0, asr r0
	...
 80c:	54000100 	strpl	r0, [r0], #-256	; 0xffffff00
	...
 818:	01740003 	cmneq	r4, r3
 81c:	0000009f 	muleq	r0, pc, r0	; <UNPREDICTABLE>
 820:	00000000 	andeq	r0, r0, r0
 824:	57000100 	strpl	r0, [r0, -r0, lsl #2]
	...
 830:	00540001 	subseq	r0, r4, r1
 834:	00000000 	andeq	r0, r0, r0
 838:	01000000 	mrseq	r0, (UNDEF: 0)
 83c:	00005700 	andeq	r5, r0, r0, lsl #14
	...
 84c:	00020000 	andeq	r0, r2, r0
 850:	00009f30 	andeq	r9, r0, r0, lsr pc
 854:	00000000 	andeq	r0, r0, r0
 858:	00030000 	andeq	r0, r3, r0
 85c:	009f0174 	addseq	r0, pc, r4, ror r1	; <UNPREDICTABLE>
 860:	00000000 	andeq	r0, r0, r0
 864:	01000000 	mrseq	r0, (UNDEF: 0)
 868:	00005700 	andeq	r5, r0, r0, lsl #14
 86c:	00000000 	andeq	r0, r0, r0
 870:	00030000 	andeq	r0, r3, r0
 874:	009f0174 	addseq	r0, pc, r4, ror r1	; <UNPREDICTABLE>
 878:	00000000 	andeq	r0, r0, r0
 87c:	94000000 	strls	r0, [r0], #-0
 880:	a900000b 	stmdbge	r0, {r0, r1, r3}
 884:	0100000b 	tsteq	r0, fp
 888:	00005100 	andeq	r5, r0, r0, lsl #2
 88c:	00000000 	andeq	r0, r0, r0
 890:	0b580000 	bleq	1600898 <__DATA_END+0x15fef6c>
 894:	0b600000 	bleq	180089c <__DATA_END+0x17fef70>
 898:	00010000 	andeq	r0, r1, r0
 89c:	000b8253 	andeq	r8, fp, r3, asr r2
 8a0:	000b8c00 	andeq	r8, fp, r0, lsl #24
 8a4:	52000100 	andpl	r0, r0, #0, 2
	...
 8b0:	00000bca 	andeq	r0, r0, sl, asr #23
 8b4:	00000bf8 	strdeq	r0, [r0], -r8
 8b8:	00550001 	subseq	r0, r5, r1
 8bc:	00000000 	andeq	r0, r0, r0
 8c0:	12000000 	andne	r0, r0, #0
 8c4:	4200000c 	andmi	r0, r0, #12
 8c8:	0100000c 	tsteq	r0, ip
 8cc:	00005500 	andeq	r5, r0, r0, lsl #10
 8d0:	00000000 	andeq	r0, r0, r0
 8d4:	0dc80000 	stcleq	0, cr0, [r8]
 8d8:	0dda0000 	ldcleq	0, cr0, [sl]
 8dc:	00010000 	andeq	r0, r1, r0
 8e0:	000dda50 	andeq	sp, sp, r0, asr sl
 8e4:	000ddc00 	andeq	sp, sp, r0, lsl #24
 8e8:	f3000400 	vshl.u8	d0, d0, d0
 8ec:	009f5001 	addseq	r5, pc, r1
 8f0:	00000000 	andeq	r0, r0, r0
 8f4:	c8000000 	stmdagt	r0, {}	; <UNPREDICTABLE>
 8f8:	ca00000d 	bgt	934 <startPIT0+0x48>
 8fc:	0200000d 	andeq	r0, r0, #13
 900:	ca9f3000 	bgt	fe7cc908 <__StackTop+0xde7c9908>
 904:	dc00000d 	stcle	0, cr0, [r0], {13}
 908:	0100000d 	tsteq	r0, sp
 90c:	00005300 	andeq	r5, r0, r0, lsl #6
 910:	00000000 	andeq	r0, r0, r0
 914:	0e840000 	cdpeq	0, 8, cr0, cr4, cr0, {0}
 918:	0eb60000 	cdpeq	0, 11, cr0, cr6, cr0, {0}
 91c:	00020000 	andeq	r0, r2, r0
 920:	0eb69f34 	mrceq	15, 5, r9, cr6, cr4, {1}
 924:	0eb80000 	cdpeq	0, 11, cr0, cr8, cr0, {0}
 928:	00030000 	andeq	r0, r3, r0
 92c:	b89f7e76 	ldmlt	pc, {r1, r2, r4, r5, r6, r9, sl, fp, ip, sp, lr}	; <UNPREDICTABLE>
 930:	bc00000e 	stclt	0, cr0, [r0], {14}
 934:	0300000e 	movweq	r0, #14
 938:	9f7f7600 	svcls	0x007f7600
 93c:	00000ebc 			; <UNDEFINED> instruction: 0x00000ebc
 940:	00000f0a 	andeq	r0, r0, sl, lsl #30
 944:	7e760003 	cdpvc	0, 7, cr0, cr6, cr3, {0}
 948:	000f0a9f 	muleq	pc, pc, sl	; <UNPREDICTABLE>
 94c:	000f0e00 	andeq	r0, pc, r0, lsl #28
 950:	76000300 	strvc	r0, [r0], -r0, lsl #6
 954:	00009f7f 	andeq	r9, r0, pc, ror pc
 958:	00000000 	andeq	r0, r0, r0
 95c:	0f2e0000 	svceq	0x002e0000
 960:	0f4e0000 	svceq	0x004e0000
 964:	00010000 	andeq	r0, r1, r0
 968:	000f4e55 	andeq	r4, pc, r5, asr lr	; <UNPREDICTABLE>
 96c:	000f5400 	andeq	r5, pc, r0, lsl #8
 970:	75000300 	strvc	r0, [r0, #-768]	; 0xfffffd00
 974:	0f549f7f 	svceq	0x00549f7f
 978:	0f5c0000 	svceq	0x005c0000
 97c:	00010000 	andeq	r0, r1, r0
 980:	00000055 	andeq	r0, r0, r5, asr r0
	...
 990:	50000100 	andpl	r0, r0, r0, lsl #2
	...
 99c:	01f30004 	mvnseq	r0, r4
 9a0:	00009f50 	andeq	r9, r0, r0, asr pc
	...
 9b0:	00020000 	andeq	r0, r2, r0
 9b4:	00009f30 	andeq	r9, r0, r0, lsr pc
 9b8:	00000000 	andeq	r0, r0, r0
 9bc:	00010000 	andeq	r0, r1, r0
 9c0:	00000053 	andeq	r0, r0, r3, asr r0
	...
 9d0:	50000100 	andpl	r0, r0, r0, lsl #2
	...
 9dc:	01f30004 	mvnseq	r0, r4
 9e0:	00009f50 	andeq	r9, r0, r0, asr pc
	...
 9f0:	00020000 	andeq	r0, r2, r0
 9f4:	00009f30 	andeq	r9, r0, r0, lsr pc
 9f8:	00000000 	andeq	r0, r0, r0
 9fc:	00010000 	andeq	r0, r1, r0
 a00:	00000053 	andeq	r0, r0, r3, asr r0
 a04:	00000000 	andeq	r0, r0, r0
 a08:	000fd000 	andeq	sp, pc, r0
 a0c:	00102c00 	andseq	r2, r0, r0, lsl #24
 a10:	50000100 	andpl	r0, r0, r0, lsl #2
 a14:	0000102c 	andeq	r1, r0, ip, lsr #32
 a18:	000010b2 	strheq	r1, [r0], -r2
 a1c:	01f30004 	mvnseq	r0, r4
 a20:	10b29f50 	adcsne	r9, r2, r0, asr pc
 a24:	10c40000 	sbcne	r0, r4, r0
 a28:	00010000 	andeq	r0, r1, r0
 a2c:	0010c450 	andseq	ip, r0, r0, asr r4
 a30:	00110800 	andseq	r0, r1, r0, lsl #16
 a34:	f3000400 	vshl.u8	d0, d0, d0
 a38:	009f5001 	addseq	r5, pc, r1
	...
 a48:	01000000 	mrseq	r0, (UNDEF: 0)
 a4c:	00005500 	andeq	r5, r0, r0, lsl #10
 a50:	00000000 	andeq	r0, r0, r0
 a54:	11080000 	mrsne	r0, (UNDEF: 8)
 a58:	110c0000 	mrsne	r0, (UNDEF: 12)
 a5c:	00020000 	andeq	r0, r2, r0
 a60:	110c9f30 	tstne	ip, r0, lsr pc
 a64:	111c0000 	tstne	ip, r0
 a68:	00010000 	andeq	r0, r1, r0
 a6c:	00000054 	andeq	r0, r0, r4, asr r0
	...
 a7c:	50000100 	andpl	r0, r0, r0, lsl #2
	...
 a88:	01f30004 	mvnseq	r0, r4
 a8c:	00009f50 	andeq	r9, r0, r0, asr pc
	...
 a9c:	00010000 	andeq	r0, r1, r0
 aa0:	00000051 	andeq	r0, r0, r1, asr r0
 aa4:	00000000 	andeq	r0, r0, r0
 aa8:	57000100 	strpl	r0, [r0, -r0, lsl #2]
	...
 ab4:	7f700003 	svcvc	0x00700003
 ab8:	0000009f 	muleq	r0, pc, r0	; <UNPREDICTABLE>
 abc:	00000000 	andeq	r0, r0, r0
 ac0:	50000100 	andpl	r0, r0, r0, lsl #2
	...
 ad4:	00520001 	subseq	r0, r2, r1
 ad8:	00000000 	andeq	r0, r0, r0
 adc:	04000000 	streq	r0, [r0], #-0
 ae0:	5201f300 	andpl	pc, r1, #0, 6
 ae4:	0000009f 	muleq	r0, pc, r0	; <UNPREDICTABLE>
	...
 af4:	30000200 	andcc	r0, r0, r0, lsl #4
 af8:	0000009f 	muleq	r0, pc, r0	; <UNPREDICTABLE>
 afc:	00000000 	andeq	r0, r0, r0
 b00:	75000600 	strvc	r0, [r0, #-1536]	; 0xfffffa00
 b04:	1c007200 	sfmne	f7, 4, [r0], {-0}
 b08:	0000009f 	muleq	r0, pc, r0	; <UNPREDICTABLE>
 b0c:	00000000 	andeq	r0, r0, r0
 b10:	75000800 	strvc	r0, [r0, #-2048]	; 0xfffff800
 b14:	1c007200 	sfmne	f7, 4, [r0], {-0}
 b18:	009f0123 	addseq	r0, pc, r3, lsr #2
 b1c:	00000000 	andeq	r0, r0, r0
 b20:	06000000 	streq	r0, [r0], -r0
 b24:	72007500 	andvc	r7, r0, #0, 10
 b28:	009f1c00 	addseq	r1, pc, r0, lsl #24
 b2c:	00000000 	andeq	r0, r0, r0
 b30:	02000000 	andeq	r0, r0, #0
 b34:	00649100 	rsbeq	r9, r4, r0, lsl #2
	...
 b44:	01000000 	mrseq	r0, (UNDEF: 0)
 b48:	00005600 	andeq	r5, r0, r0, lsl #12
 b4c:	00000000 	andeq	r0, r0, r0
 b50:	00020000 	andeq	r0, r2, r0
 b54:	00000473 	andeq	r0, r0, r3, ror r4
	...
 b64:	00010000 	andeq	r0, r1, r0
 b68:	00000050 	andeq	r0, r0, r0, asr r0
 b6c:	00000000 	andeq	r0, r0, r0
 b70:	73000200 	movwvc	r0, #512	; 0x200
 b74:	00000004 	andeq	r0, r0, r4
	...
 b84:	0c000600 	stceq	6, cr0, [r0], {-0}
 b88:	40066000 	andmi	r6, r6, r0
 b8c:	0000009f 	muleq	r0, pc, r0	; <UNPREDICTABLE>
	...
 b9c:	0c000600 	stceq	6, cr0, [r0], {-0}
 ba0:	40066000 	andmi	r6, r6, r0
 ba4:	0000009f 	muleq	r0, pc, r0	; <UNPREDICTABLE>
	...
 bb4:	50000100 	andpl	r0, r0, r0, lsl #2
	...
 bc0:	01f30004 	mvnseq	r0, r4
 bc4:	00009f50 	andeq	r9, r0, r0, asr pc
 bc8:	00000000 	andeq	r0, r0, r0
 bcc:	00010000 	andeq	r0, r1, r0
 bd0:	00000056 	andeq	r0, r0, r6, asr r0
 bd4:	00000000 	andeq	r0, r0, r0
 bd8:	56000100 	strpl	r0, [r0], -r0, lsl #2
	...
 bec:	00510001 	subseq	r0, r1, r1
 bf0:	00000000 	andeq	r0, r0, r0
 bf4:	0c000000 	stceq	0, cr0, [r0], {-0}
 bf8:	20007700 	andcs	r7, r0, r0, lsl #14
 bfc:	225101f3 	subscs	r0, r1, #-1073741764	; 0xc000003c
 c00:	225201f3 	subscs	r0, r2, #-1073741764	; 0xc000003c
 c04:	0000009f 	muleq	r0, pc, r0	; <UNPREDICTABLE>
 c08:	00000000 	andeq	r0, r0, r0
 c0c:	f3000b00 	vqrdmulh.s<illegal width 8>	d0, d0, d0
 c10:	01f35201 	mvnseq	r5, r1, lsl #4
 c14:	00772251 	rsbseq	r2, r7, r1, asr r2
 c18:	00009f1c 	andeq	r9, r0, ip, lsl pc
 c1c:	00000000 	andeq	r0, r0, r0
 c20:	000c0000 	andeq	r0, ip, r0
 c24:	f3200077 	vqadd.u32	q0, q0, <illegal reg q11.5>
 c28:	f3225101 	vrhadd.u32	d5, d2, d1
 c2c:	9f225201 	svcls	0x00225201
	...
 c40:	00520001 	subseq	r0, r2, r1
 c44:	00000000 	andeq	r0, r0, r0
 c48:	04000000 	streq	r0, [r0], #-0
 c4c:	5201f300 	andpl	pc, r1, #0, 6
 c50:	0000009f 	muleq	r0, pc, r0	; <UNPREDICTABLE>
	...
 c60:	30000200 	andcc	r0, r0, r0, lsl #4
 c64:	0000009f 	muleq	r0, pc, r0	; <UNPREDICTABLE>
 c68:	00000000 	andeq	r0, r0, r0
 c6c:	77000700 	strvc	r0, [r0, -r0, lsl #14]
 c70:	5201f300 	andpl	pc, r1, #0, 6
 c74:	00009f1c 	andeq	r9, r0, ip, lsl pc
 c78:	00000000 	andeq	r0, r0, r0
 c7c:	00090000 	andeq	r0, r9, r0
 c80:	01f30077 	mvnseq	r0, r7, ror r0
 c84:	01231c52 	teqeq	r3, r2, asr ip
 c88:	0000009f 	muleq	r0, pc, r0	; <UNPREDICTABLE>
 c8c:	00000000 	andeq	r0, r0, r0
 c90:	77000700 	strvc	r0, [r0, -r0, lsl #14]
 c94:	5201f300 	andpl	pc, r1, #0, 6
 c98:	00009f1c 	andeq	r9, r0, ip, lsl pc
	...
 ca8:	00010000 	andeq	r0, r1, r0
 cac:	00000055 	andeq	r0, r0, r5, asr r0
 cb0:	00000000 	andeq	r0, r0, r0
 cb4:	70000200 	andvc	r0, r0, r0, lsl #4
 cb8:	00000004 	andeq	r0, r0, r4
 cbc:	00000000 	andeq	r0, r0, r0
 cc0:	76000500 	strvc	r0, [r0], -r0, lsl #10
 cc4:	9f253800 	svcls	0x00253800
	...
 cd8:	00550001 	subseq	r0, r5, r1
 cdc:	00000000 	andeq	r0, r0, r0
 ce0:	02000000 	andeq	r0, r0, #0
 ce4:	00047000 	andeq	r7, r4, r0
 ce8:	00000000 	andeq	r0, r0, r0
 cec:	01000000 	mrseq	r0, (UNDEF: 0)
 cf0:	00005600 	andeq	r5, r0, r0, lsl #12
	...
 d00:	00010000 	andeq	r0, r1, r0
 d04:	00000053 	andeq	r0, r0, r3, asr r0
 d08:	00000000 	andeq	r0, r0, r0
 d0c:	74000200 	strvc	r0, [r0], #-512	; 0xfffffe00
 d10:	00000004 	andeq	r0, r0, r4
	...
 d20:	0c000600 	stceq	6, cr0, [r0], {-0}
 d24:	40066000 	andmi	r6, r6, r0
 d28:	0000009f 	muleq	r0, pc, r0	; <UNPREDICTABLE>
	...
 d38:	0c000600 	stceq	6, cr0, [r0], {-0}
 d3c:	40066000 	andmi	r6, r6, r0
 d40:	0000009f 	muleq	r0, pc, r0	; <UNPREDICTABLE>
	...
 d50:	0c000600 	stceq	6, cr0, [r0], {-0}
 d54:	40066000 	andmi	r6, r6, r0
 d58:	0000009f 	muleq	r0, pc, r0	; <UNPREDICTABLE>
	...
 d68:	0c000600 	stceq	6, cr0, [r0], {-0}
 d6c:	40066000 	andmi	r6, r6, r0
 d70:	0000009f 	muleq	r0, pc, r0	; <UNPREDICTABLE>
	...
 d80:	0c000600 	stceq	6, cr0, [r0], {-0}
 d84:	40066000 	andmi	r6, r6, r0
 d88:	0000009f 	muleq	r0, pc, r0	; <UNPREDICTABLE>
	...
 d98:	0c000600 	stceq	6, cr0, [r0], {-0}
 d9c:	40066000 	andmi	r6, r6, r0
 da0:	0000009f 	muleq	r0, pc, r0	; <UNPREDICTABLE>
	...
 db0:	09000300 	stmdbeq	r0, {r8, r9}
 db4:	00009fa0 	andeq	r9, r0, r0, lsr #31
	...
 dc4:	00060000 	andeq	r0, r6, r0
 dc8:	0660000c 	strbteq	r0, [r0], -ip
 dcc:	00009f40 	andeq	r9, r0, r0, asr #30
	...
 ddc:	00060000 	andeq	r0, r6, r0
 de0:	0660000c 	strbteq	r0, [r0], -ip
 de4:	00009f40 	andeq	r9, r0, r0, asr #30
	...
 df4:	00010000 	andeq	r0, r1, r0
 df8:	00000052 	andeq	r0, r0, r2, asr r0
 dfc:	00000000 	andeq	r0, r0, r0
 e00:	74000200 	strvc	r0, [r0], #-512	; 0xfffffe00
 e04:	00000004 	andeq	r0, r0, r4
 e08:	00000000 	andeq	r0, r0, r0
 e0c:	76000500 	strvc	r0, [r0], -r0, lsl #10
 e10:	9f253800 	svcls	0x00253800
	...
 e24:	000c0006 	andeq	r0, ip, r6
 e28:	9f400660 	svcls	0x00400660
	...
 e3c:	000c0006 	andeq	r0, ip, r6
 e40:	9f400660 	svcls	0x00400660
	...
 e54:	00520001 	subseq	r0, r2, r1
 e58:	00000000 	andeq	r0, r0, r0
 e5c:	02000000 	andeq	r0, r0, #0
 e60:	00047400 	andeq	r7, r4, r0, lsl #8
 e64:	00000000 	andeq	r0, r0, r0
 e68:	01000000 	mrseq	r0, (UNDEF: 0)
 e6c:	00005600 	andeq	r5, r0, r0, lsl #12
	...
 e7c:	00060000 	andeq	r0, r6, r0
 e80:	0660000c 	strbteq	r0, [r0], -ip
 e84:	00009f40 	andeq	r9, r0, r0, asr #30
	...
 e94:	00060000 	andeq	r0, r6, r0
 e98:	0660000c 	strbteq	r0, [r0], -ip
 e9c:	00009f40 	andeq	r9, r0, r0, asr #30
 ea0:	00000000 	andeq	r0, r0, r0
 ea4:	11e00000 	mvnne	r0, r0
 ea8:	11e60000 	mvnne	r0, r0
 eac:	00010000 	andeq	r0, r1, r0
 eb0:	0011e650 	andseq	lr, r1, r0, asr r6
 eb4:	0011f400 	andseq	pc, r1, r0, lsl #8
 eb8:	f3000400 	vshl.u8	d0, d0, d0
 ebc:	009f5001 	addseq	r5, pc, r1
 ec0:	00000000 	andeq	r0, r0, r0
 ec4:	Address 0x0000000000000ec4 is out of bounds.


Disassembly of section .debug_aranges:

00000000 <.debug_aranges>:
   0:	00000024 	andeq	r0, r0, r4, lsr #32
   4:	00000002 	andeq	r0, r0, r2
   8:	00040000 	andeq	r0, r4, r0
   c:	00000000 	andeq	r0, r0, r0
  10:	000004f8 	strdeq	r0, [r0], -r8
  14:	00000024 	andeq	r0, r0, r4, lsr #32
  18:	00000000 	andeq	r0, r0, r0
  1c:	00000134 	andeq	r0, r0, r4, lsr r1
	...
  28:	0000001c 	andeq	r0, r0, ip, lsl r0
  2c:	04290002 	strteq	r0, [r9], #-2
  30:	00040000 	andeq	r0, r4, r0
  34:	00000000 	andeq	r0, r0, r0
  38:	0000051c 	andeq	r0, r0, ip, lsl r5
  3c:	0000007c 	andeq	r0, r0, ip, ror r0
	...
  48:	00000044 	andeq	r0, r0, r4, asr #32
  4c:	06aa0002 	strteq	r0, [sl], r2
  50:	00040000 	andeq	r0, r4, r0
  54:	00000000 	andeq	r0, r0, r0
  58:	00000598 	muleq	r0, r8, r5
  5c:	00000032 	andeq	r0, r0, r2, lsr r0
  60:	00000000 	andeq	r0, r0, r0
  64:	00000014 	andeq	r0, r0, r4, lsl r0
  68:	000005ca 	andeq	r0, r0, sl, asr #11
  6c:	0000002e 	andeq	r0, r0, lr, lsr #32
  70:	000005f8 	strdeq	r0, [r0], -r8
  74:	0000001c 	andeq	r0, r0, ip, lsl r0
  78:	00000000 	andeq	r0, r0, r0
  7c:	00000004 	andeq	r0, r0, r4
  80:	00000000 	andeq	r0, r0, r0
  84:	00000014 	andeq	r0, r0, r4, lsl r0
	...
  90:	0000005c 	andeq	r0, r0, ip, asr r0
  94:	08cb0002 	stmiaeq	fp, {r1}^
  98:	00040000 	andeq	r0, r4, r0
  9c:	00000000 	andeq	r0, r0, r0
  a0:	00000614 	andeq	r0, r0, r4, lsl r6
  a4:	00000044 	andeq	r0, r0, r4, asr #32
  a8:	00000000 	andeq	r0, r0, r0
  ac:	0000000c 	andeq	r0, r0, ip
  b0:	00000658 	andeq	r0, r0, r8, asr r6
  b4:	00000018 	andeq	r0, r0, r8, lsl r0
  b8:	00000670 	andeq	r0, r0, r0, ror r6
  bc:	00000014 	andeq	r0, r0, r4, lsl r0
  c0:	00000684 	andeq	r0, r0, r4, lsl #13
  c4:	00000024 	andeq	r0, r0, r4, lsr #32
  c8:	000006a8 	andeq	r0, r0, r8, lsr #13
  cc:	00000084 	andeq	r0, r0, r4, lsl #1
  d0:	0000072c 	andeq	r0, r0, ip, lsr #14
  d4:	00000018 	andeq	r0, r0, r8, lsl r0
  d8:	00000744 	andeq	r0, r0, r4, asr #14
  dc:	000000c0 	andeq	r0, r0, r0, asr #1
  e0:	00000000 	andeq	r0, r0, r0
  e4:	00000028 	andeq	r0, r0, r8, lsr #32
	...
  f0:	0000002c 	andeq	r0, r0, ip, lsr #32
  f4:	0f060002 	svceq	0x00060002
  f8:	00040000 	andeq	r0, r4, r0
  fc:	00000000 	andeq	r0, r0, r0
 100:	00000804 	andeq	r0, r0, r4, lsl #16
 104:	00000028 	andeq	r0, r0, r8, lsr #32
 108:	0000082c 	andeq	r0, r0, ip, lsr #16
 10c:	00000038 	andeq	r0, r0, r8, lsr r0
 110:	00000864 	andeq	r0, r0, r4, ror #16
 114:	00000088 	andeq	r0, r0, r8, lsl #1
	...
 120:	0000003c 	andeq	r0, r0, ip, lsr r0
 124:	120a0002 	andne	r0, sl, #2
 128:	00040000 	andeq	r0, r4, r0
 12c:	00000000 	andeq	r0, r0, r0
 130:	000008ec 	andeq	r0, r0, ip, ror #17
 134:	0000004c 	andeq	r0, r0, ip, asr #32
 138:	00000938 	andeq	r0, r0, r8, lsr r9
 13c:	0000004c 	andeq	r0, r0, ip, asr #32
 140:	00000984 	andeq	r0, r0, r4, lsl #19
 144:	0000000c 	andeq	r0, r0, ip
 148:	00000990 	muleq	r0, r0, r9
 14c:	0000000c 	andeq	r0, r0, ip
 150:	0000099c 	muleq	r0, ip, r9
 154:	00000034 	andeq	r0, r0, r4, lsr r0
	...
 160:	000000ac 	andeq	r0, r0, ip, lsr #1
 164:	18de0002 	ldmne	lr, {r1}^
 168:	00040000 	andeq	r0, r4, r0
	...
 174:	00000010 	andeq	r0, r0, r0, lsl r0
 178:	000009d0 	ldrdeq	r0, [r0], -r0	; <UNPREDICTABLE>
 17c:	00000012 	andeq	r0, r0, r2, lsl r0
 180:	000009e4 	andeq	r0, r0, r4, ror #19
 184:	00000100 	andeq	r0, r0, r0, lsl #2
 188:	00000000 	andeq	r0, r0, r0
 18c:	00000010 	andeq	r0, r0, r0, lsl r0
 190:	00000000 	andeq	r0, r0, r0
 194:	0000001c 	andeq	r0, r0, ip, lsl r0
 198:	00000000 	andeq	r0, r0, r0
 19c:	00000010 	andeq	r0, r0, r0, lsl r0
 1a0:	00000000 	andeq	r0, r0, r0
 1a4:	0000003e 	andeq	r0, r0, lr, lsr r0
 1a8:	00000000 	andeq	r0, r0, r0
 1ac:	0000003c 	andeq	r0, r0, ip, lsr r0
 1b0:	00000ae4 	andeq	r0, r0, r4, ror #21
 1b4:	00000026 	andeq	r0, r0, r6, lsr #32
 1b8:	00000b0a 	andeq	r0, r0, sl, lsl #22
 1bc:	0000003c 	andeq	r0, r0, ip, lsr r0
 1c0:	00000000 	andeq	r0, r0, r0
 1c4:	00000038 	andeq	r0, r0, r8, lsr r0
 1c8:	00000000 	andeq	r0, r0, r0
 1cc:	00000086 	andeq	r0, r0, r6, lsl #1
 1d0:	00000000 	andeq	r0, r0, r0
 1d4:	0000006c 	andeq	r0, r0, ip, rrx
 1d8:	00000000 	andeq	r0, r0, r0
 1dc:	00000044 	andeq	r0, r0, r4, asr #32
 1e0:	00000000 	andeq	r0, r0, r0
 1e4:	0000007e 	andeq	r0, r0, lr, ror r0
 1e8:	00000000 	andeq	r0, r0, r0
 1ec:	0000001e 	andeq	r0, r0, lr, lsl r0
 1f0:	00000b48 	andeq	r0, r0, r8, asr #22
 1f4:	00000078 	andeq	r0, r0, r8, ror r0
 1f8:	00000bc0 	andeq	r0, r0, r0, asr #23
 1fc:	00000048 	andeq	r0, r0, r8, asr #32
 200:	00000c08 	andeq	r0, r0, r8, lsl #24
 204:	00000048 	andeq	r0, r0, r8, asr #32
	...
 210:	0000002c 	andeq	r0, r0, ip, lsr #32
 214:	28500002 	ldmdacs	r0, {r1}^
 218:	00040000 	andeq	r0, r4, r0
 21c:	00000000 	andeq	r0, r0, r0
 220:	00000c50 	andeq	r0, r0, r0, asr ip
 224:	00000084 	andeq	r0, r0, r4, lsl #1
 228:	00000cd4 	ldrdeq	r0, [r0], -r4
 22c:	00000090 	muleq	r0, r0, r0
 230:	00000d64 	andeq	r0, r0, r4, ror #26
 234:	00000064 	andeq	r0, r0, r4, rrx
	...
 240:	00000014 	andeq	r0, r0, r4, lsl r0
 244:	30220002 	eorcc	r0, r2, r2
 248:	00040000 	andeq	r0, r4, r0
	...
 258:	00000064 	andeq	r0, r0, r4, rrx
 25c:	30c40002 	sbccc	r0, r4, r2
 260:	00040000 	andeq	r0, r4, r0
 264:	00000000 	andeq	r0, r0, r0
 268:	00000dc8 	andeq	r0, r0, r8, asr #27
 26c:	00000014 	andeq	r0, r0, r4, lsl r0
 270:	00000ddc 	ldrdeq	r0, [r0], -ip
 274:	000000a8 	andeq	r0, r0, r8, lsr #1
 278:	00000e84 	andeq	r0, r0, r4, lsl #29
 27c:	0000009c 	muleq	r0, ip, r0
 280:	00000f20 	andeq	r0, r0, r0, lsr #30
 284:	0000004c 	andeq	r0, r0, ip, asr #32
 288:	00000000 	andeq	r0, r0, r0
 28c:	0000001c 	andeq	r0, r0, ip, lsl r0
 290:	00000000 	andeq	r0, r0, r0
 294:	0000001c 	andeq	r0, r0, ip, lsl r0
 298:	00000f6c 	andeq	r0, r0, ip, ror #30
 29c:	0000001c 	andeq	r0, r0, ip, lsl r0
 2a0:	00000f88 	andeq	r0, r0, r8, lsl #31
 2a4:	0000001c 	andeq	r0, r0, ip, lsl r0
 2a8:	00000fa4 	andeq	r0, r0, r4, lsr #31
 2ac:	0000000c 	andeq	r0, r0, ip
 2b0:	00000fb0 			; <UNDEFINED> instruction: 0x00000fb0
 2b4:	00000002 	andeq	r0, r0, r2
	...
 2c0:	00000034 	andeq	r0, r0, r4, lsr r0
 2c4:	39e30002 	stmibcc	r3!, {r1}^
 2c8:	00040000 	andeq	r0, r4, r0
 2cc:	00000000 	andeq	r0, r0, r0
 2d0:	00000fb4 			; <UNDEFINED> instruction: 0x00000fb4
 2d4:	0000001c 	andeq	r0, r0, ip, lsl r0
 2d8:	00000fd0 	ldrdeq	r0, [r0], -r0	; <UNPREDICTABLE>
 2dc:	00000138 	andeq	r0, r0, r8, lsr r1
 2e0:	00000000 	andeq	r0, r0, r0
 2e4:	00000050 	andeq	r0, r0, r0, asr r0
 2e8:	00001108 	andeq	r1, r0, r8, lsl #2
 2ec:	0000001c 	andeq	r0, r0, ip, lsl r0
	...
 2f8:	0000001c 	andeq	r0, r0, ip, lsl r0
 2fc:	3d130002 	ldccc	0, cr0, [r3, #-8]
 300:	00040000 	andeq	r0, r4, r0
 304:	00000000 	andeq	r0, r0, r0
 308:	00001124 	andeq	r1, r0, r4, lsr #2
 30c:	00000038 	andeq	r0, r0, r8, lsr r0
	...
 318:	0000002c 	andeq	r0, r0, ip, lsr #32
 31c:	40040002 	andmi	r0, r4, r2
 320:	00040000 	andeq	r0, r4, r0
 324:	00000000 	andeq	r0, r0, r0
 328:	0000115c 	andeq	r1, r0, ip, asr r1
 32c:	00000040 	andeq	r0, r0, r0, asr #32
 330:	00000000 	andeq	r0, r0, r0
 334:	000000f4 	strdeq	r0, [r0], -r4
 338:	00000000 	andeq	r0, r0, r0
 33c:	00000120 	andeq	r0, r0, r0, lsr #2
	...
 348:	0000002c 	andeq	r0, r0, ip, lsr #32
 34c:	4b880002 	blmi	fe20035c <__StackTop+0xde1fd35c>
 350:	00040000 	andeq	r0, r4, r0
 354:	00000000 	andeq	r0, r0, r0
 358:	0000119c 	muleq	r0, ip, r1
 35c:	00000044 	andeq	r0, r0, r4, asr #32
 360:	00000000 	andeq	r0, r0, r0
 364:	00000002 	andeq	r0, r0, r2
 368:	000011e0 	andeq	r1, r0, r0, ror #3
 36c:	00000014 	andeq	r0, r0, r4, lsl r0
	...
 378:	0000001c 	andeq	r0, r0, ip, lsl r0
 37c:	4f8e0002 	svcmi	0x008e0002
 380:	00040000 	andeq	r0, r4, r0
 384:	00000000 	andeq	r0, r0, r0
 388:	000011f4 	strdeq	r1, [r0], -r4
 38c:	00000040 	andeq	r0, r0, r0, asr #32
	...
 398:	0000001c 	andeq	r0, r0, ip, lsl r0
 39c:	51950002 	orrspl	r0, r5, r2
 3a0:	00040000 	andeq	r0, r4, r0
 3a4:	00000000 	andeq	r0, r0, r0
 3a8:	0000047c 	andeq	r0, r0, ip, ror r4
 3ac:	00000018 	andeq	r0, r0, r8, lsl r0
	...

Disassembly of section .debug_ranges:

00000000 <.debug_ranges>:
   0:	000004f8 	strdeq	r0, [r0], -r8
   4:	0000051c 	andeq	r0, r0, ip, lsl r5
   8:	00000001 	andeq	r0, r0, r1
   c:	00000001 	andeq	r0, r0, r1
	...
  18:	0000051c 	andeq	r0, r0, ip, lsl r5
  1c:	00000598 	muleq	r0, r8, r5
	...
  28:	00000598 	muleq	r0, r8, r5
  2c:	000005ca 	andeq	r0, r0, sl, asr #11
  30:	00000001 	andeq	r0, r0, r1
  34:	00000001 	andeq	r0, r0, r1
  38:	000005ca 	andeq	r0, r0, sl, asr #11
  3c:	000005f8 	strdeq	r0, [r0], -r8
  40:	000005f8 	strdeq	r0, [r0], -r8
  44:	00000614 	andeq	r0, r0, r4, lsl r6
  48:	00000001 	andeq	r0, r0, r1
  4c:	00000001 	andeq	r0, r0, r1
  50:	00000001 	andeq	r0, r0, r1
  54:	00000001 	andeq	r0, r0, r1
	...
  60:	00000614 	andeq	r0, r0, r4, lsl r6
  64:	00000658 	andeq	r0, r0, r8, asr r6
  68:	00000001 	andeq	r0, r0, r1
  6c:	00000001 	andeq	r0, r0, r1
  70:	00000658 	andeq	r0, r0, r8, asr r6
  74:	00000670 	andeq	r0, r0, r0, ror r6
  78:	00000670 	andeq	r0, r0, r0, ror r6
  7c:	00000684 	andeq	r0, r0, r4, lsl #13
  80:	00000684 	andeq	r0, r0, r4, lsl #13
  84:	000006a8 	andeq	r0, r0, r8, lsr #13
  88:	000006a8 	andeq	r0, r0, r8, lsr #13
  8c:	0000072c 	andeq	r0, r0, ip, lsr #14
  90:	0000072c 	andeq	r0, r0, ip, lsr #14
  94:	00000744 	andeq	r0, r0, r4, asr #14
  98:	00000744 	andeq	r0, r0, r4, asr #14
  9c:	00000804 	andeq	r0, r0, r4, lsl #16
  a0:	00000001 	andeq	r0, r0, r1
  a4:	00000001 	andeq	r0, r0, r1
	...
  b0:	00000804 	andeq	r0, r0, r4, lsl #16
  b4:	0000082c 	andeq	r0, r0, ip, lsr #16
  b8:	0000082c 	andeq	r0, r0, ip, lsr #16
  bc:	00000864 	andeq	r0, r0, r4, ror #16
  c0:	00000864 	andeq	r0, r0, r4, ror #16
  c4:	000008ec 	andeq	r0, r0, ip, ror #17
	...
  d0:	000008ec 	andeq	r0, r0, ip, ror #17
  d4:	00000938 	andeq	r0, r0, r8, lsr r9
  d8:	00000938 	andeq	r0, r0, r8, lsr r9
  dc:	00000984 	andeq	r0, r0, r4, lsl #19
  e0:	00000984 	andeq	r0, r0, r4, lsl #19
  e4:	00000990 	muleq	r0, r0, r9
  e8:	00000990 	muleq	r0, r0, r9
  ec:	0000099c 	muleq	r0, ip, r9
  f0:	0000099c 	muleq	r0, ip, r9
  f4:	000009d0 	ldrdeq	r0, [r0], -r0	; <UNPREDICTABLE>
	...
 100:	00000001 	andeq	r0, r0, r1
 104:	00000001 	andeq	r0, r0, r1
 108:	00000001 	andeq	r0, r0, r1
 10c:	00000001 	andeq	r0, r0, r1
	...
 118:	00000001 	andeq	r0, r0, r1
 11c:	00000001 	andeq	r0, r0, r1
 120:	000009d0 	ldrdeq	r0, [r0], -r0	; <UNPREDICTABLE>
 124:	000009e2 	andeq	r0, r0, r2, ror #19
 128:	000009e4 	andeq	r0, r0, r4, ror #19
 12c:	00000ae4 	andeq	r0, r0, r4, ror #21
 130:	00000001 	andeq	r0, r0, r1
 134:	00000001 	andeq	r0, r0, r1
 138:	00000001 	andeq	r0, r0, r1
 13c:	00000001 	andeq	r0, r0, r1
 140:	00000001 	andeq	r0, r0, r1
 144:	00000001 	andeq	r0, r0, r1
 148:	00000001 	andeq	r0, r0, r1
 14c:	00000001 	andeq	r0, r0, r1
 150:	00000001 	andeq	r0, r0, r1
 154:	00000001 	andeq	r0, r0, r1
 158:	00000ae4 	andeq	r0, r0, r4, ror #21
 15c:	00000b0a 	andeq	r0, r0, sl, lsl #22
 160:	00000b0a 	andeq	r0, r0, sl, lsl #22
 164:	00000b46 	andeq	r0, r0, r6, asr #22
 168:	00000001 	andeq	r0, r0, r1
 16c:	00000001 	andeq	r0, r0, r1
 170:	00000001 	andeq	r0, r0, r1
 174:	00000001 	andeq	r0, r0, r1
 178:	00000001 	andeq	r0, r0, r1
 17c:	00000001 	andeq	r0, r0, r1
 180:	00000001 	andeq	r0, r0, r1
 184:	00000001 	andeq	r0, r0, r1
 188:	00000001 	andeq	r0, r0, r1
 18c:	00000001 	andeq	r0, r0, r1
 190:	00000001 	andeq	r0, r0, r1
 194:	00000001 	andeq	r0, r0, r1
 198:	00000b48 	andeq	r0, r0, r8, asr #22
 19c:	00000bc0 	andeq	r0, r0, r0, asr #23
 1a0:	00000bc0 	andeq	r0, r0, r0, asr #23
 1a4:	00000c08 	andeq	r0, r0, r8, lsl #24
 1a8:	00000c08 	andeq	r0, r0, r8, lsl #24
 1ac:	00000c50 	andeq	r0, r0, r0, asr ip
	...
 1b8:	00000c50 	andeq	r0, r0, r0, asr ip
 1bc:	00000cd4 	ldrdeq	r0, [r0], -r4
 1c0:	00000cd4 	ldrdeq	r0, [r0], -r4
 1c4:	00000d64 	andeq	r0, r0, r4, ror #26
 1c8:	00000d64 	andeq	r0, r0, r4, ror #26
 1cc:	00000dc8 	andeq	r0, r0, r8, asr #27
	...
 1d8:	00000eb4 			; <UNDEFINED> instruction: 0x00000eb4
 1dc:	00000eb8 			; <UNDEFINED> instruction: 0x00000eb8
 1e0:	00000ebc 			; <UNDEFINED> instruction: 0x00000ebc
 1e4:	00000f0a 	andeq	r0, r0, sl, lsl #30
	...
 1f0:	00000f2e 	andeq	r0, r0, lr, lsr #30
 1f4:	00000f4c 	andeq	r0, r0, ip, asr #30
 1f8:	00000f4e 	andeq	r0, r0, lr, asr #30
 1fc:	00000f56 	andeq	r0, r0, r6, asr pc
	...
 208:	00000dc8 	andeq	r0, r0, r8, asr #27
 20c:	00000ddc 	ldrdeq	r0, [r0], -ip
 210:	00000ddc 	ldrdeq	r0, [r0], -ip
 214:	00000e84 	andeq	r0, r0, r4, lsl #29
 218:	00000e84 	andeq	r0, r0, r4, lsl #29
 21c:	00000f20 	andeq	r0, r0, r0, lsr #30
 220:	00000f20 	andeq	r0, r0, r0, lsr #30
 224:	00000f6c 	andeq	r0, r0, ip, ror #30
 228:	00000001 	andeq	r0, r0, r1
 22c:	00000001 	andeq	r0, r0, r1
 230:	00000001 	andeq	r0, r0, r1
 234:	00000001 	andeq	r0, r0, r1
 238:	00000f6c 	andeq	r0, r0, ip, ror #30
 23c:	00000f88 	andeq	r0, r0, r8, lsl #31
 240:	00000f88 	andeq	r0, r0, r8, lsl #31
 244:	00000fa4 	andeq	r0, r0, r4, lsr #31
 248:	00000fa4 	andeq	r0, r0, r4, lsr #31
 24c:	00000fb0 			; <UNDEFINED> instruction: 0x00000fb0
 250:	00000fb0 			; <UNDEFINED> instruction: 0x00000fb0
 254:	00000fb2 			; <UNDEFINED> instruction: 0x00000fb2
	...
 260:	00000fb4 			; <UNDEFINED> instruction: 0x00000fb4
 264:	00000fd0 	ldrdeq	r0, [r0], -r0	; <UNPREDICTABLE>
 268:	00000fd0 	ldrdeq	r0, [r0], -r0	; <UNPREDICTABLE>
 26c:	00001108 	andeq	r1, r0, r8, lsl #2
 270:	00000001 	andeq	r0, r0, r1
 274:	00000001 	andeq	r0, r0, r1
 278:	00001108 	andeq	r1, r0, r8, lsl #2
 27c:	00001124 	andeq	r1, r0, r4, lsr #2
	...
 288:	00001124 	andeq	r1, r0, r4, lsr #2
 28c:	0000115c 	andeq	r1, r0, ip, asr r1
	...
 298:	00000001 	andeq	r0, r0, r1
 29c:	00000001 	andeq	r0, r0, r1
 2a0:	00000001 	andeq	r0, r0, r1
 2a4:	00000001 	andeq	r0, r0, r1
 2a8:	00000001 	andeq	r0, r0, r1
 2ac:	00000001 	andeq	r0, r0, r1
	...
 2b8:	00000001 	andeq	r0, r0, r1
 2bc:	00000001 	andeq	r0, r0, r1
 2c0:	00000001 	andeq	r0, r0, r1
 2c4:	00000001 	andeq	r0, r0, r1
 2c8:	00000001 	andeq	r0, r0, r1
 2cc:	00000001 	andeq	r0, r0, r1
	...
 2d8:	00000001 	andeq	r0, r0, r1
 2dc:	00000001 	andeq	r0, r0, r1
 2e0:	00000001 	andeq	r0, r0, r1
 2e4:	00000001 	andeq	r0, r0, r1
 2e8:	00000001 	andeq	r0, r0, r1
 2ec:	00000001 	andeq	r0, r0, r1
	...
 2f8:	00000001 	andeq	r0, r0, r1
 2fc:	00000001 	andeq	r0, r0, r1
 300:	00000001 	andeq	r0, r0, r1
 304:	00000001 	andeq	r0, r0, r1
	...
 310:	00000001 	andeq	r0, r0, r1
 314:	00000001 	andeq	r0, r0, r1
 318:	00000001 	andeq	r0, r0, r1
 31c:	00000001 	andeq	r0, r0, r1
	...
 328:	00000001 	andeq	r0, r0, r1
 32c:	00000001 	andeq	r0, r0, r1
 330:	00000001 	andeq	r0, r0, r1
 334:	00000001 	andeq	r0, r0, r1
	...
 340:	00000001 	andeq	r0, r0, r1
 344:	00000001 	andeq	r0, r0, r1
 348:	00000001 	andeq	r0, r0, r1
 34c:	00000001 	andeq	r0, r0, r1
	...
 358:	00000001 	andeq	r0, r0, r1
 35c:	00000001 	andeq	r0, r0, r1
 360:	00000001 	andeq	r0, r0, r1
 364:	00000001 	andeq	r0, r0, r1
	...
 370:	00000001 	andeq	r0, r0, r1
 374:	00000001 	andeq	r0, r0, r1
 378:	00000001 	andeq	r0, r0, r1
 37c:	00000001 	andeq	r0, r0, r1
	...
 388:	00000001 	andeq	r0, r0, r1
 38c:	00000001 	andeq	r0, r0, r1
 390:	00000001 	andeq	r0, r0, r1
 394:	00000001 	andeq	r0, r0, r1
	...
 3a0:	00000001 	andeq	r0, r0, r1
 3a4:	00000001 	andeq	r0, r0, r1
 3a8:	00000001 	andeq	r0, r0, r1
 3ac:	00000001 	andeq	r0, r0, r1
	...
 3b8:	00000001 	andeq	r0, r0, r1
 3bc:	00000001 	andeq	r0, r0, r1
 3c0:	00000001 	andeq	r0, r0, r1
 3c4:	00000001 	andeq	r0, r0, r1
	...
 3d0:	00000001 	andeq	r0, r0, r1
 3d4:	00000001 	andeq	r0, r0, r1
 3d8:	00000001 	andeq	r0, r0, r1
 3dc:	00000001 	andeq	r0, r0, r1
	...
 3e8:	00000001 	andeq	r0, r0, r1
 3ec:	00000001 	andeq	r0, r0, r1
 3f0:	00000001 	andeq	r0, r0, r1
 3f4:	00000001 	andeq	r0, r0, r1
	...
 400:	00000001 	andeq	r0, r0, r1
 404:	00000001 	andeq	r0, r0, r1
 408:	00000001 	andeq	r0, r0, r1
 40c:	00000001 	andeq	r0, r0, r1
	...
 418:	00000001 	andeq	r0, r0, r1
 41c:	00000001 	andeq	r0, r0, r1
 420:	00000001 	andeq	r0, r0, r1
 424:	00000001 	andeq	r0, r0, r1
	...
 430:	00000001 	andeq	r0, r0, r1
 434:	00000001 	andeq	r0, r0, r1
 438:	00000001 	andeq	r0, r0, r1
 43c:	00000001 	andeq	r0, r0, r1
	...
 448:	00000001 	andeq	r0, r0, r1
 44c:	00000001 	andeq	r0, r0, r1
 450:	00000001 	andeq	r0, r0, r1
 454:	00000001 	andeq	r0, r0, r1
	...
 460:	00000001 	andeq	r0, r0, r1
 464:	00000001 	andeq	r0, r0, r1
 468:	00000001 	andeq	r0, r0, r1
 46c:	00000001 	andeq	r0, r0, r1
	...
 478:	00000001 	andeq	r0, r0, r1
 47c:	00000001 	andeq	r0, r0, r1
 480:	00000001 	andeq	r0, r0, r1
 484:	00000001 	andeq	r0, r0, r1
	...
 490:	00000001 	andeq	r0, r0, r1
 494:	00000001 	andeq	r0, r0, r1
 498:	00000001 	andeq	r0, r0, r1
 49c:	00000001 	andeq	r0, r0, r1
	...
 4a8:	0000115c 	andeq	r1, r0, ip, asr r1
 4ac:	0000119c 	muleq	r0, ip, r1
 4b0:	00000001 	andeq	r0, r0, r1
 4b4:	00000001 	andeq	r0, r0, r1
 4b8:	00000001 	andeq	r0, r0, r1
 4bc:	00000001 	andeq	r0, r0, r1
	...
 4c8:	0000119c 	muleq	r0, ip, r1
 4cc:	000011e0 	andeq	r1, r0, r0, ror #3
 4d0:	00000001 	andeq	r0, r0, r1
 4d4:	00000001 	andeq	r0, r0, r1
 4d8:	000011e0 	andeq	r1, r0, r0, ror #3
 4dc:	000011f4 	strdeq	r1, [r0], -r4
	...
 4e8:	000011f4 	strdeq	r1, [r0], -r4
 4ec:	00001234 	andeq	r1, r0, r4, lsr r2
	...

Disassembly of section .debug_line:

00000000 <.debug_line>:
       0:	0000010e 	andeq	r0, r0, lr, lsl #2
       4:	00a80002 	adceq	r0, r8, r2
       8:	01020000 	mrseq	r0, (UNDEF: 2)
       c:	000d0efb 	strdeq	r0, [sp], -fp
      10:	01010101 	tsteq	r1, r1, lsl #2
      14:	01000000 	mrseq	r0, (UNDEF: 0)
      18:	2e010000 	cdpcs	0, 0, cr0, cr1, cr0, {0}
      1c:	6d632f2e 	stclvs	15, cr2, [r3, #-184]!	; 0xffffff48
      20:	2f736973 	svccs	0x00736973
      24:	324c4b4d 	subcc	r4, ip, #78848	; 0x13400
      28:	00345a36 	eorseq	r5, r4, r6, lsr sl
      2c:	7273752f 	rsbsvc	r7, r3, #197132288	; 0xbc00000
      30:	6d72612f 	ldfvse	f6, [r2, #-188]!	; 0xffffff44
      34:	6e6f6e2d 	cdpvs	14, 6, cr6, cr15, cr13, {1}
      38:	61652d65 	cmnvs	r5, r5, ror #26
      3c:	692f6962 	stmdbvs	pc!, {r1, r5, r6, r8, fp, sp, lr}	; <UNPREDICTABLE>
      40:	756c636e 	strbvc	r6, [ip, #-878]!	; 0xfffffc92
      44:	6d2f6564 	cfstr32vs	mvfx6, [pc, #-400]!	; fffffebc <__StackTop+0xdfffcebc>
      48:	69686361 	stmdbvs	r8!, {r0, r5, r6, r8, r9, sp, lr}^
      4c:	2f00656e 	svccs	0x0000656e
      50:	2f727375 	svccs	0x00727375
      54:	2d6d7261 	sfmcs	f7, 2, [sp, #-388]!	; 0xfffffe7c
      58:	656e6f6e 	strbvs	r6, [lr, #-3950]!	; 0xfffff092
      5c:	6261652d 	rsbvs	r6, r1, #188743680	; 0xb400000
      60:	6e692f69 	cdpvs	15, 6, cr2, cr9, cr9, {3}
      64:	64756c63 	ldrbtvs	r6, [r5], #-3171	; 0xfffff39d
      68:	79732f65 	ldmdbvc	r3!, {r0, r2, r5, r6, r8, r9, sl, fp, sp}^
      6c:	73000073 	movwvc	r0, #115	; 0x73
      70:	65747379 	ldrbvs	r7, [r4, #-889]!	; 0xfffffc87
      74:	4b4d5f6d 	blmi	1357e30 <__DATA_END+0x1356504>
      78:	5a36324c 	bpl	d8c9b0 <__DATA_END+0xd8b084>
      7c:	00632e34 	rsbeq	r2, r3, r4, lsr lr
      80:	5f000001 	svcpl	0x00000001
      84:	61666564 	cmnvs	r6, r4, ror #10
      88:	5f746c75 	svcpl	0x00746c75
      8c:	65707974 	ldrbvs	r7, [r0, #-2420]!	; 0xfffff68c
      90:	00682e73 	rsbeq	r2, r8, r3, ror lr
      94:	5f000002 	svcpl	0x00000002
      98:	69647473 	stmdbvs	r4!, {r0, r1, r4, r5, r6, sl, ip, sp, lr}^
      9c:	682e746e 	stmdavs	lr!, {r1, r2, r3, r5, r6, sl, ip, sp, lr}
      a0:	00000300 	andeq	r0, r0, r0, lsl #6
      a4:	324c4b4d 	subcc	r4, ip, #78848	; 0x13400
      a8:	2e345a36 	mrccs	10, 1, r5, cr4, cr6, {1}
      ac:	00010068 	andeq	r0, r1, r8, rrx
      b0:	05000000 	streq	r0, [r0, #-0]
      b4:	0004f802 	andeq	pc, r4, r2, lsl #16
      b8:	00f80300 	rscseq	r0, r8, r0, lsl #6
      bc:	43591501 	cmpmi	r9, #4194304	; 0x400000
      c0:	5801b803 	stmdapl	r1, {r0, r1, fp, ip, sp, pc}
      c4:	01000502 	tsteq	r0, r2, lsl #10
      c8:	02050001 	andeq	r0, r5, #1
      cc:	00000000 	andeq	r0, r0, r0
      d0:	0102c103 	tsteq	r2, r3, lsl #2
      d4:	5a251b17 	bpl	946d38 <__DATA_END+0x94540c>
      d8:	6e593f3e 	mrcvs	15, 2, r3, cr9, cr14, {1}
      dc:	76033555 			; <UNDEFINED> instruction: 0x76033555
      e0:	2e0c0374 	mcrcs	3, 0, r0, cr12, cr4, {3}
      e4:	3abc314c 	bcc	fef0c61c <__StackTop+0xdef0961c>
      e8:	03580e03 	cmpeq	r8, #3, 28	; 0x30
      ec:	17033c72 	smlsdxne	r3, r2, ip, r3
      f0:	2e6e034a 	cdpcs	3, 6, cr0, cr14, cr10, {2}
      f4:	223d223d 	eorscs	r2, sp, #-805306365	; 0xd0000003
      f8:	21233f42 	teqcs	r3, r2, asr #30
      fc:	59211f27 	stmdbpl	r1!, {r0, r1, r2, r5, r8, r9, sl, fp, ip}
     100:	4d4c4c21 	stclmi	12, cr4, [ip, #-132]	; 0xffffff7c
     104:	034c7621 	movteq	r7, #50721	; 0xc621
     108:	0c032e79 	stceq	14, cr2, [r3], {121}	; 0x79
     10c:	0008922e 	andeq	r9, r8, lr, lsr #4
     110:	00ee0101 	rsceq	r0, lr, r1, lsl #2
     114:	00020000 	andeq	r0, r2, r0
     118:	000000af 	andeq	r0, r0, pc, lsr #1
     11c:	0efb0102 	cdpeq	1, 15, cr0, cr11, cr2, {0}
     120:	0101000d 	tsteq	r1, sp
     124:	00000101 	andeq	r0, r0, r1, lsl #2
     128:	00000100 	andeq	r0, r0, r0, lsl #2
     12c:	2f2e2e01 	svccs	0x002e2e01
     130:	69736d63 	ldmdbvs	r3!, {r0, r1, r5, r6, r8, sl, fp, sp, lr}^
     134:	4b4d2f73 	blmi	134bf08 <__DATA_END+0x134a5dc>
     138:	5a36324c 	bpl	d8ca70 <__DATA_END+0xd8b144>
     13c:	752f0034 	strvc	r0, [pc, #-52]!	; 110 <M_VECTOR_RAM_SIZE+0x110>
     140:	612f7273 	teqvs	pc, r3, ror r2	; <UNPREDICTABLE>
     144:	6e2d6d72 	mcrvs	13, 1, r6, cr13, cr2, {3}
     148:	2d656e6f 	stclcs	14, cr6, [r5, #-444]!	; 0xfffffe44
     14c:	69626165 	stmdbvs	r2!, {r0, r2, r5, r6, r8, sp, lr}^
     150:	636e692f 	cmnvs	lr, #770048	; 0xbc000
     154:	6564756c 	strbvs	r7, [r4, #-1388]!	; 0xfffffa94
     158:	63616d2f 	cmnvs	r1, #3008	; 0xbc0
     15c:	656e6968 	strbvs	r6, [lr, #-2408]!	; 0xfffff698
     160:	73752f00 	cmnvc	r5, #0, 30
     164:	72612f72 	rsbvc	r2, r1, #456	; 0x1c8
     168:	6f6e2d6d 	svcvs	0x006e2d6d
     16c:	652d656e 	strvs	r6, [sp, #-1390]!	; 0xfffffa92
     170:	2f696261 	svccs	0x00696261
     174:	6c636e69 	stclvs	14, cr6, [r3], #-420	; 0xfffffe5c
     178:	2f656475 	svccs	0x00656475
     17c:	00737973 	rsbseq	r7, r3, r3, ror r9
     180:	632f2e2e 	teqvs	pc, #736	; 0x2e0
     184:	7369736d 	cmnvc	r9, #-1275068415	; 0xb4000001
     188:	74730000 	ldrbtvc	r0, [r3], #-0
     18c:	75747261 	ldrbvc	r7, [r4, #-609]!	; 0xfffffd9f
     190:	00632e70 	rsbeq	r2, r3, r0, ror lr
     194:	5f000001 	svcpl	0x00000001
     198:	61666564 	cmnvs	r6, r4, ror #10
     19c:	5f746c75 	svcpl	0x00746c75
     1a0:	65707974 	ldrbvs	r7, [r0, #-2420]!	; 0xfffff68c
     1a4:	00682e73 	rsbeq	r2, r8, r3, ror lr
     1a8:	5f000002 	svcpl	0x00000002
     1ac:	69647473 	stmdbvs	r4!, {r0, r1, r4, r5, r6, sl, ip, sp, lr}^
     1b0:	682e746e 	stmdavs	lr!, {r1, r2, r3, r5, r6, sl, ip, sp, lr}
     1b4:	00000300 	andeq	r0, r0, r0, lsl #6
     1b8:	65726f63 	ldrbvs	r6, [r2, #-3939]!	; 0xfffff09d
     1bc:	306d635f 	rsbcc	r6, sp, pc, asr r3
     1c0:	73756c70 	cmnvc	r5, #112, 24	; 0x7000
     1c4:	0400682e 	streq	r6, [r0], #-2094	; 0xfffff7d2
     1c8:	00000000 	andeq	r0, r0, r0
     1cc:	051c0205 	ldreq	r0, [ip, #-517]	; 0xfffffdfb
     1d0:	3a030000 	bcc	c01d8 <__DATA_END+0xbe8ac>
     1d4:	01170301 	tsteq	r7, r1, lsl #6
     1d8:	032e6903 	teqeq	lr, #49152	; 0xc000
     1dc:	00312e17 	eorseq	r2, r1, r7, lsl lr
     1e0:	06010402 	streq	r0, [r1], -r2, lsl #8
     1e4:	0402004a 	streq	r0, [r2], #-74	; 0xffffffb6
     1e8:	4d300603 	ldcmi	6, cr0, [r0, #-12]!
     1ec:	2e160341 	cdpcs	3, 1, cr0, cr6, cr1, {2}
     1f0:	7a03341c 	bvc	cd268 <__DATA_END+0xcb93c>
     1f4:	03302420 	teqeq	r0, #32, 8	; 0x20000000
     1f8:	1d224a0d 	vstmdbne	r2!, {s8-s20}
     1fc:	024d303d 	subeq	r3, sp, #61	; 0x3d
     200:	01010013 	tsteq	r1, r3, lsl r0
     204:	000000eb 	andeq	r0, r0, fp, ror #1
     208:	00500002 	subseq	r0, r0, r2
     20c:	01020000 	mrseq	r0, (UNDEF: 2)
     210:	000d0efb 	strdeq	r0, [sp], -fp
     214:	01010101 	tsteq	r1, r1, lsl #2
     218:	01000000 	mrseq	r0, (UNDEF: 0)
     21c:	2f010000 	svccs	0x00010000
     220:	2f727375 	svccs	0x00727375
     224:	2d6d7261 	sfmcs	f7, 2, [sp, #-388]!	; 0xfffffe7c
     228:	656e6f6e 	strbvs	r6, [lr, #-3950]!	; 0xfffff092
     22c:	6261652d 	rsbvs	r6, r1, #188743680	; 0xb400000
     230:	6e692f69 	cdpvs	15, 6, cr2, cr9, cr9, {3}
     234:	64756c63 	ldrbtvs	r6, [r5], #-3171	; 0xfffff39d
     238:	71000065 	tstvc	r0, r5, rrx
     23c:	65756575 	ldrbvs	r6, [r5, #-1397]!	; 0xfffffa8b
     240:	0000632e 	andeq	r6, r0, lr, lsr #6
     244:	75710000 	ldrbvc	r0, [r1, #-0]!
     248:	2e657565 	cdpcs	5, 6, cr7, cr5, cr5, {3}
     24c:	00000068 	andeq	r0, r0, r8, rrx
     250:	64747300 	ldrbtvs	r7, [r4], #-768	; 0xfffffd00
     254:	2e62696c 	cdpcs	9, 6, cr6, cr2, cr12, {3}
     258:	00010068 	andeq	r0, r1, r8, rrx
     25c:	05000000 	streq	r0, [r0, #-0]
     260:	00059802 	andeq	r9, r5, r2, lsl #16
     264:	4b131600 	blmi	4c5a6c <__DATA_END+0x4c4140>
     268:	3e30593d 	mrccc	9, 1, r5, cr0, cr13, {1}
     26c:	0230303d 	eorseq	r3, r0, #61	; 0x3d
     270:	01010001 	tsteq	r1, r1
     274:	00020500 	andeq	r0, r2, r0, lsl #10
     278:	03000000 	movweq	r0, #0
     27c:	21130112 	tstcs	r3, r2, lsl r1
     280:	024c311f 	subeq	r3, ip, #-1073741817	; 0xc0000007
     284:	01010002 	tsteq	r1, r2
     288:	ca020500 	bgt	81690 <__DATA_END+0x7fd64>
     28c:	03000005 	movweq	r0, #5
     290:	1e14011a 	mrcne	1, 0, r0, cr4, cr10, {0}
     294:	3d311f23 	ldccc	15, cr1, [r1, #-140]!	; 0xffffff74
     298:	303d212d 	eorscc	r2, sp, sp, lsr #2
     29c:	01023f3e 	tsteq	r2, lr, lsr pc
     2a0:	00010100 	andeq	r0, r1, r0, lsl #2
     2a4:	05f80205 	ldrbeq	r0, [r8, #517]!	; 0x205
     2a8:	29030000 	stmdbcs	r3, {}	; <UNPREDICTABLE>
     2ac:	242f1401 	strtcs	r1, [pc], #-1025	; 2b4 <M_VECTOR_RAM_SIZE+0x2b4>
     2b0:	0021211c 	eoreq	r2, r1, ip, lsl r1
     2b4:	22030402 	andcs	r0, r3, #33554432	; 0x2000000
     2b8:	03040200 	movweq	r0, #16896	; 0x4200
     2bc:	0402001f 	streq	r0, [r2], #-31	; 0xffffffe1
     2c0:	02002103 	andeq	r2, r0, #-1073741824	; 0xc0000000
     2c4:	321f0304 	andscc	r0, pc, #4, 6	; 0x10000000
     2c8:	01000202 	tsteq	r0, r2, lsl #4
     2cc:	02050001 	andeq	r0, r5, #1
     2d0:	00000000 	andeq	r0, r0, r0
     2d4:	0100c003 	tsteq	r0, r3
     2d8:	01022113 	tsteq	r2, r3, lsl r1
     2dc:	00010100 	andeq	r0, r1, r0, lsl #2
     2e0:	00000205 	andeq	r0, r0, r5, lsl #4
     2e4:	c4030000 	strgt	r0, [r3], #-0
     2e8:	21200100 	teqcs	r0, r0, lsl #2
     2ec:	02023e3d 	andeq	r3, r2, #976	; 0x3d0
     2f0:	a5010100 	strge	r0, [r1, #-256]	; 0xffffff00
     2f4:	02000001 	andeq	r0, r0, #1
     2f8:	0000a900 	andeq	sl, r0, r0, lsl #18
     2fc:	fb010200 	blx	40b06 <__DATA_END+0x3f1da>
     300:	01000d0e 	tsteq	r0, lr, lsl #26
     304:	00010101 	andeq	r0, r1, r1, lsl #2
     308:	00010000 	andeq	r0, r1, r0
     30c:	752f0100 	strvc	r0, [pc, #-256]!	; 214 <M_VECTOR_RAM_SIZE+0x214>
     310:	612f7273 	teqvs	pc, r3, ror r2	; <UNPREDICTABLE>
     314:	6e2d6d72 	mcrvs	13, 1, r6, cr13, cr2, {3}
     318:	2d656e6f 	stclcs	14, cr6, [r5, #-444]!	; 0xfffffe44
     31c:	69626165 	stmdbvs	r2!, {r0, r2, r5, r6, r8, sp, lr}^
     320:	636e692f 	cmnvs	lr, #770048	; 0xbc000
     324:	6564756c 	strbvs	r7, [r4, #-1388]!	; 0xfffffa94
     328:	63616d2f 	cmnvs	r1, #3008	; 0xbc0
     32c:	656e6968 	strbvs	r6, [lr, #-2408]!	; 0xfffff698
     330:	73752f00 	cmnvc	r5, #0, 30
     334:	72612f72 	rsbvc	r2, r1, #456	; 0x1c8
     338:	6f6e2d6d 	svcvs	0x006e2d6d
     33c:	652d656e 	strvs	r6, [sp, #-1390]!	; 0xfffffa92
     340:	2f696261 	svccs	0x00696261
     344:	6c636e69 	stclvs	14, cr6, [r3], #-420	; 0xfffffe5c
     348:	2f656475 	svccs	0x00656475
     34c:	00737973 	rsbseq	r7, r3, r3, ror r9
     350:	32786100 	rsbscc	r6, r8, #0, 2
     354:	00632e35 	rsbeq	r2, r3, r5, lsr lr
     358:	5f000000 	svcpl	0x00000000
     35c:	61666564 	cmnvs	r6, r4, ror #10
     360:	5f746c75 	svcpl	0x00746c75
     364:	65707974 	ldrbvs	r7, [r0, #-2420]!	; 0xfffff68c
     368:	00682e73 	rsbeq	r2, r8, r3, ror lr
     36c:	5f000001 	svcpl	0x00000001
     370:	69647473 	stmdbvs	r4!, {r0, r1, r4, r5, r6, sl, ip, sp, lr}^
     374:	682e746e 	stmdavs	lr!, {r1, r2, r3, r5, r6, sl, ip, sp, lr}
     378:	00000200 	andeq	r0, r0, r0, lsl #4
     37c:	324c4b4d 	subcc	r4, ip, #78848	; 0x13400
     380:	2e345a36 	mrccs	10, 1, r5, cr4, cr6, {1}
     384:	00000068 	andeq	r0, r0, r8, rrx
     388:	32786100 	rsbscc	r6, r8, #0, 2
     38c:	00682e35 	rsbeq	r2, r8, r5, lsr lr
     390:	64000000 	strvs	r0, [r0], #-0
     394:	682e6361 	stmdavs	lr!, {r0, r5, r6, r8, r9, sp, lr}
     398:	00000000 	andeq	r0, r0, r0
     39c:	2e544950 	mrccs	9, 2, r4, cr4, cr0, {2}
     3a0:	00000068 	andeq	r0, r0, r8, rrx
     3a4:	05000000 	streq	r0, [r0, #-0]
     3a8:	00061402 	andeq	r1, r6, r2, lsl #8
     3ac:	00ff0300 	rscseq	r0, pc, r0, lsl #6
     3b0:	914b2401 	cmpls	fp, r1, lsl #8
     3b4:	024c303d 	subeq	r3, ip, #61	; 0x3d
     3b8:	0101000b 	tsteq	r1, fp
     3bc:	00020500 	andeq	r0, r2, r0, lsl #10
     3c0:	03000000 	movweq	r0, #0
     3c4:	2113011e 	tstcs	r3, lr, lsl r1
     3c8:	03022f11 	movweq	r2, #12049	; 0x2f11
     3cc:	00010100 	andeq	r0, r1, r0, lsl #2
     3d0:	06580205 	ldrbeq	r0, [r8], -r5, lsl #4
     3d4:	c1030000 	mrsgt	r0, (UNDEF: 3)
     3d8:	59230100 	stmdbpl	r3!, {r8}
     3dc:	01000602 	tsteq	r0, r2, lsl #12
     3e0:	02050001 	andeq	r0, r5, #1
     3e4:	00000670 	andeq	r0, r0, r0, ror r6
     3e8:	0100c603 	tsteq	r0, r3, lsl #12
     3ec:	05024b23 	streq	r4, [r2, #-2851]	; 0xfffff4dd
     3f0:	00010100 	andeq	r0, r1, r0, lsl #2
     3f4:	06840205 	streq	r0, [r4], r5, lsl #4
     3f8:	cb030000 	blgt	c0400 <__DATA_END+0xbead4>
     3fc:	2f210100 	svccs	0x00210100
     400:	2f114b2f 	svccs	0x00114b2f
     404:	01000702 	tsteq	r0, r2, lsl #14
     408:	02050001 	andeq	r0, r5, #1
     40c:	000006a8 	andeq	r0, r0, r8, lsr #13
     410:	18012303 	stmdane	r1, {r0, r1, r8, r9, sp}
     414:	24231d1d 	strtcs	r1, [r3], #-3357	; 0xfffff2e3
     418:	221b251d 	andscs	r2, fp, #121634816	; 0x7400000
     41c:	24211c24 	strtcs	r1, [r1], #-3108	; 0xfffff3dc
     420:	1e22211c 	mcrne	1, 1, r2, cr2, cr12, {0}
     424:	1f222f21 	svcne	0x00222f21
     428:	3e2f2121 	sufccep	f2, f7, f1
     42c:	02002f30 	andeq	r2, r0, #48, 30	; 0xc0
     430:	3d300104 	ldfccs	f0, [r0, #-16]!
     434:	30310d26 	eorscc	r0, r1, r6, lsr #26
     438:	01001802 	tsteq	r0, r2, lsl #16
     43c:	02050001 	andeq	r0, r5, #1
     440:	0000072c 	andeq	r0, r0, ip, lsr #14
     444:	0100d103 	tsteq	r0, r3, lsl #2
     448:	22226713 	eorcs	r6, r2, #4980736	; 0x4c0000
     44c:	01000402 	tsteq	r0, r2, lsl #8
     450:	02050001 	andeq	r0, r5, #1
     454:	00000744 	andeq	r0, r0, r4, asr #14
     458:	0100d903 	tsteq	r0, r3, lsl #18
     45c:	00ae5922 	adceq	r5, lr, r2, lsr #18
     460:	06010402 	streq	r0, [r1], -r2, lsl #8
     464:	5959064a 	ldmdbpl	r9, {r1, r3, r6, r9, sl}^
     468:	2f322f3d 	svccs	0x00322f3d
     46c:	1f214d30 	svcne	0x00214d30
     470:	212f1f21 	teqcs	pc, r1, lsr #30
     474:	1e212f1f 	mcrne	15, 1, r2, cr1, cr15, {0}
     478:	323d4b22 	eorscc	r4, sp, #34816	; 0x8800
     47c:	22211f21 	eorcs	r1, r1, #33, 30	; 0x84
     480:	12024d30 	andne	r4, r2, #48, 26	; 0xc00
     484:	00010100 	andeq	r0, r1, r0, lsl #2
     488:	00000205 	andeq	r0, r0, r5, lsl #4
     48c:	8b030000 	blhi	c0494 <__DATA_END+0xbeb68>
     490:	4b130101 	blmi	4c089c <__DATA_END+0x4bef70>
     494:	023e5a3d 	eorseq	r5, lr, #249856	; 0x3d000
     498:	01010005 	tsteq	r1, r5
     49c:	0000011f 	andeq	r0, r0, pc, lsl r1
     4a0:	00b00002 	adcseq	r0, r0, r2
     4a4:	01020000 	mrseq	r0, (UNDEF: 2)
     4a8:	000d0efb 	strdeq	r0, [sp], -fp
     4ac:	01010101 	tsteq	r1, r1, lsl #2
     4b0:	01000000 	mrseq	r0, (UNDEF: 0)
     4b4:	2f010000 	svccs	0x00010000
     4b8:	2f727375 	svccs	0x00727375
     4bc:	2d6d7261 	sfmcs	f7, 2, [sp, #-388]!	; 0xfffffe7c
     4c0:	656e6f6e 	strbvs	r6, [lr, #-3950]!	; 0xfffff092
     4c4:	6261652d 	rsbvs	r6, r1, #188743680	; 0xb400000
     4c8:	6e692f69 	cdpvs	15, 6, cr2, cr9, cr9, {3}
     4cc:	64756c63 	ldrbtvs	r6, [r5], #-3171	; 0xfffff39d
     4d0:	616d2f65 	cmnvs	sp, r5, ror #30
     4d4:	6e696863 	cdpvs	8, 6, cr6, cr9, cr3, {3}
     4d8:	752f0065 	strvc	r0, [pc, #-101]!	; 47b <_mainCRTStartup+0x6b>
     4dc:	612f7273 	teqvs	pc, r3, ror r2	; <UNPREDICTABLE>
     4e0:	6e2d6d72 	mcrvs	13, 1, r6, cr13, cr2, {3}
     4e4:	2d656e6f 	stclcs	14, cr6, [r5, #-444]!	; 0xfffffe44
     4e8:	69626165 	stmdbvs	r2!, {r0, r2, r5, r6, r8, sp, lr}^
     4ec:	636e692f 	cmnvs	lr, #770048	; 0xbc000
     4f0:	6564756c 	strbvs	r7, [r4, #-1388]!	; 0xfffffa94
     4f4:	7379732f 	cmnvc	r9, #-1140850688	; 0xbc000000
     4f8:	77630000 	strbvc	r0, [r3, -r0]!
     4fc:	0000632e 	andeq	r6, r0, lr, lsr #6
     500:	645f0000 	ldrbvs	r0, [pc], #-0	; 508 <SystemInit+0x10>
     504:	75616665 	strbvc	r6, [r1, #-1637]!	; 0xfffff99b
     508:	745f746c 	ldrbvc	r7, [pc], #-1132	; 510 <SystemInit+0x18>
     50c:	73657079 	cmnvc	r5, #121	; 0x79
     510:	0100682e 	tsteq	r0, lr, lsr #16
     514:	735f0000 	cmpvc	pc, #0
     518:	6e696474 	mcrvs	4, 3, r6, cr9, cr4, {3}
     51c:	00682e74 	rsbeq	r2, r8, r4, ror lr
     520:	4d000002 	stcmi	0, cr0, [r0, #-8]
     524:	36324c4b 	ldrtcc	r4, [r2], -fp, asr #24
     528:	682e345a 	stmdavs	lr!, {r1, r3, r4, r6, sl, ip, sp}
     52c:	00000000 	andeq	r0, r0, r0
     530:	682e7763 	stmdavs	lr!, {r0, r1, r5, r6, r8, r9, sl, ip, sp, lr}
     534:	00000000 	andeq	r0, r0, r0
     538:	2e636164 	powcssz	f6, f3, f4
     53c:	00000068 	andeq	r0, r0, r8, rrx
     540:	54495000 	strbpl	r5, [r9], #-0
     544:	0000682e 	andeq	r6, r0, lr, lsr #16
     548:	65640000 	strbvs	r0, [r4, #-0]!
     54c:	2e79616c 	rpwcsez	f6, f1, #4.0
     550:	00000068 	andeq	r0, r0, r8, rrx
     554:	05000000 	streq	r0, [r0, #-0]
     558:	00080402 	andeq	r0, r8, r2, lsl #8
     55c:	01200300 	teqeq	r0, r0, lsl #6
     560:	303d9121 	eorscc	r9, sp, r1, lsr #2
     564:	01000502 	tsteq	r0, r2, lsl #10
     568:	02050001 	andeq	r0, r5, #1
     56c:	0000082c 	andeq	r0, r0, ip, lsr #16
     570:	14012603 	strne	r2, [r1], #-1539	; 0xfffff9fd
     574:	231e221e 	tstcs	lr, #-536870911	; 0xe0000001
     578:	1c33212d 	ldfnes	f2, [r3], #-180	; 0xffffff4c
     57c:	2f303030 	svccs	0x00303030
     580:	02211121 	eoreq	r1, r1, #1073741832	; 0x40000008
     584:	01010008 	tsteq	r1, r8
     588:	64020500 	strvs	r0, [r2], #-1280	; 0xfffffb00
     58c:	03000008 	movweq	r0, #8
     590:	03260133 	teqeq	r6, #-1073741812	; 0xc000000c
     594:	03262e7a 	teqeq	r6, #1952	; 0x7a0
     598:	2134207a 	teqcs	r4, sl, ror r0
     59c:	200e032f 	andcs	r0, lr, pc, lsr #6
     5a0:	59207303 	stmdbpl	r0!, {r0, r1, r8, r9, ip, sp, lr}
     5a4:	312f5921 	teqcc	pc, r1, lsr #18
     5a8:	76352f1d 	shadd16vc	r2, r5, sp
     5ac:	211f212d 	tstcs	pc, sp, lsr #2
     5b0:	221e222f 	andscs	r2, lr, #-268435454	; 0xf0000002
     5b4:	03212d4f 	teqeq	r1, #5056	; 0x13c0
     5b8:	09023c0e 	stmdbeq	r2, {r1, r2, r3, sl, fp, ip, sp}
     5bc:	71010100 	mrsvc	r0, (UNDEF: 17)
     5c0:	02000001 	andeq	r0, r0, #1
     5c4:	0000c100 	andeq	ip, r0, r0, lsl #2
     5c8:	fb010200 	blx	40dd2 <__DATA_END+0x3f4a6>
     5cc:	01000d0e 	tsteq	r0, lr, lsl #26
     5d0:	00010101 	andeq	r0, r1, r1, lsl #2
     5d4:	00010000 	andeq	r0, r1, r0
     5d8:	2e2e0100 	sufcse	f0, f6, f0
     5dc:	736d632f 	cmnvc	sp, #-1140850688	; 0xbc000000
     5e0:	2f007369 	svccs	0x00007369
     5e4:	2f727375 	svccs	0x00727375
     5e8:	2d6d7261 	sfmcs	f7, 2, [sp, #-388]!	; 0xfffffe7c
     5ec:	656e6f6e 	strbvs	r6, [lr, #-3950]!	; 0xfffff092
     5f0:	6261652d 	rsbvs	r6, r1, #188743680	; 0xb400000
     5f4:	6e692f69 	cdpvs	15, 6, cr2, cr9, cr9, {3}
     5f8:	64756c63 	ldrbtvs	r6, [r5], #-3171	; 0xfffff39d
     5fc:	616d2f65 	cmnvs	sp, r5, ror #30
     600:	6e696863 	cdpvs	8, 6, cr6, cr9, cr3, {3}
     604:	752f0065 	strvc	r0, [pc, #-101]!	; 5a7 <enqueue+0xf>
     608:	612f7273 	teqvs	pc, r3, ror r2	; <UNPREDICTABLE>
     60c:	6e2d6d72 	mcrvs	13, 1, r6, cr13, cr2, {3}
     610:	2d656e6f 	stclcs	14, cr6, [r5, #-444]!	; 0xfffffe44
     614:	69626165 	stmdbvs	r2!, {r0, r2, r5, r6, r8, sp, lr}^
     618:	636e692f 	cmnvs	lr, #770048	; 0xbc000
     61c:	6564756c 	strbvs	r7, [r4, #-1388]!	; 0xfffffa94
     620:	7379732f 	cmnvc	r9, #-1140850688	; 0xbc000000
     624:	49500000 	ldmdbmi	r0, {}^	; <UNPREDICTABLE>
     628:	00632e54 	rsbeq	r2, r3, r4, asr lr
     62c:	63000000 	movwvs	r0, #0
     630:	5f65726f 	svcpl	0x0065726f
     634:	70306d63 	eorsvc	r6, r0, r3, ror #26
     638:	2e73756c 	cdpcs	5, 7, cr7, cr3, cr12, {3}
     63c:	00010068 	andeq	r0, r1, r8, rrx
     640:	726f6300 	rsbvc	r6, pc, #0, 6
     644:	6d635f65 	stclvs	15, cr5, [r3, #-404]!	; 0xfffffe6c
     648:	636e7546 	cmnvs	lr, #293601280	; 0x11800000
     64c:	0100682e 	tsteq	r0, lr, lsr #16
     650:	645f0000 	ldrbvs	r0, [pc], #-0	; 658 <ax25StartSinTimer>
     654:	75616665 	strbvc	r6, [r1, #-1637]!	; 0xfffff99b
     658:	745f746c 	ldrbvc	r7, [pc], #-1132	; 660 <ax25StartSinTimer+0x8>
     65c:	73657079 	cmnvc	r5, #121	; 0x79
     660:	0200682e 	andeq	r6, r0, #3014656	; 0x2e0000
     664:	735f0000 	cmpvc	pc, #0
     668:	6e696474 	mcrvs	4, 3, r6, cr9, cr4, {3}
     66c:	00682e74 	rsbeq	r2, r8, r4, ror lr
     670:	4d000003 	stcmi	0, cr0, [r0, #-12]
     674:	36324c4b 	ldrtcc	r4, [r2], -fp, asr #24
     678:	682e345a 	stmdavs	lr!, {r1, r3, r4, r6, sl, ip, sp}
     67c:	00000000 	andeq	r0, r0, r0
     680:	2e544950 	mrccs	9, 2, r4, cr4, cr0, {2}
     684:	00000068 	andeq	r0, r0, r8, rrx
     688:	05000000 	streq	r0, [r0, #-0]
     68c:	0008ec02 	andeq	lr, r8, r2, lsl #24
     690:	1f221800 	svcne	0x00221800
     694:	59211f21 	stmdbpl	r1!, {r0, r5, r8, r9, sl, fp, ip}
     698:	1f212f3d 	svcne	0x00212f3d
     69c:	02042121 	andeq	r2, r4, #1073741832	; 0x40000008
     6a0:	3c04e603 	stccc	6, cr14, [r4], {3}
     6a4:	d7030304 	strle	r0, [r3, -r4, lsl #6]
     6a8:	01044a7d 	tsteq	r4, sp, ror sl
     6ac:	207dc903 	rsbscs	ip, sp, r3, lsl #18
     6b0:	01000b02 	tsteq	r0, r2, lsl #22
     6b4:	02050001 	andeq	r0, r5, #1
     6b8:	00000938 	andeq	r0, r0, r8, lsr r9
     6bc:	22011403 	andcs	r1, r1, #50331648	; 0x3000000
     6c0:	211f211f 	tstcs	pc, pc, lsl r1	; <UNPREDICTABLE>
     6c4:	212f3d59 	teqcs	pc, r9, asr sp	; <UNPREDICTABLE>
     6c8:	0421211f 	strteq	r2, [r1], #-287	; 0xfffffee1
     6cc:	04d80302 	ldrbeq	r0, [r8], #770	; 0x302
     6d0:	0303043c 	movweq	r0, #13372	; 0x343c
     6d4:	044a7dd7 	strbeq	r7, [sl], #-3543	; 0xfffff229
     6d8:	7dd80301 	ldclvc	3, cr0, [r8, #4]
     6dc:	000b0220 	andeq	r0, fp, r0, lsr #4
     6e0:	05000101 	streq	r0, [r0, #-257]	; 0xfffffeff
     6e4:	00098402 	andeq	r8, r9, r2, lsl #8
     6e8:	01240300 	teqeq	r4, r0, lsl #6
     6ec:	22103013 	andscs	r3, r0, #19
     6f0:	01000302 	tsteq	r0, r2, lsl #6
     6f4:	02050001 	andeq	r0, r5, #1
     6f8:	00000990 	muleq	r0, r0, r9
     6fc:	13012803 	movwne	r2, #6147	; 0x1803
     700:	02221030 	eoreq	r1, r2, #48	; 0x30
     704:	01010003 	tsteq	r1, r3
     708:	9c020500 	cfstr32ls	mvfx0, [r2], {-0}
     70c:	03000009 	movweq	r0, #9
     710:	0304012c 	movweq	r0, #16684	; 0x412c
     714:	2002a903 	andcs	sl, r2, r3, lsl #18
     718:	da030104 	ble	c0b30 <__DATA_END+0xbf204>
     71c:	2f4b207d 	svccs	0x004b207d
     720:	043d3d3e 	ldrteq	r3, [sp], #-3390	; 0xfffff2c2
     724:	02950303 	addseq	r0, r5, #201326592	; 0xc000000
     728:	0301043c 	movweq	r0, #5180	; 0x143c
     72c:	02207dee 	eoreq	r7, r0, #15232	; 0x3b80
     730:	01010005 	tsteq	r1, r5
     734:	00000396 	muleq	r0, r6, r3
     738:	00d70002 	sbcseq	r0, r7, r2
     73c:	01020000 	mrseq	r0, (UNDEF: 2)
     740:	000d0efb 	strdeq	r0, [sp], -fp
     744:	01010101 	tsteq	r1, r1, lsl #2
     748:	01000000 	mrseq	r0, (UNDEF: 0)
     74c:	2e010000 	cdpcs	0, 0, cr0, cr1, cr0, {0}
     750:	6d632f2e 	stclvs	15, cr2, [r3, #-184]!	; 0xffffff48
     754:	00736973 	rsbseq	r6, r3, r3, ror r9
     758:	7273752f 	rsbsvc	r7, r3, #197132288	; 0xbc00000
     75c:	6d72612f 	ldfvse	f6, [r2, #-188]!	; 0xffffff44
     760:	6e6f6e2d 	cdpvs	14, 6, cr6, cr15, cr13, {1}
     764:	61652d65 	cmnvs	r5, r5, ror #26
     768:	692f6962 	stmdbvs	pc!, {r1, r5, r6, r8, fp, sp, lr}	; <UNPREDICTABLE>
     76c:	756c636e 	strbvc	r6, [ip, #-878]!	; 0xfffffc92
     770:	6d2f6564 	cfstr32vs	mvfx6, [pc, #-400]!	; 5e8 <dequeue+0x1e>
     774:	69686361 	stmdbvs	r8!, {r0, r5, r6, r8, r9, sp, lr}^
     778:	2f00656e 	svccs	0x0000656e
     77c:	2f727375 	svccs	0x00727375
     780:	2d6d7261 	sfmcs	f7, 2, [sp, #-388]!	; 0xfffffe7c
     784:	656e6f6e 	strbvs	r6, [lr, #-3950]!	; 0xfffff092
     788:	6261652d 	rsbvs	r6, r1, #188743680	; 0xb400000
     78c:	6e692f69 	cdpvs	15, 6, cr2, cr9, cr9, {3}
     790:	64756c63 	ldrbtvs	r6, [r5], #-3171	; 0xfffff39d
     794:	79732f65 	ldmdbvc	r3!, {r0, r2, r5, r6, r8, r9, sl, fp, sp}^
     798:	75000073 	strvc	r0, [r0, #-115]	; 0xffffff8d
     79c:	2e747261 	cdpcs	2, 7, cr7, cr4, cr1, {3}
     7a0:	00000063 	andeq	r0, r0, r3, rrx
     7a4:	726f6300 	rsbvc	r6, pc, #0, 6
     7a8:	6d635f65 	stclvs	15, cr5, [r3, #-404]!	; 0xfffffe6c
     7ac:	636e7546 	cmnvs	lr, #293601280	; 0x11800000
     7b0:	0100682e 	tsteq	r0, lr, lsr #16
     7b4:	6f630000 	svcvs	0x00630000
     7b8:	635f6572 	cmpvs	pc, #478150656	; 0x1c800000
     7bc:	6c70306d 	ldclvs	0, cr3, [r0], #-436	; 0xfffffe4c
     7c0:	682e7375 	stmdavs	lr!, {r0, r2, r4, r5, r6, r8, r9, ip, sp, lr}
     7c4:	00000100 	andeq	r0, r0, r0, lsl #2
     7c8:	6665645f 			; <UNDEFINED> instruction: 0x6665645f
     7cc:	746c7561 	strbtvc	r7, [ip], #-1377	; 0xfffffa9f
     7d0:	7079745f 	rsbsvc	r7, r9, pc, asr r4
     7d4:	682e7365 	stmdavs	lr!, {r0, r2, r5, r6, r8, r9, ip, sp, lr}
     7d8:	00000200 	andeq	r0, r0, r0, lsl #4
     7dc:	6474735f 	ldrbtvs	r7, [r4], #-863	; 0xfffffca1
     7e0:	2e746e69 	cdpcs	14, 7, cr6, cr4, cr9, {3}
     7e4:	00030068 	andeq	r0, r3, r8, rrx
     7e8:	4c4b4d00 	mcrrmi	13, 0, r4, fp, cr0
     7ec:	345a3632 	ldrbcc	r3, [sl], #-1586	; 0xfffff9ce
     7f0:	0000682e 	andeq	r6, r0, lr, lsr #16
     7f4:	75710000 	ldrbvc	r0, [r1, #-0]!
     7f8:	2e657565 	cdpcs	5, 6, cr7, cr5, cr5, {3}
     7fc:	00000068 	andeq	r0, r0, r8, rrx
     800:	72617500 	rsbvc	r7, r1, #0, 10
     804:	00682e74 	rsbeq	r2, r8, r4, ror lr
     808:	67000000 	strvs	r0, [r0, -r0]
     80c:	682e7370 	stmdavs	lr!, {r4, r5, r6, r8, r9, ip, sp, lr}
     810:	00000000 	andeq	r0, r0, r0
     814:	02050000 	andeq	r0, r5, #0
     818:	00000000 	andeq	r0, r0, r0
     81c:	20010c03 	andcs	r0, r1, r3, lsl #24
     820:	02301f2f 	eorseq	r1, r0, #47, 30	; 0xbc
     824:	01010002 	tsteq	r1, r2
     828:	d0020500 	andle	r0, r2, r0, lsl #10
     82c:	03000009 	movweq	r0, #9
     830:	2120010f 	teqcs	r0, pc, lsl #2
     834:	1023211f 	eorne	r2, r3, pc, lsl r1
     838:	02022121 	andeq	r2, r2, #1073741832	; 0x40000008
     83c:	00010100 	andeq	r0, r1, r0, lsl #2
     840:	09e40205 	stmibeq	r4!, {r0, r2, r9}^
     844:	14030000 	strne	r0, [r3], #-0
     848:	201b1701 	andscs	r1, fp, r1, lsl #14
     84c:	59752f25 	ldmdbpl	r5!, {r0, r2, r5, r8, r9, sl, fp, sp}^
     850:	5b241c40 	blpl	907958 <__DATA_END+0x90602c>
     854:	3e213d1e 	mcrcc	13, 1, r3, cr1, cr14, {0}
     858:	763d4e2f 	ldrtvc	r4, [sp], -pc, lsr #28
     85c:	2f3e4c4b 	svccs	0x003e4c4b
     860:	4b4b773d 	blmi	12de55c <__DATA_END+0x12dcc30>
     864:	2f353e21 	svccs	0x00353e21
     868:	86030204 	strhi	r0, [r3], -r4, lsl #4
     86c:	01042e02 	tsteq	r4, r2, lsl #28
     870:	207dfe03 	rsbscs	pc, sp, r3, lsl #28
     874:	01002302 	tsteq	r0, r2, lsl #6
     878:	02050001 	andeq	r0, r5, #1
     87c:	00000000 	andeq	r0, r0, r0
     880:	0100c903 	tsteq	r0, r3, lsl #18
     884:	aa030304 	bge	c149c <__DATA_END+0xbfb70>
     888:	01040104 	tsteq	r4, r4, lsl #2
     88c:	4a7bd803 	bmi	1ef68a0 <__DATA_END+0x1ef4f74>
     890:	01000402 	tsteq	r0, r2, lsl #8
     894:	02050001 	andeq	r0, r5, #1
     898:	00000000 	andeq	r0, r0, r0
     89c:	0100d003 	tsteq	r0, r3
     8a0:	a3030304 	movwge	r0, #13060	; 0x3304
     8a4:	01040104 	tsteq	r4, r4, lsl #2
     8a8:	207bdf03 	rsbscs	sp, fp, r3, lsl #30
     8ac:	a1030304 	tstge	r3, r4, lsl #6
     8b0:	01042004 	tsteq	r4, r4
     8b4:	3c7bdf03 	ldclcc	15, cr13, [fp], #-12
     8b8:	023e1022 	eorseq	r1, lr, #34	; 0x22
     8bc:	01010005 	tsteq	r1, r5
     8c0:	00020500 	andeq	r0, r2, r0, lsl #10
     8c4:	03000000 	movweq	r0, #0
     8c8:	040100d5 	streq	r0, [r1], #-213	; 0xffffff2b
     8cc:	04aa0303 	strteq	r0, [sl], #771	; 0x303
     8d0:	03010401 	movweq	r0, #5121	; 0x1401
     8d4:	024a7bd8 	subeq	r7, sl, #216, 22	; 0x36000
     8d8:	01010004 	tsteq	r1, r4
     8dc:	00020500 	andeq	r0, r2, r0, lsl #10
     8e0:	03000000 	movweq	r0, #0
     8e4:	2e0101b0 	fltcsdp	f1, r0
     8e8:	1f211f21 	svcne	0x00211f21
     8ec:	0402004b 	streq	r0, [r2], #-75	; 0xffffffb5
     8f0:	02043d01 	andeq	r3, r4, #1, 26	; 0x40
     8f4:	4a01a303 	bmi	69508 <__DATA_END+0x67bdc>
     8f8:	df030104 	svcle	0x00030104
     8fc:	0204207e 	andeq	r2, r4, #126	; 0x7e
     900:	3c019603 	stccc	6, cr9, [r1], {3}
     904:	ec030104 	stfs	f0, [r3], {4}
     908:	112f207e 	teqne	pc, lr, ror r0	; <UNPREDICTABLE>
     90c:	0004023d 	andeq	r0, r4, sp, lsr r2
     910:	05000101 	streq	r0, [r0, #-257]	; 0xfffffeff
     914:	00000002 	andeq	r0, r0, r2
     918:	019a0300 	orrseq	r0, sl, r0, lsl #6
     91c:	2f2c8901 	svccs	0x002c8901
     920:	000502cc 	andeq	r0, r5, ip, asr #5
     924:	05000101 	streq	r0, [r0, #-257]	; 0xfffffeff
     928:	000ae402 	andeq	lr, sl, r2, lsl #8
     92c:	01b90300 			; <UNDEFINED> instruction: 0x01b90300
     930:	1f212001 	svcne	0x00212001
     934:	00211f4b 	eoreq	r1, r1, fp, asr #30
     938:	3d010402 	cfstrscc	mvf0, [r1, #-8]
     93c:	0202214b 	andeq	r2, r2, #-1073741806	; 0xc0000012
     940:	00010100 	andeq	r0, r1, r0, lsl #2
     944:	0b0a0205 	bleq	281160 <__DATA_END+0x27f834>
     948:	a5030000 	strge	r0, [r3, #-0]
     94c:	2c890101 	stfcss	f0, [r9], {1}
     950:	0502cc2f 	streq	ip, [r2, #-3119]	; 0xfffff3d1
     954:	00010100 	andeq	r0, r1, r0, lsl #2
     958:	00000205 	andeq	r0, r0, r5, lsl #4
     95c:	be030000 	cdplt	0, 0, cr0, cr3, cr0, {0}
     960:	1c320101 	ldfnes	f0, [r2], #-4
     964:	02042f5c 	andeq	r2, r4, #92, 30	; 0x170
     968:	58019203 	stmdapl	r1, {r0, r1, r9, ip, pc}
     96c:	f0030104 			; <UNDEFINED> instruction: 0xf0030104
     970:	0204207e 	andeq	r2, r4, #126	; 0x7e
     974:	3c018503 	cfstr32cc	mvfx8, [r1], {3}
     978:	fd030104 	stc2	1, cr0, [r3, #-16]
     97c:	2123207e 	teqcs	r3, lr, ror r0
     980:	01000602 	tsteq	r0, r2, lsl #12
     984:	02050001 	andeq	r0, r5, #1
     988:	00000000 	andeq	r0, r0, r0
     98c:	0100d803 	tsteq	r0, r3, lsl #16
     990:	207a0334 	rsbscs	r0, sl, r4, lsr r3
     994:	4f1b2520 	svcmi	0x001b2520
     998:	9231ad23 	eorsls	sl, r1, #2240	; 0x8c0
     99c:	2f3d833d 	svccs	0x003d833d
     9a0:	30242123 	eorcc	r2, r4, r3, lsr #2
     9a4:	02502130 	subseq	r2, r0, #48, 2
     9a8:	01010006 	tsteq	r1, r6
     9ac:	00020500 	andeq	r0, r2, r0, lsl #10
     9b0:	03000000 	movweq	r0, #0
     9b4:	3c0101cd 	stfccs	f0, [r1], {205}	; 0xcd
     9b8:	3c7a0342 	ldclcc	3, cr0, [sl], #-264	; 0xfffffef8
     9bc:	1c339226 	lfmne	f1, 1, [r3], #-152	; 0xffffff68
     9c0:	3f253a24 	svccc	0x00253a24
     9c4:	ad211f21 	stcge	15, cr1, [r1, #-132]!	; 0xffffff7c
     9c8:	00090228 	andeq	r0, r9, r8, lsr #4
     9cc:	05000101 	streq	r0, [r0, #-257]	; 0xfffffeff
     9d0:	00000002 	andeq	r0, r0, r2
     9d4:	01ec0300 	mvneq	r0, r0, lsl #6
     9d8:	03262e01 	teqeq	r6, #1, 28
     9dc:	0326207a 	teqeq	r6, #122	; 0x7a
     9e0:	2134207a 	teqcs	r4, sl, ror r0
     9e4:	02002f1f 	andeq	r2, r0, #31, 30	; 0x7c
     9e8:	3c060104 	stfccs	f0, [r6], {4}
     9ec:	0d259f06 	stceq	15, cr9, [r5, #-24]!	; 0xffffffe8
     9f0:	00070225 	andeq	r0, r7, r5, lsr #4
     9f4:	05000101 	streq	r0, [r0, #-257]	; 0xfffffeff
     9f8:	00000002 	andeq	r0, r0, r2
     9fc:	00fe0300 	rscseq	r0, lr, r0, lsl #6
     a00:	79033501 	stmdbvc	r3, {r0, r8, sl, ip, sp}
     a04:	1b252020 	blne	948a8c <__DATA_END+0x947160>
     a08:	ad2f304f 	stcge	0, cr3, [pc, #-316]!	; 8d4 <cwSend+0x70>
     a0c:	312fad92 			; <UNDEFINED> instruction: 0x312fad92
     a10:	32213022 	eorcc	r3, r1, #34	; 0x22
     a14:	00060230 	andeq	r0, r6, r0, lsr r2
     a18:	05000101 	streq	r0, [r0, #-257]	; 0xfffffeff
     a1c:	00000002 	andeq	r0, r0, r2
     a20:	01fa0300 	mvnseq	r0, r0, lsl #6
     a24:	04020001 	streq	r0, [r2], #-1
     a28:	003d5901 	eorseq	r5, sp, r1, lsl #18
     a2c:	06010402 	streq	r0, [r1], -r2, lsl #8
     a30:	024b0620 	subeq	r0, fp, #32, 12	; 0x2000000
     a34:	01010002 	tsteq	r1, r2
     a38:	48020500 	stmdami	r2, {r8, sl}
     a3c:	0300000b 	movweq	r0, #11
     a40:	150101fe 	strne	r0, [r1, #-510]	; 0xfffffe02
     a44:	0204231d 	andeq	r2, r4, #1946157056	; 0x74000000
     a48:	3c00d403 	cfstrscc	mvf13, [r0], {3}
     a4c:	ae030104 	adfges	f0, f3, f4
     a50:	3d2f207f 	stccc	0, cr2, [pc, #-508]!	; 85c <cwTone+0x30>
     a54:	221e3e3d 	andscs	r3, lr, #976	; 0x3d0
     a58:	211f4e4c 	tstcs	pc, ip, asr #28
     a5c:	3021211f 	eorcc	r2, r1, pc, lsl r1
     a60:	211f211f 	tstcs	pc, pc, lsl r1	; <UNPREDICTABLE>
     a64:	042f4b30 	strteq	r4, [pc], #-2864	; a6c <uartInit+0x88>
     a68:	3c350302 	ldccc	3, cr0, [r5], #-8
     a6c:	4f030104 	svcmi	0x00030104
     a70:	000a0220 	andeq	r0, sl, r0, lsr #4
     a74:	05000101 	streq	r0, [r0, #-257]	; 0xfffffeff
     a78:	000bc002 	andeq	ip, fp, r2
     a7c:	029a0300 	addseq	r0, sl, #0, 6
     a80:	03020401 	movweq	r0, #9217	; 0x2401
     a84:	0104203b 	tsteq	r4, fp, lsr r0
     a88:	3d204903 	stccc	9, cr4, [r0, #-12]!
     a8c:	221e3e3d 	andscs	r3, lr, #976	; 0x3d0
     a90:	04304d4c 	ldrteq	r4, [r0], #-3404	; 0xfffff2b4
     a94:	4a210302 	bmi	8416a4 <__DATA_END+0x83fd78>
     a98:	62030104 	andvs	r0, r3, #4, 2
     a9c:	00080220 	andeq	r0, r8, r0, lsr #4
     aa0:	05000101 	streq	r0, [r0, #-257]	; 0xfffffeff
     aa4:	000c0802 	andeq	r0, ip, r2, lsl #16
     aa8:	02ad0300 	adceq	r0, sp, #0, 6
     aac:	03020401 	movweq	r0, #9217	; 0x2401
     ab0:	01042028 	tsteq	r4, r8, lsr #32
     ab4:	3d205c03 	stccc	12, cr5, [r0, #-12]!
     ab8:	221e3e3d 	andscs	r3, lr, #976	; 0x3d0
     abc:	042f4d4c 	strteq	r4, [pc], #-3404	; ac4 <uartInit+0xe0>
     ac0:	580f0302 	stmdapl	pc, {r1, r8, r9}	; <UNPREDICTABLE>
     ac4:	74030104 	strvc	r0, [r3], #-260	; 0xfffffefc
     ac8:	00070220 	andeq	r0, r7, r0, lsr #4
     acc:	01730101 	cmneq	r3, r1, lsl #2
     ad0:	00020000 	andeq	r0, r2, r0
     ad4:	000000cf 	andeq	r0, r0, pc, asr #1
     ad8:	0efb0102 	cdpeq	1, 15, cr0, cr11, cr2, {0}
     adc:	0101000d 	tsteq	r1, sp
     ae0:	00000101 	andeq	r0, r0, r1, lsl #2
     ae4:	00000100 	andeq	r0, r0, r0, lsl #2
     ae8:	73752f01 	cmnvc	r5, #1, 30
     aec:	72612f72 	rsbvc	r2, r1, #456	; 0x1c8
     af0:	6f6e2d6d 	svcvs	0x006e2d6d
     af4:	652d656e 	strvs	r6, [sp, #-1390]!	; 0xfffffa92
     af8:	2f696261 	svccs	0x00696261
     afc:	6c636e69 	stclvs	14, cr6, [r3], #-420	; 0xfffffe5c
     b00:	2f656475 	svccs	0x00656475
     b04:	6863616d 	stmdavs	r3!, {r0, r2, r3, r5, r6, r8, sp, lr}^
     b08:	00656e69 	rsbeq	r6, r5, r9, ror #28
     b0c:	7273752f 	rsbsvc	r7, r3, #197132288	; 0xbc00000
     b10:	6d72612f 	ldfvse	f6, [r2, #-188]!	; 0xffffff44
     b14:	6e6f6e2d 	cdpvs	14, 6, cr6, cr15, cr13, {1}
     b18:	61652d65 	cmnvs	r5, r5, ror #26
     b1c:	692f6962 	stmdbvs	pc!, {r1, r5, r6, r8, fp, sp, lr}	; <UNPREDICTABLE>
     b20:	756c636e 	strbvc	r6, [ip, #-878]!	; 0xfffffc92
     b24:	732f6564 	teqvc	pc, #100, 10	; 0x19000000
     b28:	00007379 	andeq	r7, r0, r9, ror r3
     b2c:	6e69616d 	powvsez	f6, f1, #5.0
     b30:	0000632e 	andeq	r6, r0, lr, lsr #6
     b34:	645f0000 	ldrbvs	r0, [pc], #-0	; b3c <uartPutStringBlock+0x32>
     b38:	75616665 	strbvc	r6, [r1, #-1637]!	; 0xfffff99b
     b3c:	745f746c 	ldrbvc	r7, [pc], #-1132	; b44 <uartPutStringBlock+0x3a>
     b40:	73657079 	cmnvc	r5, #121	; 0x79
     b44:	0100682e 	tsteq	r0, lr, lsr #16
     b48:	735f0000 	cmpvc	pc, #0
     b4c:	6e696474 	mcrvs	4, 3, r6, cr9, cr4, {3}
     b50:	00682e74 	rsbeq	r2, r8, r4, ror lr
     b54:	4d000002 	stcmi	0, cr0, [r0, #-8]
     b58:	36324c4b 	ldrtcc	r4, [r2], -fp, asr #24
     b5c:	682e345a 	stmdavs	lr!, {r1, r3, r4, r6, sl, ip, sp}
     b60:	00000000 	andeq	r0, r0, r0
     b64:	2e737067 	cdpcs	0, 7, cr7, cr3, cr7, {3}
     b68:	00000068 	andeq	r0, r0, r8, rrx
     b6c:	72617500 	rsbvc	r7, r1, #0, 10
     b70:	00682e74 	rsbeq	r2, r8, r4, ror lr
     b74:	69000000 	stmdbvs	r0, {}	; <UNPREDICTABLE>
     b78:	682e6332 	stmdavs	lr!, {r1, r4, r5, r8, r9, sp, lr}
     b7c:	00000000 	andeq	r0, r0, r0
     b80:	2e617264 	cdpcs	2, 6, cr7, cr1, cr4, {3}
     b84:	00000068 	andeq	r0, r0, r8, rrx
     b88:	6c656400 	cfstrdvs	mvd6, [r5], #-0
     b8c:	682e7961 	stmdavs	lr!, {r0, r5, r6, r8, fp, ip, sp, lr}
     b90:	00000000 	andeq	r0, r0, r0
     b94:	682e7763 	stmdavs	lr!, {r0, r1, r5, r6, r8, r9, sl, ip, sp, lr}
     b98:	00000000 	andeq	r0, r0, r0
     b9c:	73727061 	cmnvc	r2, #97	; 0x61
     ba0:	0000682e 	andeq	r6, r0, lr, lsr #16
     ba4:	00000000 	andeq	r0, r0, r0
     ba8:	0c500205 	lfmeq	f0, 2, [r0], {5}
     bac:	1a030000 	bne	c0bb4 <__DATA_END+0xbf288>
     bb0:	1f211701 	svcne	0x00211701
     bb4:	2821251b 	stmdacs	r1!, {r0, r1, r3, r4, r8, sl, sp}
     bb8:	21207803 	teqcs	r0, r3, lsl #16
     bbc:	04020040 	streq	r0, [r2], #-64	; 0xffffffc0
     bc0:	00593f01 	subseq	r3, r9, r1, lsl #30
     bc4:	06010402 	streq	r0, [r1], -r2, lsl #8
     bc8:	003d0620 	eorseq	r0, sp, r0, lsr #12
     bcc:	06010402 	streq	r0, [r1], -r2, lsl #8
     bd0:	31680620 	cmncc	r8, r0, lsr #12
     bd4:	04020030 	streq	r0, [r2], #-48	; 0xffffffd0
     bd8:	06200601 	strteq	r0, [r0], -r1, lsl #12
     bdc:	0402004b 	streq	r0, [r2], #-75	; 0xffffffb5
     be0:	06200601 	strteq	r0, [r0], -r1, lsl #12
     be4:	02003e4b 	andeq	r3, r0, #1200	; 0x4b0
     be8:	20060104 	andcs	r0, r6, r4, lsl #2
     bec:	024c4b06 	subeq	r4, ip, #6144	; 0x1800
     bf0:	0101000a 	tsteq	r1, sl
     bf4:	d4020500 	strle	r0, [r2], #-1280	; 0xfffffb00
     bf8:	0300000c 	movweq	r0, #12
     bfc:	30230139 	eorcc	r0, r3, r9, lsr r1
     c00:	1f303d1e 	svcne	0x00303d1e
     c04:	222f1f3d 	eorcs	r1, pc, #61, 30	; 0xf4
     c08:	1e222f1e 	mcrne	15, 1, r2, cr2, cr14, {0}
     c0c:	2f1f3d3d 	svccs	0x001f3d3d
     c10:	03200c03 	teqeq	r0, #768	; 0x300
     c14:	bb2f0174 	bllt	bc11ec <__DATA_END+0xbbf8c0>
     c18:	5a2f2f21 	bpl	bcc8a4 <__DATA_END+0xbcaf78>
     c1c:	000d0241 	andeq	r0, sp, r1, asr #4
     c20:	05000101 	streq	r0, [r0, #-257]	; 0xfffffeff
     c24:	000d6402 	andeq	r6, sp, r2, lsl #8
     c28:	00cf0300 	sbceq	r0, pc, r0, lsl #6
     c2c:	0b032601 	bleq	ca438 <__DATA_END+0xc8b0c>
     c30:	2f2f2f2e 	svccs	0x002f2f2e
     c34:	4b2f3f2f 	blmi	bd08f8 <__DATA_END+0xbcefcc>
     c38:	3d4b4b2f 	vstrcc	d20, [fp, #-188]	; 0xffffff44
     c3c:	3d2f3d30 	stccc	13, cr3, [pc, #-192]!	; b84 <UART0_IRQHandler+0x3c>
     c40:	01000702 	tsteq	r0, r2, lsl #14
     c44:	00008501 	andeq	r8, r0, r1, lsl #10
     c48:	7f000200 	svcvc	0x00000200
     c4c:	02000000 	andeq	r0, r0, #0
     c50:	0d0efb01 	vstreq	d15, [lr, #-4]
     c54:	01010100 	mrseq	r0, (UNDEF: 17)
     c58:	00000001 	andeq	r0, r0, r1
     c5c:	01000001 	tsteq	r0, r1
     c60:	7273752f 	rsbsvc	r7, r3, #197132288	; 0xbc00000
     c64:	6d72612f 	ldfvse	f6, [r2, #-188]!	; 0xffffff44
     c68:	6e6f6e2d 	cdpvs	14, 6, cr6, cr15, cr13, {1}
     c6c:	61652d65 	cmnvs	r5, r5, ror #26
     c70:	692f6962 	stmdbvs	pc!, {r1, r5, r6, r8, fp, sp, lr}	; <UNPREDICTABLE>
     c74:	756c636e 	strbvc	r6, [ip, #-878]!	; 0xfffffc92
     c78:	6d2f6564 	cfstr32vs	mvfx6, [pc, #-400]!	; af0 <uartPutCharBlock+0xc>
     c7c:	69686361 	stmdbvs	r8!, {r0, r5, r6, r8, r9, sp, lr}^
     c80:	2f00656e 	svccs	0x0000656e
     c84:	2f727375 	svccs	0x00727375
     c88:	2d6d7261 	sfmcs	f7, 2, [sp, #-388]!	; 0xfffffe7c
     c8c:	656e6f6e 	strbvs	r6, [lr, #-3950]!	; 0xfffff092
     c90:	6261652d 	rsbvs	r6, r1, #188743680	; 0xb400000
     c94:	6e692f69 	cdpvs	15, 6, cr2, cr9, cr9, {3}
     c98:	64756c63 	ldrbtvs	r6, [r5], #-3171	; 0xfffff39d
     c9c:	79732f65 	ldmdbvc	r3!, {r0, r2, r5, r6, r8, r9, sl, fp, sp}^
     ca0:	5f000073 	svcpl	0x00000073
     ca4:	61666564 	cmnvs	r6, r4, ror #10
     ca8:	5f746c75 	svcpl	0x00746c75
     cac:	65707974 	ldrbvs	r7, [r0, #-2420]!	; 0xfffff68c
     cb0:	00682e73 	rsbeq	r2, r8, r3, ror lr
     cb4:	5f000001 	svcpl	0x00000001
     cb8:	69647473 	stmdbvs	r4!, {r0, r1, r4, r5, r6, sl, ip, sp, lr}^
     cbc:	682e746e 	stmdavs	lr!, {r1, r2, r3, r5, r6, sl, ip, sp, lr}
     cc0:	00000200 	andeq	r0, r0, r0, lsl #4
     cc4:	2e6e6973 	mcrcs	9, 3, r6, cr14, cr3, {3}
     cc8:	00000063 	andeq	r0, r0, r3, rrx
     ccc:	01fc0000 	mvnseq	r0, r0
     cd0:	00020000 	andeq	r0, r2, r0
     cd4:	000000aa 	andeq	r0, r0, sl, lsr #1
     cd8:	0efb0102 	cdpeq	1, 15, cr0, cr11, cr2, {0}
     cdc:	0101000d 	tsteq	r1, sp
     ce0:	00000101 	andeq	r0, r0, r1, lsl #2
     ce4:	00000100 	andeq	r0, r0, r0, lsl #2
     ce8:	73752f01 	cmnvc	r5, #1, 30
     cec:	72612f72 	rsbvc	r2, r1, #456	; 0x1c8
     cf0:	6f6e2d6d 	svcvs	0x006e2d6d
     cf4:	652d656e 	strvs	r6, [sp, #-1390]!	; 0xfffffa92
     cf8:	2f696261 	svccs	0x00696261
     cfc:	6c636e69 	stclvs	14, cr6, [r3], #-420	; 0xfffffe5c
     d00:	2f656475 	svccs	0x00656475
     d04:	6863616d 	stmdavs	r3!, {r0, r2, r3, r5, r6, r8, sp, lr}^
     d08:	00656e69 	rsbeq	r6, r5, r9, ror #28
     d0c:	7273752f 	rsbsvc	r7, r3, #197132288	; 0xbc00000
     d10:	6d72612f 	ldfvse	f6, [r2, #-188]!	; 0xffffff44
     d14:	6e6f6e2d 	cdpvs	14, 6, cr6, cr15, cr13, {1}
     d18:	61652d65 	cmnvs	r5, r5, ror #26
     d1c:	692f6962 	stmdbvs	pc!, {r1, r5, r6, r8, fp, sp, lr}	; <UNPREDICTABLE>
     d20:	756c636e 	strbvc	r6, [ip, #-878]!	; 0xfffffc92
     d24:	732f6564 	teqvc	pc, #100, 10	; 0x19000000
     d28:	00007379 	andeq	r7, r0, r9, ror r3
     d2c:	2e617264 	cdpcs	2, 6, cr7, cr1, cr4, {3}
     d30:	00000063 	andeq	r0, r0, r3, rrx
     d34:	65645f00 	strbvs	r5, [r4, #-3840]!	; 0xfffff100
     d38:	6c756166 	ldfvse	f6, [r5], #-408	; 0xfffffe68
     d3c:	79745f74 	ldmdbvc	r4!, {r2, r4, r5, r6, r8, r9, sl, fp, ip, lr}^
     d40:	2e736570 	mrccs	5, 3, r6, cr3, cr0, {3}
     d44:	00010068 	andeq	r0, r1, r8, rrx
     d48:	74735f00 	ldrbtvc	r5, [r3], #-3840	; 0xfffff100
     d4c:	746e6964 	strbtvc	r6, [lr], #-2404	; 0xfffff69c
     d50:	0200682e 	andeq	r6, r0, #3014656	; 0x2e0000
     d54:	4b4d0000 	blmi	1340d5c <__DATA_END+0x133f430>
     d58:	5a36324c 	bpl	d8d690 <__DATA_END+0xd8bd64>
     d5c:	00682e34 	rsbeq	r2, r8, r4, lsr lr
     d60:	71000000 	mrsvc	r0, (UNDEF: 0)
     d64:	65756575 	ldrbvs	r6, [r5, #-1397]!	; 0xfffffa8b
     d68:	0000682e 	andeq	r6, r0, lr, lsr #16
     d6c:	61750000 	cmnvs	r5, r0
     d70:	682e7472 	stmdavs	lr!, {r1, r4, r5, r6, sl, ip, sp, lr}
     d74:	00000000 	andeq	r0, r0, r0
     d78:	2e617264 	cdpcs	2, 6, cr7, cr1, cr4, {3}
     d7c:	00000068 	andeq	r0, r0, r8, rrx
     d80:	05000000 	streq	r0, [r0, #-0]
     d84:	000dc802 	andeq	ip, sp, r2, lsl #16
     d88:	00141900 	andseq	r1, r4, r0, lsl #18
     d8c:	22010402 	andcs	r0, r1, #33554432	; 0x2000000
     d90:	01040200 	mrseq	r0, R12_usr
     d94:	02025a2f 	andeq	r5, r2, #192512	; 0x2f000
     d98:	00010100 	andeq	r0, r1, r0, lsl #2
     d9c:	0ddc0205 	lfmeq	f0, 2, [ip, #20]
     da0:	12030000 	andne	r0, r3, #0
     da4:	4b592201 	blmi	16495b0 <__DATA_END+0x1647c84>
     da8:	311d5b59 	tstcc	sp, r9, asr fp
     dac:	032e0a03 	teqeq	lr, #12288	; 0x3000
     db0:	4b2f2076 	blmi	bc8f90 <__DATA_END+0xbc7664>
     db4:	78032821 	stmdavc	r3, {r0, r5, fp, sp}
     db8:	0c032120 	stfeqs	f2, [r3], {32}
     dbc:	0174033c 	cmneq	r4, ip, lsr r3
     dc0:	59211f21 	stmdbpl	r1!, {r0, r5, r8, r9, sl, fp, ip}
     dc4:	2f21233d 	svccs	0x0021233d
     dc8:	001d0224 	andseq	r0, sp, r4, lsr #4
     dcc:	05000101 	streq	r0, [r0, #-257]	; 0xfffffeff
     dd0:	000e8402 	andeq	r8, lr, r2, lsl #8
     dd4:	012c0300 	teqeq	ip, r0, lsl #6
     dd8:	21221f25 	teqcs	r2, r5, lsr #30
     ddc:	76032621 	strvc	r2, [r3], -r1, lsr #12
     de0:	221f2120 	andscs	r2, pc, #32, 2
     de4:	78032121 	stmdavc	r3, {r0, r5, r8, sp}
     de8:	21212420 	teqcs	r1, r0, lsr #8
     dec:	21212121 	teqcs	r1, r1, lsr #2
     df0:	03212121 	teqeq	r1, #1073741832	; 0x40000008
     df4:	7503200c 	strvc	r2, [r3, #-12]
     df8:	d93e302e 	ldmdble	lr!, {r1, r2, r3, r5, ip, sp}
     dfc:	301e40ca 	andscc	r4, lr, sl, asr #1
     e00:	000b0242 	andeq	r0, fp, r2, asr #4
     e04:	05000101 	streq	r0, [r0, #-257]	; 0xfffffeff
     e08:	000f2002 	andeq	r2, pc, r2
     e0c:	00e10300 	rsceq	r0, r1, r0, lsl #6
     e10:	241c2401 	ldrcs	r2, [ip], #-1025	; 0xfffffbff
     e14:	03200f03 	teqeq	r0, #3, 30
     e18:	02002071 	andeq	r2, r0, #113	; 0x71
     e1c:	00310104 	eorseq	r0, r1, r4, lsl #2
     e20:	03010402 	movweq	r0, #5122	; 0x1402
     e24:	0200e409 	andeq	lr, r0, #150994944	; 0x9000000
     e28:	001f0104 	andseq	r0, pc, r4, lsl #2
     e2c:	4b010402 	blmi	41e3c <__DATA_END+0x40510>
     e30:	0802242f 	stmdaeq	r2, {r0, r1, r2, r3, r5, sl, sp}
     e34:	00010100 	andeq	r0, r1, r0, lsl #2
     e38:	00000205 	andeq	r0, r0, r5, lsl #4
     e3c:	cf030000 	svcgt	0x00030000
     e40:	1d150100 	ldfnes	f0, [r5, #-0]
     e44:	04020024 	streq	r0, [r2], #-36	; 0xffffffdc
     e48:	00200603 	eoreq	r0, r0, r3, lsl #12
     e4c:	06030402 	streq	r0, [r3], -r2, lsl #8
     e50:	022f3f2d 	eoreq	r3, pc, #45, 30	; 0xb4
     e54:	01010004 	tsteq	r1, r4
     e58:	00020500 	andeq	r0, r2, r0, lsl #10
     e5c:	03000000 	movweq	r0, #0
     e60:	150100d8 	strne	r0, [r1, #-216]	; 0xffffff28
     e64:	0200241d 	andeq	r2, r0, #486539264	; 0x1d000000
     e68:	20060304 	andcs	r0, r6, r4, lsl #6
     e6c:	03040200 	movweq	r0, #16896	; 0x4200
     e70:	02002d06 	andeq	r2, r0, #384	; 0x180
     e74:	00210304 	eoreq	r0, r1, r4, lsl #6
     e78:	1f030402 	svcne	0x00030402
     e7c:	03022f31 	movweq	r2, #12081	; 0x2f31
     e80:	00010100 	andeq	r0, r1, r0, lsl #2
     e84:	0f6c0205 	svceq	0x006c0205
     e88:	f8030000 			; <UNDEFINED> instruction: 0xf8030000
     e8c:	4b140100 	blmi	501294 <__DATA_END+0x4ff968>
     e90:	0006024b 	andeq	r0, r6, fp, asr #4
     e94:	05000101 	streq	r0, [r0, #-257]	; 0xfffffeff
     e98:	000f8802 	andeq	r8, pc, r2, lsl #16
     e9c:	00fd0300 	rscseq	r0, sp, r0, lsl #6
     ea0:	4c4b1301 	mcrrmi	3, 0, r1, fp, cr1
     ea4:	01000602 	tsteq	r0, r2, lsl #12
     ea8:	02050001 	andeq	r0, r5, #1
     eac:	00000fa4 	andeq	r0, r0, r4, lsr #31
     eb0:	01018303 	tsteq	r1, r3, lsl #6
     eb4:	21112f13 	tstcs	r1, r3, lsl pc
     eb8:	01000302 	tsteq	r0, r2, lsl #6
     ebc:	02050001 	andeq	r0, r5, #1
     ec0:	00000fb0 			; <UNDEFINED> instruction: 0x00000fb0
     ec4:	01018703 	tsteq	r1, r3, lsl #14
     ec8:	00010213 	andeq	r0, r1, r3, lsl r2
     ecc:	014d0101 	cmpeq	sp, r1, lsl #2
     ed0:	00020000 	andeq	r0, r2, r0
     ed4:	0000009f 	muleq	r0, pc, r0	; <UNPREDICTABLE>
     ed8:	0efb0102 	cdpeq	1, 15, cr0, cr11, cr2, {0}
     edc:	0101000d 	tsteq	r1, sp
     ee0:	00000101 	andeq	r0, r0, r1, lsl #2
     ee4:	00000100 	andeq	r0, r0, r0, lsl #2
     ee8:	73752f01 	cmnvc	r5, #1, 30
     eec:	72612f72 	rsbvc	r2, r1, #456	; 0x1c8
     ef0:	6f6e2d6d 	svcvs	0x006e2d6d
     ef4:	652d656e 	strvs	r6, [sp, #-1390]!	; 0xfffffa92
     ef8:	2f696261 	svccs	0x00696261
     efc:	6c636e69 	stclvs	14, cr6, [r3], #-420	; 0xfffffe5c
     f00:	2f656475 	svccs	0x00656475
     f04:	6863616d 	stmdavs	r3!, {r0, r2, r3, r5, r6, r8, sp, lr}^
     f08:	00656e69 	rsbeq	r6, r5, r9, ror #28
     f0c:	7273752f 	rsbsvc	r7, r3, #197132288	; 0xbc00000
     f10:	6d72612f 	ldfvse	f6, [r2, #-188]!	; 0xffffff44
     f14:	6e6f6e2d 	cdpvs	14, 6, cr6, cr15, cr13, {1}
     f18:	61652d65 	cmnvs	r5, r5, ror #26
     f1c:	692f6962 	stmdbvs	pc!, {r1, r5, r6, r8, fp, sp, lr}	; <UNPREDICTABLE>
     f20:	756c636e 	strbvc	r6, [ip, #-878]!	; 0xfffffc92
     f24:	732f6564 	teqvc	pc, #100, 10	; 0x19000000
     f28:	00007379 	andeq	r7, r0, r9, ror r3
     f2c:	2e737067 	cdpcs	0, 7, cr7, cr3, cr7, {3}
     f30:	00000063 	andeq	r0, r0, r3, rrx
     f34:	65645f00 	strbvs	r5, [r4, #-3840]!	; 0xfffff100
     f38:	6c756166 	ldfvse	f6, [r5], #-408	; 0xfffffe68
     f3c:	79745f74 	ldmdbvc	r4!, {r2, r4, r5, r6, r8, r9, sl, fp, ip, lr}^
     f40:	2e736570 	mrccs	5, 3, r6, cr3, cr0, {3}
     f44:	00010068 	andeq	r0, r1, r8, rrx
     f48:	74735f00 	ldrbtvc	r5, [r3], #-3840	; 0xfffff100
     f4c:	746e6964 	strbtvc	r6, [lr], #-2404	; 0xfffff69c
     f50:	0200682e 	andeq	r6, r0, #3014656	; 0x2e0000
     f54:	4b4d0000 	blmi	1340f5c <__DATA_END+0x133f630>
     f58:	5a36324c 	bpl	d8d890 <__DATA_END+0xd8bf64>
     f5c:	00682e34 	rsbeq	r2, r8, r4, lsr lr
     f60:	67000000 	strvs	r0, [r0, -r0]
     f64:	682e7370 	stmdavs	lr!, {r4, r5, r6, r8, r9, ip, sp, lr}
     f68:	00000000 	andeq	r0, r0, r0
     f6c:	74726175 	ldrbtvc	r6, [r2], #-373	; 0xfffffe8b
     f70:	0000682e 	andeq	r6, r0, lr, lsr #16
     f74:	00000000 	andeq	r0, r0, r0
     f78:	0fb40205 	svceq	0x00b40205
     f7c:	0b030000 	bleq	c0f84 <__DATA_END+0xbf658>
     f80:	0e321501 	cdpeq	5, 3, cr1, cr2, cr1, {0}
     f84:	02302f21 	eorseq	r2, r0, #33, 30	; 0x84
     f88:	01010007 	tsteq	r1, r7
     f8c:	d0020500 	andle	r0, r2, r0, lsl #10
     f90:	0300000f 	movweq	r0, #15
     f94:	00220118 	eoreq	r0, r2, r8, lsl r1
     f98:	06010402 	streq	r0, [r1], -r2, lsl #8
     f9c:	214b0658 	cmpcs	fp, r8, asr r6
     fa0:	2f2f321f 	svccs	0x002f321f
     fa4:	01040200 	mrseq	r0, R12_usr
     fa8:	302f2f21 	eorcc	r2, pc, r1, lsr #30
     fac:	2f2f221e 	svccs	0x002f221e
     fb0:	211f3222 	tstcs	pc, r2, lsr #4
     fb4:	4c672f4b 	stclmi	15, cr2, [r7], #-300	; 0xfffffed4
     fb8:	9e0e032f 	cdpls	3, 0, cr0, cr14, cr15, {1}
     fbc:	032e7203 	teqeq	lr, #805306368	; 0x30000000
     fc0:	76034a0a 	strvc	r4, [r3], -sl, lsl #20
     fc4:	741a032e 	ldrvc	r0, [sl], #-814	; 0xfffffcd2
     fc8:	4c2e6603 	stcmi	6, cr6, [lr], #-12
     fcc:	2e0c0332 	mcrcs	3, 0, r0, cr12, cr2, {1}
     fd0:	26212f32 	qasxcs	r2, r1, r2
     fd4:	22342f32 	eorscs	r2, r4, #50, 30	; 0xc8
     fd8:	212f4c3d 	teqcs	pc, sp, lsr ip	; <UNPREDICTABLE>
     fdc:	4b200903 	blmi	8033f0 <__DATA_END+0x801ac4>
     fe0:	0022025b 	eoreq	r0, r2, fp, asr r2
     fe4:	05000101 	streq	r0, [r0, #-257]	; 0xfffffeff
     fe8:	00000002 	andeq	r0, r0, r2
     fec:	00f30300 	rscseq	r0, r3, r0, lsl #6
     ff0:	231c1601 	tstcs	ip, #1048576	; 0x100000
     ff4:	21212d2f 	teqcs	r1, pc, lsr #26
     ff8:	0402002f 	streq	r0, [r2], #-47	; 0xffffffd1
     ffc:	06580601 	ldrbeq	r0, [r8], -r1, lsl #12
    1000:	311f219f 			; <UNDEFINED> instruction: 0x311f219f
    1004:	0802212f 	stmdaeq	r2, {r0, r1, r2, r3, r5, r8, sp}
    1008:	00010100 	andeq	r0, r1, r0, lsl #2
    100c:	11080205 	tstne	r8, r5, lsl #4
    1010:	81030000 	mrshi	r0, (UNDEF: 3)
    1014:	21220101 	teqcs	r2, r1, lsl #2
    1018:	04024c4b 	streq	r4, [r2], #-3147	; 0xfffff3b5
    101c:	b7010100 	strlt	r0, [r1, -r0, lsl #2]
    1020:	02000000 	andeq	r0, r0, #0
    1024:	00008e00 	andeq	r8, r0, r0, lsl #28
    1028:	fb010200 	blx	41832 <__DATA_END+0x3ff06>
    102c:	01000d0e 	tsteq	r0, lr, lsl #26
    1030:	00010101 	andeq	r0, r1, r1, lsl #2
    1034:	00010000 	andeq	r0, r1, r0
    1038:	752f0100 	strvc	r0, [pc, #-256]!	; f40 <programDra+0x20>
    103c:	612f7273 	teqvs	pc, r3, ror r2	; <UNPREDICTABLE>
    1040:	6e2d6d72 	mcrvs	13, 1, r6, cr13, cr2, {3}
    1044:	2d656e6f 	stclcs	14, cr6, [r5, #-444]!	; 0xfffffe44
    1048:	69626165 	stmdbvs	r2!, {r0, r2, r5, r6, r8, sp, lr}^
    104c:	636e692f 	cmnvs	lr, #770048	; 0xbc000
    1050:	6564756c 	strbvs	r7, [r4, #-1388]!	; 0xfffffa94
    1054:	63616d2f 	cmnvs	r1, #3008	; 0xbc0
    1058:	656e6968 	strbvs	r6, [lr, #-2408]!	; 0xfffff698
    105c:	73752f00 	cmnvc	r5, #0, 30
    1060:	72612f72 	rsbvc	r2, r1, #456	; 0x1c8
    1064:	6f6e2d6d 	svcvs	0x006e2d6d
    1068:	652d656e 	strvs	r6, [sp, #-1390]!	; 0xfffffa92
    106c:	2f696261 	svccs	0x00696261
    1070:	6c636e69 	stclvs	14, cr6, [r3], #-420	; 0xfffffe5c
    1074:	2f656475 	svccs	0x00656475
    1078:	00737973 	rsbseq	r7, r3, r3, ror r9
    107c:	6c656400 	cfstrdvs	mvd6, [r5], #-0
    1080:	632e7961 	teqvs	lr, #1589248	; 0x184000
    1084:	00000000 	andeq	r0, r0, r0
    1088:	6665645f 			; <UNDEFINED> instruction: 0x6665645f
    108c:	746c7561 	strbtvc	r7, [ip], #-1377	; 0xfffffa9f
    1090:	7079745f 	rsbsvc	r7, r9, pc, asr r4
    1094:	682e7365 	stmdavs	lr!, {r0, r2, r5, r6, r8, r9, ip, sp, lr}
    1098:	00000100 	andeq	r0, r0, r0, lsl #2
    109c:	6474735f 	ldrbtvs	r7, [r4], #-863	; 0xfffffca1
    10a0:	2e746e69 	cdpcs	14, 7, cr6, cr4, cr9, {3}
    10a4:	00020068 	andeq	r0, r2, r8, rrx
    10a8:	4c4b4d00 	mcrrmi	13, 0, r4, fp, cr0
    10ac:	345a3632 	ldrbcc	r3, [sl], #-1586	; 0xfffff9ce
    10b0:	0000682e 	andeq	r6, r0, lr, lsr #16
    10b4:	00000000 	andeq	r0, r0, r0
    10b8:	11240205 	teqne	r4, r5, lsl #4
    10bc:	0b030000 	bleq	c10c4 <__DATA_END+0xbf798>
    10c0:	211f1301 	tstcs	pc, r1, lsl #6
    10c4:	231d4059 	tstcs	sp, #89	; 0x59
    10c8:	02002123 	andeq	r2, r0, #-1073741816	; 0xc0000008
    10cc:	20060104 	andcs	r0, r6, r4, lsl #2
    10d0:	10303f06 	eorsne	r3, r0, r6, lsl #30
    10d4:	00070222 	andeq	r0, r7, r2, lsr #4
    10d8:	01ce0101 	biceq	r0, lr, r1, lsl #2
    10dc:	00020000 	andeq	r0, r2, r0
    10e0:	00000097 	muleq	r0, r7, r0
    10e4:	0efb0102 	cdpeq	1, 15, cr0, cr11, cr2, {0}
    10e8:	0101000d 	tsteq	r1, sp
    10ec:	00000101 	andeq	r0, r0, r1, lsl #2
    10f0:	00000100 	andeq	r0, r0, r0, lsl #2
    10f4:	73752f01 	cmnvc	r5, #1, 30
    10f8:	72612f72 	rsbvc	r2, r1, #456	; 0x1c8
    10fc:	6f6e2d6d 	svcvs	0x006e2d6d
    1100:	652d656e 	strvs	r6, [sp, #-1390]!	; 0xfffffa92
    1104:	2f696261 	svccs	0x00696261
    1108:	6c636e69 	stclvs	14, cr6, [r3], #-420	; 0xfffffe5c
    110c:	2f656475 	svccs	0x00656475
    1110:	6863616d 	stmdavs	r3!, {r0, r2, r3, r5, r6, r8, sp, lr}^
    1114:	00656e69 	rsbeq	r6, r5, r9, ror #28
    1118:	7273752f 	rsbsvc	r7, r3, #197132288	; 0xbc00000
    111c:	6d72612f 	ldfvse	f6, [r2, #-188]!	; 0xffffff44
    1120:	6e6f6e2d 	cdpvs	14, 6, cr6, cr15, cr13, {1}
    1124:	61652d65 	cmnvs	r5, r5, ror #26
    1128:	692f6962 	stmdbvs	pc!, {r1, r5, r6, r8, fp, sp, lr}	; <UNPREDICTABLE>
    112c:	756c636e 	strbvc	r6, [ip, #-878]!	; 0xfffffc92
    1130:	732f6564 	teqvc	pc, #100, 10	; 0x19000000
    1134:	00007379 	andeq	r7, r0, r9, ror r3
    1138:	2e633269 	cdpcs	2, 6, cr3, cr3, cr9, {3}
    113c:	00000063 	andeq	r0, r0, r3, rrx
    1140:	65645f00 	strbvs	r5, [r4, #-3840]!	; 0xfffff100
    1144:	6c756166 	ldfvse	f6, [r5], #-408	; 0xfffffe68
    1148:	79745f74 	ldmdbvc	r4!, {r2, r4, r5, r6, r8, r9, sl, fp, ip, lr}^
    114c:	2e736570 	mrccs	5, 3, r6, cr3, cr0, {3}
    1150:	00010068 	andeq	r0, r1, r8, rrx
    1154:	74735f00 	ldrbtvc	r5, [r3], #-3840	; 0xfffff100
    1158:	746e6964 	strbtvc	r6, [lr], #-2404	; 0xfffff69c
    115c:	0200682e 	andeq	r6, r0, #3014656	; 0x2e0000
    1160:	4b4d0000 	blmi	1341168 <__DATA_END+0x133f83c>
    1164:	5a36324c 	bpl	d8da9c <__DATA_END+0xd8c170>
    1168:	00682e34 	rsbeq	r2, r8, r4, lsr lr
    116c:	64000000 	strvs	r0, [r0], #-0
    1170:	79616c65 	stmdbvc	r1!, {r0, r2, r5, r6, sl, fp, sp, lr}^
    1174:	0000682e 	andeq	r6, r0, lr, lsr #16
    1178:	00000000 	andeq	r0, r0, r0
    117c:	115c0205 	cmpne	ip, r5, lsl #4
    1180:	11030000 	mrsne	r0, (UNDEF: 3)
    1184:	09032201 	stmdbeq	r3, {r0, r9, sp}
    1188:	01770358 	cmneq	r7, r8, asr r3
    118c:	4d211f21 	stcmi	15, cr1, [r1, #-132]!	; 0xffffff7c
    1190:	2f2f224b 	svccs	0x002f224b
    1194:	01000a02 	tsteq	r0, r2, lsl #20
    1198:	02050001 	andeq	r0, r5, #1
    119c:	00000000 	andeq	r0, r0, r0
    11a0:	0100c503 	tsteq	r0, r3, lsl #10
    11a4:	03205d03 	teqeq	r0, #3, 26	; 0xc0
    11a8:	5d032e23 	stcpl	14, cr2, [r3, #-140]	; 0xffffff74
    11ac:	20150320 	andscs	r0, r5, r0, lsr #6
    11b0:	2b206b03 	blcs	81bdc4 <__DATA_END+0x81a498>
    11b4:	034a2103 	movteq	r2, #41219	; 0xa103
    11b8:	77032009 	strvc	r2, [r3, -r9]
    11bc:	20770320 	rsbscs	r0, r7, r0, lsr #6
    11c0:	0b034477 	bleq	d23a4 <__DATA_END+0xd0a78>
    11c4:	20730320 	rsbscs	r0, r3, r0, lsr #6
    11c8:	69207703 	stmdbvs	r0!, {r0, r1, r8, r9, sl, ip, sp, lr}
    11cc:	03201503 	teqeq	r0, #12582912	; 0xc00000
    11d0:	1e36206b 	cdpne	0, 3, cr2, cr6, cr11, {3}
    11d4:	03207703 	teqeq	r0, #786432	; 0xc0000
    11d8:	1503666e 	strne	r6, [r3, #-1646]	; 0xfffff992
    11dc:	63034420 	movwvs	r4, #13344	; 0x3420
    11e0:	3c1b0320 	ldccc	3, cr0, [fp], {32}
    11e4:	032e7703 	teqeq	lr, #786432	; 0xc0000
    11e8:	1a036669 	bne	dab94 <__DATA_END+0xd9268>
    11ec:	5e034420 	cfcpydpl	mvd4, mvd3
    11f0:	2e034220 	cdpcs	2, 0, cr4, cr3, cr0, {1}
    11f4:	20630320 	rsbcs	r0, r3, r0, lsr #6
    11f8:	4a0f0369 	bmi	3c1fa4 <__DATA_END+0x3c0678>
    11fc:	03200d03 	teqeq	r0, #3, 26	; 0xc0
    1200:	03222e4e 	teqeq	r2, #1248	; 0x4e0
    1204:	4c032032 	stcmi	0, cr2, [r3], {50}	; 0x32
    1208:	3c130320 	ldccc	3, cr0, [r3], {32}
    120c:	746c035b 	strbtvc	r0, [ip], #-859	; 0xfffffca5
    1210:	0e203a03 	vmuleq.f32	s6, s0, s6
    1214:	48204703 	stmdami	r0!, {r0, r1, r8, r9, sl, lr}
    1218:	4a3f0349 	bmi	fc1f44 <__DATA_END+0xfc0618>
    121c:	0003022f 	andeq	r0, r3, pc, lsr #4
    1220:	05000101 	streq	r0, [r0, #-257]	; 0xfffffeff
    1224:	00000002 	andeq	r0, r0, r2
    1228:	00e10300 	rsceq	r0, r1, r0, lsl #6
    122c:	41032001 	tstmi	r3, r1
    1230:	2e150320 	cdpcs	3, 1, cr0, cr5, cr0, {1}
    1234:	39206b03 	stmdbcc	r0!, {r0, r1, r8, r9, fp, sp, lr}
    1238:	034a2103 	movteq	r2, #41219	; 0xa103
    123c:	445b2e77 	ldrbmi	r2, [fp], #-3703	; 0xfffff189
    1240:	03202503 	teqeq	r0, #12582912	; 0xc00000
    1244:	77032059 	smlsdvc	r3, r9, r0, r2
    1248:	03446920 	movteq	r6, #18720	; 0x4920
    124c:	57032027 	strpl	r2, [r3, -r7, lsr #32]
    1250:	20770320 	rsbscs	r0, r7, r0, lsr #6
    1254:	75034469 	strvc	r4, [r3, #-1129]	; 0xfffffb97
    1258:	2034033c 	eorscs	r0, r4, ip, lsr r3
    125c:	2054033d 	subscs	r0, r4, sp, lsr r3
    1260:	5b207703 	blpl	81ee74 <__DATA_END+0x81d548>
    1264:	202b0352 	eorcs	r0, fp, r2, asr r3
    1268:	032f1f3e 	teqeq	pc, #62, 30	; 0xf8
    126c:	492e7fb2 	stmdbmi	lr!, {r1, r4, r5, r7, r8, r9, sl, fp, ip, sp, lr}
    1270:	4a00d203 	bmi	35a84 <__DATA_END+0x34158>
    1274:	3c7fb003 	ldclcc	0, cr11, [pc], #-12	; 1270 <__libc_fini_array>
    1278:	4a210347 	bmi	841f9c <__DATA_END+0x840670>
    127c:	5b2e7703 	blpl	b9ee90 <__DATA_END+0xb9d564>
    1280:	20350352 	eorscs	r0, r5, r2, asr r3
    1284:	03204903 	teqeq	r0, #49152	; 0xc000
    1288:	525b2077 	subspl	r2, fp, #119	; 0x77
    128c:	03203703 	teqeq	r0, #786432	; 0xc0000
    1290:	77032047 	strvc	r2, [r3, -r7, asr #32]
    1294:	03525b20 	cmpeq	r2, #32, 22	; 0x8000
    1298:	de033c5f 	mcrle	12, 0, r3, cr3, cr15, {2}
    129c:	a2032e00 	andge	r2, r3, #0, 28
    12a0:	032d207f 	teqeq	sp, #127	; 0x7f
    12a4:	024a00df 	subeq	r0, sl, #223	; 0xdf
    12a8:	01010005 	tsteq	r1, r5
    12ac:	000000d1 	ldrdeq	r0, [r0], -r1
    12b0:	008c0002 	addeq	r0, ip, r2
    12b4:	01020000 	mrseq	r0, (UNDEF: 2)
    12b8:	000d0efb 	strdeq	r0, [sp], -fp
    12bc:	01010101 	tsteq	r1, r1, lsl #2
    12c0:	01000000 	mrseq	r0, (UNDEF: 0)
    12c4:	2f010000 	svccs	0x00010000
    12c8:	2f727375 	svccs	0x00727375
    12cc:	2d6d7261 	sfmcs	f7, 2, [sp, #-388]!	; 0xfffffe7c
    12d0:	656e6f6e 	strbvs	r6, [lr, #-3950]!	; 0xfffff092
    12d4:	6261652d 	rsbvs	r6, r1, #188743680	; 0xb400000
    12d8:	6e692f69 	cdpvs	15, 6, cr2, cr9, cr9, {3}
    12dc:	64756c63 	ldrbtvs	r6, [r5], #-3171	; 0xfffff39d
    12e0:	616d2f65 	cmnvs	sp, r5, ror #30
    12e4:	6e696863 	cdpvs	8, 6, cr6, cr9, cr3, {3}
    12e8:	752f0065 	strvc	r0, [pc, #-101]!	; 128b <__libc_fini_array+0x1b>
    12ec:	612f7273 	teqvs	pc, r3, ror r2	; <UNPREDICTABLE>
    12f0:	6e2d6d72 	mcrvs	13, 1, r6, cr13, cr2, {3}
    12f4:	2d656e6f 	stclcs	14, cr6, [r5, #-444]!	; 0xfffffe44
    12f8:	69626165 	stmdbvs	r2!, {r0, r2, r5, r6, r8, sp, lr}^
    12fc:	636e692f 	cmnvs	lr, #770048	; 0xbc000
    1300:	6564756c 	strbvs	r7, [r4, #-1388]!	; 0xfffffa94
    1304:	7379732f 	cmnvc	r9, #-1140850688	; 0xbc000000
    1308:	61640000 	cmnvs	r4, r0
    130c:	00632e63 	rsbeq	r2, r3, r3, ror #28
    1310:	5f000000 	svcpl	0x00000000
    1314:	61666564 	cmnvs	r6, r4, ror #10
    1318:	5f746c75 	svcpl	0x00746c75
    131c:	65707974 	ldrbvs	r7, [r0, #-2420]!	; 0xfffff68c
    1320:	00682e73 	rsbeq	r2, r8, r3, ror lr
    1324:	5f000001 	svcpl	0x00000001
    1328:	69647473 	stmdbvs	r4!, {r0, r1, r4, r5, r6, sl, ip, sp, lr}^
    132c:	682e746e 	stmdavs	lr!, {r1, r2, r3, r5, r6, sl, ip, sp, lr}
    1330:	00000200 	andeq	r0, r0, r0, lsl #4
    1334:	324c4b4d 	subcc	r4, ip, #78848	; 0x13400
    1338:	2e345a36 	mrccs	10, 1, r5, cr4, cr6, {1}
    133c:	00000068 	andeq	r0, r0, r8, rrx
    1340:	05000000 	streq	r0, [r0, #-0]
    1344:	00119c02 	andseq	r9, r1, r2, lsl #24
    1348:	5e131400 	cfmulspl	mvf1, mvf3, mvf0
    134c:	21017a03 	tstcs	r1, r3, lsl #20
    1350:	3d59211f 	ldfcce	f2, [r9, #-124]	; 0xffffff84
    1354:	023d212f 	eorseq	r2, sp, #-1073741813	; 0xc000000b
    1358:	0101000c 	tsteq	r1, ip
    135c:	00020500 	andeq	r0, r2, r0, lsl #10
    1360:	03000000 	movweq	r0, #0
    1364:	0214010b 	andseq	r0, r4, #-1073741822	; 0xc0000002
    1368:	01010001 	tsteq	r1, r1
    136c:	e0020500 	and	r0, r2, r0, lsl #10
    1370:	03000011 	movweq	r0, #17
    1374:	2f13010e 	svccs	0x0013010e
    1378:	2111222d 	tstcs	r1, sp, lsr #4
    137c:	01000402 	tsteq	r0, r2, lsl #8
    1380:	00004b01 	andeq	r4, r0, r1, lsl #22
    1384:	30000200 	andcc	r0, r0, r0, lsl #4
    1388:	02000000 	andeq	r0, r0, #0
    138c:	0d0efb01 	vstreq	d15, [lr, #-4]
    1390:	01010100 	mrseq	r0, (UNDEF: 17)
    1394:	00000001 	andeq	r0, r0, r1
    1398:	01000001 	tsteq	r0, r1
    139c:	72706100 	rsbsvc	r6, r0, #0, 2
    13a0:	00632e73 	rsbeq	r2, r3, r3, ror lr
    13a4:	67000000 	strvs	r0, [r0, -r0]
    13a8:	682e7370 	stmdavs	lr!, {r4, r5, r6, r8, r9, ip, sp, lr}
    13ac:	00000000 	andeq	r0, r0, r0
    13b0:	35327861 	ldrcc	r7, [r2, #-2145]!	; 0xfffff79f
    13b4:	0000682e 	andeq	r6, r0, lr, lsr #16
    13b8:	00000000 	andeq	r0, r0, r0
    13bc:	11f40205 	mvnsne	r0, r5, lsl #4
    13c0:	03150000 	tsteq	r5, #0
    13c4:	4b4b2009 	blmi	12c93f0 <__DATA_END+0x12c7ac4>
    13c8:	024c4b4b 	subeq	r4, ip, #76800	; 0x12c00
    13cc:	0101000b 	tsteq	r1, fp
    13d0:	00000058 	andeq	r0, r0, r8, asr r0
    13d4:	00390002 	eorseq	r0, r9, r2
    13d8:	01020000 	mrseq	r0, (UNDEF: 2)
    13dc:	000d0efb 	strdeq	r0, [sp], -fp
    13e0:	01010101 	tsteq	r1, r1, lsl #2
    13e4:	01000000 	mrseq	r0, (UNDEF: 0)
    13e8:	2e010000 	cdpcs	0, 0, cr0, cr1, cr0, {0}
    13ec:	6d632f2e 	stclvs	15, cr2, [r3, #-184]!	; 0xffffff48
    13f0:	2f736973 	svccs	0x00736973
    13f4:	324c4b4d 	subcc	r4, ip, #78848	; 0x13400
    13f8:	00345a36 	eorseq	r5, r4, r6, lsr sl
    13fc:	61747300 	cmnvs	r4, r0, lsl #6
    1400:	70757472 	rsbsvc	r7, r5, r2, ror r4
    1404:	4c4b4d5f 	mcrrmi	13, 5, r4, fp, cr15
    1408:	345a3632 	ldrbcc	r3, [sl], #-1586	; 0xfffff9ce
    140c:	0100732e 	tsteq	r0, lr, lsr #6
    1410:	00000000 	andeq	r0, r0, r0
    1414:	047c0205 	ldrbteq	r0, [ip], #-517	; 0xfffffdfb
    1418:	f5030000 			; <UNDEFINED> instruction: 0xf5030000
    141c:	30220100 	eorcc	r0, r2, r0, lsl #2
    1420:	0d03252f 	cfstr32eq	mvfx2, [r3, #-188]	; 0xffffff44
    1424:	021f212e 	andseq	r2, pc, #-2147483637	; 0x8000000b
    1428:	01010002 	tsteq	r1, r2

Disassembly of section .debug_str:

00000000 <.debug_str>:
   0:	54504f53 	ldrbpl	r4, [r0], #-3923	; 0xfffff0ad
   4:	43460035 	movtmi	r0, #24629	; 0x6035
   8:	00314746 	eorseq	r4, r1, r6, asr #14
   c:	47464346 	strbmi	r4, [r6, -r6, asr #6]
  10:	44530032 	ldrbmi	r0, [r3], #-50	; 0xffffffce
  14:	47004449 	strmi	r4, [r0, -r9, asr #8]
  18:	4320554e 	teqmi	r0, #327155712	; 0x13800000
  1c:	35203939 	strcc	r3, [r0, #-2361]!	; 0xfffff6c7
  20:	302e322e 	eorcc	r3, lr, lr, lsr #4
  24:	746d2d20 	strbtvc	r2, [sp], #-3360	; 0xfffff2e0
  28:	626d7568 	rsbvs	r7, sp, #104, 10	; 0x1a000000
  2c:	636d2d20 	cmnvs	sp, #32, 26	; 0x800
  30:	633d7570 	teqvs	sp, #112, 10	; 0x1c000000
  34:	6574726f 	ldrbvs	r7, [r4, #-623]!	; 0xfffffd91
  38:	306d2d78 	rsbcc	r2, sp, r8, ror sp
  3c:	73756c70 	cmnvc	r5, #112, 24	; 0x7000
  40:	20672d20 	rsbcs	r2, r7, r0, lsr #26
  44:	6467672d 	strbtvs	r6, [r7], #-1837	; 0xfffff8d3
  48:	4f2d2062 	svcmi	0x002d2062
  4c:	732d2073 	teqvc	sp, #115	; 0x73
  50:	673d6474 			; <UNDEFINED> instruction: 0x673d6474
  54:	3939756e 	ldmdbcc	r9!, {r1, r2, r3, r5, r6, r8, sl, ip, sp, lr}
  58:	6e662d20 	cdpvs	13, 6, cr2, cr6, cr0, {1}
  5c:	74732d6f 	ldrbtvc	r2, [r3], #-3439	; 0xfffff291
  60:	74636972 	strbtvc	r6, [r3], #-2418	; 0xfffff68e
  64:	696c612d 	stmdbvs	ip!, {r0, r2, r3, r5, r8, sp, lr}^
  68:	6e697361 	cdpvs	3, 6, cr7, cr9, cr1, {3}
  6c:	662d2067 	strtvs	r2, [sp], -r7, rrx
  70:	636e7566 	cmnvs	lr, #427819008	; 0x19800000
  74:	6e6f6974 	mcrvs	9, 3, r6, cr15, cr4, {3}
  78:	6365732d 	cmnvs	r5, #-1275068416	; 0xb4000000
  7c:	6e6f6974 	mcrvs	9, 3, r6, cr15, cr4, {3}
  80:	662d2073 			; <UNDEFINED> instruction: 0x662d2073
  84:	61746164 	cmnvs	r4, r4, ror #2
  88:	6365732d 	cmnvs	r5, #-1275068416	; 0xb4000000
  8c:	6e6f6974 	mcrvs	9, 3, r6, cr15, cr4, {3}
  90:	662d2073 			; <UNDEFINED> instruction: 0x662d2073
  94:	652d6f6e 	strvs	r6, [sp, #-3950]!	; 0xfffff092
  98:	70656378 	rsbvc	r6, r5, r8, ror r3
  9c:	6e6f6974 	mcrvs	9, 3, r6, cr15, cr4, {3}
  a0:	662d2073 			; <UNDEFINED> instruction: 0x662d2073
  a4:	642d6f6e 	strtvs	r6, [sp], #-3950	; 0xfffff092
  a8:	74656c65 	strbtvc	r6, [r5], #-3173	; 0xfffff39b
  ac:	756e2d65 	strbvc	r2, [lr, #-3429]!	; 0xfffff29b
  b0:	702d6c6c 	eorvc	r6, sp, ip, ror #24
  b4:	746e696f 	strbtvc	r6, [lr], #-2415	; 0xfffff691
  b8:	632d7265 	teqvs	sp, #1342177286	; 0x50000006
  bc:	6b636568 	blvs	18d9664 <__DATA_END+0x18d7d38>
  c0:	662d2073 			; <UNDEFINED> instruction: 0x662d2073
  c4:	7373656d 	cmnvc	r3, #457179136	; 0x1b400000
  c8:	2d656761 	stclcs	7, cr6, [r5, #-388]!	; 0xfffffe7c
  cc:	676e656c 	strbvs	r6, [lr, -ip, ror #10]!
  d0:	303d6874 	eorscc	r6, sp, r4, ror r8
  d4:	6e662d20 	cdpvs	13, 6, cr2, cr6, cr0, {1}
  d8:	75622d6f 	strbvc	r2, [r2, #-3439]!	; 0xfffff291
  dc:	69746c69 	ldmdbvs	r4!, {r0, r3, r5, r6, sl, fp, sp, lr}^
  e0:	5441006e 	strbpl	r0, [r1], #-110	; 0xffffff92
  e4:	00485643 	subeq	r5, r8, r3, asr #12
  e8:	56435441 	strbpl	r5, [r3], -r1, asr #8
  ec:	5f5f004c 	svcpl	0x005f004c
  f0:	746e6975 	strbtvc	r6, [lr], #-2421	; 0xfffff68b
  f4:	00745f38 	rsbseq	r5, r4, r8, lsr pc
  f8:	69755f5f 	ldmdbvs	r5!, {r0, r1, r2, r3, r4, r6, r8, r9, sl, fp, ip, lr}^
  fc:	3233746e 	eorscc	r7, r3, #1845493760	; 0x6e000000
 100:	5300745f 	movwpl	r7, #1119	; 0x45f
 104:	545f4d49 	ldrbpl	r4, [pc], #-3401	; 10c <M_VECTOR_RAM_SIZE+0x10c>
 108:	00657079 	rsbeq	r7, r5, r9, ror r0
 10c:	69755f5f 	ldmdbvs	r5!, {r0, r1, r2, r3, r4, r6, r8, r9, sl, fp, ip, lr}^
 110:	3631746e 	ldrtcc	r7, [r1], -lr, ror #8
 114:	7300745f 	movwvc	r7, #1119	; 0x45f
 118:	74726f68 	ldrbtvc	r6, [r2], #-3944	; 0xfffff098
 11c:	746e6920 	strbtvc	r6, [lr], #-2336	; 0xfffff6e0
 120:	6e6f6c00 	cdpvs	12, 6, cr6, cr15, cr0, {0}
 124:	6f6c2067 	svcvs	0x006c2067
 128:	6920676e 	stmdbvs	r0!, {r1, r2, r3, r5, r6, r8, r9, sl, sp, lr}
 12c:	5300746e 	movwpl	r7, #1134	; 0x46e
 130:	3154504f 	cmpcc	r4, pc, asr #32
 134:	00474643 	subeq	r4, r7, r3, asr #12
 138:	43474353 	movtmi	r4, #29523	; 0x7353
 13c:	43530034 	cmpmi	r3, #52	; 0x34
 140:	00354347 	eorseq	r4, r5, r7, asr #6
 144:	43474353 	movtmi	r4, #29523	; 0x7353
 148:	43530036 	cmpmi	r3, #54	; 0x36
 14c:	00374347 	eorseq	r4, r7, r7, asr #6
 150:	54504f53 	ldrbpl	r4, [r0], #-3923	; 0xfffff0ad
 154:	52530032 	subspl	r0, r3, #50	; 0x32
 158:	504f4356 	subpl	r4, pc, r6, asr r3	; <UNPREDICTABLE>
 15c:	504f5300 	subpl	r5, pc, r0, lsl #6
 160:	43003754 	movwmi	r3, #1876	; 0x754
 164:	49444b4c 	stmdbmi	r4, {r2, r3, r6, r8, r9, fp, lr}^
 168:	75003156 	strvc	r3, [r0, #-342]	; 0xfffffeaa
 16c:	6769736e 	strbvs	r7, [r9, -lr, ror #6]!
 170:	2064656e 	rsbcs	r6, r4, lr, ror #10
 174:	72616863 	rsbvc	r6, r1, #6488064	; 0x630000
 178:	504f4300 	subpl	r4, pc, r0, lsl #6
 17c:	6f6c0043 	svcvs	0x006c0043
 180:	6c20676e 	stcvs	7, cr6, [r0], #-440	; 0xfffffe48
 184:	20676e6f 	rsbcs	r6, r7, pc, ror #28
 188:	69736e75 	ldmdbvs	r3!, {r0, r2, r4, r5, r6, r9, sl, fp, sp, lr}^
 18c:	64656e67 	strbtvs	r6, [r5], #-3687	; 0xfffff199
 190:	746e6920 	strbtvc	r6, [lr], #-2336	; 0xfffff6e0
 194:	44564c00 	ldrbmi	r4, [r6], #-3072	; 0xfffff400
 198:	00314353 	eorseq	r4, r1, r3, asr r3
 19c:	5344564c 	movtpl	r5, #17996	; 0x464c
 1a0:	2f003243 	svccs	0x00003243
 1a4:	656d6f68 	strbvs	r6, [sp, #-3944]!	; 0xfffff098
 1a8:	7268632f 	rsbvc	r6, r8, #-1140850688	; 0xbc000000
 1ac:	432f7369 	teqmi	pc, #-1543503871	; 0xa4000001
 1b0:	2f65646f 	svccs	0x0065646f
 1b4:	53525041 	cmppl	r2, #65	; 0x41
 1b8:	676e6f44 	strbvs	r6, [lr, -r4, asr #30]!
 1bc:	732f656c 	teqvc	pc, #108, 10	; 0x1b000000
 1c0:	7774666f 	ldrbvc	r6, [r4, -pc, ror #12]!
 1c4:	2f657261 	svccs	0x00657261
 1c8:	6e69616d 	powvsez	f6, f1, #5.0
 1cc:	72616f42 	rsbvc	r6, r1, #264	; 0x108
 1d0:	79530064 	ldmdbvc	r3, {r2, r5, r6}^
 1d4:	6d657473 	cfstrdvs	mvd7, [r5, #-460]!	; 0xfffffe34
 1d8:	74696e49 	strbtvc	r6, [r9], #-3657	; 0xfffff1b7
 1dc:	6f687300 	svcvs	0x00687300
 1e0:	75207472 	strvc	r7, [r0, #-1138]!	; 0xfffffb8e
 1e4:	6769736e 	strbvs	r7, [r9, -lr, ror #6]!
 1e8:	2064656e 	rsbcs	r6, r4, lr, ror #10
 1ec:	00746e69 	rsbseq	r6, r4, r9, ror #28
 1f0:	69766944 	ldmdbvs	r6!, {r2, r6, r8, fp, sp, lr}^
 1f4:	00726564 	rsbseq	r6, r2, r4, ror #10
 1f8:	74737953 	ldrbtvc	r7, [r3], #-2387	; 0xfffff6ad
 1fc:	6f436d65 	svcvs	0x00436d65
 200:	6c436572 	cfstr64vs	mvdx6, [r3], {114}	; 0x72
 204:	556b636f 	strbpl	r6, [fp, #-879]!	; 0xfffffc91
 208:	74616470 	strbtvc	r6, [r1], #-1136	; 0xfffffb90
 20c:	434d0065 	movtmi	r0, #53349	; 0xd065
 210:	79545f47 	ldmdbvc	r4, {r0, r1, r2, r6, r8, r9, sl, fp, ip, lr}^
 214:	53006570 	movwpl	r6, #1392	; 0x570
 218:	3154504f 	cmpcc	r4, pc, asr #32
 21c:	73795300 	cmnvc	r9, #0, 6
 220:	436d6574 	cmnmi	sp, #116, 10	; 0x1d000000
 224:	4365726f 	cmnmi	r5, #-268435450	; 0xf0000006
 228:	6b636f6c 	blvs	18dbfe0 <__DATA_END+0x18da6b4>
 22c:	44495500 	strbmi	r5, [r9], #-1280	; 0xfffffb00
 230:	4955004c 	ldmdbmi	r5, {r2, r3, r6}^
 234:	00484d44 	subeq	r4, r8, r4, asr #26
 238:	4d444955 	stclmi	9, cr4, [r4, #-340]	; 0xfffffeac
 23c:	4552004c 	ldrbmi	r0, [r2, #-76]	; 0xffffffb4
 240:	56524553 			; <UNDEFINED> instruction: 0x56524553
 244:	305f4445 	subscc	r4, pc, r5, asr #8
 248:	53455200 	movtpl	r5, #20992	; 0x5200
 24c:	45565245 	ldrbmi	r5, [r6, #-581]	; 0xfffffdbb
 250:	00315f44 	eorseq	r5, r1, r4, asr #30
 254:	45534552 	ldrbmi	r4, [r3, #-1362]	; 0xfffffaae
 258:	44455652 	strbmi	r5, [r5], #-1618	; 0xfffff9ae
 25c:	5200325f 	andpl	r3, r0, #-268435451	; 0xf0000005
 260:	52455345 	subpl	r5, r5, #335544321	; 0x14000001
 264:	5f444556 	svcpl	0x00444556
 268:	45520033 	ldrbmi	r0, [r2, #-51]	; 0xffffffcd
 26c:	56524553 			; <UNDEFINED> instruction: 0x56524553
 270:	345f4445 	ldrbcc	r4, [pc], #-1093	; 278 <M_VECTOR_RAM_SIZE+0x278>
 274:	53455200 	movtpl	r5, #20992	; 0x5200
 278:	45565245 	ldrbmi	r5, [r6, #-581]	; 0xfffffdbb
 27c:	00355f44 	eorseq	r5, r5, r4, asr #30
 280:	45534552 	ldrbmi	r4, [r3, #-1362]	; 0xfffffaae
 284:	44455652 	strbmi	r5, [r5], #-1618	; 0xfffff9ae
 288:	5200365f 	andpl	r3, r0, #99614720	; 0x5f00000
 28c:	52455345 	subpl	r5, r5, #335544321	; 0x14000001
 290:	5f444556 	svcpl	0x00444556
 294:	434d0037 	movtmi	r0, #53303	; 0xd037
 298:	54554f47 	ldrbpl	r4, [r5], #-3911	; 0xfffff0b9
 29c:	636f6c43 	cmnvs	pc, #17152	; 0x4300
 2a0:	6973006b 	ldmdbvs	r3!, {r0, r1, r3, r5, r6}^
 2a4:	7974657a 	ldmdbvc	r4!, {r1, r3, r4, r5, r6, r8, sl, sp, lr}^
 2a8:	50006570 	andpl	r6, r0, r0, ror r5
 2ac:	545f434d 	ldrbpl	r4, [pc], #-845	; 2b4 <M_VECTOR_RAM_SIZE+0x2b4>
 2b0:	00657079 	rsbeq	r7, r5, r9, ror r0
 2b4:	53474552 	movtpl	r4, #30034	; 0x7552
 2b8:	2e2e0043 	cdpcs	0, 2, cr0, cr14, cr3, {2}
 2bc:	736d632f 	cmnvc	sp, #-1140850688	; 0xbc000000
 2c0:	4d2f7369 	stcmi	3, cr7, [pc, #-420]!	; 124 <M_VECTOR_RAM_SIZE+0x124>
 2c4:	36324c4b 	ldrtcc	r4, [r2], -fp, asr #24
 2c8:	732f345a 	teqvc	pc, #1509949440	; 0x5a000000
 2cc:	65747379 	ldrbvs	r7, [r4, #-889]!	; 0xfffffc87
 2d0:	4b4d5f6d 	blmi	135808c <__DATA_END+0x1356760>
 2d4:	5a36324c 	bpl	d8cc0c <__DATA_END+0xd8b2e0>
 2d8:	00632e34 	rsbeq	r2, r3, r4, lsr lr
 2dc:	54504f53 	ldrbpl	r4, [r0], #-3923	; 0xfffff0ad
 2e0:	2e2e0034 	mcrcs	0, 1, r0, cr14, cr4, {1}
 2e4:	736d632f 	cmnvc	sp, #-1140850688	; 0xbc000000
 2e8:	4d2f7369 	stcmi	3, cr7, [pc, #-420]!	; 14c <M_VECTOR_RAM_SIZE+0x14c>
 2ec:	36324c4b 	ldrtcc	r4, [r2], -fp, asr #24
 2f0:	732f345a 	teqvc	pc, #1509949440	; 0x5a000000
 2f4:	74726174 	ldrbtvc	r6, [r2], #-372	; 0xfffffe8c
 2f8:	632e7075 	teqvs	lr, #117	; 0x75
 2fc:	565f5f00 	ldrbpl	r5, [pc], -r0, lsl #30
 300:	4f544345 	svcmi	0x00544345
 304:	41525f52 	cmpmi	r2, r2, asr pc
 308:	5456004d 	ldrbpl	r0, [r6], #-77	; 0xffffffb3
 30c:	6400524f 	strvs	r5, [r0], #-591	; 0xfffffdb1
 310:	5f617461 	svcpl	0x00617461
 314:	006d6172 	rsbeq	r6, sp, r2, ror r1
 318:	45534552 	ldrbmi	r4, [r3, #-1362]	; 0xfffffaae
 31c:	44455652 	strbmi	r5, [r5], #-1618	; 0xfffff9ae
 320:	73620031 	cmnvc	r2, #49	; 0x31
 324:	6e655f73 	mcrvs	15, 3, r5, cr5, cr3, {3}
 328:	5f5f0064 	svcpl	0x005f0064
 32c:	41544144 	cmpmi	r4, r4, asr #2
 330:	444e455f 	strbmi	r4, [lr], #-1375	; 0xfffffaa1
 334:	525f5f00 	subspl	r5, pc, #0, 30
 338:	565f4d41 	ldrbpl	r4, [pc], -r1, asr #26
 33c:	4f544345 	svcmi	0x00544345
 340:	41545f52 	cmpmi	r4, r2, asr pc
 344:	5f454c42 	svcpl	0x00454c42
 348:	455a4953 	ldrbmi	r4, [sl, #-2387]	; 0xfffff6ad
 34c:	445f5f00 	ldrbmi	r5, [pc], #-3840	; 354 <M_VECTOR_RAM_SIZE+0x354>
 350:	5f415441 	svcpl	0x00415441
 354:	004d4f52 	subeq	r4, sp, r2, asr pc
 358:	45565f5f 	ldrbmi	r5, [r6, #-3935]	; 0xfffff0a1
 35c:	524f5443 	subpl	r5, pc, #1124073472	; 0x43000000
 360:	4241545f 	submi	r5, r1, #1593835520	; 0x5f000000
 364:	6900454c 	stmdbvs	r0, {r2, r3, r6, r8, sl, lr}
 368:	5f74696e 	svcpl	0x0074696e
 36c:	61746164 	cmnvs	r4, r4, ror #2
 370:	7373625f 	cmnvc	r3, #-268435451	; 0xf0000005
 374:	455f5f00 	ldrbmi	r5, [pc, #-3840]	; fffff47c <__StackTop+0xdfffc47c>
 378:	425f444e 	subsmi	r4, pc, #1308622848	; 0x4e000000
 37c:	53005353 	movwpl	r5, #851	; 0x353
 380:	545f4243 	ldrbpl	r4, [pc], #-579	; 388 <M_VECTOR_RAM_SIZE+0x388>
 384:	00657079 	rsbeq	r7, r5, r9, ror r0
 388:	61746164 	cmnvs	r4, r4, ror #2
 38c:	6d6f725f 	sfmvs	f7, 2, [pc, #-380]!	; 218 <M_VECTOR_RAM_SIZE+0x218>
 390:	53434900 	movtpl	r4, #14592	; 0x3900
 394:	49410052 	stmdbmi	r1, {r1, r4, r6}^
 398:	00524352 	subseq	r4, r2, r2, asr r3
 39c:	49555043 	ldmdbmi	r5, {r0, r1, r6, ip, lr}^
 3a0:	5f5f0044 	svcpl	0x005f0044
 3a4:	52415453 	subpl	r5, r1, #1392508928	; 0x53000000
 3a8:	53425f54 	movtpl	r5, #12116	; 0x2f54
 3ac:	61640053 	qdsubvs	r0, r3, r4
 3b0:	725f6174 	subsvc	r6, pc, #116, 2
 3b4:	655f6d6f 	ldrbvs	r6, [pc, #-3439]	; fffff64d <__StackTop+0xdfffc64d>
 3b8:	5300646e 	movwpl	r6, #1134	; 0x46e
 3bc:	52534348 	subspl	r4, r3, #72, 6	; 0x20000001
 3c0:	525f5f00 	subspl	r5, pc, #0, 30
 3c4:	565f4d41 	ldrbpl	r4, [pc], -r1, asr #26
 3c8:	4f544345 	svcmi	0x00544345
 3cc:	41545f52 	cmpmi	r4, r2, asr pc
 3d0:	5f454c42 	svcpl	0x00454c42
 3d4:	455a4953 	ldrbmi	r4, [sl, #-2387]	; 0xfffff6ad
 3d8:	5459425f 	ldrbpl	r4, [r9], #-607	; 0xfffffda1
 3dc:	62005345 	andvs	r5, r0, #335544321	; 0x14000001
 3e0:	735f7373 	cmpvc	pc, #-872415231	; 0xcc000001
 3e4:	74726174 	ldrbtvc	r6, [r2], #-372	; 0xfffffe8c
 3e8:	445f5f00 	ldrbmi	r5, [pc], #-3840	; 3f0 <M_VECTOR_RAM_SIZE+0x3f0>
 3ec:	5f415441 	svcpl	0x00415441
 3f0:	004d4152 	subeq	r4, sp, r2, asr r1
 3f4:	61706163 	cmnvs	r0, r3, ror #2
 3f8:	79746963 	ldmdbvc	r4!, {r0, r1, r5, r6, r8, fp, sp, lr}^
 3fc:	49656400 	stmdbmi	r5!, {sl, sp, lr}^
 400:	5174696e 	cmnpl	r4, lr, ror #18
 404:	65756575 	ldrbvs	r6, [r5, #-1397]!	; 0xfffffa8b
 408:	74756f00 	ldrbtvc	r6, [r5], #-3840	; 0xfffff100
 40c:	00727450 	rsbseq	r7, r2, r0, asr r4
 410:	456d756e 	strbmi	r7, [sp, #-1390]!	; 0xfffffa92
 414:	6575716e 	ldrbvs	r7, [r5, #-366]!	; 0xfffffe92
 418:	00646575 	rsbeq	r6, r4, r5, ror r5
 41c:	61746164 	cmnvs	r4, r4, ror #2
 420:	65525100 	ldrbvs	r5, [r2, #-256]	; 0xffffff00
 424:	72745363 	rsbsvc	r5, r4, #-1946157055	; 0x8c000001
 428:	00746375 	rsbseq	r6, r4, r5, ror r3
 42c:	6b656570 	blvs	19599f4 <__DATA_END+0x19580c8>
 430:	65757100 	ldrbvs	r7, [r5, #-256]!	; 0xffffff00
 434:	632e6575 	teqvs	lr, #490733568	; 0x1d400000
 438:	506e6900 	rsbpl	r6, lr, r0, lsl #18
 43c:	69007274 	stmdbvs	r0, {r2, r4, r5, r6, r9, ip, sp, lr}
 440:	5174696e 	cmnpl	r4, lr, ror #18
 444:	65756575 	ldrbvs	r6, [r5, #-1397]!	; 0xfffffa8b
 448:	65726600 	ldrbvs	r6, [r2, #-1536]!	; 0xfffffa00
 44c:	6e650065 	cdpvs	0, 6, cr0, cr5, cr5, {3}
 450:	75657571 	strbvc	r7, [r5, #-1393]!	; 0xfffffa8f
 454:	65640065 	strbvs	r0, [r4, #-101]!	; 0xffffff9b
 458:	75657571 	strbvc	r7, [r5, #-1393]!	; 0xfffffa8f
 45c:	74730065 	ldrbtvc	r0, [r3], #-101	; 0xffffff9b
 460:	6465726f 	strbtvs	r7, [r5], #-623	; 0xfffffd91
 464:	63616400 	cmnvs	r1, #0, 8
 468:	74696e49 	strbtvc	r6, [r9], #-3657	; 0xfffff1b7
 46c:	56444c00 	strbpl	r4, [r4], -r0, lsl #24
 470:	6c004c41 	stcvs	12, cr4, [r0], {65}	; 0x41
 474:	5243636f 	subpl	r6, r3, #-1140850687	; 0xbc000001
 478:	48430043 	stmdami	r3, {r0, r1, r6}^
 47c:	454e4e41 	strbmi	r4, [lr, #-3649]	; 0xfffff1bf
 480:	6164004c 	cmnvs	r4, ip, asr #32
 484:	74655363 	strbtvc	r5, [r5], #-867	; 0xfffffc9d
 488:	32786100 	rsbscc	r6, r8, #0, 2
 48c:	61745335 	cmnvs	r4, r5, lsr r3
 490:	69537472 	ldmdbvs	r3, {r1, r4, r5, r6, sl, ip, sp, lr}^
 494:	6d69546e 	cfstrdvs	mvd5, [r9, #-440]!	; 0xfffffe48
 498:	61007265 	tstvs	r0, r5, ror #4
 49c:	55353278 	ldrpl	r3, [r5, #-632]!	; 0xfffffd88
 4a0:	74616470 	strbtvc	r6, [r1], #-1136	; 0xfffffb90
 4a4:	63724365 	cmnvs	r2, #-1811939327	; 0x94000001
 4a8:	32786100 	rsbscc	r6, r8, #0, 2
 4ac:	74614435 	strbtvc	r4, [r1], #-1077	; 0xfffffbcb
 4b0:	72745061 	rsbsvc	r5, r4, #97	; 0x61
 4b4:	32786100 	rsbscc	r6, r8, #0, 2
 4b8:	6e695335 	mcrvs	3, 3, r5, cr9, cr5, {1}
 4bc:	65646e49 	strbvs	r6, [r4, #-3657]!	; 0xfffff1b7
 4c0:	78610078 	stmdavc	r1!, {r3, r4, r5, r6}^
 4c4:	632e3532 	teqvs	lr, #209715200	; 0xc800000
 4c8:	32786100 	rsbscc	r6, r8, #0, 2
 4cc:	61684335 	cmnvs	r8, r5, lsr r3
 4d0:	4265676e 	rsbmi	r6, r5, #28835840	; 0x1b80000
 4d4:	61007469 	tstvs	r0, r9, ror #8
 4d8:	47353278 			; <UNDEFINED> instruction: 0x47353278
 4dc:	65537465 	ldrbvs	r7, [r3, #-1125]	; 0xfffffb9b
 4e0:	6e69646e 	cdpvs	4, 6, cr6, cr9, cr14, {3}
 4e4:	43540067 	cmpmi	r4, #103	; 0x67
 4e8:	004c5254 	subeq	r5, ip, r4, asr r2
 4ec:	524d544c 	subpl	r5, sp, #76, 8	; 0x4c000000
 4f0:	00483436 	subeq	r3, r8, r6, lsr r4
 4f4:	524d544c 	subpl	r5, sp, #76, 8	; 0x4c000000
 4f8:	004c3436 	subeq	r3, ip, r6, lsr r4
 4fc:	35327861 	ldrcc	r7, [r2, #-2145]!	; 0xfffff79f
 500:	646e6553 	strbtvs	r6, [lr], #-1363	; 0xfffffaad
 504:	00676e69 	rsbeq	r6, r7, r9, ror #28
 508:	72617473 	rsbvc	r7, r1, #1929379840	; 0x73000000
 50c:	54495074 	strbpl	r5, [r9], #-116	; 0xffffff8c
 510:	69730030 	ldmdbvs	r3!, {r4, r5}^
 514:	7461446e 	strbtvc	r4, [r1], #-1134	; 0xfffffb92
 518:	00343661 	eorseq	r3, r4, r1, ror #12
 51c:	72617473 	rsbvc	r7, r1, #1929379840	; 0x73000000
 520:	54495074 	strbpl	r5, [r9], #-116	; 0xffffff8c
 524:	74730031 	ldrbtvc	r0, [r3], #-49	; 0xffffffcf
 528:	4950706f 	ldmdbmi	r0, {r0, r1, r2, r3, r5, r6, ip, sp, lr}^
 52c:	64003054 	strvs	r3, [r0], #-84	; 0xffffffac
 530:	50617461 	rsbpl	r7, r1, r1, ror #8
 534:	50007274 	andpl	r7, r0, r4, ror r2
 538:	545f5449 	ldrbpl	r5, [pc], #-1097	; 540 <init_data_bss+0x24>
 53c:	00657079 	rsbeq	r7, r5, r9, ror r0
 540:	35327861 	ldrcc	r7, [r2, #-2145]!	; 0xfffff79f
 544:	53746e49 	cmnpl	r4, #1168	; 0x490
 548:	00646e65 	rsbeq	r6, r4, r5, ror #28
 54c:	35327861 	ldrcc	r7, [r2, #-2145]!	; 0xfffff79f
 550:	72617453 	rsbvc	r7, r1, #1392508928	; 0x53000000
 554:	6e6f5474 	mcrvs	4, 3, r5, cr15, cr4, {3}
 558:	6d695465 	cfstrdvs	mvd5, [r9, #-404]!	; 0xfffffe6c
 55c:	61007265 	tstvs	r0, r5, ror #4
 560:	53353278 	teqpl	r5, #120, 4	; 0x80000007
 564:	54706f74 	ldrbtpl	r6, [r0], #-3956	; 0xfffff08c
 568:	72656d69 	rsbvc	r6, r5, #6720	; 0x1a40
 56c:	78610073 	stmdavc	r1!, {r0, r1, r4, r5, r6}^
 570:	75433532 	strbvc	r3, [r3, #-1330]	; 0xffffface
 574:	65447272 	strbvs	r7, [r4, #-626]	; 0xfffffd8e
 578:	0079616c 	rsbseq	r6, r9, ip, ror #2
 57c:	35327861 	ldrcc	r7, [r2, #-2145]!	; 0xfffff79f
 580:	72727543 	rsbsvc	r7, r2, #281018368	; 0x10c00000
 584:	65747942 	ldrbvs	r7, [r4, #-2370]!	; 0xfffff6be
 588:	41564300 	cmpmi	r6, r0, lsl #6
 58c:	7861004c 	stmdavc	r1!, {r2, r3, r6}^
 590:	6e4f3532 	mcrvs	5, 2, r3, cr15, cr2, {1}
 594:	6f437365 	svcvs	0x00437365
 598:	00746e75 	rsbseq	r6, r4, r5, ror lr
 59c:	35327861 	ldrcc	r7, [r2, #-2145]!	; 0xfffff79f
 5a0:	65747942 	ldrbvs	r7, [r4, #-2370]!	; 0xfffff6be
 5a4:	66654c73 			; <UNDEFINED> instruction: 0x66654c73
 5a8:	78610074 	stmdavc	r1!, {r2, r4, r5, r6}^
 5ac:	68433532 	stmdavs	r3, {r1, r4, r5, r8, sl, ip, sp}^
 5b0:	65676e61 	strbvs	r6, [r7, #-3681]!	; 0xfffff19f
 5b4:	00636144 	rsbeq	r6, r3, r4, asr #2
 5b8:	35327861 	ldrcc	r7, [r2, #-2145]!	; 0xfffff79f
 5bc:	61657250 	cmnvs	r5, r0, asr r2
 5c0:	656c626d 	strbvs	r6, [ip, #-621]!	; 0xfffffd93
 5c4:	6f747300 	svcvs	0x00747300
 5c8:	54495070 	strbpl	r5, [r9], #-112	; 0xffffff90
 5cc:	78610031 	stmdavc	r1!, {r0, r4, r5}^
 5d0:	61503532 	cmpvs	r0, r2, lsr r5
 5d4:	6e696464 	cdpvs	4, 6, cr6, cr9, cr4, {3}
 5d8:	78610067 	stmdavc	r1!, {r0, r1, r2, r5, r6}^
 5dc:	77533532 	smmlarvc	r3, r2, r5, r3
 5e0:	68637469 	stmdavs	r3!, {r0, r3, r5, r6, sl, ip, sp, lr}^
 5e4:	71657246 	cmnvc	r5, r6, asr #4
 5e8:	32786100 	rsbscc	r6, r8, #0, 2
 5ec:	72754335 	rsbsvc	r4, r5, #-738197504	; 0xd4000000
 5f0:	74694272 	strbtvc	r4, [r9], #-626	; 0xfffffd8e
 5f4:	4c465400 	cfstrdmi	mvd5, [r6], {-0}
 5f8:	78610047 	stmdavc	r1!, {r0, r1, r2, r6}^
 5fc:	52433532 	subpl	r3, r3, #209715200	; 0xc800000
 600:	75630043 	strbvc	r0, [r3, #-67]!	; 0xffffffbd
 604:	69427272 	stmdbvs	r2, {r1, r4, r5, r6, r9, ip, sp, lr}^
 608:	68630074 	stmdavs	r3!, {r2, r4, r5, r6}^
 60c:	654c7261 	strbvs	r7, [ip, #-609]	; 0xfffffd9f
 610:	7763006e 	strbvc	r0, [r3, -lr, rrx]!
 614:	61746144 	cmnvs	r4, r4, asr #2
 618:	00727450 	rsbseq	r7, r2, r0, asr r4
 61c:	52494450 	subpl	r4, r9, #80, 8	; 0x50000000
 620:	6c656400 	cfstrdvs	mvd6, [r5], #-0
 624:	63007961 	movwvs	r7, #2401	; 0x961
 628:	43727275 	cmnmi	r2, #1342177287	; 0x50000007
 62c:	00726168 	rsbseq	r6, r2, r8, ror #2
 630:	524f4450 	subpl	r4, pc, #80, 8	; 0x50000000
 634:	4e774300 	cdpmi	3, 7, cr4, cr7, cr0, {0}
 638:	65626d75 	strbvs	r6, [r2, #-3445]!	; 0xfffff28b
 63c:	74614472 	strbtvc	r4, [r1], #-1138	; 0xfffffb8e
 640:	44500061 	ldrbmi	r0, [r0], #-97	; 0xffffff9f
 644:	47005244 	strmi	r5, [r0, -r4, asr #4]
 648:	5f4f4950 	svcpl	0x004f4950
 64c:	65707954 	ldrbvs	r7, [r0, #-2388]!	; 0xfffff6ac
 650:	63794300 	cmnvs	r9, #0, 6
 654:	4c73656c 	cfldr64mi	mvdx6, [r3], #-432	; 0xfffffe50
 658:	00746665 	rsbseq	r6, r4, r5, ror #12
 65c:	524f5350 	subpl	r5, pc, #80, 6	; 0x40000001
 660:	74694400 	strbtvc	r4, [r9], #-1024	; 0xfffffc00
 664:	6144724f 	cmpvs	r4, pc, asr #4
 668:	77630068 	strbvc	r0, [r3, -r8, rrx]!
 66c:	49746950 	ldmdbmi	r4!, {r4, r6, r8, fp, sp, lr}^
 670:	63007273 	movwvs	r7, #627	; 0x273
 674:	6e6f5477 	mcrvs	4, 3, r5, cr15, cr7, {3}
 678:	77630065 	strbvc	r0, [r3, -r5, rrx]!
 67c:	4300632e 	movwmi	r6, #814	; 0x32e
 680:	74654c77 	strbtvc	r4, [r5], #-3191	; 0xfffff389
 684:	44726574 	ldrbtmi	r6, [r2], #-1396	; 0xfffffa8c
 688:	00617461 	rsbeq	r7, r1, r1, ror #8
 68c:	524f5450 	subpl	r5, pc, #80, 8	; 0x50000000
 690:	6e697300 	cdpvs	3, 6, cr7, cr9, cr0, {0}
 694:	65646e49 	strbvs	r6, [r4, #-3657]!	; 0xfffff1b7
 698:	77630078 			; <UNDEFINED> instruction: 0x77630078
 69c:	646e6553 	strbtvs	r6, [lr], #-1363	; 0xfffffaad
 6a0:	4f435000 	svcmi	0x00435000
 6a4:	49500052 	ldmdbmi	r0, {r1, r4, r6}^
 6a8:	52495f54 	subpl	r5, r9, #84, 30	; 0x150
 6ac:	53006e51 	movwpl	r6, #3665	; 0xe51
 6b0:	69547379 	ldmdbvs	r4, {r0, r3, r4, r5, r6, r8, r9, ip, sp, lr}^
 6b4:	495f6b63 	ldmdbmi	pc, {r0, r1, r5, r6, r8, r9, fp, sp, lr}^	; <UNPREDICTABLE>
 6b8:	006e5152 	rsbeq	r5, lr, r2, asr r1
 6bc:	31495053 	qdaddcc	r5, r3, r9
 6c0:	5152495f 	cmppl	r2, pc, asr r9
 6c4:	646c006e 	strbtvs	r0, [ip], #-110	; 0xffffff92
 6c8:	006c6156 	rsbeq	r6, ip, r6, asr r1
 6cc:	45534552 	ldrbmi	r4, [r3, #-1362]	; 0xfffffaae
 6d0:	44455652 	strbmi	r5, [r5], #-1618	; 0xfffff9ae
 6d4:	4d440030 	stclmi	0, cr0, [r4, #-192]	; 0xffffff40
 6d8:	495f3341 	ldmdbmi	pc, {r0, r6, r8, r9, ip, sp}^	; <UNPREDICTABLE>
 6dc:	006e5152 	rsbeq	r5, lr, r2, asr r1
 6e0:	30434144 	subcc	r4, r3, r4, asr #2
 6e4:	5152495f 	cmppl	r2, pc, asr r9
 6e8:	4552006e 	ldrbmi	r0, [r2, #-110]	; 0xffffff92
 6ec:	56524553 			; <UNDEFINED> instruction: 0x56524553
 6f0:	00334445 	eorseq	r4, r3, r5, asr #8
 6f4:	53493154 	movtpl	r3, #37204	; 0x9154
 6f8:	32490052 	subcc	r0, r9, #82	; 0x52
 6fc:	495f3143 	ldmdbmi	pc, {r0, r1, r6, r8, ip, sp}^	; <UNPREDICTABLE>
 700:	006e5152 	rsbeq	r5, lr, r2, asr r1
 704:	32414d44 	subcc	r4, r1, #68, 26	; 0x1100
 708:	5152495f 	cmppl	r2, pc, asr r9
 70c:	6f4e006e 	svcvs	0x004e006e
 710:	61764174 	cmnvs	r6, r4, ror r1
 714:	495f6c69 	ldmdbmi	pc, {r0, r3, r5, r6, sl, fp, sp, lr}^	; <UNPREDICTABLE>
 718:	006e5152 	rsbeq	r5, lr, r2, asr r1
 71c:	30414d44 	subcc	r4, r1, r4, asr #26
 720:	5152495f 	cmppl	r2, pc, asr r9
 724:	5352006e 	cmppl	r2, #110	; 0x6e
 728:	45565245 	ldrbmi	r5, [r6, #-581]	; 0xfffffdbb
 72c:	52003144 	andpl	r3, r0, #68, 2
 730:	72657365 	rsbvc	r7, r5, #-1811939327	; 0x94000001
 734:	32646576 	rsbcc	r6, r4, #494927872	; 0x1d800000
 738:	52495f30 	subpl	r5, r9, #48, 30	; 0xc0
 73c:	50006e51 	andpl	r6, r0, r1, asr lr
 740:	53646e65 	cmnpl	r4, #1616	; 0x650
 744:	52495f56 	subpl	r5, r9, #344	; 0x158
 748:	54006e51 	strpl	r6, [r0], #-3665	; 0xfffff1af
 74c:	5f314d50 	svcpl	0x00314d50
 750:	6e515249 	cdpvs	2, 5, cr5, cr1, cr9, {2}
 754:	54504c00 	ldrbpl	r4, [r0], #-3072	; 0xfffff400
 758:	5f30524d 	svcpl	0x0030524d
 75c:	6e515249 	cdpvs	2, 5, cr5, cr1, cr9, {2}
 760:	655f5f00 	ldrbvs	r5, [pc, #-3840]	; fffff868 <__StackTop+0xdfffc868>
 764:	6c62616e 	stfvse	f6, [r2], #-440	; 0xfffffe48
 768:	72695f65 	rsbvc	r5, r9, #404	; 0x194
 76c:	564e0071 			; <UNDEFINED> instruction: 0x564e0071
 770:	455f4349 	ldrbmi	r4, [pc, #-841]	; 42f <_mainCRTStartup+0x1f>
 774:	6c62616e 	stfvse	f6, [r2], #-440	; 0xfffffe48
 778:	51524965 	cmppl	r2, r5, ror #18
 77c:	645f5f00 	ldrbvs	r5, [pc], #-3840	; 784 <ax25ChangeBit+0x40>
 780:	62617369 	rsbvs	r7, r1, #-1543503871	; 0xa4000001
 784:	695f656c 	ldmdbvs	pc, {r2, r3, r5, r6, r8, sl, sp, lr}^	; <UNPREDICTABLE>
 788:	55007172 	strpl	r7, [r0, #-370]	; 0xfffffe8e
 78c:	31545241 	cmpcc	r4, r1, asr #4
 790:	5152495f 	cmppl	r2, pc, asr r9
 794:	4950006e 	ldmdbmi	r0, {r1, r2, r3, r5, r6}^
 798:	74614454 	strbtvc	r4, [r1], #-1108	; 0xfffffbac
 79c:	72745361 	rsbsvc	r5, r4, #-2080374783	; 0x84000001
 7a0:	00746375 	rsbseq	r6, r4, r5, ror r3
 7a4:	4349564e 	movtmi	r5, #38478	; 0x964e
 7a8:	7079545f 	rsbsvc	r5, r9, pc, asr r4
 7ac:	52490065 	subpl	r0, r9, #101	; 0x65
 7b0:	545f6e51 	ldrbpl	r6, [pc], #-3665	; 7b8 <ax25ChangeBit+0x74>
 7b4:	00657079 	rsbeq	r7, r5, r9, ror r0
 7b8:	52504349 	subspl	r4, r0, #603979777	; 0x24000001
 7bc:	54495000 	strbpl	r5, [r9], #-0
 7c0:	5152495f 	cmppl	r2, pc, asr r9
 7c4:	646e6148 	strbtvs	r6, [lr], #-328	; 0xfffffeb8
 7c8:	0072656c 	rsbseq	r6, r2, ip, ror #10
 7cc:	30495053 	subcc	r5, r9, r3, asr r0
 7d0:	5152495f 	cmppl	r2, pc, asr r9
 7d4:	4349006e 	movtmi	r0, #36974	; 0x906e
 7d8:	53005245 	movwpl	r5, #581	; 0x245
 7dc:	6c614356 	stclvs	3, cr4, [r1], #-344	; 0xfffffea8
 7e0:	52495f6c 	subpl	r5, r9, #108, 30	; 0x1b0
 7e4:	48006e51 	stmdami	r0, {r0, r4, r6, r9, sl, fp, sp, lr}
 7e8:	46647261 	strbtmi	r7, [r4], -r1, ror #4
 7ec:	746c7561 	strbtvc	r7, [ip], #-1377	; 0xfffffa9f
 7f0:	5152495f 	cmppl	r2, pc, asr r9
 7f4:	4f50006e 	svcmi	0x0050006e
 7f8:	5f435452 	svcpl	0x00435452
 7fc:	54524f50 	ldrbpl	r4, [r2], #-3920	; 0xfffff0b0
 800:	52495f44 	subpl	r5, r9, #68, 30	; 0x110
 804:	50006e51 	andpl	r6, r0, r1, asr lr
 808:	61445449 	cmpvs	r4, r9, asr #8
 80c:	52006174 	andpl	r6, r0, #116, 2
 810:	535f4354 	cmppl	pc, #84, 6	; 0x50000001
 814:	6e6f6365 	cdpvs	3, 6, cr6, cr15, cr5, {3}
 818:	495f7364 	ldmdbmi	pc, {r2, r5, r6, r8, r9, ip, sp, lr}^	; <UNPREDICTABLE>
 81c:	006e5152 	rsbeq	r5, lr, r2, asr r1
 820:	65736552 	ldrbvs	r6, [r3, #-1362]!	; 0xfffffaae
 824:	64657672 	strbtvs	r7, [r5], #-1650	; 0xfffff98e
 828:	495f3534 	ldmdbmi	pc, {r2, r4, r5, r8, sl, ip, sp}^	; <UNPREDICTABLE>
 82c:	006e5152 	rsbeq	r5, lr, r2, asr r1
 830:	30434441 	subcc	r4, r3, r1, asr #8
 834:	5152495f 	cmppl	r2, pc, asr r9
 838:	5349006e 	movtpl	r0, #36974	; 0x906e
 83c:	49005250 	stmdbmi	r0, {r4, r6, r9, ip, lr}
 840:	00524553 	subseq	r4, r2, r3, asr r5
 844:	45534552 	ldrbmi	r4, [r3, #-1362]	; 0xfffffaae
 848:	44455652 	strbmi	r5, [r5], #-1618	; 0xfffff9ae
 84c:	45520034 	ldrbmi	r0, [r2, #-52]	; 0xffffffcc
 850:	56524553 			; <UNDEFINED> instruction: 0x56524553
 854:	00324445 	eorseq	r4, r2, r5, asr #8
 858:	30495354 	subcc	r5, r9, r4, asr r3
 85c:	5152495f 	cmppl	r2, pc, asr r9
 860:	3249006e 	subcc	r0, r9, #110	; 0x6e
 864:	495f3043 	ldmdbmi	pc, {r0, r1, r6, ip, sp}^	; <UNPREDICTABLE>
 868:	006e5152 	rsbeq	r5, lr, r2, asr r1
 86c:	31414d44 	cmpcc	r1, r4, asr #26
 870:	5152495f 	cmppl	r2, pc, asr r9
 874:	5452006e 	ldrbpl	r0, [r2], #-110	; 0xffffff92
 878:	52495f43 	subpl	r5, r9, #268	; 0x10c
 87c:	4e006e51 	mcrmi	14, 0, r6, cr0, cr1, {2}
 880:	614d6e6f 	cmpvs	sp, pc, ror #28
 884:	62616b73 	rsbvs	r6, r1, #117760	; 0x1cc00
 888:	6e49656c 	cdpvs	5, 4, cr6, cr9, cr12, {3}
 88c:	52495f74 	subpl	r5, r9, #116, 30	; 0x1d0
 890:	4c006e51 	stcmi	14, cr6, [r0], {81}	; 0x51
 894:	4c5f4456 	cfldrdmi	mvd4, [pc], {86}	; 0x56
 898:	495f5756 	ldmdbmi	pc, {r1, r2, r4, r6, r8, r9, sl, ip, lr}^	; <UNPREDICTABLE>
 89c:	006e5152 	rsbeq	r5, lr, r2, asr r1
 8a0:	5f47434d 	svcpl	0x0047434d
 8a4:	6e515249 	cdpvs	2, 5, cr5, cr1, cr9, {2}
 8a8:	524f5000 	subpl	r5, pc, #0
 8ac:	495f4154 	ldmdbmi	pc, {r2, r4, r6, r8, lr}^	; <UNPREDICTABLE>
 8b0:	006e5152 	rsbeq	r5, lr, r2, asr r1
 8b4:	41465446 	cmpmi	r6, r6, asr #8
 8b8:	5152495f 	cmppl	r2, pc, asr r9
 8bc:	5054006e 	subspl	r0, r4, lr, rrx
 8c0:	495f324d 	ldmdbmi	pc, {r0, r2, r3, r6, r9, ip, sp}^	; <UNPREDICTABLE>
 8c4:	006e5152 	rsbeq	r5, lr, r2, asr r1
 8c8:	30504d43 	subscc	r4, r0, r3, asr #26
 8cc:	5152495f 	cmppl	r2, pc, asr r9
 8d0:	5054006e 	subspl	r0, r4, lr, rrx
 8d4:	495f304d 	ldmdbmi	pc, {r0, r2, r3, r6, ip, sp}^	; <UNPREDICTABLE>
 8d8:	006e5152 	rsbeq	r5, lr, r2, asr r1
 8dc:	55574c4c 	ldrbpl	r4, [r7, #-3148]	; 0xfffff3b4
 8e0:	5152495f 	cmppl	r2, pc, asr r9
 8e4:	3249006e 	subcc	r0, r9, #110	; 0x6e
 8e8:	495f3053 	ldmdbmi	pc, {r0, r1, r4, r6, ip, sp}^	; <UNPREDICTABLE>
 8ec:	006e5152 	rsbeq	r5, lr, r2, asr r1
 8f0:	54524155 	ldrbpl	r4, [r2], #-341	; 0xfffffeab
 8f4:	52495f30 	subpl	r5, r9, #48, 30	; 0xc0
 8f8:	55006e51 	strpl	r6, [r0, #-3665]	; 0xfffff1af
 8fc:	32545241 	subscc	r5, r4, #268435460	; 0x10000004
 900:	5152495f 	cmppl	r2, pc, asr r9
 904:	4950006e 	ldmdbmi	r0, {r1, r2, r3, r5, r6}^
 908:	00632e54 	rsbeq	r2, r3, r4, asr lr
 90c:	53493054 	movtpl	r3, #36948	; 0x9054
 910:	53550052 	cmppl	r5, #82	; 0x52
 914:	495f3042 	ldmdbmi	pc, {r1, r6, ip, sp}^	; <UNPREDICTABLE>
 918:	006e5152 	rsbeq	r5, lr, r2, asr r1
 91c:	4c435047 	mcrrmi	0, 4, r5, r3, cr7
 920:	61750052 	cmnvs	r5, r2, asr r0
 924:	61447472 	hvcvs	18242	; 0x4742
 928:	74536174 	ldrbvc	r6, [r3], #-372	; 0xfffffe8c
 92c:	74637572 	strbtvc	r7, [r3], #-1394	; 0xfffffa8e
 930:	72617500 	rsbvc	r7, r1, #0, 10
 934:	74614474 	strbtvc	r4, [r1], #-1140	; 0xfffffb8c
 938:	61750061 	cmnvs	r5, r1, rrx
 93c:	65477472 	strbvs	r7, [r7, #-1138]	; 0xfffffb8e
 940:	61684374 	smcvs	33844	; 0x8434
 944:	61750072 	cmnvs	r5, r2, ror r0
 948:	45307472 	ldrmi	r7, [r0, #-1138]!	; 0xfffffb8e
 94c:	6c62616e 	stfvse	f6, [r2], #-440	; 0xfffffe48
 950:	746e4965 	strbtvc	r4, [lr], #-2405	; 0xfffff69b
 954:	75727265 	ldrbvc	r7, [r2, #-613]!	; 0xfffffd9b
 958:	00737470 	rsbseq	r7, r3, r0, ror r4
 95c:	54524f50 	ldrbpl	r4, [r2], #-3920	; 0xfffff0b0
 960:	7079545f 	rsbsvc	r5, r9, pc, asr r4
 964:	61750065 	cmnvs	r5, r5, rrx
 968:	65477472 	strbvs	r7, [r7, #-1138]	; 0xfffffb8e
 96c:	72745374 	rsbsvc	r5, r4, #116, 6	; 0xd0000001
 970:	00676e69 	rsbeq	r6, r7, r9, ror #28
 974:	74726175 	ldrbtvc	r6, [r2], #-373	; 0xfffffe8b
 978:	53747550 	cmnpl	r4, #80, 10	; 0x14000000
 97c:	6e697274 	mcrvs	2, 3, r7, cr9, cr4, {3}
 980:	6f6c4267 	svcvs	0x006c4267
 984:	49006b63 	stmdbmi	r0, {r0, r1, r5, r6, r8, r9, fp, sp, lr}
 988:	00524653 	subseq	r4, r2, r3, asr r6
 98c:	73726150 	cmnvc	r2, #80, 2
 990:	53504765 	cmppl	r0, #26476544	; 0x1940000
 994:	72617500 	rsbvc	r7, r1, #0, 10
 998:	69615774 	stmdbvs	r1!, {r2, r4, r5, r6, r8, r9, sl, ip, lr}^
 99c:	61620074 	smcvs	8196	; 0x2004
 9a0:	75006475 	strvc	r6, [r0, #-1141]	; 0xfffffb8b
 9a4:	30747261 	rsbscc	r7, r4, r1, ror #4
 9a8:	61746144 	cmnvs	r4, r4, asr #2
 9ac:	72617500 	rsbvc	r7, r1, #0, 10
 9b0:	00632e74 	rsbeq	r2, r3, r4, ror lr
 9b4:	74726175 	ldrbtvc	r6, [r2], #-373	; 0xfffffe8b
 9b8:	74696e49 	strbtvc	r6, [r9], #-3657	; 0xfffff1b7
 9bc:	49564e00 	ldmdbmi	r6, {r9, sl, fp, lr}^
 9c0:	69445f43 	stmdbvs	r4, {r0, r1, r6, r8, r9, sl, fp, ip, lr}^
 9c4:	6c626173 	stfvse	f6, [r2], #-460	; 0xfffffe34
 9c8:	51524965 	cmppl	r2, r5, ror #18
 9cc:	52415500 	subpl	r5, r1, #0, 10
 9d0:	79545f54 	ldmdbvc	r4, {r2, r4, r6, r8, r9, sl, fp, ip, lr}^
 9d4:	75006570 	strvc	r6, [r0, #-1392]	; 0xfffffa90
 9d8:	31747261 	cmncc	r4, r1, ror #4
 9dc:	62616e45 	rsbvs	r6, r1, #1104	; 0x450
 9e0:	6e49656c 	cdpvs	5, 4, cr6, cr9, cr12, {3}
 9e4:	72726574 	rsbsvc	r6, r2, #116, 10	; 0x1d000000
 9e8:	73747075 	cmnvc	r4, #117	; 0x75
 9ec:	61747300 	cmnvs	r4, r0, lsl #6
 9f0:	00737574 	rsbseq	r7, r3, r4, ror r5
 9f4:	74726175 	ldrbtvc	r6, [r2], #-373	; 0xfffffe8b
 9f8:	43746547 	cmnmi	r4, #297795584	; 0x11c00000
 9fc:	42726168 	rsbsmi	r6, r2, #104, 2
 a00:	6b636f6c 	blvs	18dc7b8 <__DATA_END+0x18dae8c>
 a04:	52415500 	subpl	r5, r1, #0, 10
 a08:	495f3254 	ldmdbmi	pc, {r2, r4, r6, r9, ip, sp}^	; <UNPREDICTABLE>
 a0c:	61485152 	cmpvs	r8, r2, asr r1
 a10:	656c646e 	strbvs	r6, [ip, #-1134]!	; 0xfffffb92
 a14:	61750072 	cmnvs	r5, r2, ror r0
 a18:	65477472 	strbvs	r7, [r7, #-1138]	; 0xfffffb8e
 a1c:	72745374 	rsbsvc	r5, r4, #116, 6	; 0xd0000001
 a20:	42676e69 	rsbmi	r6, r7, #1680	; 0x690
 a24:	6b636f6c 	blvs	18dc7dc <__DATA_END+0x18daeb0>
 a28:	72617500 	rsbvc	r7, r1, #0, 10
 a2c:	74755074 	ldrbtvc	r5, [r5], #-116	; 0xffffff8c
 a30:	69727453 	ldmdbvs	r2!, {r0, r1, r4, r6, sl, ip, sp, lr}^
 a34:	5500676e 	strpl	r6, [r0, #-1902]	; 0xfffff892
 a38:	30545241 	subscc	r5, r4, r1, asr #4
 a3c:	7079545f 	rsbsvc	r5, r9, pc, asr r4
 a40:	61750065 	cmnvs	r5, r5, rrx
 a44:	44317472 	ldrtmi	r7, [r1], #-1138	; 0xfffffb8e
 a48:	00617461 	rsbeq	r7, r1, r1, ror #8
 a4c:	54524155 	ldrbpl	r4, [r2], #-341	; 0xfffffeab
 a50:	52495f31 	subpl	r5, r9, #49, 30	; 0xc4
 a54:	6e614851 	mcrvs	8, 3, r4, cr1, cr1, {2}
 a58:	72656c64 	rsbvc	r6, r5, #100, 24	; 0x6400
 a5c:	72617500 	rsbvc	r7, r1, #0, 10
 a60:	74654774 	strbtvc	r4, [r5], #-1908	; 0xfffff88c
 a64:	656e694c 	strbvs	r6, [lr, #-2380]!	; 0xfffff6b4
 a68:	72617500 	rsbvc	r7, r1, #0, 10
 a6c:	69443074 	stmdbvs	r4, {r2, r4, r5, r6, ip, sp}^
 a70:	6c626173 	stfvse	f6, [r2], #-460	; 0xfffffe34
 a74:	746e4965 	strbtvc	r4, [lr], #-2405	; 0xfffff69b
 a78:	75727265 	ldrbvc	r7, [r2, #-613]!	; 0xfffffd9b
 a7c:	00737470 	rsbseq	r7, r3, r0, ror r4
 a80:	72746572 	rsbsvc	r6, r4, #478150656	; 0x1c800000
 a84:	756f4379 	strbvc	r4, [pc, #-889]!	; 713 <ax25IntSend+0x6b>
 a88:	7500746e 	strvc	r7, [r0, #-1134]	; 0xfffffb92
 a8c:	32747261 	rsbscc	r7, r4, #268435462	; 0x10000006
 a90:	61746144 	cmnvs	r4, r4, asr #2
 a94:	72756300 	rsbsvc	r6, r5, #0, 6
 a98:	65740072 	ldrbvs	r0, [r4, #-114]!	; 0xffffff8e
 a9c:	7500706d 	strvc	r7, [r0, #-109]	; 0xffffff93
 aa0:	50747261 	rsbspl	r7, r4, r1, ror #4
 aa4:	68437475 	stmdavs	r3, {r0, r2, r4, r5, r6, sl, ip, sp, lr}^
 aa8:	47007261 	strmi	r7, [r0, -r1, ror #4]
 aac:	52484350 	subpl	r4, r8, #80, 6	; 0x40000001
 ab0:	52415500 	subpl	r5, r1, #0, 10
 ab4:	495f3054 	ldmdbmi	pc, {r2, r4, r6, ip, sp}^	; <UNPREDICTABLE>
 ab8:	61485152 	cmpvs	r8, r2, asr r1
 abc:	656c646e 	strbvs	r6, [ip, #-1134]!	; 0xfffffb92
 ac0:	41550072 	cmpmi	r5, r2, ror r0
 ac4:	55005452 	strpl	r5, [r0, #-1106]	; 0xfffffbae
 ac8:	5f545241 	svcpl	0x00545241
 acc:	695f6f74 	ldmdbvs	pc, {r2, r4, r5, r6, r8, r9, sl, fp, sp, lr}^	; <UNPREDICTABLE>
 ad0:	0074696e 	rsbseq	r6, r4, lr, ror #18
 ad4:	74726175 	ldrbtvc	r6, [r2], #-373	; 0xfffffe8b
 ad8:	43747550 	cmnmi	r4, #80, 10	; 0x14000000
 adc:	42726168 	rsbsmi	r6, r2, #104, 2
 ae0:	6b636f6c 	blvs	18dc898 <__DATA_END+0x18daf6c>
 ae4:	74657200 	strbtvc	r7, [r5], #-512	; 0xfffffe00
 ae8:	73656972 	cmnvc	r5, #1867776	; 0x1c8000
 aec:	6d656d00 	stclvs	13, cr6, [r5, #-0]
 af0:	00797063 	rsbseq	r7, r9, r3, rrx
 af4:	74726175 	ldrbtvc	r6, [r2], #-373	; 0xfffffe8b
 af8:	61656c43 	cmnvs	r5, r3, asr #24
 afc:	51785272 	cmnpl	r8, r2, ror r2
 b00:	65756575 	ldrbvs	r6, [r5, #-1397]!	; 0xfffffa8b
 b04:	72617500 	rsbvc	r7, r1, #0, 10
 b08:	49785474 	ldmdbmi	r8!, {r2, r4, r5, r6, sl, ip, lr}^
 b0c:	6575516e 	ldrbvs	r5, [r5, #-366]!	; 0xfffffe92
 b10:	64006575 	strvs	r6, [r0], #-1397	; 0xfffffa8b
 b14:	78526172 	ldmdavc	r2, {r1, r4, r5, r6, r8, sp, lr}^
 b18:	63326900 	teqvs	r2, #0, 18
 b1c:	696e695f 	stmdbvs	lr!, {r0, r1, r2, r3, r4, r6, r8, fp, sp, lr}^
 b20:	65730074 	ldrbvs	r0, [r3, #-116]!	; 0xffffff8c
 b24:	6f50646e 	svcvs	0x0050646e
 b28:	6e690073 	mcrvs	0, 3, r0, cr9, cr3, {3}
 b2c:	70477469 	subvc	r7, r7, r9, ror #8
 b30:	4c530073 	mrrcmi	0, 7, r0, r3, cr3
 b34:	53004854 	movwpl	r4, #2132	; 0x854
 b38:	004c544c 	subeq	r5, ip, ip, asr #8
 b3c:	63656863 	cmnvs	r5, #6488064	; 0x630000
 b40:	4152446b 	cmpmi	r2, fp, ror #8
 b44:	69616d00 	stmdbvs	r1!, {r8, sl, fp, sp, lr}^
 b48:	7264006e 	rsbvc	r0, r4, #110	; 0x6e
 b4c:	66664f61 	strbtvs	r4, [r6], -r1, ror #30
 b50:	43324900 	teqmi	r2, #0, 18
 b54:	7079545f 	rsbsvc	r5, r9, pc, asr r4
 b58:	72700065 	rsbsvc	r0, r0, #101	; 0x65
 b5c:	6172676f 	cmnvs	r2, pc, ror #14
 b60:	6172446d 	cmnvs	r2, sp, ror #8
 b64:	6f6c6300 	svcvs	0x006c6300
 b68:	6e496b63 	vmlsvs.f64	d22, d9, d19
 b6c:	64007469 	strvs	r7, [r0], #-1129	; 0xfffffb97
 b70:	78546172 	ldmdavc	r4, {r1, r4, r5, r6, r8, sp, lr}^
 b74:	73657400 	cmnvc	r5, #0, 8
 b78:	72615074 	rsbvc	r5, r1, #116	; 0x74
 b7c:	6d006573 	cfstr32vs	mvfx6, [r0, #-460]	; 0xfffffe34
 b80:	2e6e6961 	cdpcs	9, 6, cr6, cr14, cr1, {3}
 b84:	534f0063 	movtpl	r0, #61539	; 0xf063
 b88:	79545f43 	ldmdbvc	r4, {r0, r1, r6, r8, r9, sl, fp, ip, lr}^
 b8c:	69006570 	stmdbvs	r0, {r4, r5, r6, r8, sl, sp, lr}
 b90:	4474696e 	ldrbtmi	r6, [r4], #-2414	; 0xfffff692
 b94:	64004152 	strvs	r4, [r0], #-338	; 0xfffffeae
 b98:	6e4f6172 	mcrvs	1, 2, r6, cr15, cr2, {3}
 b9c:	6e697300 	cdpvs	3, 6, cr7, cr9, cr0, {0}
 ba0:	6400632e 	strvs	r6, [r0], #-814	; 0xfffffcd2
 ba4:	4c506172 	ldfmie	f6, [r0], {114}	; 0x72
 ba8:	61726400 	cmnvs	r2, r0, lsl #8
 bac:	6400632e 	strvs	r6, [r0], #-814	; 0xfffffcd2
 bb0:	61446172 	hvcvs	17938	; 0x4612
 bb4:	74536174 	ldrbvc	r6, [r3], #-372	; 0xfffffe8c
 bb8:	74637572 	strbtvc	r7, [r3], #-1394	; 0xfffffa8e
 bbc:	64707500 	ldrbtvs	r7, [r0], #-1280	; 0xfffffb00
 bc0:	52657461 	rsbpl	r7, r5, #1627389952	; 0x61000000
 bc4:	65724678 	ldrbvs	r4, [r2, #-1656]!	; 0xfffff988
 bc8:	72640071 	rsbvc	r0, r4, #113	; 0x71
 bcc:	74614461 	strbtvc	r4, [r1], #-1121	; 0xfffffb9f
 bd0:	72660061 	rsbvc	r0, r6, #97	; 0x61
 bd4:	64007165 	strvs	r7, [r0], #-357	; 0xfffffe9b
 bd8:	78526172 	ldmdavc	r2, {r1, r4, r5, r6, r8, sp, lr}^
 bdc:	71657246 	cmnvc	r5, r6, asr #4
 be0:	61726400 	cmnvs	r2, r0, lsl #8
 be4:	65757153 	ldrbvs	r7, [r5, #-339]!	; 0xfffffead
 be8:	0068636c 	rsbeq	r6, r8, ip, ror #6
 bec:	69727473 	ldmdbvs	r2!, {r0, r1, r4, r5, r6, sl, ip, sp, lr}^
 bf0:	7043676e 	subvc	r6, r3, lr, ror #14
 bf4:	70750079 	rsbsvc	r0, r5, r9, ror r0
 bf8:	65746164 	ldrbvs	r6, [r4, #-356]!	; 0xfffffe9c
 bfc:	72467854 	subvc	r7, r6, #84, 16	; 0x540000
 c00:	64007165 	strvs	r7, [r0], #-357	; 0xfffffe9b
 c04:	6e496172 	mcrvs	1, 2, r6, cr9, cr2, {3}
 c08:	64657469 	strbtvs	r7, [r5], #-1129	; 0xfffffb97
 c0c:	756f6300 	strbvc	r6, [pc, #-768]!	; 914 <startPIT0+0x28>
 c10:	6400746e 	strvs	r7, [r0], #-1134	; 0xfffffb92
 c14:	78546172 	ldmdavc	r4, {r1, r4, r5, r6, r8, sp, lr}^
 c18:	71657246 	cmnvc	r5, r6, asr #4
 c1c:	61747300 	cmnvs	r4, r0, lsl #6
 c20:	74730074 	ldrbtvc	r0, [r3], #-116	; 0xffffff8c
 c24:	00657461 	rsbeq	r7, r5, r1, ror #8
 c28:	44535047 	ldrbmi	r5, [r3], #-71	; 0xffffffb9
 c2c:	00617461 	rsbeq	r7, r1, r1, ror #8
 c30:	486e6f6c 	stmdami	lr!, {r2, r3, r5, r6, r8, r9, sl, fp, sp, lr}^
 c34:	00696d65 	rsbeq	r6, r9, r5, ror #26
 c38:	50746567 	rsbspl	r6, r4, r7, ror #10
 c3c:	6700736f 	strvs	r7, [r0, -pc, ror #6]
 c40:	65547370 	ldrbvs	r7, [r4, #-880]	; 0xfffffc90
 c44:	6c006d72 	stcvs	13, cr6, [r0], {114}	; 0x72
 c48:	65487461 	strbvs	r7, [r8, #-1121]	; 0xfffffb9f
 c4c:	6300696d 	movwvs	r6, #2413	; 0x96d
 c50:	7372756f 	cmnvc	r2, #465567744	; 0x1bc00000
 c54:	69740065 	ldmdbvs	r4!, {r0, r2, r5, r6}^
 c58:	7500656d 	strvc	r6, [r0, #-1389]	; 0xfffffa93
 c5c:	31747261 	cmncc	r4, r1, ror #4
 c60:	61736944 	cmnvs	r3, r4, asr #18
 c64:	49656c62 	stmdbmi	r5!, {r1, r5, r6, sl, fp, sp, lr}^
 c68:	7265746e 	rsbvc	r7, r5, #1845493760	; 0x6e000000
 c6c:	74707572 	ldrbtvc	r7, [r0], #-1394	; 0xfffffa8e
 c70:	70670073 	rsbvc	r0, r7, r3, ror r0
 c74:	74614473 	strbtvc	r4, [r1], #-1139	; 0xfffffb8d
 c78:	70730061 	rsbsvc	r0, r3, r1, rrx
 c7c:	00646565 	rsbeq	r6, r4, r5, ror #10
 c80:	2e737067 	cdpcs	0, 7, cr7, cr3, cr7, {3}
 c84:	79630063 	stmdbvc	r3!, {r0, r1, r5, r6}^
 c88:	73656c63 	cmnvc	r5, #25344	; 0x6300
 c8c:	656d6e00 	strbvs	r6, [sp, #-3584]!	; 0xfffff200
 c90:	65745f61 	ldrbvs	r5, [r4, #-3937]!	; 0xfffff09f
 c94:	67007473 	smlsdxvs	r0, r3, r4, r7
 c98:	75437370 	strbvc	r7, [r3, #-880]	; 0xfffffc90
 c9c:	65694672 	strbvs	r4, [r9, #-1650]!	; 0xfffff98e
 ca0:	6c00646c 	cfstrsvs	mvf6, [r0], {108}	; 0x6c
 ca4:	74676e65 	strbtvc	r6, [r7], #-3685	; 0xfffff19b
 ca8:	736d5f68 	cmnvc	sp, #104, 30	; 0x1a0
 cac:	54504c00 	ldrbpl	r4, [r0], #-3072	; 0xfffff400
 cb0:	545f524d 	ldrbpl	r5, [pc], #-589	; cb8 <clockInit+0x68>
 cb4:	00657079 	rsbeq	r7, r5, r9, ror r0
 cb8:	616c6564 	cmnvs	ip, r4, ror #10
 cbc:	00632e79 	rsbeq	r2, r3, r9, ror lr
 cc0:	2e633269 	cdpcs	2, 6, cr3, cr3, cr9, {3}
 cc4:	32690063 	rsbcc	r0, r9, #99	; 0x63
 cc8:	65735f63 	ldrbvs	r5, [r3, #-3939]!	; 0xfffff09d
 ccc:	6c735f74 	ldclvs	15, cr5, [r3], #-464	; 0xfffffe30
 cd0:	00657661 	rsbeq	r7, r5, r1, ror #12
 cd4:	46633269 	strbtmi	r3, [r3], -r9, ror #4
 cd8:	6873616c 	ldmdavs	r3!, {r2, r3, r5, r6, r8, sp, lr}^
 cdc:	64616552 	strbtvs	r6, [r1], #-1362	; 0xfffffaae
 ce0:	63326900 	teqvs	r2, #0, 18
 ce4:	6961775f 	stmdbvs	r1!, {r0, r1, r2, r3, r4, r6, r8, r9, sl, ip, sp, lr}^
 ce8:	32690074 	rsbcc	r0, r9, #116	; 0x74
 cec:	65725f63 	ldrbvs	r5, [r2, #-3939]!	; 0xfffff09d
 cf0:	6e006461 	cdpvs	4, 0, cr6, cr0, cr1, {3}
 cf4:	79426d75 	stmdbvc	r2, {r0, r2, r4, r5, r6, r8, sl, fp, sp, lr}^
 cf8:	00736574 	rsbseq	r6, r3, r4, ror r5
 cfc:	65646e69 	strbvs	r6, [r4, #-3689]!	; 0xfffff197
 d00:	32690078 	rsbcc	r0, r9, #120	; 0x78
 d04:	65725f63 	ldrbvs	r5, [r2, #-3939]!	; 0xfffff09d
 d08:	74616570 	strbtvc	r6, [r1], #-1392	; 0xfffffa90
 d0c:	735f6465 	cmpvc	pc, #1694498816	; 0x65000000
 d10:	74726174 	ldrbtvc	r6, [r2], #-372	; 0xfffffe8c
 d14:	64646100 	strbtvs	r6, [r4], #-256	; 0xffffff00
 d18:	32690072 	rsbcc	r0, r9, #114	; 0x72
 d1c:	69675f63 	stmdbvs	r7!, {r0, r1, r5, r6, r8, r9, sl, fp, ip, lr}^
 d20:	6e5f6576 	mrcvs	5, 2, r6, cr15, cr6, {3}
 d24:	006b6361 	rsbeq	r6, fp, r1, ror #6
 d28:	5f633269 	svcpl	0x00633269
 d2c:	5f746573 	svcpl	0x00746573
 d30:	69007874 	stmdbvs	r0, {r2, r4, r5, r6, fp, ip, sp, lr}
 d34:	735f6332 	cmpvc	pc, #-939524096	; 0xc8000000
 d38:	00706f74 	rsbseq	r6, r0, r4, ror pc
 d3c:	5f633269 	svcpl	0x00633269
 d40:	74697277 	strbtvc	r7, [r9], #-631	; 0xfffffd89
 d44:	32690065 	rsbcc	r0, r9, #101	; 0x65
 d48:	616c4663 	cmnvs	ip, r3, ror #12
 d4c:	72576873 	subsvc	r6, r7, #7536640	; 0x730000
 d50:	00657469 	rsbeq	r7, r5, r9, ror #8
 d54:	5f633269 	svcpl	0x00633269
 d58:	5f746573 	svcpl	0x00746573
 d5c:	7473616d 	ldrbtvc	r6, [r3], #-365	; 0xfffffe93
 d60:	69007265 	stmdbvs	r0, {r0, r2, r5, r6, r9, ip, sp, lr}
 d64:	735f6332 	cmpvc	pc, #-939524096	; 0xc8000000
 d68:	74726174 	ldrbtvc	r6, [r2], #-372	; 0xfffffe8c
 d6c:	63326900 	teqvs	r2, #0, 18
 d70:	7465735f 	strbtvc	r7, [r5], #-863	; 0xfffffca1
 d74:	0078725f 	rsbseq	r7, r8, pc, asr r2
 d78:	5f633269 	svcpl	0x00633269
 d7c:	65766967 	ldrbvs	r6, [r6, #-2407]!	; 0xfffff699
 d80:	6b63615f 	blvs	18d9304 <__DATA_END+0x18d79d8>
 d84:	43414400 	movtmi	r4, #5120	; 0x1400
 d88:	7079545f 	rsbsvc	r5, r9, pc, asr r4
 d8c:	61640065 	cmnvs	r4, r5, rrx
 d90:	00632e63 	rsbeq	r2, r3, r3, ror #28
 d94:	48544144 	ldmdami	r4, {r2, r6, r8, lr}^
 d98:	54414400 	strbpl	r4, [r1], #-1024	; 0xfffffc00
 d9c:	6164004c 	cmnvs	r4, ip, asr #32
 da0:	49654463 	stmdbmi	r5!, {r0, r1, r5, r6, sl, lr}^
 da4:	0074696e 	rsbseq	r6, r4, lr, ror #18
 da8:	73727061 	cmnvc	r2, #97	; 0x61
 dac:	Address 0x0000000000000dac is out of bounds.


Disassembly of section .comment:

00000000 <.comment>:
   0:	3a434347 	bcc	10d0d24 <__DATA_END+0x10cf3f8>
   4:	72412820 	subvc	r2, r1, #32, 16	; 0x200000
   8:	52206863 	eorpl	r6, r0, #6488064	; 0x630000
   c:	736f7065 	cmnvc	pc, #101	; 0x65
  10:	726f7469 	rsbvc	r7, pc, #1761607680	; 0x69000000
  14:	35202979 	strcc	r2, [r0, #-2425]!	; 0xfffff687
  18:	302e322e 	eorcc	r3, lr, lr, lsr #4
	...

Disassembly of section .debug_frame:

00000000 <.debug_frame>:
   0:	0000000c 	andeq	r0, r0, ip
   4:	ffffffff 			; <UNDEFINED> instruction: 0xffffffff
   8:	7c020001 	stcvc	0, cr0, [r2], {1}
   c:	000d0c0e 	andeq	r0, sp, lr, lsl #24
  10:	0000000c 	andeq	r0, r0, ip
  14:	00000000 	andeq	r0, r0, r0
  18:	000004f8 	strdeq	r0, [r0], -r8
  1c:	00000024 	andeq	r0, r0, r4, lsr #32
  20:	00000018 	andeq	r0, r0, r8, lsl r0
	...
  2c:	00000134 	andeq	r0, r0, r4, lsr r1
  30:	84100e42 	ldrhi	r0, [r0], #-3650	; 0xfffff1be
  34:	86038504 	strhi	r8, [r3], -r4, lsl #10
  38:	00018e02 	andeq	r8, r1, r2, lsl #28
  3c:	0000000c 	andeq	r0, r0, ip
  40:	ffffffff 			; <UNDEFINED> instruction: 0xffffffff
  44:	7c020001 	stcvc	0, cr0, [r2], {1}
  48:	000d0c0e 	andeq	r0, sp, lr, lsl #24
  4c:	00000014 	andeq	r0, r0, r4, lsl r0
  50:	0000003c 	andeq	r0, r0, ip, lsr r0
  54:	0000051c 	andeq	r0, r0, ip, lsl r5
  58:	0000007c 	andeq	r0, r0, ip, ror r0
  5c:	84080e43 	strhi	r0, [r8], #-3651	; 0xfffff1bd
  60:	00018e02 	andeq	r8, r1, r2, lsl #28
  64:	0000000c 	andeq	r0, r0, ip
  68:	ffffffff 			; <UNDEFINED> instruction: 0xffffffff
  6c:	7c020001 	stcvc	0, cr0, [r2], {1}
  70:	000d0c0e 	andeq	r0, sp, lr, lsl #24
  74:	0000000c 	andeq	r0, r0, ip
  78:	00000064 	andeq	r0, r0, r4, rrx
  7c:	00000598 	muleq	r0, r8, r5
  80:	00000032 	andeq	r0, r0, r2, lsr r0
  84:	0000000c 	andeq	r0, r0, ip
  88:	00000064 	andeq	r0, r0, r4, rrx
  8c:	00000000 	andeq	r0, r0, r0
  90:	00000014 	andeq	r0, r0, r4, lsl r0
  94:	0000000c 	andeq	r0, r0, ip
  98:	00000064 	andeq	r0, r0, r4, rrx
  9c:	000005ca 	andeq	r0, r0, sl, asr #11
  a0:	0000002e 	andeq	r0, r0, lr, lsr #32
  a4:	0000000c 	andeq	r0, r0, ip
  a8:	00000064 	andeq	r0, r0, r4, rrx
  ac:	000005f8 	strdeq	r0, [r0], -r8
  b0:	0000001c 	andeq	r0, r0, ip, lsl r0
  b4:	0000000c 	andeq	r0, r0, ip
  b8:	00000064 	andeq	r0, r0, r4, rrx
  bc:	00000000 	andeq	r0, r0, r0
  c0:	00000004 	andeq	r0, r0, r4
  c4:	00000014 	andeq	r0, r0, r4, lsl r0
  c8:	00000064 	andeq	r0, r0, r4, rrx
  cc:	00000000 	andeq	r0, r0, r0
  d0:	00000014 	andeq	r0, r0, r4, lsl r0
  d4:	84080e41 	strhi	r0, [r8], #-3649	; 0xfffff1bf
  d8:	00018e02 	andeq	r8, r1, r2, lsl #28
  dc:	0000000c 	andeq	r0, r0, ip
  e0:	ffffffff 			; <UNDEFINED> instruction: 0xffffffff
  e4:	7c020001 	stcvc	0, cr0, [r2], {1}
  e8:	000d0c0e 	andeq	r0, sp, lr, lsl #24
  ec:	00000014 	andeq	r0, r0, r4, lsl r0
  f0:	000000dc 	ldrdeq	r0, [r0], -ip
  f4:	00000614 	andeq	r0, r0, r4, lsl r6
  f8:	00000044 	andeq	r0, r0, r4, asr #32
  fc:	84080e41 	strhi	r0, [r8], #-3649	; 0xfffff1bf
 100:	00018e02 	andeq	r8, r1, r2, lsl #28
 104:	0000000c 	andeq	r0, r0, ip
 108:	000000dc 	ldrdeq	r0, [r0], -ip
 10c:	00000000 	andeq	r0, r0, r0
 110:	0000000c 	andeq	r0, r0, ip
 114:	00000014 	andeq	r0, r0, r4, lsl r0
 118:	000000dc 	ldrdeq	r0, [r0], -ip
 11c:	00000658 	andeq	r0, r0, r8, asr r6
 120:	00000018 	andeq	r0, r0, r8, lsl r0
 124:	84080e41 	strhi	r0, [r8], #-3649	; 0xfffff1bf
 128:	00018e02 	andeq	r8, r1, r2, lsl #28
 12c:	00000014 	andeq	r0, r0, r4, lsl r0
 130:	000000dc 	ldrdeq	r0, [r0], -ip
 134:	00000670 	andeq	r0, r0, r0, ror r6
 138:	00000014 	andeq	r0, r0, r4, lsl r0
 13c:	84080e41 	strhi	r0, [r8], #-3649	; 0xfffff1bf
 140:	00018e02 	andeq	r8, r1, r2, lsl #28
 144:	00000014 	andeq	r0, r0, r4, lsl r0
 148:	000000dc 	ldrdeq	r0, [r0], -ip
 14c:	00000684 	andeq	r0, r0, r4, lsl #13
 150:	00000024 	andeq	r0, r0, r4, lsr #32
 154:	84080e41 	strhi	r0, [r8], #-3649	; 0xfffff1bf
 158:	00018e02 	andeq	r8, r1, r2, lsl #28
 15c:	00000018 	andeq	r0, r0, r8, lsl r0
 160:	000000dc 	ldrdeq	r0, [r0], -ip
 164:	000006a8 	andeq	r0, r0, r8, lsr #13
 168:	00000084 	andeq	r0, r0, r4, lsl #1
 16c:	84100e43 	ldrhi	r0, [r0], #-3651	; 0xfffff1bd
 170:	86038504 	strhi	r8, [r3], -r4, lsl #10
 174:	00018e02 	andeq	r8, r1, r2, lsl #28
 178:	0000000c 	andeq	r0, r0, ip
 17c:	000000dc 	ldrdeq	r0, [r0], -ip
 180:	0000072c 	andeq	r0, r0, ip, lsr #14
 184:	00000018 	andeq	r0, r0, r8, lsl r0
 188:	00000020 	andeq	r0, r0, r0, lsr #32
 18c:	000000dc 	ldrdeq	r0, [r0], -ip
 190:	00000744 	andeq	r0, r0, r4, asr #14
 194:	000000c0 	andeq	r0, r0, r0, asr #1
 198:	80200e41 	eorhi	r0, r0, r1, asr #28
 19c:	82078108 	andhi	r8, r7, #8, 2
 1a0:	85058406 	strhi	r8, [r5, #-1030]	; 0xfffffbfa
 1a4:	87038604 	strhi	r8, [r3, -r4, lsl #12]
 1a8:	00018e02 	andeq	r8, r1, r2, lsl #28
 1ac:	0000000c 	andeq	r0, r0, ip
 1b0:	000000dc 	ldrdeq	r0, [r0], -ip
 1b4:	00000000 	andeq	r0, r0, r0
 1b8:	00000028 	andeq	r0, r0, r8, lsr #32
 1bc:	0000000c 	andeq	r0, r0, ip
 1c0:	ffffffff 			; <UNDEFINED> instruction: 0xffffffff
 1c4:	7c020001 	stcvc	0, cr0, [r2], {1}
 1c8:	000d0c0e 	andeq	r0, sp, lr, lsl #24
 1cc:	00000014 	andeq	r0, r0, r4, lsl r0
 1d0:	000001bc 			; <UNDEFINED> instruction: 0x000001bc
 1d4:	00000804 	andeq	r0, r0, r4, lsl #16
 1d8:	00000028 	andeq	r0, r0, r8, lsr #32
 1dc:	84080e41 	strhi	r0, [r8], #-3649	; 0xfffff1bf
 1e0:	00018e02 	andeq	r8, r1, r2, lsl #28
 1e4:	00000018 	andeq	r0, r0, r8, lsl r0
 1e8:	000001bc 			; <UNDEFINED> instruction: 0x000001bc
 1ec:	0000082c 	andeq	r0, r0, ip, lsr #16
 1f0:	00000038 	andeq	r0, r0, r8, lsr r0
 1f4:	84100e42 	ldrhi	r0, [r0], #-3650	; 0xfffff1be
 1f8:	86038504 	strhi	r8, [r3], -r4, lsl #10
 1fc:	00018e02 	andeq	r8, r1, r2, lsl #28
 200:	0000001c 	andeq	r0, r0, ip, lsl r0
 204:	000001bc 			; <UNDEFINED> instruction: 0x000001bc
 208:	00000864 	andeq	r0, r0, r4, ror #16
 20c:	00000088 	andeq	r0, r0, r8, lsl #1
 210:	84140e41 	ldrhi	r0, [r4], #-3649	; 0xfffff1bf
 214:	86048505 	strhi	r8, [r4], -r5, lsl #10
 218:	8e028703 	cdphi	7, 0, cr8, cr2, cr3, {0}
 21c:	280e4301 	stmdacs	lr, {r0, r8, r9, lr}
 220:	0000000c 	andeq	r0, r0, ip
 224:	ffffffff 			; <UNDEFINED> instruction: 0xffffffff
 228:	7c020001 	stcvc	0, cr0, [r2], {1}
 22c:	000d0c0e 	andeq	r0, sp, lr, lsl #24
 230:	00000014 	andeq	r0, r0, r4, lsl r0
 234:	00000220 	andeq	r0, r0, r0, lsr #4
 238:	000008ec 	andeq	r0, r0, ip, ror #17
 23c:	0000004c 	andeq	r0, r0, ip, asr #32
 240:	84080e41 	strhi	r0, [r8], #-3649	; 0xfffff1bf
 244:	00018e02 	andeq	r8, r1, r2, lsl #28
 248:	00000014 	andeq	r0, r0, r4, lsl r0
 24c:	00000220 	andeq	r0, r0, r0, lsr #4
 250:	00000938 	andeq	r0, r0, r8, lsr r9
 254:	0000004c 	andeq	r0, r0, ip, asr #32
 258:	84080e41 	strhi	r0, [r8], #-3649	; 0xfffff1bf
 25c:	00018e02 	andeq	r8, r1, r2, lsl #28
 260:	0000000c 	andeq	r0, r0, ip
 264:	00000220 	andeq	r0, r0, r0, lsr #4
 268:	00000984 	andeq	r0, r0, r4, lsl #19
 26c:	0000000c 	andeq	r0, r0, ip
 270:	0000000c 	andeq	r0, r0, ip
 274:	00000220 	andeq	r0, r0, r0, lsr #4
 278:	00000990 	muleq	r0, r0, r9
 27c:	0000000c 	andeq	r0, r0, ip
 280:	00000014 	andeq	r0, r0, r4, lsl r0
 284:	00000220 	andeq	r0, r0, r0, lsr #4
 288:	0000099c 	muleq	r0, ip, r9
 28c:	00000034 	andeq	r0, r0, r4, lsr r0
 290:	84080e41 	strhi	r0, [r8], #-3649	; 0xfffff1bf
 294:	00018e02 	andeq	r8, r1, r2, lsl #28
 298:	0000000c 	andeq	r0, r0, ip
 29c:	ffffffff 			; <UNDEFINED> instruction: 0xffffffff
 2a0:	7c020001 	stcvc	0, cr0, [r2], {1}
 2a4:	000d0c0e 	andeq	r0, sp, lr, lsl #24
 2a8:	00000010 	andeq	r0, r0, r0, lsl r0
 2ac:	00000298 	muleq	r0, r8, r2
 2b0:	00000000 	andeq	r0, r0, r0
 2b4:	00000010 	andeq	r0, r0, r0, lsl r0
 2b8:	00100e41 	andseq	r0, r0, r1, asr #28
 2bc:	00000010 	andeq	r0, r0, r0, lsl r0
 2c0:	00000298 	muleq	r0, r8, r2
 2c4:	000009d0 	ldrdeq	r0, [r0], -r0	; <UNPREDICTABLE>
 2c8:	00000012 	andeq	r0, r0, r2, lsl r0
 2cc:	00100e41 	andseq	r0, r0, r1, asr #28
 2d0:	00000014 	andeq	r0, r0, r4, lsl r0
 2d4:	00000298 	muleq	r0, r8, r2
 2d8:	000009e4 	andeq	r0, r0, r4, ror #19
 2dc:	00000100 	andeq	r0, r0, r0, lsl #2
 2e0:	84080e42 	strhi	r0, [r8], #-3650	; 0xfffff1be
 2e4:	00018e02 	andeq	r8, r1, r2, lsl #28
 2e8:	0000000c 	andeq	r0, r0, ip
 2ec:	00000298 	muleq	r0, r8, r2
 2f0:	00000000 	andeq	r0, r0, r0
 2f4:	00000010 	andeq	r0, r0, r0, lsl r0
 2f8:	0000000c 	andeq	r0, r0, ip
 2fc:	00000298 	muleq	r0, r8, r2
 300:	00000000 	andeq	r0, r0, r0
 304:	00000010 	andeq	r0, r0, r0, lsl r0
 308:	0000000c 	andeq	r0, r0, ip
 30c:	00000298 	muleq	r0, r8, r2
 310:	00000000 	andeq	r0, r0, r0
 314:	0000001c 	andeq	r0, r0, ip, lsl r0
 318:	0000000c 	andeq	r0, r0, ip
 31c:	00000298 	muleq	r0, r8, r2
 320:	00000000 	andeq	r0, r0, r0
 324:	00000010 	andeq	r0, r0, r0, lsl r0
 328:	00000018 	andeq	r0, r0, r8, lsl r0
 32c:	00000298 	muleq	r0, r8, r2
 330:	00000000 	andeq	r0, r0, r0
 334:	0000003e 	andeq	r0, r0, lr, lsr r0
 338:	41100e41 	tstmi	r0, r1, asr #28
 33c:	0684180e 	streq	r1, [r4], lr, lsl #16
 340:	0000058e 	andeq	r0, r0, lr, lsl #11
 344:	0000001c 	andeq	r0, r0, ip, lsl r0
 348:	00000298 	muleq	r0, r8, r2
 34c:	00000000 	andeq	r0, r0, r0
 350:	0000003c 	andeq	r0, r0, ip, lsr r0
 354:	41100e41 	tstmi	r0, r1, asr #28
 358:	0684180e 	streq	r1, [r4], lr, lsl #16
 35c:	0e41058e 	cdpeq	5, 4, cr0, cr1, cr14, {4}
 360:	000001d0 	ldrdeq	r0, [r0], -r0	; <UNPREDICTABLE>
 364:	00000010 	andeq	r0, r0, r0, lsl r0
 368:	00000298 	muleq	r0, r8, r2
 36c:	00000ae4 	andeq	r0, r0, r4, ror #21
 370:	00000026 	andeq	r0, r0, r6, lsr #32
 374:	00100e41 	andseq	r0, r0, r1, asr #28
 378:	0000001c 	andeq	r0, r0, ip, lsl r0
 37c:	00000298 	muleq	r0, r8, r2
 380:	00000b0a 	andeq	r0, r0, sl, lsl #22
 384:	0000003c 	andeq	r0, r0, ip, lsr r0
 388:	41100e41 	tstmi	r0, r1, asr #28
 38c:	0684180e 	streq	r1, [r4], lr, lsl #16
 390:	0e41058e 	cdpeq	5, 4, cr0, cr1, cr14, {4}
 394:	000001d0 	ldrdeq	r0, [r0], -r0	; <UNPREDICTABLE>
 398:	00000018 	andeq	r0, r0, r8, lsl r0
 39c:	00000298 	muleq	r0, r8, r2
 3a0:	00000000 	andeq	r0, r0, r0
 3a4:	00000038 	andeq	r0, r0, r8, lsr r0
 3a8:	41100e41 	tstmi	r0, r1, asr #28
 3ac:	0684180e 	streq	r1, [r4], lr, lsl #16
 3b0:	0000058e 	andeq	r0, r0, lr, lsl #11
 3b4:	00000020 	andeq	r0, r0, r0, lsr #32
 3b8:	00000298 	muleq	r0, r8, r2
 3bc:	00000000 	andeq	r0, r0, r0
 3c0:	00000086 	andeq	r0, r0, r6, lsl #1
 3c4:	41100e41 	tstmi	r0, r1, asr #28
 3c8:	0884200e 	stmeq	r4, {r1, r2, r3, sp}
 3cc:	06860785 	streq	r0, [r6], r5, lsl #15
 3d0:	0e42058e 	cdpeq	5, 4, cr0, cr2, cr14, {4}
 3d4:	000001d8 	ldrdeq	r0, [r0], -r8
 3d8:	0000001c 	andeq	r0, r0, ip, lsl r0
 3dc:	00000298 	muleq	r0, r8, r2
 3e0:	00000000 	andeq	r0, r0, r0
 3e4:	0000006c 	andeq	r0, r0, ip, rrx
 3e8:	41100e41 	tstmi	r0, r1, asr #28
 3ec:	07841c0e 	streq	r1, [r4, lr, lsl #24]
 3f0:	058e0685 	streq	r0, [lr, #1669]	; 0x685
 3f4:	01d80e41 	bicseq	r0, r8, r1, asr #28
 3f8:	0000001c 	andeq	r0, r0, ip, lsl r0
 3fc:	00000298 	muleq	r0, r8, r2
 400:	00000000 	andeq	r0, r0, r0
 404:	00000044 	andeq	r0, r0, r4, asr #32
 408:	41100e41 	tstmi	r0, r1, asr #28
 40c:	0884200e 	stmeq	r4, {r1, r2, r3, sp}
 410:	06860785 	streq	r0, [r6], r5, lsl #15
 414:	0000058e 	andeq	r0, r0, lr, lsl #11
 418:	00000020 	andeq	r0, r0, r0, lsr #32
 41c:	00000298 	muleq	r0, r8, r2
 420:	00000000 	andeq	r0, r0, r0
 424:	0000007e 	andeq	r0, r0, lr, ror r0
 428:	41100e41 	tstmi	r0, r1, asr #28
 42c:	0984240e 	stmibeq	r4, {r1, r2, r3, sl, sp}
 430:	07860885 	streq	r0, [r6, r5, lsl #17]
 434:	058e0687 	streq	r0, [lr, #1671]	; 0x687
 438:	01e00e42 	mvneq	r0, r2, asr #28
 43c:	00000010 	andeq	r0, r0, r0, lsl r0
 440:	00000298 	muleq	r0, r8, r2
 444:	00000000 	andeq	r0, r0, r0
 448:	0000001e 	andeq	r0, r0, lr, lsl r0
 44c:	00100e41 	andseq	r0, r0, r1, asr #28
 450:	00000018 	andeq	r0, r0, r8, lsl r0
 454:	00000298 	muleq	r0, r8, r2
 458:	00000b48 	andeq	r0, r0, r8, asr #22
 45c:	00000078 	andeq	r0, r0, r8, ror r0
 460:	84100e42 	ldrhi	r0, [r0], #-3650	; 0xfffff1be
 464:	86038504 	strhi	r8, [r3], -r4, lsl #10
 468:	00018e02 	andeq	r8, r1, r2, lsl #28
 46c:	00000018 	andeq	r0, r0, r8, lsl r0
 470:	00000298 	muleq	r0, r8, r2
 474:	00000bc0 	andeq	r0, r0, r0, asr #23
 478:	00000048 	andeq	r0, r0, r8, asr #32
 47c:	84100e41 	ldrhi	r0, [r0], #-3649	; 0xfffff1bf
 480:	86038504 	strhi	r8, [r3], -r4, lsl #10
 484:	00018e02 	andeq	r8, r1, r2, lsl #28
 488:	00000018 	andeq	r0, r0, r8, lsl r0
 48c:	00000298 	muleq	r0, r8, r2
 490:	00000c08 	andeq	r0, r0, r8, lsl #24
 494:	00000048 	andeq	r0, r0, r8, asr #32
 498:	84100e41 	ldrhi	r0, [r0], #-3649	; 0xfffff1bf
 49c:	86038504 	strhi	r8, [r3], -r4, lsl #10
 4a0:	00018e02 	andeq	r8, r1, r2, lsl #28
 4a4:	0000000c 	andeq	r0, r0, ip
 4a8:	ffffffff 			; <UNDEFINED> instruction: 0xffffffff
 4ac:	7c020001 	stcvc	0, cr0, [r2], {1}
 4b0:	000d0c0e 	andeq	r0, sp, lr, lsl #24
 4b4:	00000018 	andeq	r0, r0, r8, lsl r0
 4b8:	000004a4 	andeq	r0, r0, r4, lsr #9
 4bc:	00000c50 	andeq	r0, r0, r0, asr ip
 4c0:	00000084 	andeq	r0, r0, r4, lsl #1
 4c4:	840c0e44 	strhi	r0, [ip], #-3652	; 0xfffff1bc
 4c8:	8e028503 	cfsh32hi	mvfx8, mvfx2, #3
 4cc:	00000001 	andeq	r0, r0, r1
 4d0:	0000001c 	andeq	r0, r0, ip, lsl r0
 4d4:	000004a4 	andeq	r0, r0, r4, lsr #9
 4d8:	00000cd4 	ldrdeq	r0, [r0], -r4
 4dc:	00000090 	muleq	r0, r0, r0
 4e0:	83180e41 	tsthi	r8, #1040	; 0x410
 4e4:	85058406 	strhi	r8, [r5, #-1030]	; 0xfffffbfa
 4e8:	87038604 	strhi	r8, [r3, -r4, lsl #12]
 4ec:	00018e02 	andeq	r8, r1, r2, lsl #28
 4f0:	00000014 	andeq	r0, r0, r4, lsl r0
 4f4:	000004a4 	andeq	r0, r0, r4, lsr #9
 4f8:	00000d64 	andeq	r0, r0, r4, ror #26
 4fc:	00000064 	andeq	r0, r0, r4, rrx
 500:	84080e41 	strhi	r0, [r8], #-3649	; 0xfffff1bf
 504:	00018e02 	andeq	r8, r1, r2, lsl #28
 508:	0000000c 	andeq	r0, r0, ip
 50c:	ffffffff 			; <UNDEFINED> instruction: 0xffffffff
 510:	7c020001 	stcvc	0, cr0, [r2], {1}
 514:	000d0c0e 	andeq	r0, sp, lr, lsl #24
 518:	0000000c 	andeq	r0, r0, ip
 51c:	00000508 	andeq	r0, r0, r8, lsl #10
 520:	00000dc8 	andeq	r0, r0, r8, asr #27
 524:	00000014 	andeq	r0, r0, r4, lsl r0
 528:	00000018 	andeq	r0, r0, r8, lsl r0
 52c:	00000508 	andeq	r0, r0, r8, lsl #10
 530:	00000ddc 	ldrdeq	r0, [r0], -ip
 534:	000000a8 	andeq	r0, r0, r8, lsr #1
 538:	84100e41 	ldrhi	r0, [r0], #-3649	; 0xfffff1bf
 53c:	86038504 	strhi	r8, [r3], -r4, lsl #10
 540:	00018e02 	andeq	r8, r1, r2, lsl #28
 544:	00000020 	andeq	r0, r0, r0, lsr #32
 548:	00000508 	andeq	r0, r0, r8, lsl #10
 54c:	00000e84 	andeq	r0, r0, r4, lsl #29
 550:	0000009c 	muleq	r0, ip, r0
 554:	84140e41 	ldrhi	r0, [r4], #-3649	; 0xfffff1bf
 558:	86048505 	strhi	r8, [r4], -r5, lsl #10
 55c:	8e028703 	cdphi	7, 0, cr8, cr2, cr3, {0}
 560:	d80e4d01 	stmdale	lr, {r0, r8, sl, fp, lr}
 564:	00000001 	andeq	r0, r0, r1
 568:	0000001c 	andeq	r0, r0, ip, lsl r0
 56c:	00000508 	andeq	r0, r0, r8, lsl #10
 570:	00000f20 	andeq	r0, r0, r0, lsr #30
 574:	0000004c 	andeq	r0, r0, ip, asr #32
 578:	840c0e41 	strhi	r0, [ip], #-3649	; 0xfffff1bf
 57c:	8e028503 	cfsh32hi	mvfx8, mvfx2, #3
 580:	c80e4201 	stmdagt	lr, {r0, r9, lr}
 584:	00000001 	andeq	r0, r0, r1
 588:	00000014 	andeq	r0, r0, r4, lsl r0
 58c:	00000508 	andeq	r0, r0, r8, lsl #10
 590:	00000000 	andeq	r0, r0, r0
 594:	0000001c 	andeq	r0, r0, ip, lsl r0
 598:	84080e42 	strhi	r0, [r8], #-3650	; 0xfffff1be
 59c:	00018e02 	andeq	r8, r1, r2, lsl #28
 5a0:	00000014 	andeq	r0, r0, r4, lsl r0
 5a4:	00000508 	andeq	r0, r0, r8, lsl #10
 5a8:	00000000 	andeq	r0, r0, r0
 5ac:	0000001c 	andeq	r0, r0, ip, lsl r0
 5b0:	84080e42 	strhi	r0, [r8], #-3650	; 0xfffff1be
 5b4:	00018e02 	andeq	r8, r1, r2, lsl #28
 5b8:	0000000c 	andeq	r0, r0, ip
 5bc:	00000508 	andeq	r0, r0, r8, lsl #10
 5c0:	00000f6c 	andeq	r0, r0, ip, ror #30
 5c4:	0000001c 	andeq	r0, r0, ip, lsl r0
 5c8:	0000000c 	andeq	r0, r0, ip
 5cc:	00000508 	andeq	r0, r0, r8, lsl #10
 5d0:	00000f88 	andeq	r0, r0, r8, lsl #31
 5d4:	0000001c 	andeq	r0, r0, ip, lsl r0
 5d8:	0000000c 	andeq	r0, r0, ip
 5dc:	00000508 	andeq	r0, r0, r8, lsl #10
 5e0:	00000fa4 	andeq	r0, r0, r4, lsr #31
 5e4:	0000000c 	andeq	r0, r0, ip
 5e8:	0000000c 	andeq	r0, r0, ip
 5ec:	00000508 	andeq	r0, r0, r8, lsl #10
 5f0:	00000fb0 			; <UNDEFINED> instruction: 0x00000fb0
 5f4:	00000002 	andeq	r0, r0, r2
 5f8:	0000000c 	andeq	r0, r0, ip
 5fc:	ffffffff 			; <UNDEFINED> instruction: 0xffffffff
 600:	7c020001 	stcvc	0, cr0, [r2], {1}
 604:	000d0c0e 	andeq	r0, sp, lr, lsl #24
 608:	0000000c 	andeq	r0, r0, ip
 60c:	000005f8 	strdeq	r0, [r0], -r8
 610:	00000fb4 			; <UNDEFINED> instruction: 0x00000fb4
 614:	0000001c 	andeq	r0, r0, ip, lsl r0
 618:	0000001c 	andeq	r0, r0, ip, lsl r0
 61c:	000005f8 	strdeq	r0, [r0], -r8
 620:	00000fd0 	ldrdeq	r0, [r0], -r0	; <UNPREDICTABLE>
 624:	00000138 	andeq	r0, r0, r8, lsr r1
 628:	84140e41 	ldrhi	r0, [r4], #-3649	; 0xfffff1bf
 62c:	86048505 	strhi	r8, [r4], -r5, lsl #10
 630:	8e028703 	cdphi	7, 0, cr8, cr2, cr3, {0}
 634:	00000001 	andeq	r0, r0, r1
 638:	00000018 	andeq	r0, r0, r8, lsl r0
 63c:	000005f8 	strdeq	r0, [r0], -r8
 640:	00000000 	andeq	r0, r0, r0
 644:	00000050 	andeq	r0, r0, r0, asr r0
 648:	84100e42 	ldrhi	r0, [r0], #-3650	; 0xfffff1be
 64c:	86038504 	strhi	r8, [r3], -r4, lsl #10
 650:	00018e02 	andeq	r8, r1, r2, lsl #28
 654:	00000014 	andeq	r0, r0, r4, lsl r0
 658:	000005f8 	strdeq	r0, [r0], -r8
 65c:	00001108 	andeq	r1, r0, r8, lsl #2
 660:	0000001c 	andeq	r0, r0, ip, lsl r0
 664:	84080e41 	strhi	r0, [r8], #-3649	; 0xfffff1bf
 668:	00018e02 	andeq	r8, r1, r2, lsl #28
 66c:	0000000c 	andeq	r0, r0, ip
 670:	ffffffff 			; <UNDEFINED> instruction: 0xffffffff
 674:	7c020001 	stcvc	0, cr0, [r2], {1}
 678:	000d0c0e 	andeq	r0, sp, lr, lsl #24
 67c:	00000014 	andeq	r0, r0, r4, lsl r0
 680:	0000066c 	andeq	r0, r0, ip, ror #12
 684:	00001124 	andeq	r1, r0, r4, lsr #2
 688:	00000038 	andeq	r0, r0, r8, lsr r0
 68c:	84080e42 	strhi	r0, [r8], #-3650	; 0xfffff1be
 690:	00018e02 	andeq	r8, r1, r2, lsl #28
 694:	0000000c 	andeq	r0, r0, ip
 698:	ffffffff 			; <UNDEFINED> instruction: 0xffffffff
 69c:	7c020001 	stcvc	0, cr0, [r2], {1}
 6a0:	000d0c0e 	andeq	r0, sp, lr, lsl #24
 6a4:	00000014 	andeq	r0, r0, r4, lsl r0
 6a8:	00000694 	muleq	r0, r4, r6
 6ac:	0000115c 	andeq	r1, r0, ip, asr r1
 6b0:	00000040 	andeq	r0, r0, r0, asr #32
 6b4:	84080e41 	strhi	r0, [r8], #-3649	; 0xfffff1bf
 6b8:	00018e02 	andeq	r8, r1, r2, lsl #28
 6bc:	00000020 	andeq	r0, r0, r0, lsr #32
 6c0:	00000694 	muleq	r0, r4, r6
 6c4:	00000000 	andeq	r0, r0, r0
 6c8:	000000f4 	strdeq	r0, [r0], -r4
 6cc:	80200e41 	eorhi	r0, r0, r1, asr #28
 6d0:	82078108 	andhi	r8, r7, #8, 2
 6d4:	85058406 	strhi	r8, [r5, #-1030]	; 0xfffffbfa
 6d8:	87038604 	strhi	r8, [r3, -r4, lsl #12]
 6dc:	00018e02 	andeq	r8, r1, r2, lsl #28
 6e0:	00000020 	andeq	r0, r0, r0, lsr #32
 6e4:	00000694 	muleq	r0, r4, r6
 6e8:	00000000 	andeq	r0, r0, r0
 6ec:	00000120 	andeq	r0, r0, r0, lsr #2
 6f0:	80200e41 	eorhi	r0, r0, r1, asr #28
 6f4:	82078108 	andhi	r8, r7, #8, 2
 6f8:	85058406 	strhi	r8, [r5, #-1030]	; 0xfffffbfa
 6fc:	87038604 	strhi	r8, [r3, -r4, lsl #12]
 700:	00018e02 	andeq	r8, r1, r2, lsl #28
 704:	0000000c 	andeq	r0, r0, ip
 708:	ffffffff 			; <UNDEFINED> instruction: 0xffffffff
 70c:	7c020001 	stcvc	0, cr0, [r2], {1}
 710:	000d0c0e 	andeq	r0, sp, lr, lsl #24
 714:	0000000c 	andeq	r0, r0, ip
 718:	00000704 	andeq	r0, r0, r4, lsl #14
 71c:	0000119c 	muleq	r0, ip, r1
 720:	00000044 	andeq	r0, r0, r4, asr #32
 724:	0000000c 	andeq	r0, r0, ip
 728:	00000704 	andeq	r0, r0, r4, lsl #14
 72c:	00000000 	andeq	r0, r0, r0
 730:	00000002 	andeq	r0, r0, r2
 734:	0000000c 	andeq	r0, r0, ip
 738:	00000704 	andeq	r0, r0, r4, lsl #14
 73c:	000011e0 	andeq	r1, r0, r0, ror #3
 740:	00000014 	andeq	r0, r0, r4, lsl r0
 744:	0000000c 	andeq	r0, r0, ip
 748:	ffffffff 			; <UNDEFINED> instruction: 0xffffffff
 74c:	7c020001 	stcvc	0, cr0, [r2], {1}
 750:	000d0c0e 	andeq	r0, sp, lr, lsl #24
 754:	00000014 	andeq	r0, r0, r4, lsl r0
 758:	00000744 	andeq	r0, r0, r4, asr #14
 75c:	000011f4 	strdeq	r1, [r0], -r4
 760:	00000040 	andeq	r0, r0, r0, asr #32
 764:	84080e41 	strhi	r0, [r8], #-3649	; 0xfffff1bf
 768:	00018e02 	andeq	r8, r1, r2, lsl #28
 76c:	0000000c 	andeq	r0, r0, ip
 770:	ffffffff 			; <UNDEFINED> instruction: 0xffffffff
 774:	7c020001 	stcvc	0, cr0, [r2], {1}
 778:	000d0c0e 	andeq	r0, sp, lr, lsl #24
 77c:	00000014 	andeq	r0, r0, r4, lsl r0
 780:	0000076c 	andeq	r0, r0, ip, ror #14
 784:	00001234 	andeq	r1, r0, r4, lsr r2
 788:	00000010 	andeq	r0, r0, r0, lsl r0
 78c:	84080e42 	strhi	r0, [r8], #-3650	; 0xfffff1be
 790:	00018e02 	andeq	r8, r1, r2, lsl #28
 794:	0000000c 	andeq	r0, r0, ip
 798:	ffffffff 			; <UNDEFINED> instruction: 0xffffffff
 79c:	7c020001 	stcvc	0, cr0, [r2], {1}
 7a0:	000d0c0e 	andeq	r0, sp, lr, lsl #24
 7a4:	00000014 	andeq	r0, r0, r4, lsl r0
 7a8:	00000794 	muleq	r0, r4, r7
 7ac:	00001244 	andeq	r1, r0, r4, asr #4
 7b0:	0000002c 	andeq	r0, r0, ip, lsr #32
 7b4:	84080e42 	strhi	r0, [r8], #-3650	; 0xfffff1be
 7b8:	00018e02 	andeq	r8, r1, r2, lsl #28
 7bc:	0000000c 	andeq	r0, r0, ip
 7c0:	ffffffff 			; <UNDEFINED> instruction: 0xffffffff
 7c4:	7c020001 	stcvc	0, cr0, [r2], {1}
 7c8:	000d0c0e 	andeq	r0, sp, lr, lsl #24
 7cc:	00000018 	andeq	r0, r0, r8, lsl r0
 7d0:	000007bc 			; <UNDEFINED> instruction: 0x000007bc
 7d4:	00001270 	andeq	r1, r0, r0, ror r2
 7d8:	00000028 	andeq	r0, r0, r8, lsr #32
 7dc:	84100e42 	ldrhi	r0, [r0], #-3650	; 0xfffff1be
 7e0:	86038504 	strhi	r8, [r3], -r4, lsl #10
 7e4:	00018e02 	andeq	r8, r1, r2, lsl #28
 7e8:	0000000c 	andeq	r0, r0, ip
 7ec:	ffffffff 			; <UNDEFINED> instruction: 0xffffffff
 7f0:	7c020001 	stcvc	0, cr0, [r2], {1}
 7f4:	000d0c0e 	andeq	r0, sp, lr, lsl #24
 7f8:	00000018 	andeq	r0, r0, r8, lsl r0
 7fc:	000007e8 	andeq	r0, r0, r8, ror #15
 800:	00001298 	muleq	r0, r8, r2
 804:	0000004c 	andeq	r0, r0, ip, asr #32
 808:	84100e42 	ldrhi	r0, [r0], #-3650	; 0xfffff1be
 80c:	86038504 	strhi	r8, [r3], -r4, lsl #10
 810:	00018e02 	andeq	r8, r1, r2, lsl #28
 814:	0000000c 	andeq	r0, r0, ip
 818:	ffffffff 			; <UNDEFINED> instruction: 0xffffffff
 81c:	7c020001 	stcvc	0, cr0, [r2], {1}
 820:	000d0c0e 	andeq	r0, sp, lr, lsl #24
 824:	00000014 	andeq	r0, r0, r4, lsl r0
 828:	00000814 	andeq	r0, r0, r4, lsl r8
 82c:	000012e4 	andeq	r1, r0, r4, ror #5
 830:	00000014 	andeq	r0, r0, r4, lsl r0
 834:	84080e41 	strhi	r0, [r8], #-3649	; 0xfffff1bf
 838:	00018e02 	andeq	r8, r1, r2, lsl #28
 83c:	00000014 	andeq	r0, r0, r4, lsl r0
 840:	00000814 	andeq	r0, r0, r4, lsl r8
 844:	000012f8 	strdeq	r1, [r0], -r8
 848:	00000014 	andeq	r0, r0, r4, lsl r0
 84c:	84080e41 	strhi	r0, [r8], #-3649	; 0xfffff1bf
 850:	00018e02 	andeq	r8, r1, r2, lsl #28
 854:	0000000c 	andeq	r0, r0, ip
 858:	ffffffff 			; <UNDEFINED> instruction: 0xffffffff
 85c:	7c020001 	stcvc	0, cr0, [r2], {1}
 860:	000d0c0e 	andeq	r0, sp, lr, lsl #24
 864:	00000014 	andeq	r0, r0, r4, lsl r0
 868:	00000854 	andeq	r0, r0, r4, asr r8
 86c:	0000130c 	andeq	r1, r0, ip, lsl #6
 870:	00000012 	andeq	r0, r0, r2, lsl r0
 874:	84080e42 	strhi	r0, [r8], #-3650	; 0xfffff1be
 878:	00018e02 	andeq	r8, r1, r2, lsl #28
 87c:	0000000c 	andeq	r0, r0, ip
 880:	ffffffff 			; <UNDEFINED> instruction: 0xffffffff
 884:	7c020001 	stcvc	0, cr0, [r2], {1}
 888:	000d0c0e 	andeq	r0, sp, lr, lsl #24
 88c:	0000000c 	andeq	r0, r0, ip
 890:	0000087c 	andeq	r0, r0, ip, ror r8
 894:	0000131e 	andeq	r1, r0, lr, lsl r3
 898:	00000010 	andeq	r0, r0, r0, lsl r0
 89c:	0000000c 	andeq	r0, r0, ip
 8a0:	ffffffff 			; <UNDEFINED> instruction: 0xffffffff
 8a4:	7c020001 	stcvc	0, cr0, [r2], {1}
 8a8:	000d0c0e 	andeq	r0, sp, lr, lsl #24
 8ac:	00000018 	andeq	r0, r0, r8, lsl r0
 8b0:	0000089c 	muleq	r0, ip, r8
 8b4:	00001330 	andeq	r1, r0, r0, lsr r3
 8b8:	0000008c 	andeq	r0, r0, ip, lsl #1
 8bc:	840c0e41 	strhi	r0, [ip], #-3649	; 0xfffff1bf
 8c0:	8e028503 	cfsh32hi	mvfx8, mvfx2, #3
 8c4:	00000001 	andeq	r0, r0, r1
 8c8:	0000000c 	andeq	r0, r0, ip
 8cc:	ffffffff 			; <UNDEFINED> instruction: 0xffffffff
 8d0:	7c020001 	stcvc	0, cr0, [r2], {1}
 8d4:	000d0c0e 	andeq	r0, sp, lr, lsl #24
 8d8:	00000018 	andeq	r0, r0, r8, lsl r0
 8dc:	000008c8 	andeq	r0, r0, r8, asr #17
 8e0:	000013bc 			; <UNDEFINED> instruction: 0x000013bc
 8e4:	000000ac 	andeq	r0, r0, ip, lsr #1
 8e8:	84100e42 	ldrhi	r0, [r0], #-3650	; 0xfffff1be
 8ec:	86038504 	strhi	r8, [r3], -r4, lsl #10
 8f0:	00018e02 	andeq	r8, r1, r2, lsl #28
 8f4:	0000000c 	andeq	r0, r0, ip
 8f8:	ffffffff 			; <UNDEFINED> instruction: 0xffffffff
 8fc:	7c020001 	stcvc	0, cr0, [r2], {1}
 900:	000d0c0e 	andeq	r0, sp, lr, lsl #24
 904:	00000018 	andeq	r0, r0, r8, lsl r0
 908:	000008f4 	strdeq	r0, [r0], -r4
 90c:	00001468 	andeq	r1, r0, r8, ror #8
 910:	00000024 	andeq	r0, r0, r4, lsr #32
 914:	84100e42 	ldrhi	r0, [r0], #-3650	; 0xfffff1be
 918:	86038504 	strhi	r8, [r3], -r4, lsl #10
 91c:	00018e02 	andeq	r8, r1, r2, lsl #28
 920:	0000000c 	andeq	r0, r0, ip
 924:	ffffffff 			; <UNDEFINED> instruction: 0xffffffff
 928:	7c020001 	stcvc	0, cr0, [r2], {1}
 92c:	000d0c0e 	andeq	r0, sp, lr, lsl #24
 930:	00000020 	andeq	r0, r0, r0, lsr #32
 934:	00000920 	andeq	r0, r0, r0, lsr #18
 938:	0000148c 	andeq	r1, r0, ip, lsl #9
 93c:	000000b8 	strheq	r0, [r0], -r8
 940:	80200e41 	eorhi	r0, r0, r1, asr #28
 944:	82078108 	andhi	r8, r7, #8, 2
 948:	85058406 	strhi	r8, [r5, #-1030]	; 0xfffffbfa
 94c:	87038604 	strhi	r8, [r3, -r4, lsl #12]
 950:	00018e02 	andeq	r8, r1, r2, lsl #28
 954:	0000000c 	andeq	r0, r0, ip
 958:	ffffffff 			; <UNDEFINED> instruction: 0xffffffff
 95c:	7c020001 	stcvc	0, cr0, [r2], {1}
 960:	000d0c0e 	andeq	r0, sp, lr, lsl #24
 964:	0000001c 	andeq	r0, r0, ip, lsl r0
 968:	00000954 	andeq	r0, r0, r4, asr r9
 96c:	00001544 	andeq	r1, r0, r4, asr #10
 970:	000000ec 	andeq	r0, r0, ip, ror #1
 974:	84140e41 	ldrhi	r0, [r4], #-3649	; 0xfffff1bf
 978:	86048505 	strhi	r8, [r4], -r5, lsl #10
 97c:	8e028703 	cdphi	7, 0, cr8, cr2, cr3, {0}
 980:	300e4101 	andcc	r4, lr, r1, lsl #2
 984:	0000000c 	andeq	r0, r0, ip
 988:	ffffffff 			; <UNDEFINED> instruction: 0xffffffff
 98c:	7c020001 	stcvc	0, cr0, [r2], {1}
 990:	000d0c0e 	andeq	r0, sp, lr, lsl #24
 994:	00000018 	andeq	r0, r0, r8, lsl r0
 998:	00000984 	andeq	r0, r0, r4, lsl #19
 99c:	00000000 	andeq	r0, r0, r0
 9a0:	0000001a 	andeq	r0, r0, sl, lsl r0
 9a4:	84100e41 	ldrhi	r0, [r0], #-3649	; 0xfffff1bf
 9a8:	86038504 	strhi	r8, [r3], -r4, lsl #10
 9ac:	00018e02 	andeq	r8, r1, r2, lsl #28
 9b0:	00000018 	andeq	r0, r0, r8, lsl r0
 9b4:	00000984 	andeq	r0, r0, r4, lsl #19
 9b8:	00000000 	andeq	r0, r0, r0
 9bc:	000000cc 	andeq	r0, r0, ip, asr #1
 9c0:	84100e42 	ldrhi	r0, [r0], #-3650	; 0xfffff1be
 9c4:	86038504 	strhi	r8, [r3], -r4, lsl #10
 9c8:	00018e02 	andeq	r8, r1, r2, lsl #28
 9cc:	0000000c 	andeq	r0, r0, ip
 9d0:	ffffffff 			; <UNDEFINED> instruction: 0xffffffff
 9d4:	7c020001 	stcvc	0, cr0, [r2], {1}
 9d8:	000d0c0e 	andeq	r0, sp, lr, lsl #24
 9dc:	0000000c 	andeq	r0, r0, ip
 9e0:	000009cc 	andeq	r0, r0, ip, asr #19
 9e4:	00001630 	andeq	r1, r0, r0, lsr r6
 9e8:	0000001c 	andeq	r0, r0, ip, lsl r0
 9ec:	0000000c 	andeq	r0, r0, ip
 9f0:	ffffffff 			; <UNDEFINED> instruction: 0xffffffff
 9f4:	7c020001 	stcvc	0, cr0, [r2], {1}
 9f8:	000d0c0e 	andeq	r0, sp, lr, lsl #24
 9fc:	0000000c 	andeq	r0, r0, ip
 a00:	000009ec 	andeq	r0, r0, ip, ror #19
 a04:	0000164c 	andeq	r1, r0, ip, asr #12
 a08:	00000002 	andeq	r0, r0, r2
