
build/main_board.elf:     file format elf32-littlearm


Disassembly of section .interrupts:

00000000 <__VECTOR_TABLE>:
   0:	20003000 	andcs	r3, r0, r0
   4:	0000047d 	andeq	r0, r0, sp, ror r4
   8:	0000048d 	andeq	r0, r0, sp, lsl #9
   c:	0000048d 	andeq	r0, r0, sp, lsl #9
	...
  2c:	0000048d 	andeq	r0, r0, sp, lsl #9
	...
  38:	0000048d 	andeq	r0, r0, sp, lsl #9
  3c:	0000048d 	andeq	r0, r0, sp, lsl #9
  40:	0000048d 	andeq	r0, r0, sp, lsl #9
  44:	0000048d 	andeq	r0, r0, sp, lsl #9
  48:	0000048d 	andeq	r0, r0, sp, lsl #9
  4c:	0000048d 	andeq	r0, r0, sp, lsl #9
  50:	0000048d 	andeq	r0, r0, sp, lsl #9
  54:	0000048d 	andeq	r0, r0, sp, lsl #9
  58:	0000048d 	andeq	r0, r0, sp, lsl #9
  5c:	0000048d 	andeq	r0, r0, sp, lsl #9
  60:	0000048d 	andeq	r0, r0, sp, lsl #9
  64:	0000048d 	andeq	r0, r0, sp, lsl #9
  68:	0000048d 	andeq	r0, r0, sp, lsl #9
  6c:	0000048d 	andeq	r0, r0, sp, lsl #9
  70:	00000b85 	andeq	r0, r0, r5, lsl #23
  74:	00000bfd 	strdeq	r0, [r0], -sp
  78:	00000c45 	andeq	r0, r0, r5, asr #24
  7c:	0000048d 	andeq	r0, r0, sp, lsl #9
  80:	0000048d 	andeq	r0, r0, sp, lsl #9
  84:	0000048d 	andeq	r0, r0, sp, lsl #9
  88:	0000048d 	andeq	r0, r0, sp, lsl #9
  8c:	0000048d 	andeq	r0, r0, sp, lsl #9
  90:	0000048d 	andeq	r0, r0, sp, lsl #9
  94:	0000048d 	andeq	r0, r0, sp, lsl #9
  98:	000009b9 			; <UNDEFINED> instruction: 0x000009b9
  9c:	0000048d 	andeq	r0, r0, sp, lsl #9
  a0:	0000048d 	andeq	r0, r0, sp, lsl #9
  a4:	0000048d 	andeq	r0, r0, sp, lsl #9
  a8:	0000048d 	andeq	r0, r0, sp, lsl #9
  ac:	0000048d 	andeq	r0, r0, sp, lsl #9
  b0:	0000048d 	andeq	r0, r0, sp, lsl #9
  b4:	0000048d 	andeq	r0, r0, sp, lsl #9
  b8:	0000048d 	andeq	r0, r0, sp, lsl #9
  bc:	0000048d 	andeq	r0, r0, sp, lsl #9

Disassembly of section .flash_config:

00000400 <.flash_config>:
 400:	ffffffff 			; <UNDEFINED> instruction: 0xffffffff
 404:	ffffffff 			; <UNDEFINED> instruction: 0xffffffff
 408:	ffffffff 			; <UNDEFINED> instruction: 0xffffffff
 40c:	fffffffe 			; <UNDEFINED> instruction: 0xfffffffe

Disassembly of section .text:

00000410 <_mainCRTStartup>:
     410:	4b14      	ldr	r3, [pc, #80]	; (464 <_mainCRTStartup+0x54>)
     412:	2b00      	cmp	r3, #0
     414:	d100      	bne.n	418 <_mainCRTStartup+0x8>
     416:	4b12      	ldr	r3, [pc, #72]	; (460 <_mainCRTStartup+0x50>)
     418:	469d      	mov	sp, r3
     41a:	2240      	movs	r2, #64	; 0x40
     41c:	0292      	lsls	r2, r2, #10
     41e:	1a9a      	subs	r2, r3, r2
     420:	4692      	mov	sl, r2
     422:	2100      	movs	r1, #0
     424:	468b      	mov	fp, r1
     426:	460f      	mov	r7, r1
     428:	4811      	ldr	r0, [pc, #68]	; (470 <_mainCRTStartup+0x60>)
     42a:	4a12      	ldr	r2, [pc, #72]	; (474 <_mainCRTStartup+0x64>)
     42c:	1a12      	subs	r2, r2, r0
     42e:	f001 f810 	bl	1452 <memset>
     432:	4b0d      	ldr	r3, [pc, #52]	; (468 <_mainCRTStartup+0x58>)
     434:	2b00      	cmp	r3, #0
     436:	d000      	beq.n	43a <_mainCRTStartup+0x2a>
     438:	4798      	blx	r3
     43a:	4b0c      	ldr	r3, [pc, #48]	; (46c <_mainCRTStartup+0x5c>)
     43c:	2b00      	cmp	r3, #0
     43e:	d000      	beq.n	442 <_mainCRTStartup+0x32>
     440:	4798      	blx	r3
     442:	2000      	movs	r0, #0
     444:	2100      	movs	r1, #0
     446:	0004      	movs	r4, r0
     448:	000d      	movs	r5, r1
     44a:	480b      	ldr	r0, [pc, #44]	; (478 <_mainCRTStartup+0x68>)
     44c:	f000 ff8c 	bl	1368 <atexit>
     450:	f000 ffbc 	bl	13cc <__libc_init_array>
     454:	0020      	movs	r0, r4
     456:	0029      	movs	r1, r5
     458:	f000 fca2 	bl	da0 <main>
     45c:	f000 ff8c 	bl	1378 <exit>
     460:	00080000 	andeq	r0, r8, r0
     464:	20003000 	andcs	r3, r0, r0
	...
     470:	1ffff150 	svcne	0x00fff150
     474:	1ffff4f0 	svcne	0x00fff4f0
     478:	000013a5 	andeq	r1, r0, r5, lsr #7

0000047c <Reset_Handler>:
     47c:	b672      	cpsid	i
     47e:	f000 f83b 	bl	4f8 <SystemInit>
     482:	f000 f84b 	bl	51c <init_data_bss>
     486:	b662      	cpsie	i
     488:	f7ff ffc2 	bl	410 <_mainCRTStartup>

0000048c <ADC0_IRQHandler>:
     48c:	4800      	ldr	r0, [pc, #0]	; (490 <ADC0_IRQHandler+0x4>)
     48e:	4700      	bx	r0
     490:	0000048d 	andeq	r0, r0, sp, lsl #9

00000494 <__do_global_dtors_aux>:
     494:	4b07      	ldr	r3, [pc, #28]	; (4b4 <__do_global_dtors_aux+0x20>)
     496:	b510      	push	{r4, lr}
     498:	781a      	ldrb	r2, [r3, #0]
     49a:	001c      	movs	r4, r3
     49c:	2a00      	cmp	r2, #0
     49e:	d107      	bne.n	4b0 <__do_global_dtors_aux+0x1c>
     4a0:	4b05      	ldr	r3, [pc, #20]	; (4b8 <__do_global_dtors_aux+0x24>)
     4a2:	2b00      	cmp	r3, #0
     4a4:	d002      	beq.n	4ac <__do_global_dtors_aux+0x18>
     4a6:	4805      	ldr	r0, [pc, #20]	; (4bc <__do_global_dtors_aux+0x28>)
     4a8:	e000      	b.n	4ac <__do_global_dtors_aux+0x18>
     4aa:	bf00      	nop
     4ac:	2301      	movs	r3, #1
     4ae:	7023      	strb	r3, [r4, #0]
     4b0:	bd10      	pop	{r4, pc}
     4b2:	46c0      	nop			; (mov r8, r8)
     4b4:	1ffff150 	svcne	0x00fff150
     4b8:	00000000 	andeq	r0, r0, r0
     4bc:	00001878 	andeq	r1, r0, r8, ror r8

000004c0 <frame_dummy>:
     4c0:	4b08      	ldr	r3, [pc, #32]	; (4e4 <frame_dummy+0x24>)
     4c2:	b510      	push	{r4, lr}
     4c4:	2b00      	cmp	r3, #0
     4c6:	d003      	beq.n	4d0 <frame_dummy+0x10>
     4c8:	4907      	ldr	r1, [pc, #28]	; (4e8 <frame_dummy+0x28>)
     4ca:	4808      	ldr	r0, [pc, #32]	; (4ec <frame_dummy+0x2c>)
     4cc:	e000      	b.n	4d0 <frame_dummy+0x10>
     4ce:	bf00      	nop
     4d0:	4807      	ldr	r0, [pc, #28]	; (4f0 <frame_dummy+0x30>)
     4d2:	6803      	ldr	r3, [r0, #0]
     4d4:	2b00      	cmp	r3, #0
     4d6:	d003      	beq.n	4e0 <frame_dummy+0x20>
     4d8:	4b06      	ldr	r3, [pc, #24]	; (4f4 <frame_dummy+0x34>)
     4da:	2b00      	cmp	r3, #0
     4dc:	d000      	beq.n	4e0 <frame_dummy+0x20>
     4de:	4798      	blx	r3
     4e0:	bd10      	pop	{r4, pc}
     4e2:	46c0      	nop			; (mov r8, r8)
     4e4:	00000000 	andeq	r0, r0, r0
     4e8:	1ffff154 	svcne	0x00fff154
     4ec:	00001878 	andeq	r1, r0, r8, ror r8
     4f0:	1ffff14c 	svcne	0x00fff14c
     4f4:	00000000 	andeq	r0, r0, r0

000004f8 <SystemInit>:
     4f8:	2108      	movs	r1, #8
     4fa:	4b06      	ldr	r3, [pc, #24]	; (514 <SystemInit+0x1c>)
     4fc:	789a      	ldrb	r2, [r3, #2]
     4fe:	420a      	tst	r2, r1
     500:	d002      	beq.n	508 <SystemInit+0x10>
     502:	789a      	ldrb	r2, [r3, #2]
     504:	430a      	orrs	r2, r1
     506:	709a      	strb	r2, [r3, #2]
     508:	2388      	movs	r3, #136	; 0x88
     50a:	2100      	movs	r1, #0
     50c:	4a02      	ldr	r2, [pc, #8]	; (518 <SystemInit+0x20>)
     50e:	015b      	lsls	r3, r3, #5
     510:	50d1      	str	r1, [r2, r3]
     512:	4770      	bx	lr
     514:	4007d000 	andmi	sp, r7, r0
     518:	40047000 	andmi	r7, r4, r0

0000051c <init_data_bss>:
     51c:	4b15      	ldr	r3, [pc, #84]	; (574 <init_data_bss+0x58>)
     51e:	4816      	ldr	r0, [pc, #88]	; (578 <init_data_bss+0x5c>)
     520:	b510      	push	{r4, lr}
     522:	1e19      	subs	r1, r3, #0
     524:	4281      	cmp	r1, r0
     526:	d00c      	beq.n	542 <init_data_bss+0x26>
     528:	2300      	movs	r3, #0
     52a:	4a14      	ldr	r2, [pc, #80]	; (57c <init_data_bss+0x60>)
     52c:	0892      	lsrs	r2, r2, #2
     52e:	0092      	lsls	r2, r2, #2
     530:	429a      	cmp	r2, r3
     532:	d003      	beq.n	53c <init_data_bss+0x20>
     534:	58c4      	ldr	r4, [r0, r3]
     536:	50cc      	str	r4, [r1, r3]
     538:	3304      	adds	r3, #4
     53a:	e7f9      	b.n	530 <init_data_bss+0x14>
     53c:	4b10      	ldr	r3, [pc, #64]	; (580 <init_data_bss+0x64>)
     53e:	6099      	str	r1, [r3, #8]
     540:	e001      	b.n	546 <init_data_bss+0x2a>
     542:	4a0f      	ldr	r2, [pc, #60]	; (580 <init_data_bss+0x64>)
     544:	6093      	str	r3, [r2, #8]
     546:	2300      	movs	r3, #0
     548:	4a0e      	ldr	r2, [pc, #56]	; (584 <init_data_bss+0x68>)
     54a:	490f      	ldr	r1, [pc, #60]	; (588 <init_data_bss+0x6c>)
     54c:	480f      	ldr	r0, [pc, #60]	; (58c <init_data_bss+0x70>)
     54e:	1a89      	subs	r1, r1, r2
     550:	428b      	cmp	r3, r1
     552:	d003      	beq.n	55c <init_data_bss+0x40>
     554:	5cd4      	ldrb	r4, [r2, r3]
     556:	54c4      	strb	r4, [r0, r3]
     558:	3301      	adds	r3, #1
     55a:	e7f9      	b.n	550 <init_data_bss+0x34>
     55c:	2300      	movs	r3, #0
     55e:	0018      	movs	r0, r3
     560:	4a0b      	ldr	r2, [pc, #44]	; (590 <init_data_bss+0x74>)
     562:	490c      	ldr	r1, [pc, #48]	; (594 <init_data_bss+0x78>)
     564:	1a89      	subs	r1, r1, r2
     566:	4299      	cmp	r1, r3
     568:	d003      	beq.n	572 <init_data_bss+0x56>
     56a:	18d4      	adds	r4, r2, r3
     56c:	7020      	strb	r0, [r4, #0]
     56e:	3301      	adds	r3, #1
     570:	e7f9      	b.n	566 <init_data_bss+0x4a>
     572:	bd10      	pop	{r4, pc}
	...
     580:	e000ed00 	and	lr, r0, r0, lsl #26
     584:	000018a0 	andeq	r1, r0, r0, lsr #17
     588:	000019f0 	strdeq	r1, [r0], -r0
     58c:	1ffff000 	svcne	0x00fff000
     590:	1ffff150 	svcne	0x00fff150
     594:	1ffff4f0 	svcne	0x00fff4f0

00000598 <enqueue>:
     598:	6dc2      	ldr	r2, [r0, #92]	; 0x5c
     59a:	6d83      	ldr	r3, [r0, #88]	; 0x58
     59c:	429a      	cmp	r2, r3
     59e:	da11      	bge.n	5c4 <enqueue+0x2c>
     5a0:	6803      	ldr	r3, [r0, #0]
     5a2:	18c3      	adds	r3, r0, r3
     5a4:	7219      	strb	r1, [r3, #8]
     5a6:	6802      	ldr	r2, [r0, #0]
     5a8:	6d83      	ldr	r3, [r0, #88]	; 0x58
     5aa:	3b01      	subs	r3, #1
     5ac:	429a      	cmp	r2, r3
     5ae:	d101      	bne.n	5b4 <enqueue+0x1c>
     5b0:	2300      	movs	r3, #0
     5b2:	e001      	b.n	5b8 <enqueue+0x20>
     5b4:	6803      	ldr	r3, [r0, #0]
     5b6:	3301      	adds	r3, #1
     5b8:	6003      	str	r3, [r0, #0]
     5ba:	6dc3      	ldr	r3, [r0, #92]	; 0x5c
     5bc:	3301      	adds	r3, #1
     5be:	65c3      	str	r3, [r0, #92]	; 0x5c
     5c0:	2000      	movs	r0, #0
     5c2:	e001      	b.n	5c8 <enqueue+0x30>
     5c4:	2001      	movs	r0, #1
     5c6:	4240      	negs	r0, r0
     5c8:	4770      	bx	lr

000005ca <dequeue>:
     5ca:	6dc2      	ldr	r2, [r0, #92]	; 0x5c
     5cc:	0003      	movs	r3, r0
     5ce:	2002      	movs	r0, #2
     5d0:	2a00      	cmp	r2, #0
     5d2:	d010      	beq.n	5f6 <dequeue+0x2c>
     5d4:	685a      	ldr	r2, [r3, #4]
     5d6:	189a      	adds	r2, r3, r2
     5d8:	7a10      	ldrb	r0, [r2, #8]
     5da:	6859      	ldr	r1, [r3, #4]
     5dc:	6d9a      	ldr	r2, [r3, #88]	; 0x58
     5de:	b2c0      	uxtb	r0, r0
     5e0:	3a01      	subs	r2, #1
     5e2:	4291      	cmp	r1, r2
     5e4:	d101      	bne.n	5ea <dequeue+0x20>
     5e6:	2200      	movs	r2, #0
     5e8:	e001      	b.n	5ee <dequeue+0x24>
     5ea:	685a      	ldr	r2, [r3, #4]
     5ec:	3201      	adds	r2, #1
     5ee:	605a      	str	r2, [r3, #4]
     5f0:	6dda      	ldr	r2, [r3, #92]	; 0x5c
     5f2:	3a01      	subs	r2, #1
     5f4:	65da      	str	r2, [r3, #92]	; 0x5c
     5f6:	4770      	bx	lr

000005f8 <initQueue>:
     5f8:	2350      	movs	r3, #80	; 0x50
     5fa:	6583      	str	r3, [r0, #88]	; 0x58
     5fc:	2300      	movs	r3, #0
     5fe:	0019      	movs	r1, r3
     600:	6043      	str	r3, [r0, #4]
     602:	6003      	str	r3, [r0, #0]
     604:	65c3      	str	r3, [r0, #92]	; 0x5c
     606:	18c2      	adds	r2, r0, r3
     608:	3301      	adds	r3, #1
     60a:	7211      	strb	r1, [r2, #8]
     60c:	2b4f      	cmp	r3, #79	; 0x4f
     60e:	d1fa      	bne.n	606 <initQueue+0xe>
     610:	2050      	movs	r0, #80	; 0x50
     612:	4770      	bx	lr

00000614 <ax25ChangeDac>:
     614:	b510      	push	{r4, lr}
     616:	4b0b      	ldr	r3, [pc, #44]	; (644 <ax25ChangeDac+0x30>)
     618:	781b      	ldrb	r3, [r3, #0]
     61a:	2b00      	cmp	r3, #0
     61c:	d011      	beq.n	642 <ax25ChangeDac+0x2e>
     61e:	4c0a      	ldr	r4, [pc, #40]	; (648 <ax25ChangeDac+0x34>)
     620:	6823      	ldr	r3, [r4, #0]
     622:	1c5a      	adds	r2, r3, #1
     624:	6022      	str	r2, [r4, #0]
     626:	4a09      	ldr	r2, [pc, #36]	; (64c <ax25ChangeDac+0x38>)
     628:	005b      	lsls	r3, r3, #1
     62a:	5a98      	ldrh	r0, [r3, r2]
     62c:	f000 fe4c 	bl	12c8 <dacSet>
     630:	6823      	ldr	r3, [r4, #0]
     632:	2b3f      	cmp	r3, #63	; 0x3f
     634:	dd01      	ble.n	63a <ax25ChangeDac+0x26>
     636:	2300      	movs	r3, #0
     638:	6023      	str	r3, [r4, #0]
     63a:	4b05      	ldr	r3, [pc, #20]	; (650 <ax25ChangeDac+0x3c>)
     63c:	681a      	ldr	r2, [r3, #0]
     63e:	4b05      	ldr	r3, [pc, #20]	; (654 <ax25ChangeDac+0x40>)
     640:	605a      	str	r2, [r3, #4]
     642:	bd10      	pop	{r4, pc}
     644:	1ffff211 	svcne	0x00fff211
     648:	1ffff20c 	svcne	0x00fff20c
     64c:	1ffff000 	svcne	0x00fff000
     650:	1ffff214 	svcne	0x00fff214
     654:	400370fc 	strdmi	r7, [r3], -ip

00000658 <ax25StartSinTimer>:
     658:	b510      	push	{r4, lr}
     65a:	4b03      	ldr	r3, [pc, #12]	; (668 <ax25StartSinTimer+0x10>)
     65c:	4803      	ldr	r0, [pc, #12]	; (66c <ax25StartSinTimer+0x14>)
     65e:	6819      	ldr	r1, [r3, #0]
     660:	f000 f952 	bl	908 <startPIT0>
     664:	bd10      	pop	{r4, pc}
     666:	46c0      	nop			; (mov r8, r8)
     668:	1ffff214 	svcne	0x00fff214
     66c:	00000615 	andeq	r0, r0, r5, lsl r6

00000670 <ax25StartToneTimer>:
     670:	b510      	push	{r4, lr}
     672:	4902      	ldr	r1, [pc, #8]	; (67c <ax25StartToneTimer+0xc>)
     674:	4802      	ldr	r0, [pc, #8]	; (680 <ax25StartToneTimer+0x10>)
     676:	f000 f96d 	bl	954 <startPIT1>
     67a:	bd10      	pop	{r4, pc}
     67c:	00004e20 	andeq	r4, r0, r0, lsr #28
     680:	00000759 	andeq	r0, r0, r9, asr r7

00000684 <ax25StopTimers>:
     684:	b510      	push	{r4, lr}
     686:	f000 f98b 	bl	9a0 <stopPIT0>
     68a:	f000 f98f 	bl	9ac <stopPIT1>
     68e:	4903      	ldr	r1, [pc, #12]	; (69c <ax25StopTimers+0x18>)
     690:	4a03      	ldr	r2, [pc, #12]	; (6a0 <ax25StopTimers+0x1c>)
     692:	4b04      	ldr	r3, [pc, #16]	; (6a4 <ax25StopTimers+0x20>)
     694:	5888      	ldr	r0, [r1, r2]
     696:	4003      	ands	r3, r0
     698:	508b      	str	r3, [r1, r2]
     69a:	bd10      	pop	{r4, pc}
     69c:	40047000 	andmi	r7, r4, r0
     6a0:	0000103c 	andeq	r1, r0, ip, lsr r0
     6a4:	ff7fffff 			; <UNDEFINED> instruction: 0xff7fffff

000006a8 <ax25IntSend>:
     6a8:	4b1a      	ldr	r3, [pc, #104]	; (714 <ax25IntSend+0x6c>)
     6aa:	b570      	push	{r4, r5, r6, lr}
     6ac:	6019      	str	r1, [r3, #0]
     6ae:	4b1a      	ldr	r3, [pc, #104]	; (718 <ax25IntSend+0x70>)
     6b0:	2107      	movs	r1, #7
     6b2:	6018      	str	r0, [r3, #0]
     6b4:	2300      	movs	r3, #0
     6b6:	4a19      	ldr	r2, [pc, #100]	; (71c <ax25IntSend+0x74>)
     6b8:	4c19      	ldr	r4, [pc, #100]	; (720 <ax25IntSend+0x78>)
     6ba:	6013      	str	r3, [r2, #0]
     6bc:	4a19      	ldr	r2, [pc, #100]	; (724 <ax25IntSend+0x7c>)
     6be:	4e1a      	ldr	r6, [pc, #104]	; (728 <ax25IntSend+0x80>)
     6c0:	7011      	strb	r1, [r2, #0]
     6c2:	4a1a      	ldr	r2, [pc, #104]	; (72c <ax25IntSend+0x84>)
     6c4:	4d1a      	ldr	r5, [pc, #104]	; (730 <ax25IntSend+0x88>)
     6c6:	7013      	strb	r3, [r2, #0]
     6c8:	2201      	movs	r2, #1
     6ca:	3177      	adds	r1, #119	; 0x77
     6cc:	8032      	strh	r2, [r6, #0]
     6ce:	7029      	strb	r1, [r5, #0]
     6d0:	7022      	strb	r2, [r4, #0]
     6d2:	4a18      	ldr	r2, [pc, #96]	; (734 <ax25IntSend+0x8c>)
     6d4:	7013      	strb	r3, [r2, #0]
     6d6:	2203      	movs	r2, #3
     6d8:	4b17      	ldr	r3, [pc, #92]	; (738 <ax25IntSend+0x90>)
     6da:	701a      	strb	r2, [r3, #0]
     6dc:	4b17      	ldr	r3, [pc, #92]	; (73c <ax25IntSend+0x94>)
     6de:	32a7      	adds	r2, #167	; 0xa7
     6e0:	601a      	str	r2, [r3, #0]
     6e2:	f000 fdcf 	bl	1284 <dacInit>
     6e6:	f7ff ffb7 	bl	658 <ax25StartSinTimer>
     6ea:	2064      	movs	r0, #100	; 0x64
     6ec:	f000 fd8e 	bl	120c <delay>
     6f0:	f7ff ffbe 	bl	670 <ax25StartToneTimer>
     6f4:	0023      	movs	r3, r4
     6f6:	781a      	ldrb	r2, [r3, #0]
     6f8:	2a00      	cmp	r2, #0
     6fa:	d1fc      	bne.n	6f6 <ax25IntSend+0x4e>
     6fc:	8832      	ldrh	r2, [r6, #0]
     6fe:	0a12      	lsrs	r2, r2, #8
     700:	702a      	strb	r2, [r5, #0]
     702:	2201      	movs	r2, #1
     704:	701a      	strb	r2, [r3, #0]
     706:	781a      	ldrb	r2, [r3, #0]
     708:	2a00      	cmp	r2, #0
     70a:	d1fc      	bne.n	706 <ax25IntSend+0x5e>
     70c:	f7ff ffba 	bl	684 <ax25StopTimers>
     710:	bd70      	pop	{r4, r5, r6, pc}
     712:	46c0      	nop			; (mov r8, r8)
     714:	1ffff224 	svcne	0x00fff224
     718:	1ffff21c 	svcne	0x00fff21c
     71c:	1ffff20c 	svcne	0x00fff20c
     720:	1ffff211 	svcne	0x00fff211
     724:	1ffff209 	svcne	0x00fff209
     728:	1ffff20a 	svcne	0x00fff20a
     72c:	1ffff218 	svcne	0x00fff218
     730:	1ffff210 	svcne	0x00fff210
     734:	1ffff208 	svcne	0x00fff208
     738:	1ffff220 	svcne	0x00fff220
     73c:	1ffff214 	svcne	0x00fff214

00000740 <ax25SwitchFreq>:
     740:	229b      	movs	r2, #155	; 0x9b
     742:	4b04      	ldr	r3, [pc, #16]	; (754 <ax25SwitchFreq+0x14>)
     744:	0052      	lsls	r2, r2, #1
     746:	6819      	ldr	r1, [r3, #0]
     748:	4291      	cmp	r1, r2
     74a:	d100      	bne.n	74e <ax25SwitchFreq+0xe>
     74c:	3a8c      	subs	r2, #140	; 0x8c
     74e:	601a      	str	r2, [r3, #0]
     750:	4770      	bx	lr
     752:	46c0      	nop			; (mov r8, r8)
     754:	1ffff214 	svcne	0x00fff214

00000758 <ax25ChangeBit>:
     758:	b5f7      	push	{r0, r1, r2, r4, r5, r6, r7, lr}
     75a:	4b29      	ldr	r3, [pc, #164]	; (800 <ax25ChangeBit+0xa8>)
     75c:	781a      	ldrb	r2, [r3, #0]
     75e:	9301      	str	r3, [sp, #4]
     760:	2a00      	cmp	r2, #0
     762:	d04b      	beq.n	7fc <ax25ChangeBit+0xa4>
     764:	2380      	movs	r3, #128	; 0x80
     766:	4c27      	ldr	r4, [pc, #156]	; (804 <ax25ChangeBit+0xac>)
     768:	4d27      	ldr	r5, [pc, #156]	; (808 <ax25ChangeBit+0xb0>)
     76a:	7822      	ldrb	r2, [r4, #0]
     76c:	7829      	ldrb	r1, [r5, #0]
     76e:	b252      	sxtb	r2, r2
     770:	4113      	asrs	r3, r2
     772:	001a      	movs	r2, r3
     774:	b24b      	sxtb	r3, r1
     776:	4013      	ands	r3, r2
     778:	d014      	beq.n	7a4 <ax25ChangeBit+0x4c>
     77a:	4b24      	ldr	r3, [pc, #144]	; (80c <ax25ChangeBit+0xb4>)
     77c:	781b      	ldrb	r3, [r3, #0]
     77e:	2b00      	cmp	r3, #0
     780:	d014      	beq.n	7ac <ax25ChangeBit+0x54>
     782:	4b23      	ldr	r3, [pc, #140]	; (810 <ax25ChangeBit+0xb8>)
     784:	781f      	ldrb	r7, [r3, #0]
     786:	b2ff      	uxtb	r7, r7
     788:	2f00      	cmp	r7, #0
     78a:	d10f      	bne.n	7ac <ax25ChangeBit+0x54>
     78c:	4e21      	ldr	r6, [pc, #132]	; (814 <ax25ChangeBit+0xbc>)
     78e:	7833      	ldrb	r3, [r6, #0]
     790:	3301      	adds	r3, #1
     792:	b2db      	uxtb	r3, r3
     794:	7033      	strb	r3, [r6, #0]
     796:	7833      	ldrb	r3, [r6, #0]
     798:	2b05      	cmp	r3, #5
     79a:	d907      	bls.n	7ac <ax25ChangeBit+0x54>
     79c:	f7ff ffd0 	bl	740 <ax25SwitchFreq>
     7a0:	7037      	strb	r7, [r6, #0]
     7a2:	e003      	b.n	7ac <ax25ChangeBit+0x54>
     7a4:	4a1b      	ldr	r2, [pc, #108]	; (814 <ax25ChangeBit+0xbc>)
     7a6:	7013      	strb	r3, [r2, #0]
     7a8:	f7ff ffca 	bl	740 <ax25SwitchFreq>
     7ac:	7823      	ldrb	r3, [r4, #0]
     7ae:	b25b      	sxtb	r3, r3
     7b0:	2b00      	cmp	r3, #0
     7b2:	dc1f      	bgt.n	7f4 <ax25ChangeBit+0x9c>
     7b4:	4916      	ldr	r1, [pc, #88]	; (810 <ax25ChangeBit+0xb8>)
     7b6:	780a      	ldrb	r2, [r1, #0]
     7b8:	b2d2      	uxtb	r2, r2
     7ba:	2a00      	cmp	r2, #0
     7bc:	d114      	bne.n	7e8 <ax25ChangeBit+0x90>
     7be:	2101      	movs	r1, #1
     7c0:	4815      	ldr	r0, [pc, #84]	; (818 <ax25ChangeBit+0xc0>)
     7c2:	4e16      	ldr	r6, [pc, #88]	; (81c <ax25ChangeBit+0xc4>)
     7c4:	6803      	ldr	r3, [r0, #0]
     7c6:	3b01      	subs	r3, #1
     7c8:	6003      	str	r3, [r0, #0]
     7ca:	4b10      	ldr	r3, [pc, #64]	; (80c <ax25ChangeBit+0xb4>)
     7cc:	7019      	strb	r1, [r3, #0]
     7ce:	6831      	ldr	r1, [r6, #0]
     7d0:	780b      	ldrb	r3, [r1, #0]
     7d2:	3101      	adds	r1, #1
     7d4:	b2db      	uxtb	r3, r3
     7d6:	b2db      	uxtb	r3, r3
     7d8:	702b      	strb	r3, [r5, #0]
     7da:	6803      	ldr	r3, [r0, #0]
     7dc:	6031      	str	r1, [r6, #0]
     7de:	2b00      	cmp	r3, #0
     7e0:	dc06      	bgt.n	7f0 <ax25ChangeBit+0x98>
     7e2:	9b01      	ldr	r3, [sp, #4]
     7e4:	701a      	strb	r2, [r3, #0]
     7e6:	e003      	b.n	7f0 <ax25ChangeBit+0x98>
     7e8:	780b      	ldrb	r3, [r1, #0]
     7ea:	3b01      	subs	r3, #1
     7ec:	b2db      	uxtb	r3, r3
     7ee:	700b      	strb	r3, [r1, #0]
     7f0:	2307      	movs	r3, #7
     7f2:	e002      	b.n	7fa <ax25ChangeBit+0xa2>
     7f4:	7823      	ldrb	r3, [r4, #0]
     7f6:	3b01      	subs	r3, #1
     7f8:	b2db      	uxtb	r3, r3
     7fa:	7023      	strb	r3, [r4, #0]
     7fc:	bdf7      	pop	{r0, r1, r2, r4, r5, r6, r7, pc}
     7fe:	46c0      	nop			; (mov r8, r8)
     800:	1ffff211 	svcne	0x00fff211
     804:	1ffff209 	svcne	0x00fff209
     808:	1ffff210 	svcne	0x00fff210
     80c:	1ffff218 	svcne	0x00fff218
     810:	1ffff220 	svcne	0x00fff220
     814:	1ffff208 	svcne	0x00fff208
     818:	1ffff224 	svcne	0x00fff224
     81c:	1ffff21c 	svcne	0x00fff21c

00000820 <cwPitIsr>:
     820:	b510      	push	{r4, lr}
     822:	4c07      	ldr	r4, [pc, #28]	; (840 <cwPitIsr+0x20>)
     824:	6823      	ldr	r3, [r4, #0]
     826:	1c5a      	adds	r2, r3, #1
     828:	6022      	str	r2, [r4, #0]
     82a:	4a06      	ldr	r2, [pc, #24]	; (844 <cwPitIsr+0x24>)
     82c:	005b      	lsls	r3, r3, #1
     82e:	5a98      	ldrh	r0, [r3, r2]
     830:	f000 fd4a 	bl	12c8 <dacSet>
     834:	6823      	ldr	r3, [r4, #0]
     836:	2b40      	cmp	r3, #64	; 0x40
     838:	dd01      	ble.n	83e <cwPitIsr+0x1e>
     83a:	2300      	movs	r3, #0
     83c:	6023      	str	r3, [r4, #0]
     83e:	bd10      	pop	{r4, pc}
     840:	1ffff228 	svcne	0x00fff228
     844:	1ffff000 	svcne	0x00fff000

00000848 <cwTone>:
     848:	2300      	movs	r3, #0
     84a:	b570      	push	{r4, r5, r6, lr}
     84c:	4c09      	ldr	r4, [pc, #36]	; (874 <cwTone+0x2c>)
     84e:	0005      	movs	r5, r0
     850:	4909      	ldr	r1, [pc, #36]	; (878 <cwTone+0x30>)
     852:	480a      	ldr	r0, [pc, #40]	; (87c <cwTone+0x34>)
     854:	6023      	str	r3, [r4, #0]
     856:	f000 f857 	bl	908 <startPIT0>
     85a:	2064      	movs	r0, #100	; 0x64
     85c:	2d00      	cmp	r5, #0
     85e:	d101      	bne.n	864 <cwTone+0x1c>
     860:	2096      	movs	r0, #150	; 0x96
     862:	0040      	lsls	r0, r0, #1
     864:	f000 fcd2 	bl	120c <delay>
     868:	f000 f89a 	bl	9a0 <stopPIT0>
     86c:	2300      	movs	r3, #0
     86e:	6023      	str	r3, [r4, #0]
     870:	bd70      	pop	{r4, r5, r6, pc}
     872:	46c0      	nop			; (mov r8, r8)
     874:	1ffff228 	svcne	0x00fff228
     878:	00000271 	andeq	r0, r0, r1, ror r2
     87c:	00000821 	andeq	r0, r0, r1, lsr #16

00000880 <cwSend>:
     880:	b5f0      	push	{r4, r5, r6, r7, lr}
     882:	2680      	movs	r6, #128	; 0x80
     884:	4c1d      	ldr	r4, [pc, #116]	; (8fc <cwSend+0x7c>)
     886:	b085      	sub	sp, #20
     888:	0076      	lsls	r6, r6, #1
     88a:	9000      	str	r0, [sp, #0]
     88c:	9103      	str	r1, [sp, #12]
     88e:	60a6      	str	r6, [r4, #8]
     890:	f000 fcf8 	bl	1284 <dacInit>
     894:	9d00      	ldr	r5, [sp, #0]
     896:	9601      	str	r6, [sp, #4]
     898:	9b00      	ldr	r3, [sp, #0]
     89a:	9a03      	ldr	r2, [sp, #12]
     89c:	189b      	adds	r3, r3, r2
     89e:	429d      	cmp	r5, r3
     8a0:	d229      	bcs.n	8f6 <cwSend+0x76>
     8a2:	782b      	ldrb	r3, [r5, #0]
     8a4:	001a      	movs	r2, r3
     8a6:	3a41      	subs	r2, #65	; 0x41
     8a8:	b2d1      	uxtb	r1, r2
     8aa:	2919      	cmp	r1, #25
     8ac:	d801      	bhi.n	8b2 <cwSend+0x32>
     8ae:	4b14      	ldr	r3, [pc, #80]	; (900 <cwSend+0x80>)
     8b0:	e005      	b.n	8be <cwSend+0x3e>
     8b2:	3b30      	subs	r3, #48	; 0x30
     8b4:	b2da      	uxtb	r2, r3
     8b6:	2700      	movs	r7, #0
     8b8:	2a09      	cmp	r2, #9
     8ba:	d801      	bhi.n	8c0 <cwSend+0x40>
     8bc:	4a11      	ldr	r2, [pc, #68]	; (904 <cwSend+0x84>)
     8be:	5cd7      	ldrb	r7, [r2, r3]
     8c0:	2603      	movs	r6, #3
     8c2:	097b      	lsrs	r3, r7, #5
     8c4:	3303      	adds	r3, #3
     8c6:	9302      	str	r3, [sp, #8]
     8c8:	9b02      	ldr	r3, [sp, #8]
     8ca:	429e      	cmp	r6, r3
     8cc:	d00d      	beq.n	8ea <cwSend+0x6a>
     8ce:	2080      	movs	r0, #128	; 0x80
     8d0:	4130      	asrs	r0, r6
     8d2:	9b01      	ldr	r3, [sp, #4]
     8d4:	4038      	ands	r0, r7
     8d6:	6063      	str	r3, [r4, #4]
     8d8:	f7ff ffb6 	bl	848 <cwTone>
     8dc:	9b01      	ldr	r3, [sp, #4]
     8de:	2064      	movs	r0, #100	; 0x64
     8e0:	60a3      	str	r3, [r4, #8]
     8e2:	f000 fc93 	bl	120c <delay>
     8e6:	3601      	adds	r6, #1
     8e8:	e7ee      	b.n	8c8 <cwSend+0x48>
     8ea:	2096      	movs	r0, #150	; 0x96
     8ec:	0040      	lsls	r0, r0, #1
     8ee:	3501      	adds	r5, #1
     8f0:	f000 fc8c 	bl	120c <delay>
     8f4:	e7d0      	b.n	898 <cwSend+0x18>
     8f6:	b005      	add	sp, #20
     8f8:	bdf0      	pop	{r4, r5, r6, r7, pc}
     8fa:	46c0      	nop			; (mov r8, r8)
     8fc:	400ff080 	andmi	pc, pc, r0, lsl #1
     900:	000017a0 	andeq	r1, r0, r0, lsr #15
     904:	000017ba 			; <UNDEFINED> instruction: 0x000017ba

00000908 <startPIT0>:
     908:	b510      	push	{r4, lr}
     90a:	2480      	movs	r4, #128	; 0x80
     90c:	4b0c      	ldr	r3, [pc, #48]	; (940 <startPIT0+0x38>)
     90e:	4a0d      	ldr	r2, [pc, #52]	; (944 <startPIT0+0x3c>)
     910:	6018      	str	r0, [r3, #0]
     912:	480d      	ldr	r0, [pc, #52]	; (948 <startPIT0+0x40>)
     914:	0424      	lsls	r4, r4, #16
     916:	5883      	ldr	r3, [r0, r2]
     918:	4323      	orrs	r3, r4
     91a:	5083      	str	r3, [r0, r2]
     91c:	2200      	movs	r2, #0
     91e:	4b0b      	ldr	r3, [pc, #44]	; (94c <startPIT0+0x44>)
     920:	601a      	str	r2, [r3, #0]
     922:	33fc      	adds	r3, #252	; 0xfc
     924:	6059      	str	r1, [r3, #4]
     926:	2101      	movs	r1, #1
     928:	3202      	adds	r2, #2
     92a:	6119      	str	r1, [r3, #16]
     92c:	60da      	str	r2, [r3, #12]
     92e:	68da      	ldr	r2, [r3, #12]
     930:	430a      	orrs	r2, r1
     932:	60da      	str	r2, [r3, #12]
     934:	2280      	movs	r2, #128	; 0x80
     936:	4b06      	ldr	r3, [pc, #24]	; (950 <startPIT0+0x48>)
     938:	03d2      	lsls	r2, r2, #15
     93a:	601a      	str	r2, [r3, #0]
     93c:	b662      	cpsie	i
     93e:	bd10      	pop	{r4, pc}
     940:	1ffff22c 	svcne	0x00fff22c
     944:	0000103c 	andeq	r1, r0, ip, lsr r0
     948:	40047000 	andmi	r7, r4, r0
     94c:	40037000 	andmi	r7, r3, r0
     950:	e000e100 	and	lr, r0, r0, lsl #2

00000954 <startPIT1>:
     954:	b510      	push	{r4, lr}
     956:	2480      	movs	r4, #128	; 0x80
     958:	4b0c      	ldr	r3, [pc, #48]	; (98c <startPIT1+0x38>)
     95a:	4a0d      	ldr	r2, [pc, #52]	; (990 <startPIT1+0x3c>)
     95c:	6058      	str	r0, [r3, #4]
     95e:	480d      	ldr	r0, [pc, #52]	; (994 <startPIT1+0x40>)
     960:	0424      	lsls	r4, r4, #16
     962:	5883      	ldr	r3, [r0, r2]
     964:	4323      	orrs	r3, r4
     966:	5083      	str	r3, [r0, r2]
     968:	2200      	movs	r2, #0
     96a:	4b0b      	ldr	r3, [pc, #44]	; (998 <startPIT1+0x44>)
     96c:	601a      	str	r2, [r3, #0]
     96e:	33fc      	adds	r3, #252	; 0xfc
     970:	6159      	str	r1, [r3, #20]
     972:	2101      	movs	r1, #1
     974:	3202      	adds	r2, #2
     976:	6219      	str	r1, [r3, #32]
     978:	61da      	str	r2, [r3, #28]
     97a:	69da      	ldr	r2, [r3, #28]
     97c:	430a      	orrs	r2, r1
     97e:	61da      	str	r2, [r3, #28]
     980:	2280      	movs	r2, #128	; 0x80
     982:	4b06      	ldr	r3, [pc, #24]	; (99c <startPIT1+0x48>)
     984:	03d2      	lsls	r2, r2, #15
     986:	601a      	str	r2, [r3, #0]
     988:	b662      	cpsie	i
     98a:	bd10      	pop	{r4, pc}
     98c:	1ffff22c 	svcne	0x00fff22c
     990:	0000103c 	andeq	r1, r0, ip, lsr r0
     994:	40047000 	andmi	r7, r4, r0
     998:	40037000 	andmi	r7, r3, r0
     99c:	e000e100 	and	lr, r0, r0, lsl #2

000009a0 <stopPIT0>:
     9a0:	2200      	movs	r2, #0
     9a2:	4b01      	ldr	r3, [pc, #4]	; (9a8 <stopPIT0+0x8>)
     9a4:	60da      	str	r2, [r3, #12]
     9a6:	4770      	bx	lr
     9a8:	400370fc 	strdmi	r7, [r3], -ip

000009ac <stopPIT1>:
     9ac:	2200      	movs	r2, #0
     9ae:	4b01      	ldr	r3, [pc, #4]	; (9b4 <stopPIT1+0x8>)
     9b0:	61da      	str	r2, [r3, #28]
     9b2:	4770      	bx	lr
     9b4:	400370fc 	strdmi	r7, [r3], -ip

000009b8 <PIT_IRQHandler>:
     9b8:	b510      	push	{r4, lr}
     9ba:	b672      	cpsid	i
     9bc:	4c09      	ldr	r4, [pc, #36]	; (9e4 <PIT_IRQHandler+0x2c>)
     9be:	6923      	ldr	r3, [r4, #16]
     9c0:	2b00      	cmp	r3, #0
     9c2:	d004      	beq.n	9ce <PIT_IRQHandler+0x16>
     9c4:	2301      	movs	r3, #1
     9c6:	6123      	str	r3, [r4, #16]
     9c8:	4b07      	ldr	r3, [pc, #28]	; (9e8 <PIT_IRQHandler+0x30>)
     9ca:	681b      	ldr	r3, [r3, #0]
     9cc:	4798      	blx	r3
     9ce:	6a23      	ldr	r3, [r4, #32]
     9d0:	2b00      	cmp	r3, #0
     9d2:	d005      	beq.n	9e0 <PIT_IRQHandler+0x28>
     9d4:	2201      	movs	r2, #1
     9d6:	4b03      	ldr	r3, [pc, #12]	; (9e4 <PIT_IRQHandler+0x2c>)
     9d8:	621a      	str	r2, [r3, #32]
     9da:	4b03      	ldr	r3, [pc, #12]	; (9e8 <PIT_IRQHandler+0x30>)
     9dc:	685b      	ldr	r3, [r3, #4]
     9de:	4798      	blx	r3
     9e0:	b662      	cpsie	i
     9e2:	bd10      	pop	{r4, pc}
     9e4:	400370fc 	strdmi	r7, [r3], -ip
     9e8:	1ffff22c 	svcne	0x00fff22c

000009ec <uartClearRxQueue>:
     9ec:	b084      	sub	sp, #16
     9ee:	9303      	str	r3, [sp, #12]
     9f0:	2300      	movs	r3, #0
     9f2:	9202      	str	r2, [sp, #8]
     9f4:	9317      	str	r3, [sp, #92]	; 0x5c
     9f6:	9300      	str	r3, [sp, #0]
     9f8:	9301      	str	r3, [sp, #4]
     9fa:	b004      	add	sp, #16
     9fc:	4770      	bx	lr
	...

00000a00 <uartInit>:
     a00:	4b2e      	ldr	r3, [pc, #184]	; (abc <uartInit+0xbc>)
     a02:	b510      	push	{r4, lr}
     a04:	1e04      	subs	r4, r0, #0
     a06:	429c      	cmp	r4, r3
     a08:	d123      	bne.n	a52 <uartInit+0x52>
     a0a:	2080      	movs	r0, #128	; 0x80
     a0c:	4b2c      	ldr	r3, [pc, #176]	; (ac0 <uartInit+0xc0>)
     a0e:	492d      	ldr	r1, [pc, #180]	; (ac4 <uartInit+0xc4>)
     a10:	00c0      	lsls	r0, r0, #3
     a12:	585a      	ldr	r2, [r3, r1]
     a14:	4302      	orrs	r2, r0
     a16:	505a      	str	r2, [r3, r1]
     a18:	4a2b      	ldr	r2, [pc, #172]	; (ac8 <uartInit+0xc8>)
     a1a:	492c      	ldr	r1, [pc, #176]	; (acc <uartInit+0xcc>)
     a1c:	5898      	ldr	r0, [r3, r2]
     a1e:	4001      	ands	r1, r0
     a20:	5099      	str	r1, [r3, r2]
     a22:	5899      	ldr	r1, [r3, r2]
     a24:	482a      	ldr	r0, [pc, #168]	; (ad0 <uartInit+0xd0>)
     a26:	4301      	orrs	r1, r0
     a28:	2080      	movs	r0, #128	; 0x80
     a2a:	5099      	str	r1, [r3, r2]
     a2c:	4929      	ldr	r1, [pc, #164]	; (ad4 <uartInit+0xd4>)
     a2e:	0080      	lsls	r0, r0, #2
     a30:	585a      	ldr	r2, [r3, r1]
     a32:	4302      	orrs	r2, r0
     a34:	505a      	str	r2, [r3, r1]
     a36:	4828      	ldr	r0, [pc, #160]	; (ad8 <uartInit+0xd8>)
     a38:	4a28      	ldr	r2, [pc, #160]	; (adc <uartInit+0xdc>)
     a3a:	4b29      	ldr	r3, [pc, #164]	; (ae0 <uartInit+0xe0>)
     a3c:	605a      	str	r2, [r3, #4]
     a3e:	609a      	str	r2, [r3, #8]
     a40:	0003      	movs	r3, r0
     a42:	33c0      	adds	r3, #192	; 0xc0
     a44:	601c      	str	r4, [r3, #0]
     a46:	f7ff fdd7 	bl	5f8 <initQueue>
     a4a:	4826      	ldr	r0, [pc, #152]	; (ae4 <uartInit+0xe4>)
     a4c:	f7ff fdd4 	bl	5f8 <initQueue>
     a50:	e02c      	b.n	aac <uartInit+0xac>
     a52:	4b25      	ldr	r3, [pc, #148]	; (ae8 <uartInit+0xe8>)
     a54:	4298      	cmp	r0, r3
     a56:	d113      	bne.n	a80 <uartInit+0x80>
     a58:	2080      	movs	r0, #128	; 0x80
     a5a:	4b19      	ldr	r3, [pc, #100]	; (ac0 <uartInit+0xc0>)
     a5c:	4a19      	ldr	r2, [pc, #100]	; (ac4 <uartInit+0xc4>)
     a5e:	0100      	lsls	r0, r0, #4
     a60:	5899      	ldr	r1, [r3, r2]
     a62:	4301      	orrs	r1, r0
     a64:	5099      	str	r1, [r3, r2]
     a66:	491b      	ldr	r1, [pc, #108]	; (ad4 <uartInit+0xd4>)
     a68:	585a      	ldr	r2, [r3, r1]
     a6a:	4302      	orrs	r2, r0
     a6c:	505a      	str	r2, [r3, r1]
     a6e:	22c0      	movs	r2, #192	; 0xc0
     a70:	4b1e      	ldr	r3, [pc, #120]	; (aec <uartInit+0xec>)
     a72:	0092      	lsls	r2, r2, #2
     a74:	60da      	str	r2, [r3, #12]
     a76:	4b1e      	ldr	r3, [pc, #120]	; (af0 <uartInit+0xf0>)
     a78:	33c0      	adds	r3, #192	; 0xc0
     a7a:	601c      	str	r4, [r3, #0]
     a7c:	2324      	movs	r3, #36	; 0x24
     a7e:	e016      	b.n	aae <uartInit+0xae>
     a80:	4b1c      	ldr	r3, [pc, #112]	; (af4 <uartInit+0xf4>)
     a82:	4298      	cmp	r0, r3
     a84:	d119      	bne.n	aba <uartInit+0xba>
     a86:	2080      	movs	r0, #128	; 0x80
     a88:	4b0d      	ldr	r3, [pc, #52]	; (ac0 <uartInit+0xc0>)
     a8a:	4a0e      	ldr	r2, [pc, #56]	; (ac4 <uartInit+0xc4>)
     a8c:	0140      	lsls	r0, r0, #5
     a8e:	5899      	ldr	r1, [r3, r2]
     a90:	4301      	orrs	r1, r0
     a92:	5099      	str	r1, [r3, r2]
     a94:	490f      	ldr	r1, [pc, #60]	; (ad4 <uartInit+0xd4>)
     a96:	585a      	ldr	r2, [r3, r1]
     a98:	4302      	orrs	r2, r0
     a9a:	505a      	str	r2, [r3, r1]
     a9c:	22c0      	movs	r2, #192	; 0xc0
     a9e:	4b16      	ldr	r3, [pc, #88]	; (af8 <uartInit+0xf8>)
     aa0:	0092      	lsls	r2, r2, #2
     aa2:	609a      	str	r2, [r3, #8]
     aa4:	60da      	str	r2, [r3, #12]
     aa6:	4b15      	ldr	r3, [pc, #84]	; (afc <uartInit+0xfc>)
     aa8:	33c0      	adds	r3, #192	; 0xc0
     aaa:	601c      	str	r4, [r3, #0]
     aac:	232c      	movs	r3, #44	; 0x2c
     aae:	70e3      	strb	r3, [r4, #3]
     ab0:	2300      	movs	r3, #0
     ab2:	7023      	strb	r3, [r4, #0]
     ab4:	339c      	adds	r3, #156	; 0x9c
     ab6:	7063      	strb	r3, [r4, #1]
     ab8:	b662      	cpsie	i
     aba:	bd10      	pop	{r4, pc}
     abc:	4006a000 	andmi	sl, r6, r0
     ac0:	40047000 	andmi	r7, r4, r0
     ac4:	00001034 	andeq	r1, r0, r4, lsr r0
     ac8:	00001004 	andeq	r1, r0, r4
     acc:	f3feffff 			; <UNDEFINED> instruction: 0xf3feffff
     ad0:	04010000 	streq	r0, [r1], #-0
     ad4:	00001038 	andeq	r1, r0, r8, lsr r0
     ad8:	1ffff234 	svcne	0x00fff234
     adc:	01000200 	mrseq	r0, R8_usr
     ae0:	40049000 	andmi	r9, r4, r0
     ae4:	1ffff294 	svcne	0x00fff294
     ae8:	4006b000 	andmi	fp, r6, r0
     aec:	4004b000 	andmi	fp, r4, r0
     af0:	1ffff2f8 	svcne	0x00fff2f8
     af4:	4006c000 	andmi	ip, r6, r0
     af8:	4004c000 	andmi	ip, r4, r0
     afc:	1ffff3bc 	svcne	0x00fff3bc

00000b00 <uart1EnableInterrupts>:
     b00:	2280      	movs	r2, #128	; 0x80
     b02:	4b02      	ldr	r3, [pc, #8]	; (b0c <uart1EnableInterrupts+0xc>)
     b04:	0192      	lsls	r2, r2, #6
     b06:	601a      	str	r2, [r3, #0]
     b08:	4770      	bx	lr
     b0a:	46c0      	nop			; (mov r8, r8)
     b0c:	e000e100 	and	lr, r0, r0, lsl #2

00000b10 <uart1DisableInterrupts>:
     b10:	2280      	movs	r2, #128	; 0x80
     b12:	4b02      	ldr	r3, [pc, #8]	; (b1c <uart1DisableInterrupts+0xc>)
     b14:	0192      	lsls	r2, r2, #6
     b16:	67da      	str	r2, [r3, #124]	; 0x7c
     b18:	4770      	bx	lr
     b1a:	46c0      	nop			; (mov r8, r8)
     b1c:	e000e104 	and	lr, r0, r4, lsl #2

00000b20 <uartPutCharBlock>:
     b20:	b084      	sub	sp, #16
     b22:	9202      	str	r2, [sp, #8]
     b24:	227f      	movs	r2, #127	; 0x7f
     b26:	9303      	str	r3, [sp, #12]
     b28:	ab31      	add	r3, sp, #196	; 0xc4
     b2a:	9101      	str	r1, [sp, #4]
     b2c:	7819      	ldrb	r1, [r3, #0]
     b2e:	9b30      	ldr	r3, [sp, #192]	; 0xc0
     b30:	9000      	str	r0, [sp, #0]
     b32:	78d8      	ldrb	r0, [r3, #3]
     b34:	4002      	ands	r2, r0
     b36:	70da      	strb	r2, [r3, #3]
     b38:	791a      	ldrb	r2, [r3, #4]
     b3a:	b252      	sxtb	r2, r2
     b3c:	2a00      	cmp	r2, #0
     b3e:	dafb      	bge.n	b38 <uartPutCharBlock+0x18>
     b40:	71d9      	strb	r1, [r3, #7]
     b42:	b004      	add	sp, #16
     b44:	4770      	bx	lr

00000b46 <uartPutStringBlock>:
     b46:	b084      	sub	sp, #16
     b48:	b510      	push	{r4, lr}
     b4a:	b0ae      	sub	sp, #184	; 0xb8
     b4c:	9c61      	ldr	r4, [sp, #388]	; 0x184
     b4e:	9030      	str	r0, [sp, #192]	; 0xc0
     b50:	9131      	str	r1, [sp, #196]	; 0xc4
     b52:	9232      	str	r2, [sp, #200]	; 0xc8
     b54:	9333      	str	r3, [sp, #204]	; 0xcc
     b56:	7823      	ldrb	r3, [r4, #0]
     b58:	3401      	adds	r4, #1
     b5a:	2b00      	cmp	r3, #0
     b5c:	d00c      	beq.n	b78 <uartPutStringBlock+0x32>
     b5e:	a934      	add	r1, sp, #208	; 0xd0
     b60:	22b4      	movs	r2, #180	; 0xb4
     b62:	4668      	mov	r0, sp
     b64:	932d      	str	r3, [sp, #180]	; 0xb4
     b66:	f000 fc6b 	bl	1440 <memcpy>
     b6a:	9830      	ldr	r0, [sp, #192]	; 0xc0
     b6c:	9931      	ldr	r1, [sp, #196]	; 0xc4
     b6e:	9a32      	ldr	r2, [sp, #200]	; 0xc8
     b70:	9b33      	ldr	r3, [sp, #204]	; 0xcc
     b72:	f7ff ffd5 	bl	b20 <uartPutCharBlock>
     b76:	e7ee      	b.n	b56 <uartPutStringBlock+0x10>
     b78:	b02e      	add	sp, #184	; 0xb8
     b7a:	bc10      	pop	{r4}
     b7c:	bc08      	pop	{r3}
     b7e:	b004      	add	sp, #16
     b80:	4718      	bx	r3
	...

00000b84 <UART0_IRQHandler>:
     b84:	2380      	movs	r3, #128	; 0x80
     b86:	b570      	push	{r4, r5, r6, lr}
     b88:	4d18      	ldr	r5, [pc, #96]	; (bec <UART0_IRQHandler+0x68>)
     b8a:	005b      	lsls	r3, r3, #1
     b8c:	606b      	str	r3, [r5, #4]
     b8e:	b672      	cpsid	i
     b90:	4c17      	ldr	r4, [pc, #92]	; (bf0 <UART0_IRQHandler+0x6c>)
     b92:	7923      	ldrb	r3, [r4, #4]
     b94:	b25b      	sxtb	r3, r3
     b96:	2b00      	cmp	r3, #0
     b98:	da0f      	bge.n	bba <UART0_IRQHandler+0x36>
     b9a:	2380      	movs	r3, #128	; 0x80
     b9c:	009b      	lsls	r3, r3, #2
     b9e:	606b      	str	r3, [r5, #4]
     ba0:	4814      	ldr	r0, [pc, #80]	; (bf4 <UART0_IRQHandler+0x70>)
     ba2:	f7ff fd12 	bl	5ca <dequeue>
     ba6:	4b14      	ldr	r3, [pc, #80]	; (bf8 <UART0_IRQHandler+0x74>)
     ba8:	71e0      	strb	r0, [r4, #7]
     baa:	33bc      	adds	r3, #188	; 0xbc
     bac:	681b      	ldr	r3, [r3, #0]
     bae:	2b00      	cmp	r3, #0
     bb0:	dc03      	bgt.n	bba <UART0_IRQHandler+0x36>
     bb2:	237f      	movs	r3, #127	; 0x7f
     bb4:	78e2      	ldrb	r2, [r4, #3]
     bb6:	4013      	ands	r3, r2
     bb8:	70e3      	strb	r3, [r4, #3]
     bba:	2180      	movs	r1, #128	; 0x80
     bbc:	7922      	ldrb	r2, [r4, #4]
     bbe:	00c9      	lsls	r1, r1, #3
     bc0:	4b0b      	ldr	r3, [pc, #44]	; (bf0 <UART0_IRQHandler+0x6c>)
     bc2:	6069      	str	r1, [r5, #4]
     bc4:	0692      	lsls	r2, r2, #26
     bc6:	d50e      	bpl.n	be6 <UART0_IRQHandler+0x62>
     bc8:	202a      	movs	r0, #42	; 0x2a
     bca:	79d9      	ldrb	r1, [r3, #7]
     bcc:	791a      	ldrb	r2, [r3, #4]
     bce:	b2c9      	uxtb	r1, r1
     bd0:	4302      	orrs	r2, r0
     bd2:	711a      	strb	r2, [r3, #4]
     bd4:	2280      	movs	r2, #128	; 0x80
     bd6:	4b05      	ldr	r3, [pc, #20]	; (bec <UART0_IRQHandler+0x68>)
     bd8:	0112      	lsls	r2, r2, #4
     bda:	605a      	str	r2, [r3, #4]
     bdc:	2900      	cmp	r1, #0
     bde:	d002      	beq.n	be6 <UART0_IRQHandler+0x62>
     be0:	4805      	ldr	r0, [pc, #20]	; (bf8 <UART0_IRQHandler+0x74>)
     be2:	f7ff fcd9 	bl	598 <enqueue>
     be6:	b662      	cpsie	i
     be8:	bd70      	pop	{r4, r5, r6, pc}
     bea:	46c0      	nop			; (mov r8, r8)
     bec:	400ff080 	andmi	pc, pc, r0, lsl #1
     bf0:	4006a000 	andmi	sl, r6, r0
     bf4:	1ffff294 	svcne	0x00fff294
     bf8:	1ffff234 	svcne	0x00fff234

00000bfc <UART1_IRQHandler>:
     bfc:	b570      	push	{r4, r5, r6, lr}
     bfe:	b672      	cpsid	i
     c00:	4c0d      	ldr	r4, [pc, #52]	; (c38 <UART1_IRQHandler+0x3c>)
     c02:	7925      	ldrb	r5, [r4, #4]
     c04:	b2ed      	uxtb	r5, r5
     c06:	b26b      	sxtb	r3, r5
     c08:	2b00      	cmp	r3, #0
     c0a:	da0c      	bge.n	c26 <UART1_IRQHandler+0x2a>
     c0c:	480b      	ldr	r0, [pc, #44]	; (c3c <UART1_IRQHandler+0x40>)
     c0e:	f7ff fcdc 	bl	5ca <dequeue>
     c12:	4b0b      	ldr	r3, [pc, #44]	; (c40 <UART1_IRQHandler+0x44>)
     c14:	71e0      	strb	r0, [r4, #7]
     c16:	33bc      	adds	r3, #188	; 0xbc
     c18:	681b      	ldr	r3, [r3, #0]
     c1a:	2b01      	cmp	r3, #1
     c1c:	dc03      	bgt.n	c26 <UART1_IRQHandler+0x2a>
     c1e:	237f      	movs	r3, #127	; 0x7f
     c20:	78e2      	ldrb	r2, [r4, #3]
     c22:	4013      	ands	r3, r2
     c24:	70e3      	strb	r3, [r4, #3]
     c26:	06ab      	lsls	r3, r5, #26
     c28:	d503      	bpl.n	c32 <UART1_IRQHandler+0x36>
     c2a:	79e0      	ldrb	r0, [r4, #7]
     c2c:	b2c0      	uxtb	r0, r0
     c2e:	f000 fa1b 	bl	1068 <ParseGPS>
     c32:	b662      	cpsie	i
     c34:	bd70      	pop	{r4, r5, r6, pc}
     c36:	46c0      	nop			; (mov r8, r8)
     c38:	4006b000 	andmi	fp, r6, r0
     c3c:	1ffff358 	svcne	0x00fff358
     c40:	1ffff2f8 	svcne	0x00fff2f8

00000c44 <UART2_IRQHandler>:
     c44:	b570      	push	{r4, r5, r6, lr}
     c46:	b672      	cpsid	i
     c48:	4c0d      	ldr	r4, [pc, #52]	; (c80 <UART2_IRQHandler+0x3c>)
     c4a:	7925      	ldrb	r5, [r4, #4]
     c4c:	b2ed      	uxtb	r5, r5
     c4e:	b26b      	sxtb	r3, r5
     c50:	2b00      	cmp	r3, #0
     c52:	da0c      	bge.n	c6e <UART2_IRQHandler+0x2a>
     c54:	480b      	ldr	r0, [pc, #44]	; (c84 <UART2_IRQHandler+0x40>)
     c56:	f7ff fcb8 	bl	5ca <dequeue>
     c5a:	4b0b      	ldr	r3, [pc, #44]	; (c88 <UART2_IRQHandler+0x44>)
     c5c:	71e0      	strb	r0, [r4, #7]
     c5e:	33bc      	adds	r3, #188	; 0xbc
     c60:	681b      	ldr	r3, [r3, #0]
     c62:	2b02      	cmp	r3, #2
     c64:	dc03      	bgt.n	c6e <UART2_IRQHandler+0x2a>
     c66:	237f      	movs	r3, #127	; 0x7f
     c68:	78e2      	ldrb	r2, [r4, #3]
     c6a:	4013      	ands	r3, r2
     c6c:	70e3      	strb	r3, [r4, #3]
     c6e:	06ab      	lsls	r3, r5, #26
     c70:	d504      	bpl.n	c7c <UART2_IRQHandler+0x38>
     c72:	79e1      	ldrb	r1, [r4, #7]
     c74:	4804      	ldr	r0, [pc, #16]	; (c88 <UART2_IRQHandler+0x44>)
     c76:	b2c9      	uxtb	r1, r1
     c78:	f7ff fc8e 	bl	598 <enqueue>
     c7c:	b662      	cpsie	i
     c7e:	bd70      	pop	{r4, r5, r6, pc}
     c80:	4006c000 	andmi	ip, r6, r0
     c84:	1ffff41c 	svcne	0x00fff41c
     c88:	1ffff3bc 	svcne	0x00fff3bc

00000c8c <clockInit>:
     c8c:	2300      	movs	r3, #0
     c8e:	21a0      	movs	r1, #160	; 0xa0
     c90:	4a1b      	ldr	r2, [pc, #108]	; (d00 <clockInit+0x74>)
     c92:	b530      	push	{r4, r5, lr}
     c94:	6013      	str	r3, [r2, #0]
     c96:	4b1b      	ldr	r3, [pc, #108]	; (d04 <clockInit+0x78>)
     c98:	2002      	movs	r0, #2
     c9a:	7019      	strb	r1, [r3, #0]
     c9c:	4b1a      	ldr	r3, [pc, #104]	; (d08 <clockInit+0x7c>)
     c9e:	398c      	subs	r1, #140	; 0x8c
     ca0:	7059      	strb	r1, [r3, #1]
     ca2:	3186      	adds	r1, #134	; 0x86
     ca4:	7019      	strb	r1, [r3, #0]
     ca6:	0011      	movs	r1, r2
     ca8:	0004      	movs	r4, r0
     caa:	799a      	ldrb	r2, [r3, #6]
     cac:	4394      	bics	r4, r2
     cae:	1e22      	subs	r2, r4, #0
     cb0:	d1fa      	bne.n	ca8 <clockInit+0x1c>
     cb2:	3210      	adds	r2, #16
     cb4:	7998      	ldrb	r0, [r3, #6]
     cb6:	4210      	tst	r0, r2
     cb8:	d1fc      	bne.n	cb4 <clockInit+0x28>
     cba:	240a      	movs	r4, #10
     cbc:	0025      	movs	r5, r4
     cbe:	7998      	ldrb	r0, [r3, #6]
     cc0:	4a11      	ldr	r2, [pc, #68]	; (d08 <clockInit+0x7c>)
     cc2:	4385      	bics	r5, r0
     cc4:	1e28      	subs	r0, r5, #0
     cc6:	d1f9      	bne.n	cbc <clockInit+0x30>
     cc8:	3003      	adds	r0, #3
     cca:	7110      	strb	r0, [r2, #4]
     ccc:	303d      	adds	r0, #61	; 0x3d
     cce:	7150      	strb	r0, [r2, #5]
     cd0:	3820      	subs	r0, #32
     cd2:	0004      	movs	r4, r0
     cd4:	799a      	ldrb	r2, [r3, #6]
     cd6:	4394      	bics	r4, r2
     cd8:	d1fb      	bne.n	cd2 <clockInit+0x46>
     cda:	2040      	movs	r0, #64	; 0x40
     cdc:	0004      	movs	r4, r0
     cde:	799a      	ldrb	r2, [r3, #6]
     ce0:	4394      	bics	r4, r2
     ce2:	d1fb      	bne.n	cdc <clockInit+0x50>
     ce4:	2010      	movs	r0, #16
     ce6:	4a08      	ldr	r2, [pc, #32]	; (d08 <clockInit+0x7c>)
     ce8:	7010      	strb	r0, [r2, #0]
     cea:	3804      	subs	r0, #4
     cec:	0004      	movs	r4, r0
     cee:	799a      	ldrb	r2, [r3, #6]
     cf0:	4394      	bics	r4, r2
     cf2:	d1fb      	bne.n	cec <clockInit+0x60>
     cf4:	2280      	movs	r2, #128	; 0x80
     cf6:	4b05      	ldr	r3, [pc, #20]	; (d0c <clockInit+0x80>)
     cf8:	0252      	lsls	r2, r2, #9
     cfa:	50ca      	str	r2, [r1, r3]
     cfc:	bd30      	pop	{r4, r5, pc}
     cfe:	46c0      	nop			; (mov r8, r8)
     d00:	40047000 	andmi	r7, r4, r0
     d04:	40065000 	andmi	r5, r6, r0
     d08:	40064000 	andmi	r4, r6, r0
     d0c:	00001044 	andeq	r1, r0, r4, asr #32

00000d10 <start>:
     d10:	b5f8      	push	{r3, r4, r5, r6, r7, lr}
     d12:	2388      	movs	r3, #136	; 0x88
     d14:	2200      	movs	r2, #0
     d16:	2780      	movs	r7, #128	; 0x80
     d18:	4c1b      	ldr	r4, [pc, #108]	; (d88 <start+0x78>)
     d1a:	015b      	lsls	r3, r3, #5
     d1c:	50e2      	str	r2, [r4, r3]
     d1e:	f7ff ffb5 	bl	c8c <clockInit>
     d22:	2180      	movs	r1, #128	; 0x80
     d24:	4a19      	ldr	r2, [pc, #100]	; (d8c <start+0x7c>)
     d26:	013f      	lsls	r7, r7, #4
     d28:	58a3      	ldr	r3, [r4, r2]
     d2a:	0189      	lsls	r1, r1, #6
     d2c:	433b      	orrs	r3, r7
     d2e:	50a3      	str	r3, [r4, r2]
     d30:	58a3      	ldr	r3, [r4, r2]
     d32:	2080      	movs	r0, #128	; 0x80
     d34:	430b      	orrs	r3, r1
     d36:	50a3      	str	r3, [r4, r2]
     d38:	23a0      	movs	r3, #160	; 0xa0
     d3a:	4915      	ldr	r1, [pc, #84]	; (d90 <start+0x80>)
     d3c:	005b      	lsls	r3, r3, #1
     d3e:	620b      	str	r3, [r1, #32]
     d40:	4b14      	ldr	r3, [pc, #80]	; (d94 <start+0x84>)
     d42:	0040      	lsls	r0, r0, #1
     d44:	695d      	ldr	r5, [r3, #20]
     d46:	4305      	orrs	r5, r0
     d48:	615d      	str	r5, [r3, #20]
     d4a:	2580      	movs	r5, #128	; 0x80
     d4c:	695e      	ldr	r6, [r3, #20]
     d4e:	00ad      	lsls	r5, r5, #2
     d50:	432e      	orrs	r6, r5
     d52:	615e      	str	r6, [r3, #20]
     d54:	58a5      	ldr	r5, [r4, r2]
     d56:	433d      	orrs	r5, r7
     d58:	50a5      	str	r5, [r4, r2]
     d5a:	24f0      	movs	r4, #240	; 0xf0
     d5c:	695a      	ldr	r2, [r3, #20]
     d5e:	0124      	lsls	r4, r4, #4
     d60:	4322      	orrs	r2, r4
     d62:	615a      	str	r2, [r3, #20]
     d64:	6208      	str	r0, [r1, #32]
     d66:	6248      	str	r0, [r1, #36]	; 0x24
     d68:	6288      	str	r0, [r1, #40]	; 0x28
     d6a:	62c8      	str	r0, [r1, #44]	; 0x2c
     d6c:	f000 f96e 	bl	104c <initGps>
     d70:	f000 fa3e 	bl	11f0 <testParse>
     d74:	2196      	movs	r1, #150	; 0x96
     d76:	4808      	ldr	r0, [pc, #32]	; (d98 <start+0x88>)
     d78:	0189      	lsls	r1, r1, #6
     d7a:	f7ff fe41 	bl	a00 <uartInit>
     d7e:	4807      	ldr	r0, [pc, #28]	; (d9c <start+0x8c>)
     d80:	f000 fa60 	bl	1244 <i2c_init>
     d84:	bdf8      	pop	{r3, r4, r5, r6, r7, pc}
     d86:	46c0      	nop			; (mov r8, r8)
     d88:	40047000 	andmi	r7, r4, r0
     d8c:	00001038 	andeq	r1, r0, r8, lsr r0
     d90:	4004b000 	andmi	fp, r4, r0
     d94:	400ff080 	andmi	pc, pc, r0, lsl #1
     d98:	4006b000 	andmi	fp, r6, r0
     d9c:	40066000 	andmi	r6, r6, r0

00000da0 <main>:
     da0:	b510      	push	{r4, lr}
     da2:	f7ff ffb5 	bl	d10 <start>
     da6:	f000 f87f 	bl	ea8 <initDRA>
     daa:	f000 f941 	bl	1030 <draRx>
     dae:	2380      	movs	r3, #128	; 0x80
     db0:	4c2f      	ldr	r4, [pc, #188]	; (e70 <main+0xd0>)
     db2:	009b      	lsls	r3, r3, #2
     db4:	6063      	str	r3, [r4, #4]
     db6:	f000 f8cb 	bl	f50 <checkDRA>
     dba:	f000 f905 	bl	fc8 <programDra>
     dbe:	2380      	movs	r3, #128	; 0x80
     dc0:	00db      	lsls	r3, r3, #3
     dc2:	6063      	str	r3, [r4, #4]
     dc4:	482b      	ldr	r0, [pc, #172]	; (e74 <main+0xd4>)
     dc6:	f000 fa21 	bl	120c <delay>
     dca:	2380      	movs	r3, #128	; 0x80
     dcc:	011b      	lsls	r3, r3, #4
     dce:	6063      	str	r3, [r4, #4]
     dd0:	f000 f920 	bl	1014 <draTx>
     dd4:	20fa      	movs	r0, #250	; 0xfa
     dd6:	0040      	lsls	r0, r0, #1
     dd8:	f000 fa18 	bl	120c <delay>
     ddc:	4c26      	ldr	r4, [pc, #152]	; (e78 <main+0xd8>)
     dde:	2105      	movs	r1, #5
     de0:	0020      	movs	r0, r4
     de2:	f7ff fd4d 	bl	880 <cwSend>
     de6:	2064      	movs	r0, #100	; 0x64
     de8:	f000 fa10 	bl	120c <delay>
     dec:	2103      	movs	r1, #3
     dee:	4823      	ldr	r0, [pc, #140]	; (e7c <main+0xdc>)
     df0:	f7ff fd46 	bl	880 <cwSend>
     df4:	20c8      	movs	r0, #200	; 0xc8
     df6:	f000 fa09 	bl	120c <delay>
     dfa:	210a      	movs	r1, #10
     dfc:	4820      	ldr	r0, [pc, #128]	; (e80 <main+0xe0>)
     dfe:	f7ff fd3f 	bl	880 <cwSend>
     e02:	20fa      	movs	r0, #250	; 0xfa
     e04:	0080      	lsls	r0, r0, #2
     e06:	f000 fa01 	bl	120c <delay>
     e0a:	2103      	movs	r1, #3
     e0c:	481d      	ldr	r0, [pc, #116]	; (e84 <main+0xe4>)
     e0e:	f7ff fd37 	bl	880 <cwSend>
     e12:	20c8      	movs	r0, #200	; 0xc8
     e14:	f000 f9fa 	bl	120c <delay>
     e18:	210b      	movs	r1, #11
     e1a:	481b      	ldr	r0, [pc, #108]	; (e88 <main+0xe8>)
     e1c:	f7ff fd30 	bl	880 <cwSend>
     e20:	20c8      	movs	r0, #200	; 0xc8
     e22:	f000 f9f3 	bl	120c <delay>
     e26:	f000 fa63 	bl	12f0 <sendPos>
     e2a:	20c8      	movs	r0, #200	; 0xc8
     e2c:	f000 f9ee 	bl	120c <delay>
     e30:	f000 f8fe 	bl	1030 <draRx>
     e34:	f000 f9ae 	bl	1194 <getPos>
     e38:	4814      	ldr	r0, [pc, #80]	; (e8c <main+0xec>)
     e3a:	f000 f9e7 	bl	120c <delay>
     e3e:	f000 f8e9 	bl	1014 <draTx>
     e42:	20fa      	movs	r0, #250	; 0xfa
     e44:	0040      	lsls	r0, r0, #1
     e46:	f000 f9e1 	bl	120c <delay>
     e4a:	2105      	movs	r1, #5
     e4c:	0020      	movs	r0, r4
     e4e:	f7ff fd17 	bl	880 <cwSend>
     e52:	2064      	movs	r0, #100	; 0x64
     e54:	f000 f9da 	bl	120c <delay>
     e58:	f000 fa4a 	bl	12f0 <sendPos>
     e5c:	20c8      	movs	r0, #200	; 0xc8
     e5e:	f000 f9d5 	bl	120c <delay>
     e62:	f000 f8e5 	bl	1030 <draRx>
     e66:	480a      	ldr	r0, [pc, #40]	; (e90 <main+0xf0>)
     e68:	f000 f9d0 	bl	120c <delay>
     e6c:	e7b0      	b.n	dd0 <main+0x30>
     e6e:	46c0      	nop			; (mov r8, r8)
     e70:	400ff080 	andmi	pc, pc, r0, lsl #1
     e74:	00002710 	andeq	r2, r0, r0, lsl r7
     e78:	000017c4 	andeq	r1, r0, r4, asr #15
     e7c:	000017ca 	andeq	r1, r0, sl, asr #15
     e80:	1ffff4b8 	svcne	0x00fff4b8
     e84:	000017ce 	andeq	r1, r0, lr, asr #15
     e88:	1ffff4c4 	svcne	0x00fff4c4
     e8c:	00009c40 	andeq	r9, r0, r0, asr #24
     e90:	0000c350 	andeq	ip, r0, r0, asr r3

00000e94 <stringCpy>:
     e94:	2300      	movs	r3, #0
     e96:	5cca      	ldrb	r2, [r1, r3]
     e98:	54c2      	strb	r2, [r0, r3]
     e9a:	3301      	adds	r3, #1
     e9c:	1e5a      	subs	r2, r3, #1
     e9e:	5c8a      	ldrb	r2, [r1, r2]
     ea0:	2a00      	cmp	r2, #0
     ea2:	d1f8      	bne.n	e96 <stringCpy+0x2>
     ea4:	0018      	movs	r0, r3
     ea6:	4770      	bx	lr

00000ea8 <initDRA>:
     ea8:	b570      	push	{r4, r5, r6, lr}
     eaa:	4c1c      	ldr	r4, [pc, #112]	; (f1c <initDRA+0x74>)
     eac:	481c      	ldr	r0, [pc, #112]	; (f20 <initDRA+0x78>)
     eae:	0021      	movs	r1, r4
     eb0:	f7ff fff0 	bl	e94 <stringCpy>
     eb4:	0021      	movs	r1, r4
     eb6:	481b      	ldr	r0, [pc, #108]	; (f24 <initDRA+0x7c>)
     eb8:	f7ff ffec 	bl	e94 <stringCpy>
     ebc:	2196      	movs	r1, #150	; 0x96
     ebe:	481a      	ldr	r0, [pc, #104]	; (f28 <initDRA+0x80>)
     ec0:	0189      	lsls	r1, r1, #6
     ec2:	f7ff fd9d 	bl	a00 <uartInit>
     ec6:	2098      	movs	r0, #152	; 0x98
     ec8:	4918      	ldr	r1, [pc, #96]	; (f2c <initDRA+0x84>)
     eca:	4a19      	ldr	r2, [pc, #100]	; (f30 <initDRA+0x88>)
     ecc:	0180      	lsls	r0, r0, #6
     ece:	588b      	ldr	r3, [r1, r2]
     ed0:	4c18      	ldr	r4, [pc, #96]	; (f34 <initDRA+0x8c>)
     ed2:	4303      	orrs	r3, r0
     ed4:	508b      	str	r3, [r1, r2]
     ed6:	6963      	ldr	r3, [r4, #20]
     ed8:	4a17      	ldr	r2, [pc, #92]	; (f38 <initDRA+0x90>)
     eda:	2508      	movs	r5, #8
     edc:	4313      	orrs	r3, r2
     ede:	6163      	str	r3, [r4, #20]
     ee0:	2380      	movs	r3, #128	; 0x80
     ee2:	4a16      	ldr	r2, [pc, #88]	; (f3c <initDRA+0x94>)
     ee4:	005b      	lsls	r3, r3, #1
     ee6:	60d3      	str	r3, [r2, #12]
     ee8:	64d3      	str	r3, [r2, #76]	; 0x4c
     eea:	4a15      	ldr	r2, [pc, #84]	; (f40 <initDRA+0x98>)
     eec:	2064      	movs	r0, #100	; 0x64
     eee:	6513      	str	r3, [r2, #80]	; 0x50
     ef0:	4a14      	ldr	r2, [pc, #80]	; (f44 <initDRA+0x9c>)
     ef2:	4b15      	ldr	r3, [pc, #84]	; (f48 <initDRA+0xa0>)
     ef4:	6951      	ldr	r1, [r2, #20]
     ef6:	400b      	ands	r3, r1
     ef8:	2180      	movs	r1, #128	; 0x80
     efa:	6153      	str	r3, [r2, #20]
     efc:	4b13      	ldr	r3, [pc, #76]	; (f4c <initDRA+0xa4>)
     efe:	0349      	lsls	r1, r1, #13
     f00:	695a      	ldr	r2, [r3, #20]
     f02:	430a      	orrs	r2, r1
     f04:	615a      	str	r2, [r3, #20]
     f06:	2280      	movs	r2, #128	; 0x80
     f08:	0312      	lsls	r2, r2, #12
     f0a:	60a2      	str	r2, [r4, #8]
     f0c:	6059      	str	r1, [r3, #4]
     f0e:	60a5      	str	r5, [r4, #8]
     f10:	f000 f97c 	bl	120c <delay>
     f14:	6065      	str	r5, [r4, #4]
     f16:	2000      	movs	r0, #0
     f18:	bd70      	pop	{r4, r5, r6, pc}
     f1a:	46c0      	nop			; (mov r8, r8)
     f1c:	000017d2 	ldrdeq	r1, [r0], -r2
     f20:	1ffff480 	svcne	0x00fff480
     f24:	1ffff48b 	svcne	0x00fff48b
     f28:	4006a000 	andmi	sl, r6, r0
     f2c:	40047000 	andmi	r7, r4, r0
     f30:	00001038 	andeq	r1, r0, r8, lsr r0
     f34:	400ff040 	andmi	pc, pc, r0, asr #32
     f38:	00080008 	andeq	r0, r8, r8
     f3c:	4004a000 	andmi	sl, r4, r0
     f40:	4004d000 	andmi	sp, r4, r0
     f44:	400ff000 	andmi	pc, pc, r0
     f48:	ffffefff 			; <UNDEFINED> instruction: 0xffffefff
     f4c:	400ff100 	andmi	pc, pc, r0, lsl #2

00000f50 <checkDRA>:
     f50:	b5f0      	push	{r4, r5, r6, r7, lr}
     f52:	2780      	movs	r7, #128	; 0x80
     f54:	2505      	movs	r5, #5
     f56:	b0af      	sub	sp, #188	; 0xbc
     f58:	00ff      	lsls	r7, r7, #3
     f5a:	3d01      	subs	r5, #1
     f5c:	2d00      	cmp	r5, #0
     f5e:	d027      	beq.n	fb0 <checkDRA+0x60>
     f60:	200a      	movs	r0, #10
     f62:	f000 f953 	bl	120c <delay>
     f66:	4c14      	ldr	r4, [pc, #80]	; (fb8 <checkDRA+0x68>)
     f68:	22b4      	movs	r2, #180	; 0xb4
     f6a:	0026      	movs	r6, r4
     f6c:	3610      	adds	r6, #16
     f6e:	0031      	movs	r1, r6
     f70:	4668      	mov	r0, sp
     f72:	f000 fa65 	bl	1440 <memcpy>
     f76:	6820      	ldr	r0, [r4, #0]
     f78:	6861      	ldr	r1, [r4, #4]
     f7a:	68a2      	ldr	r2, [r4, #8]
     f7c:	68e3      	ldr	r3, [r4, #12]
     f7e:	f7ff fd35 	bl	9ec <uartClearRxQueue>
     f82:	4b0e      	ldr	r3, [pc, #56]	; (fbc <checkDRA+0x6c>)
     f84:	22b4      	movs	r2, #180	; 0xb4
     f86:	0031      	movs	r1, r6
     f88:	4668      	mov	r0, sp
     f8a:	932d      	str	r3, [sp, #180]	; 0xb4
     f8c:	f000 fa58 	bl	1440 <memcpy>
     f90:	6820      	ldr	r0, [r4, #0]
     f92:	6861      	ldr	r1, [r4, #4]
     f94:	68a2      	ldr	r2, [r4, #8]
     f96:	68e3      	ldr	r3, [r4, #12]
     f98:	f7ff fdd5 	bl	b46 <uartPutStringBlock>
     f9c:	20fa      	movs	r0, #250	; 0xfa
     f9e:	0080      	lsls	r0, r0, #2
     fa0:	f000 f934 	bl	120c <delay>
     fa4:	2201      	movs	r2, #1
     fa6:	4b06      	ldr	r3, [pc, #24]	; (fc0 <checkDRA+0x70>)
     fa8:	605f      	str	r7, [r3, #4]
     faa:	4b06      	ldr	r3, [pc, #24]	; (fc4 <checkDRA+0x74>)
     fac:	775a      	strb	r2, [r3, #29]
     fae:	e7d4      	b.n	f5a <checkDRA+0xa>
     fb0:	2001      	movs	r0, #1
     fb2:	b02f      	add	sp, #188	; 0xbc
     fb4:	bdf0      	pop	{r4, r5, r6, r7, pc}
     fb6:	46c0      	nop			; (mov r8, r8)
     fb8:	1ffff234 	svcne	0x00fff234
     fbc:	000017db 	ldrdeq	r1, [r0], -fp
     fc0:	400ff080 	andmi	pc, pc, r0, lsl #1
     fc4:	1ffff480 	svcne	0x00fff480

00000fc8 <programDra>:
     fc8:	b530      	push	{r4, r5, lr}
     fca:	4b0f      	ldr	r3, [pc, #60]	; (1008 <programDra+0x40>)
     fcc:	b0af      	sub	sp, #188	; 0xbc
     fce:	7f5b      	ldrb	r3, [r3, #29]
     fd0:	2001      	movs	r0, #1
     fd2:	2b00      	cmp	r3, #0
     fd4:	d016      	beq.n	1004 <programDra+0x3c>
     fd6:	4c0d      	ldr	r4, [pc, #52]	; (100c <programDra+0x44>)
     fd8:	4b0d      	ldr	r3, [pc, #52]	; (1010 <programDra+0x48>)
     fda:	0021      	movs	r1, r4
     fdc:	22b4      	movs	r2, #180	; 0xb4
     fde:	3110      	adds	r1, #16
     fe0:	4668      	mov	r0, sp
     fe2:	932d      	str	r3, [sp, #180]	; 0xb4
     fe4:	f000 fa2c 	bl	1440 <memcpy>
     fe8:	6820      	ldr	r0, [r4, #0]
     fea:	6861      	ldr	r1, [r4, #4]
     fec:	68a2      	ldr	r2, [r4, #8]
     fee:	68e3      	ldr	r3, [r4, #12]
     ff0:	f7ff fda9 	bl	b46 <uartPutStringBlock>
     ff4:	3501      	adds	r5, #1
     ff6:	2064      	movs	r0, #100	; 0x64
     ff8:	f000 f908 	bl	120c <delay>
     ffc:	1e6b      	subs	r3, r5, #1
     ffe:	2b03      	cmp	r3, #3
    1000:	dde9      	ble.n	fd6 <programDra+0xe>
    1002:	2000      	movs	r0, #0
    1004:	b02f      	add	sp, #188	; 0xbc
    1006:	bd30      	pop	{r4, r5, pc}
    1008:	1ffff480 	svcne	0x00fff480
    100c:	1ffff234 	svcne	0x00fff234
    1010:	000017ed 	andeq	r1, r0, sp, ror #15

00001014 <draTx>:
    1014:	2280      	movs	r2, #128	; 0x80
    1016:	4b04      	ldr	r3, [pc, #16]	; (1028 <draTx+0x14>)
    1018:	0352      	lsls	r2, r2, #13
    101a:	609a      	str	r2, [r3, #8]
    101c:	2280      	movs	r2, #128	; 0x80
    101e:	4b03      	ldr	r3, [pc, #12]	; (102c <draTx+0x18>)
    1020:	0112      	lsls	r2, r2, #4
    1022:	605a      	str	r2, [r3, #4]
    1024:	4770      	bx	lr
    1026:	46c0      	nop			; (mov r8, r8)
    1028:	400ff100 	andmi	pc, pc, r0, lsl #2
    102c:	400ff080 	andmi	pc, pc, r0, lsl #1

00001030 <draRx>:
    1030:	2280      	movs	r2, #128	; 0x80
    1032:	4b04      	ldr	r3, [pc, #16]	; (1044 <draRx+0x14>)
    1034:	0352      	lsls	r2, r2, #13
    1036:	605a      	str	r2, [r3, #4]
    1038:	2280      	movs	r2, #128	; 0x80
    103a:	4b03      	ldr	r3, [pc, #12]	; (1048 <draRx+0x18>)
    103c:	0112      	lsls	r2, r2, #4
    103e:	609a      	str	r2, [r3, #8]
    1040:	4770      	bx	lr
    1042:	46c0      	nop			; (mov r8, r8)
    1044:	400ff100 	andmi	pc, pc, r0, lsl #2
    1048:	400ff080 	andmi	pc, pc, r0, lsl #1

0000104c <initGps>:
    104c:	2000      	movs	r0, #0
    104e:	4b03      	ldr	r3, [pc, #12]	; (105c <initGps+0x10>)
    1050:	6018      	str	r0, [r3, #0]
    1052:	4b03      	ldr	r3, [pc, #12]	; (1060 <initGps+0x14>)
    1054:	6018      	str	r0, [r3, #0]
    1056:	4b03      	ldr	r3, [pc, #12]	; (1064 <initGps+0x18>)
    1058:	6018      	str	r0, [r3, #0]
    105a:	4770      	bx	lr
    105c:	1ffff4a8 	svcne	0x00fff4a8
    1060:	1ffff4a4 	svcne	0x00fff4a4
    1064:	1ffff4e8 	svcne	0x00fff4e8

00001068 <ParseGPS>:
    1068:	b5f0      	push	{r4, r5, r6, r7, lr}
    106a:	4a3b      	ldr	r2, [pc, #236]	; (1158 <ParseGPS+0xf0>)
    106c:	6813      	ldr	r3, [r2, #0]
    106e:	0014      	movs	r4, r2
    1070:	2b06      	cmp	r3, #6
    1072:	dc19      	bgt.n	10a8 <ParseGPS+0x40>
    1074:	4939      	ldr	r1, [pc, #228]	; (115c <ParseGPS+0xf4>)
    1076:	5cc9      	ldrb	r1, [r1, r3]
    1078:	4281      	cmp	r1, r0
    107a:	d003      	beq.n	1084 <ParseGPS+0x1c>
    107c:	2300      	movs	r3, #0
    107e:	4a38      	ldr	r2, [pc, #224]	; (1160 <ParseGPS+0xf8>)
    1080:	6023      	str	r3, [r4, #0]
    1082:	e002      	b.n	108a <ParseGPS+0x22>
    1084:	2b06      	cmp	r3, #6
    1086:	d002      	beq.n	108e <ParseGPS+0x26>
    1088:	3301      	adds	r3, #1
    108a:	6013      	str	r3, [r2, #0]
    108c:	e062      	b.n	1154 <ParseGPS+0xec>
    108e:	292c      	cmp	r1, #44	; 0x2c
    1090:	d157      	bne.n	1142 <ParseGPS+0xda>
    1092:	2307      	movs	r3, #7
    1094:	6013      	str	r3, [r2, #0]
    1096:	2300      	movs	r3, #0
    1098:	4a31      	ldr	r2, [pc, #196]	; (1160 <ParseGPS+0xf8>)
    109a:	4932      	ldr	r1, [pc, #200]	; (1164 <ParseGPS+0xfc>)
    109c:	6013      	str	r3, [r2, #0]
    109e:	4a32      	ldr	r2, [pc, #200]	; (1168 <ParseGPS+0x100>)
    10a0:	6011      	str	r1, [r2, #0]
    10a2:	4a32      	ldr	r2, [pc, #200]	; (116c <ParseGPS+0x104>)
    10a4:	7013      	strb	r3, [r2, #0]
    10a6:	e055      	b.n	1154 <ParseGPS+0xec>
    10a8:	282c      	cmp	r0, #44	; 0x2c
    10aa:	d14a      	bne.n	1142 <ParseGPS+0xda>
    10ac:	4a2b      	ldr	r2, [pc, #172]	; (115c <ParseGPS+0xf4>)
    10ae:	1c59      	adds	r1, r3, #1
    10b0:	5c51      	ldrb	r1, [r2, r1]
    10b2:	0015      	movs	r5, r2
    10b4:	292c      	cmp	r1, #44	; 0x2c
    10b6:	d1e1      	bne.n	107c <ParseGPS+0x14>
    10b8:	3302      	adds	r3, #2
    10ba:	6023      	str	r3, [r4, #0]
    10bc:	4b2b      	ldr	r3, [pc, #172]	; (116c <ParseGPS+0x104>)
    10be:	4a28      	ldr	r2, [pc, #160]	; (1160 <ParseGPS+0xf8>)
    10c0:	7819      	ldrb	r1, [r3, #0]
    10c2:	4829      	ldr	r0, [pc, #164]	; (1168 <ParseGPS+0x100>)
    10c4:	2900      	cmp	r1, #0
    10c6:	d003      	beq.n	10d0 <ParseGPS+0x68>
    10c8:	2100      	movs	r1, #0
    10ca:	6806      	ldr	r6, [r0, #0]
    10cc:	6817      	ldr	r7, [r2, #0]
    10ce:	55f1      	strb	r1, [r6, r7]
    10d0:	2100      	movs	r1, #0
    10d2:	6011      	str	r1, [r2, #0]
    10d4:	6822      	ldr	r2, [r4, #0]
    10d6:	5caa      	ldrb	r2, [r5, r2]
    10d8:	2a63      	cmp	r2, #99	; 0x63
    10da:	d024      	beq.n	1126 <ParseGPS+0xbe>
    10dc:	d80c      	bhi.n	10f8 <ParseGPS+0x90>
    10de:	2a45      	cmp	r2, #69	; 0x45
    10e0:	d027      	beq.n	1132 <ParseGPS+0xca>
    10e2:	d803      	bhi.n	10ec <ParseGPS+0x84>
    10e4:	2a41      	cmp	r2, #65	; 0x41
    10e6:	d128      	bne.n	113a <ParseGPS+0xd2>
    10e8:	4a21      	ldr	r2, [pc, #132]	; (1170 <ParseGPS+0x108>)
    10ea:	e019      	b.n	1120 <ParseGPS+0xb8>
    10ec:	2a4f      	cmp	r2, #79	; 0x4f
    10ee:	d016      	beq.n	111e <ParseGPS+0xb6>
    10f0:	2a61      	cmp	r2, #97	; 0x61
    10f2:	d122      	bne.n	113a <ParseGPS+0xd2>
    10f4:	4a1f      	ldr	r2, [pc, #124]	; (1174 <ParseGPS+0x10c>)
    10f6:	e019      	b.n	112c <ParseGPS+0xc4>
    10f8:	2a6f      	cmp	r2, #111	; 0x6f
    10fa:	d00e      	beq.n	111a <ParseGPS+0xb2>
    10fc:	d805      	bhi.n	110a <ParseGPS+0xa2>
    10fe:	2a64      	cmp	r2, #100	; 0x64
    1100:	d013      	beq.n	112a <ParseGPS+0xc2>
    1102:	2a6b      	cmp	r2, #107	; 0x6b
    1104:	d119      	bne.n	113a <ParseGPS+0xd2>
    1106:	4a1c      	ldr	r2, [pc, #112]	; (1178 <ParseGPS+0x110>)
    1108:	e010      	b.n	112c <ParseGPS+0xc4>
    110a:	2a73      	cmp	r2, #115	; 0x73
    110c:	d003      	beq.n	1116 <ParseGPS+0xae>
    110e:	2a74      	cmp	r2, #116	; 0x74
    1110:	d113      	bne.n	113a <ParseGPS+0xd2>
    1112:	4a14      	ldr	r2, [pc, #80]	; (1164 <ParseGPS+0xfc>)
    1114:	e00a      	b.n	112c <ParseGPS+0xc4>
    1116:	4a19      	ldr	r2, [pc, #100]	; (117c <ParseGPS+0x114>)
    1118:	e002      	b.n	1120 <ParseGPS+0xb8>
    111a:	4a19      	ldr	r2, [pc, #100]	; (1180 <ParseGPS+0x118>)
    111c:	e006      	b.n	112c <ParseGPS+0xc4>
    111e:	4a19      	ldr	r2, [pc, #100]	; (1184 <ParseGPS+0x11c>)
    1120:	6002      	str	r2, [r0, #0]
    1122:	7019      	strb	r1, [r3, #0]
    1124:	e016      	b.n	1154 <ParseGPS+0xec>
    1126:	4a18      	ldr	r2, [pc, #96]	; (1188 <ParseGPS+0x120>)
    1128:	e000      	b.n	112c <ParseGPS+0xc4>
    112a:	4a18      	ldr	r2, [pc, #96]	; (118c <ParseGPS+0x124>)
    112c:	6002      	str	r2, [r0, #0]
    112e:	2201      	movs	r2, #1
    1130:	e005      	b.n	113e <ParseGPS+0xd6>
    1132:	6021      	str	r1, [r4, #0]
    1134:	2101      	movs	r1, #1
    1136:	4a16      	ldr	r2, [pc, #88]	; (1190 <ParseGPS+0x128>)
    1138:	6011      	str	r1, [r2, #0]
    113a:	2200      	movs	r2, #0
    113c:	6002      	str	r2, [r0, #0]
    113e:	701a      	strb	r2, [r3, #0]
    1140:	e008      	b.n	1154 <ParseGPS+0xec>
    1142:	4b09      	ldr	r3, [pc, #36]	; (1168 <ParseGPS+0x100>)
    1144:	681a      	ldr	r2, [r3, #0]
    1146:	2a00      	cmp	r2, #0
    1148:	d004      	beq.n	1154 <ParseGPS+0xec>
    114a:	4905      	ldr	r1, [pc, #20]	; (1160 <ParseGPS+0xf8>)
    114c:	680b      	ldr	r3, [r1, #0]
    114e:	1c5c      	adds	r4, r3, #1
    1150:	600c      	str	r4, [r1, #0]
    1152:	54d0      	strb	r0, [r2, r3]
    1154:	bdf0      	pop	{r4, r5, r6, r7, pc}
    1156:	46c0      	nop			; (mov r8, r8)
    1158:	1ffff4a8 	svcne	0x00fff4a8
    115c:	1ffff080 	svcne	0x00fff080
    1160:	1ffff4a4 	svcne	0x00fff4a4
    1164:	1ffff4ac 	svcne	0x00fff4ac
    1168:	1ffff4e8 	svcne	0x00fff4e8
    116c:	1ffff4a0 	svcne	0x00fff4a0
    1170:	1ffff4c3 	svcne	0x00fff4c3
    1174:	1ffff4b8 	svcne	0x00fff4b8
    1178:	1ffff4d1 	svcne	0x00fff4d1
    117c:	1ffff4b7 	svcne	0x00fff4b7
    1180:	1ffff4c4 	svcne	0x00fff4c4
    1184:	1ffff4d0 	svcne	0x00fff4d0
    1188:	1ffff4d7 	svcne	0x00fff4d7
    118c:	1ffff4dd 	svcne	0x00fff4dd
    1190:	1ffff4e4 	svcne	0x00fff4e4

00001194 <getPos>:
    1194:	b5f8      	push	{r3, r4, r5, r6, r7, lr}
    1196:	2380      	movs	r3, #128	; 0x80
    1198:	2600      	movs	r6, #0
    119a:	4c12      	ldr	r4, [pc, #72]	; (11e4 <getPos+0x50>)
    119c:	00db      	lsls	r3, r3, #3
    119e:	4f12      	ldr	r7, [pc, #72]	; (11e8 <getPos+0x54>)
    11a0:	60a3      	str	r3, [r4, #8]
    11a2:	603e      	str	r6, [r7, #0]
    11a4:	f7ff fcac 	bl	b00 <uart1EnableInterrupts>
    11a8:	20fa      	movs	r0, #250	; 0xfa
    11aa:	00c0      	lsls	r0, r0, #3
    11ac:	f000 f82e 	bl	120c <delay>
    11b0:	683b      	ldr	r3, [r7, #0]
    11b2:	490e      	ldr	r1, [pc, #56]	; (11ec <getPos+0x58>)
    11b4:	425a      	negs	r2, r3
    11b6:	4153      	adcs	r3, r2
    11b8:	b2db      	uxtb	r3, r3
    11ba:	3501      	adds	r5, #1
    11bc:	1e68      	subs	r0, r5, #1
    11be:	0fc2      	lsrs	r2, r0, #31
    11c0:	4281      	cmp	r1, r0
    11c2:	4172      	adcs	r2, r6
    11c4:	b2d2      	uxtb	r2, r2
    11c6:	2a00      	cmp	r2, #0
    11c8:	d001      	beq.n	11ce <getPos+0x3a>
    11ca:	2b00      	cmp	r3, #0
    11cc:	d1f5      	bne.n	11ba <getPos+0x26>
    11ce:	4b07      	ldr	r3, [pc, #28]	; (11ec <getPos+0x58>)
    11d0:	2001      	movs	r0, #1
    11d2:	429d      	cmp	r5, r3
    11d4:	dc05      	bgt.n	11e2 <getPos+0x4e>
    11d6:	f7ff fc9b 	bl	b10 <uart1DisableInterrupts>
    11da:	2380      	movs	r3, #128	; 0x80
    11dc:	2000      	movs	r0, #0
    11de:	00db      	lsls	r3, r3, #3
    11e0:	6063      	str	r3, [r4, #4]
    11e2:	bdf8      	pop	{r3, r4, r5, r6, r7, pc}
    11e4:	400ff080 	andmi	pc, pc, r0, lsl #1
    11e8:	1ffff4e4 	svcne	0x00fff4e4
    11ec:	000f423f 	andeq	r4, pc, pc, lsr r2	; <UNPREDICTABLE>

000011f0 <testParse>:
    11f0:	b510      	push	{r4, lr}
    11f2:	2400      	movs	r4, #0
    11f4:	4b04      	ldr	r3, [pc, #16]	; (1208 <testParse+0x18>)
    11f6:	5ce0      	ldrb	r0, [r4, r3]
    11f8:	2800      	cmp	r0, #0
    11fa:	d003      	beq.n	1204 <testParse+0x14>
    11fc:	3401      	adds	r4, #1
    11fe:	f7ff ff33 	bl	1068 <ParseGPS>
    1202:	e7f7      	b.n	11f4 <testParse+0x4>
    1204:	bd10      	pop	{r4, pc}
    1206:	46c0      	nop			; (mov r8, r8)
    1208:	1ffff0a2 	svcne	0x00fff0a2

0000120c <delay>:
    120c:	2201      	movs	r2, #1
    120e:	b510      	push	{r4, lr}
    1210:	4909      	ldr	r1, [pc, #36]	; (1238 <delay+0x2c>)
    1212:	4c0a      	ldr	r4, [pc, #40]	; (123c <delay+0x30>)
    1214:	5863      	ldr	r3, [r4, r1]
    1216:	4313      	orrs	r3, r2
    1218:	5063      	str	r3, [r4, r1]
    121a:	2100      	movs	r1, #0
    121c:	4b08      	ldr	r3, [pc, #32]	; (1240 <delay+0x34>)
    121e:	6019      	str	r1, [r3, #0]
    1220:	3105      	adds	r1, #5
    1222:	6098      	str	r0, [r3, #8]
    1224:	6059      	str	r1, [r3, #4]
    1226:	601a      	str	r2, [r3, #0]
    1228:	327f      	adds	r2, #127	; 0x7f
    122a:	6819      	ldr	r1, [r3, #0]
    122c:	4211      	tst	r1, r2
    122e:	d0fc      	beq.n	122a <delay+0x1e>
    1230:	2200      	movs	r2, #0
    1232:	4b03      	ldr	r3, [pc, #12]	; (1240 <delay+0x34>)
    1234:	601a      	str	r2, [r3, #0]
    1236:	bd10      	pop	{r4, pc}
    1238:	00001038 	andeq	r1, r0, r8, lsr r0
    123c:	40047000 	andmi	r7, r4, r0
    1240:	40040000 	andmi	r0, r4, r0

00001244 <i2c_init>:
    1244:	b510      	push	{r4, lr}
    1246:	2480      	movs	r4, #128	; 0x80
    1248:	4b0a      	ldr	r3, [pc, #40]	; (1274 <i2c_init+0x30>)
    124a:	490b      	ldr	r1, [pc, #44]	; (1278 <i2c_init+0x34>)
    124c:	01a4      	lsls	r4, r4, #6
    124e:	585a      	ldr	r2, [r3, r1]
    1250:	4322      	orrs	r2, r4
    1252:	2440      	movs	r4, #64	; 0x40
    1254:	505a      	str	r2, [r3, r1]
    1256:	4909      	ldr	r1, [pc, #36]	; (127c <i2c_init+0x38>)
    1258:	585a      	ldr	r2, [r3, r1]
    125a:	4322      	orrs	r2, r4
    125c:	505a      	str	r2, [r3, r1]
    125e:	22a0      	movs	r2, #160	; 0xa0
    1260:	4b07      	ldr	r3, [pc, #28]	; (1280 <i2c_init+0x3c>)
    1262:	00d2      	lsls	r2, r2, #3
    1264:	661a      	str	r2, [r3, #96]	; 0x60
    1266:	665a      	str	r2, [r3, #100]	; 0x64
    1268:	2314      	movs	r3, #20
    126a:	7043      	strb	r3, [r0, #1]
    126c:	336c      	adds	r3, #108	; 0x6c
    126e:	7083      	strb	r3, [r0, #2]
    1270:	bd10      	pop	{r4, pc}
    1272:	46c0      	nop			; (mov r8, r8)
    1274:	40047000 	andmi	r7, r4, r0
    1278:	00001038 	andeq	r1, r0, r8, lsr r0
    127c:	00001034 	andeq	r1, r0, r4, lsr r0
    1280:	4004d000 	andmi	sp, r4, r0

00001284 <dacInit>:
    1284:	2080      	movs	r0, #128	; 0x80
    1286:	4b0b      	ldr	r3, [pc, #44]	; (12b4 <dacInit+0x30>)
    1288:	490b      	ldr	r1, [pc, #44]	; (12b8 <dacInit+0x34>)
    128a:	0600      	lsls	r0, r0, #24
    128c:	585a      	ldr	r2, [r3, r1]
    128e:	4302      	orrs	r2, r0
    1290:	2080      	movs	r0, #128	; 0x80
    1292:	505a      	str	r2, [r3, r1]
    1294:	4909      	ldr	r1, [pc, #36]	; (12bc <dacInit+0x38>)
    1296:	0180      	lsls	r0, r0, #6
    1298:	585a      	ldr	r2, [r3, r1]
    129a:	4302      	orrs	r2, r0
    129c:	505a      	str	r2, [r3, r1]
    129e:	2200      	movs	r2, #0
    12a0:	4b07      	ldr	r3, [pc, #28]	; (12c0 <dacInit+0x3c>)
    12a2:	679a      	str	r2, [r3, #120]	; 0x78
    12a4:	4b07      	ldr	r3, [pc, #28]	; (12c4 <dacInit+0x40>)
    12a6:	705a      	strb	r2, [r3, #1]
    12a8:	701a      	strb	r2, [r3, #0]
    12aa:	3302      	adds	r3, #2
    12ac:	32a0      	adds	r2, #160	; 0xa0
    12ae:	77da      	strb	r2, [r3, #31]
    12b0:	4770      	bx	lr
    12b2:	46c0      	nop			; (mov r8, r8)
    12b4:	40047000 	andmi	r7, r4, r0
    12b8:	0000103c 	andeq	r1, r0, ip, lsr r0
    12bc:	00001038 	andeq	r1, r0, r8, lsr r0
    12c0:	4004d000 	andmi	sp, r4, r0
    12c4:	4003f000 	andmi	pc, r3, r0

000012c8 <dacSet>:
    12c8:	b2c2      	uxtb	r2, r0
    12ca:	4b03      	ldr	r3, [pc, #12]	; (12d8 <dacSet+0x10>)
    12cc:	0500      	lsls	r0, r0, #20
    12ce:	0f00      	lsrs	r0, r0, #28
    12d0:	701a      	strb	r2, [r3, #0]
    12d2:	7058      	strb	r0, [r3, #1]
    12d4:	4770      	bx	lr
    12d6:	46c0      	nop			; (mov r8, r8)
    12d8:	4003f000 	andmi	pc, r3, r0

000012dc <astringCpy>:
    12dc:	2300      	movs	r3, #0
    12de:	5cca      	ldrb	r2, [r1, r3]
    12e0:	54c2      	strb	r2, [r0, r3]
    12e2:	3301      	adds	r3, #1
    12e4:	1e5a      	subs	r2, r3, #1
    12e6:	5c8a      	ldrb	r2, [r1, r2]
    12e8:	2a00      	cmp	r2, #0
    12ea:	d1f8      	bne.n	12de <astringCpy+0x2>
    12ec:	0018      	movs	r0, r3
    12ee:	4770      	bx	lr

000012f0 <sendPos>:
    12f0:	b570      	push	{r4, r5, r6, lr}
    12f2:	b09a      	sub	sp, #104	; 0x68
    12f4:	ae01      	add	r6, sp, #4
    12f6:	4917      	ldr	r1, [pc, #92]	; (1354 <sendPos+0x64>)
    12f8:	0030      	movs	r0, r6
    12fa:	f7ff ffef 	bl	12dc <astringCpy>
    12fe:	1e45      	subs	r5, r0, #1
    1300:	1970      	adds	r0, r6, r5
    1302:	4915      	ldr	r1, [pc, #84]	; (1358 <sendPos+0x68>)
    1304:	f7ff ffea 	bl	12dc <astringCpy>
    1308:	2368      	movs	r3, #104	; 0x68
    130a:	3801      	subs	r0, #1
    130c:	182d      	adds	r5, r5, r0
    130e:	1830      	adds	r0, r6, r0
    1310:	7003      	strb	r3, [r0, #0]
    1312:	4912      	ldr	r1, [pc, #72]	; (135c <sendPos+0x6c>)
    1314:	3001      	adds	r0, #1
    1316:	f7ff ffe1 	bl	12dc <astringCpy>
    131a:	224e      	movs	r2, #78	; 0x4e
    131c:	1e43      	subs	r3, r0, #1
    131e:	18f0      	adds	r0, r6, r3
    1320:	7002      	strb	r2, [r0, #0]
    1322:	18ec      	adds	r4, r5, r3
    1324:	490e      	ldr	r1, [pc, #56]	; (1360 <sendPos+0x70>)
    1326:	3001      	adds	r0, #1
    1328:	191c      	adds	r4, r3, r4
    132a:	f7ff ffd7 	bl	12dc <astringCpy>
    132e:	2357      	movs	r3, #87	; 0x57
    1330:	3801      	subs	r0, #1
    1332:	1821      	adds	r1, r4, r0
    1334:	5433      	strb	r3, [r6, r0]
    1336:	3103      	adds	r1, #3
    1338:	0030      	movs	r0, r6
    133a:	f7ff f9b5 	bl	6a8 <ax25IntSend>
    133e:	2096      	movs	r0, #150	; 0x96
    1340:	0040      	lsls	r0, r0, #1
    1342:	f7ff ff63 	bl	120c <delay>
    1346:	213d      	movs	r1, #61	; 0x3d
    1348:	4806      	ldr	r0, [pc, #24]	; (1364 <sendPos+0x74>)
    134a:	f7ff f9ad 	bl	6a8 <ax25IntSend>
    134e:	b01a      	add	sp, #104	; 0x68
    1350:	bd70      	pop	{r4, r5, r6, pc}
    1352:	46c0      	nop			; (mov r8, r8)
    1354:	0000181e 	andeq	r1, r0, lr, lsl r8
    1358:	1ffff4ac 	svcne	0x00fff4ac
    135c:	1ffff4b8 	svcne	0x00fff4b8
    1360:	1ffff4c4 	svcne	0x00fff4c4
    1364:	00001838 	andeq	r1, r0, r8, lsr r8

00001368 <atexit>:
    1368:	2300      	movs	r3, #0
    136a:	b510      	push	{r4, lr}
    136c:	0001      	movs	r1, r0
    136e:	001a      	movs	r2, r3
    1370:	0018      	movs	r0, r3
    1372:	f000 f925 	bl	15c0 <__register_exitproc>
    1376:	bd10      	pop	{r4, pc}

00001378 <exit>:
    1378:	4b08      	ldr	r3, [pc, #32]	; (139c <exit+0x24>)
    137a:	b510      	push	{r4, lr}
    137c:	0004      	movs	r4, r0
    137e:	2b00      	cmp	r3, #0
    1380:	d002      	beq.n	1388 <exit+0x10>
    1382:	2100      	movs	r1, #0
    1384:	f000 f986 	bl	1694 <__call_exitprocs>
    1388:	4b05      	ldr	r3, [pc, #20]	; (13a0 <exit+0x28>)
    138a:	6818      	ldr	r0, [r3, #0]
    138c:	6a83      	ldr	r3, [r0, #40]	; 0x28
    138e:	2b00      	cmp	r3, #0
    1390:	d000      	beq.n	1394 <exit+0x1c>
    1392:	4798      	blx	r3
    1394:	0020      	movs	r0, r4
    1396:	f000 fa01 	bl	179c <_exit>
    139a:	46c0      	nop			; (mov r8, r8)
    139c:	00001695 	muleq	r0, r5, r6
    13a0:	00001874 	andeq	r1, r0, r4, ror r8

000013a4 <__libc_fini_array>:
    13a4:	4b07      	ldr	r3, [pc, #28]	; (13c4 <__libc_fini_array+0x20>)
    13a6:	b570      	push	{r4, r5, r6, lr}
    13a8:	001d      	movs	r5, r3
    13aa:	4c07      	ldr	r4, [pc, #28]	; (13c8 <__libc_fini_array+0x24>)
    13ac:	1ae4      	subs	r4, r4, r3
    13ae:	10a4      	asrs	r4, r4, #2
    13b0:	2c00      	cmp	r4, #0
    13b2:	d004      	beq.n	13be <__libc_fini_array+0x1a>
    13b4:	3c01      	subs	r4, #1
    13b6:	00a3      	lsls	r3, r4, #2
    13b8:	58eb      	ldr	r3, [r5, r3]
    13ba:	4798      	blx	r3
    13bc:	e7f8      	b.n	13b0 <__libc_fini_array+0xc>
    13be:	f000 fa61 	bl	1884 <_fini>
    13c2:	bd70      	pop	{r4, r5, r6, pc}
    13c4:	0000189c 	muleq	r0, ip, r8
    13c8:	000018a0 	andeq	r1, r0, r0, lsr #17

000013cc <__libc_init_array>:
    13cc:	4b0e      	ldr	r3, [pc, #56]	; (1408 <__libc_init_array+0x3c>)
    13ce:	b570      	push	{r4, r5, r6, lr}
    13d0:	2500      	movs	r5, #0
    13d2:	001e      	movs	r6, r3
    13d4:	4c0d      	ldr	r4, [pc, #52]	; (140c <__libc_init_array+0x40>)
    13d6:	1ae4      	subs	r4, r4, r3
    13d8:	10a4      	asrs	r4, r4, #2
    13da:	42a5      	cmp	r5, r4
    13dc:	d004      	beq.n	13e8 <__libc_init_array+0x1c>
    13de:	00ab      	lsls	r3, r5, #2
    13e0:	58f3      	ldr	r3, [r6, r3]
    13e2:	4798      	blx	r3
    13e4:	3501      	adds	r5, #1
    13e6:	e7f8      	b.n	13da <__libc_init_array+0xe>
    13e8:	f000 fa46 	bl	1878 <_init>
    13ec:	4b08      	ldr	r3, [pc, #32]	; (1410 <__libc_init_array+0x44>)
    13ee:	2500      	movs	r5, #0
    13f0:	001e      	movs	r6, r3
    13f2:	4c08      	ldr	r4, [pc, #32]	; (1414 <__libc_init_array+0x48>)
    13f4:	1ae4      	subs	r4, r4, r3
    13f6:	10a4      	asrs	r4, r4, #2
    13f8:	42a5      	cmp	r5, r4
    13fa:	d004      	beq.n	1406 <__libc_init_array+0x3a>
    13fc:	00ab      	lsls	r3, r5, #2
    13fe:	58f3      	ldr	r3, [r6, r3]
    1400:	4798      	blx	r3
    1402:	3501      	adds	r5, #1
    1404:	e7f8      	b.n	13f8 <__libc_init_array+0x2c>
    1406:	bd70      	pop	{r4, r5, r6, pc}
    1408:	00001898 	muleq	r0, r8, r8
    140c:	00001898 	muleq	r0, r8, r8
    1410:	00001898 	muleq	r0, r8, r8
    1414:	0000189c 	muleq	r0, ip, r8

00001418 <malloc>:
    1418:	b510      	push	{r4, lr}
    141a:	4b03      	ldr	r3, [pc, #12]	; (1428 <malloc+0x10>)
    141c:	0001      	movs	r1, r0
    141e:	6818      	ldr	r0, [r3, #0]
    1420:	f000 f866 	bl	14f0 <_malloc_r>
    1424:	bd10      	pop	{r4, pc}
    1426:	46c0      	nop			; (mov r8, r8)
    1428:	1ffff148 	svcne	0x00fff148

0000142c <free>:
    142c:	b510      	push	{r4, lr}
    142e:	4b03      	ldr	r3, [pc, #12]	; (143c <free+0x10>)
    1430:	0001      	movs	r1, r0
    1432:	6818      	ldr	r0, [r3, #0]
    1434:	f000 f816 	bl	1464 <_free_r>
    1438:	bd10      	pop	{r4, pc}
    143a:	46c0      	nop			; (mov r8, r8)
    143c:	1ffff148 	svcne	0x00fff148

00001440 <memcpy>:
    1440:	2300      	movs	r3, #0
    1442:	b510      	push	{r4, lr}
    1444:	429a      	cmp	r2, r3
    1446:	d003      	beq.n	1450 <memcpy+0x10>
    1448:	5ccc      	ldrb	r4, [r1, r3]
    144a:	54c4      	strb	r4, [r0, r3]
    144c:	3301      	adds	r3, #1
    144e:	e7f9      	b.n	1444 <memcpy+0x4>
    1450:	bd10      	pop	{r4, pc}

00001452 <memset>:
    1452:	0003      	movs	r3, r0
    1454:	1882      	adds	r2, r0, r2
    1456:	4293      	cmp	r3, r2
    1458:	d002      	beq.n	1460 <memset+0xe>
    145a:	7019      	strb	r1, [r3, #0]
    145c:	3301      	adds	r3, #1
    145e:	e7fa      	b.n	1456 <memset+0x4>
    1460:	4770      	bx	lr
	...

00001464 <_free_r>:
    1464:	b530      	push	{r4, r5, lr}
    1466:	2900      	cmp	r1, #0
    1468:	d03e      	beq.n	14e8 <_free_r+0x84>
    146a:	3904      	subs	r1, #4
    146c:	680b      	ldr	r3, [r1, #0]
    146e:	2b00      	cmp	r3, #0
    1470:	da00      	bge.n	1474 <_free_r+0x10>
    1472:	18c9      	adds	r1, r1, r3
    1474:	4a1d      	ldr	r2, [pc, #116]	; (14ec <_free_r+0x88>)
    1476:	6813      	ldr	r3, [r2, #0]
    1478:	0014      	movs	r4, r2
    147a:	2b00      	cmp	r3, #0
    147c:	d102      	bne.n	1484 <_free_r+0x20>
    147e:	604b      	str	r3, [r1, #4]
    1480:	6011      	str	r1, [r2, #0]
    1482:	e031      	b.n	14e8 <_free_r+0x84>
    1484:	428b      	cmp	r3, r1
    1486:	d90d      	bls.n	14a4 <_free_r+0x40>
    1488:	680a      	ldr	r2, [r1, #0]
    148a:	1888      	adds	r0, r1, r2
    148c:	4283      	cmp	r3, r0
    148e:	d103      	bne.n	1498 <_free_r+0x34>
    1490:	6818      	ldr	r0, [r3, #0]
    1492:	685b      	ldr	r3, [r3, #4]
    1494:	1882      	adds	r2, r0, r2
    1496:	600a      	str	r2, [r1, #0]
    1498:	604b      	str	r3, [r1, #4]
    149a:	6021      	str	r1, [r4, #0]
    149c:	e024      	b.n	14e8 <_free_r+0x84>
    149e:	428a      	cmp	r2, r1
    14a0:	d803      	bhi.n	14aa <_free_r+0x46>
    14a2:	0013      	movs	r3, r2
    14a4:	685a      	ldr	r2, [r3, #4]
    14a6:	2a00      	cmp	r2, #0
    14a8:	d1f9      	bne.n	149e <_free_r+0x3a>
    14aa:	681d      	ldr	r5, [r3, #0]
    14ac:	195c      	adds	r4, r3, r5
    14ae:	428c      	cmp	r4, r1
    14b0:	d10b      	bne.n	14ca <_free_r+0x66>
    14b2:	6809      	ldr	r1, [r1, #0]
    14b4:	1869      	adds	r1, r5, r1
    14b6:	1858      	adds	r0, r3, r1
    14b8:	6019      	str	r1, [r3, #0]
    14ba:	4282      	cmp	r2, r0
    14bc:	d114      	bne.n	14e8 <_free_r+0x84>
    14be:	6810      	ldr	r0, [r2, #0]
    14c0:	6852      	ldr	r2, [r2, #4]
    14c2:	1841      	adds	r1, r0, r1
    14c4:	6019      	str	r1, [r3, #0]
    14c6:	605a      	str	r2, [r3, #4]
    14c8:	e00e      	b.n	14e8 <_free_r+0x84>
    14ca:	428c      	cmp	r4, r1
    14cc:	d902      	bls.n	14d4 <_free_r+0x70>
    14ce:	230c      	movs	r3, #12
    14d0:	6003      	str	r3, [r0, #0]
    14d2:	e009      	b.n	14e8 <_free_r+0x84>
    14d4:	6808      	ldr	r0, [r1, #0]
    14d6:	180c      	adds	r4, r1, r0
    14d8:	42a2      	cmp	r2, r4
    14da:	d103      	bne.n	14e4 <_free_r+0x80>
    14dc:	6814      	ldr	r4, [r2, #0]
    14de:	6852      	ldr	r2, [r2, #4]
    14e0:	1820      	adds	r0, r4, r0
    14e2:	6008      	str	r0, [r1, #0]
    14e4:	604a      	str	r2, [r1, #4]
    14e6:	6059      	str	r1, [r3, #4]
    14e8:	bd30      	pop	{r4, r5, pc}
    14ea:	46c0      	nop			; (mov r8, r8)
    14ec:	1ffff170 	svcne	0x00fff170

000014f0 <_malloc_r>:
    14f0:	2303      	movs	r3, #3
    14f2:	b570      	push	{r4, r5, r6, lr}
    14f4:	1ccd      	adds	r5, r1, #3
    14f6:	439d      	bics	r5, r3
    14f8:	3508      	adds	r5, #8
    14fa:	0006      	movs	r6, r0
    14fc:	2d0c      	cmp	r5, #12
    14fe:	d201      	bcs.n	1504 <_malloc_r+0x14>
    1500:	250c      	movs	r5, #12
    1502:	e005      	b.n	1510 <_malloc_r+0x20>
    1504:	2d00      	cmp	r5, #0
    1506:	da03      	bge.n	1510 <_malloc_r+0x20>
    1508:	230c      	movs	r3, #12
    150a:	2000      	movs	r0, #0
    150c:	6033      	str	r3, [r6, #0]
    150e:	e040      	b.n	1592 <_malloc_r+0xa2>
    1510:	42a9      	cmp	r1, r5
    1512:	d8f9      	bhi.n	1508 <_malloc_r+0x18>
    1514:	4b1f      	ldr	r3, [pc, #124]	; (1594 <_malloc_r+0xa4>)
    1516:	681c      	ldr	r4, [r3, #0]
    1518:	001a      	movs	r2, r3
    151a:	0021      	movs	r1, r4
    151c:	2900      	cmp	r1, #0
    151e:	d013      	beq.n	1548 <_malloc_r+0x58>
    1520:	680b      	ldr	r3, [r1, #0]
    1522:	1b5b      	subs	r3, r3, r5
    1524:	d40d      	bmi.n	1542 <_malloc_r+0x52>
    1526:	2b0b      	cmp	r3, #11
    1528:	d902      	bls.n	1530 <_malloc_r+0x40>
    152a:	600b      	str	r3, [r1, #0]
    152c:	18cc      	adds	r4, r1, r3
    152e:	e01e      	b.n	156e <_malloc_r+0x7e>
    1530:	428c      	cmp	r4, r1
    1532:	d102      	bne.n	153a <_malloc_r+0x4a>
    1534:	6863      	ldr	r3, [r4, #4]
    1536:	6013      	str	r3, [r2, #0]
    1538:	e01a      	b.n	1570 <_malloc_r+0x80>
    153a:	684b      	ldr	r3, [r1, #4]
    153c:	6063      	str	r3, [r4, #4]
    153e:	000c      	movs	r4, r1
    1540:	e016      	b.n	1570 <_malloc_r+0x80>
    1542:	000c      	movs	r4, r1
    1544:	6849      	ldr	r1, [r1, #4]
    1546:	e7e9      	b.n	151c <_malloc_r+0x2c>
    1548:	4c13      	ldr	r4, [pc, #76]	; (1598 <_malloc_r+0xa8>)
    154a:	6823      	ldr	r3, [r4, #0]
    154c:	2b00      	cmp	r3, #0
    154e:	d103      	bne.n	1558 <_malloc_r+0x68>
    1550:	0030      	movs	r0, r6
    1552:	f000 f823 	bl	159c <_sbrk_r>
    1556:	6020      	str	r0, [r4, #0]
    1558:	0029      	movs	r1, r5
    155a:	0030      	movs	r0, r6
    155c:	f000 f81e 	bl	159c <_sbrk_r>
    1560:	1c43      	adds	r3, r0, #1
    1562:	d0d1      	beq.n	1508 <_malloc_r+0x18>
    1564:	2303      	movs	r3, #3
    1566:	1cc4      	adds	r4, r0, #3
    1568:	439c      	bics	r4, r3
    156a:	42a0      	cmp	r0, r4
    156c:	d10a      	bne.n	1584 <_malloc_r+0x94>
    156e:	6025      	str	r5, [r4, #0]
    1570:	0020      	movs	r0, r4
    1572:	2207      	movs	r2, #7
    1574:	300b      	adds	r0, #11
    1576:	1d23      	adds	r3, r4, #4
    1578:	4390      	bics	r0, r2
    157a:	1ac3      	subs	r3, r0, r3
    157c:	d009      	beq.n	1592 <_malloc_r+0xa2>
    157e:	425a      	negs	r2, r3
    1580:	50e2      	str	r2, [r4, r3]
    1582:	e006      	b.n	1592 <_malloc_r+0xa2>
    1584:	1a21      	subs	r1, r4, r0
    1586:	0030      	movs	r0, r6
    1588:	f000 f808 	bl	159c <_sbrk_r>
    158c:	1c43      	adds	r3, r0, #1
    158e:	d1ee      	bne.n	156e <_malloc_r+0x7e>
    1590:	e7ba      	b.n	1508 <_malloc_r+0x18>
    1592:	bd70      	pop	{r4, r5, r6, pc}
    1594:	1ffff170 	svcne	0x00fff170
    1598:	1ffff16c 	svcne	0x00fff16c

0000159c <_sbrk_r>:
    159c:	2300      	movs	r3, #0
    159e:	b570      	push	{r4, r5, r6, lr}
    15a0:	4c06      	ldr	r4, [pc, #24]	; (15bc <_sbrk_r+0x20>)
    15a2:	0005      	movs	r5, r0
    15a4:	0008      	movs	r0, r1
    15a6:	6023      	str	r3, [r4, #0]
    15a8:	f000 f8ea 	bl	1780 <_sbrk>
    15ac:	1c43      	adds	r3, r0, #1
    15ae:	d103      	bne.n	15b8 <_sbrk_r+0x1c>
    15b0:	6823      	ldr	r3, [r4, #0]
    15b2:	2b00      	cmp	r3, #0
    15b4:	d000      	beq.n	15b8 <_sbrk_r+0x1c>
    15b6:	602b      	str	r3, [r5, #0]
    15b8:	bd70      	pop	{r4, r5, r6, pc}
    15ba:	46c0      	nop			; (mov r8, r8)
    15bc:	1ffff4ec 	svcne	0x00fff4ec

000015c0 <__register_exitproc>:
    15c0:	b5f0      	push	{r4, r5, r6, r7, lr}
    15c2:	4d30      	ldr	r5, [pc, #192]	; (1684 <__register_exitproc+0xc4>)
    15c4:	b085      	sub	sp, #20
    15c6:	682c      	ldr	r4, [r5, #0]
    15c8:	0006      	movs	r6, r0
    15ca:	9101      	str	r1, [sp, #4]
    15cc:	0017      	movs	r7, r2
    15ce:	9302      	str	r3, [sp, #8]
    15d0:	2c00      	cmp	r4, #0
    15d2:	d10a      	bne.n	15ea <__register_exitproc+0x2a>
    15d4:	4b2c      	ldr	r3, [pc, #176]	; (1688 <__register_exitproc+0xc8>)
    15d6:	4a2d      	ldr	r2, [pc, #180]	; (168c <__register_exitproc+0xcc>)
    15d8:	602b      	str	r3, [r5, #0]
    15da:	001c      	movs	r4, r3
    15dc:	2a00      	cmp	r2, #0
    15de:	d004      	beq.n	15ea <__register_exitproc+0x2a>
    15e0:	0019      	movs	r1, r3
    15e2:	6812      	ldr	r2, [r2, #0]
    15e4:	3188      	adds	r1, #136	; 0x88
    15e6:	9203      	str	r2, [sp, #12]
    15e8:	600a      	str	r2, [r1, #0]
    15ea:	6863      	ldr	r3, [r4, #4]
    15ec:	2b1f      	cmp	r3, #31
    15ee:	dd15      	ble.n	161c <__register_exitproc+0x5c>
    15f0:	4b27      	ldr	r3, [pc, #156]	; (1690 <__register_exitproc+0xd0>)
    15f2:	2b00      	cmp	r3, #0
    15f4:	d102      	bne.n	15fc <__register_exitproc+0x3c>
    15f6:	2001      	movs	r0, #1
    15f8:	4240      	negs	r0, r0
    15fa:	e040      	b.n	167e <__register_exitproc+0xbe>
    15fc:	208c      	movs	r0, #140	; 0x8c
    15fe:	f7ff ff0b 	bl	1418 <malloc>
    1602:	1e04      	subs	r4, r0, #0
    1604:	d0f7      	beq.n	15f6 <__register_exitproc+0x36>
    1606:	682a      	ldr	r2, [r5, #0]
    1608:	2300      	movs	r3, #0
    160a:	6002      	str	r2, [r0, #0]
    160c:	0002      	movs	r2, r0
    160e:	3288      	adds	r2, #136	; 0x88
    1610:	6043      	str	r3, [r0, #4]
    1612:	6028      	str	r0, [r5, #0]
    1614:	6013      	str	r3, [r2, #0]
    1616:	429e      	cmp	r6, r3
    1618:	d029      	beq.n	166e <__register_exitproc+0xae>
    161a:	e009      	b.n	1630 <__register_exitproc+0x70>
    161c:	2e00      	cmp	r6, #0
    161e:	d026      	beq.n	166e <__register_exitproc+0xae>
    1620:	0023      	movs	r3, r4
    1622:	3388      	adds	r3, #136	; 0x88
    1624:	6818      	ldr	r0, [r3, #0]
    1626:	2800      	cmp	r0, #0
    1628:	d110      	bne.n	164c <__register_exitproc+0x8c>
    162a:	4b19      	ldr	r3, [pc, #100]	; (1690 <__register_exitproc+0xd0>)
    162c:	2b00      	cmp	r3, #0
    162e:	d0e2      	beq.n	15f6 <__register_exitproc+0x36>
    1630:	2084      	movs	r0, #132	; 0x84
    1632:	0040      	lsls	r0, r0, #1
    1634:	f7ff fef0 	bl	1418 <malloc>
    1638:	2800      	cmp	r0, #0
    163a:	d0dc      	beq.n	15f6 <__register_exitproc+0x36>
    163c:	0003      	movs	r3, r0
    163e:	2200      	movs	r2, #0
    1640:	33fc      	adds	r3, #252	; 0xfc
    1642:	605a      	str	r2, [r3, #4]
    1644:	609a      	str	r2, [r3, #8]
    1646:	0023      	movs	r3, r4
    1648:	3388      	adds	r3, #136	; 0x88
    164a:	6018      	str	r0, [r3, #0]
    164c:	2301      	movs	r3, #1
    164e:	6861      	ldr	r1, [r4, #4]
    1650:	408b      	lsls	r3, r1
    1652:	008a      	lsls	r2, r1, #2
    1654:	1882      	adds	r2, r0, r2
    1656:	c280      	stmia	r2!, {r7}
    1658:	30fc      	adds	r0, #252	; 0xfc
    165a:	6841      	ldr	r1, [r0, #4]
    165c:	4319      	orrs	r1, r3
    165e:	6041      	str	r1, [r0, #4]
    1660:	9902      	ldr	r1, [sp, #8]
    1662:	67d1      	str	r1, [r2, #124]	; 0x7c
    1664:	2e02      	cmp	r6, #2
    1666:	d102      	bne.n	166e <__register_exitproc+0xae>
    1668:	6882      	ldr	r2, [r0, #8]
    166a:	4313      	orrs	r3, r2
    166c:	6083      	str	r3, [r0, #8]
    166e:	2000      	movs	r0, #0
    1670:	6863      	ldr	r3, [r4, #4]
    1672:	1c5a      	adds	r2, r3, #1
    1674:	6062      	str	r2, [r4, #4]
    1676:	3302      	adds	r3, #2
    1678:	9a01      	ldr	r2, [sp, #4]
    167a:	009b      	lsls	r3, r3, #2
    167c:	511a      	str	r2, [r3, r4]
    167e:	b005      	add	sp, #20
    1680:	bdf0      	pop	{r4, r5, r6, r7, pc}
    1682:	46c0      	nop			; (mov r8, r8)
    1684:	1ffff200 	svcne	0x00fff200
    1688:	1ffff174 	svcne	0x00fff174
    168c:	00000000 	andeq	r0, r0, r0
    1690:	00001419 	andeq	r1, r0, r9, lsl r4

00001694 <__call_exitprocs>:
    1694:	b5f0      	push	{r4, r5, r6, r7, lr}
    1696:	b087      	sub	sp, #28
    1698:	9005      	str	r0, [sp, #20]
    169a:	9103      	str	r1, [sp, #12]
    169c:	4d35      	ldr	r5, [pc, #212]	; (1774 <__call_exitprocs+0xe0>)
    169e:	682c      	ldr	r4, [r5, #0]
    16a0:	2c00      	cmp	r4, #0
    16a2:	d064      	beq.n	176e <__call_exitprocs+0xda>
    16a4:	0023      	movs	r3, r4
    16a6:	3388      	adds	r3, #136	; 0x88
    16a8:	681e      	ldr	r6, [r3, #0]
    16aa:	6863      	ldr	r3, [r4, #4]
    16ac:	1e5a      	subs	r2, r3, #1
    16ae:	9201      	str	r2, [sp, #4]
    16b0:	4a31      	ldr	r2, [pc, #196]	; (1778 <__call_exitprocs+0xe4>)
    16b2:	189b      	adds	r3, r3, r2
    16b4:	009b      	lsls	r3, r3, #2
    16b6:	18f7      	adds	r7, r6, r3
    16b8:	3304      	adds	r3, #4
    16ba:	18e3      	adds	r3, r4, r3
    16bc:	9302      	str	r3, [sp, #8]
    16be:	9b01      	ldr	r3, [sp, #4]
    16c0:	2b00      	cmp	r3, #0
    16c2:	db3e      	blt.n	1742 <__call_exitprocs+0xae>
    16c4:	9b03      	ldr	r3, [sp, #12]
    16c6:	2b00      	cmp	r3, #0
    16c8:	d00e      	beq.n	16e8 <__call_exitprocs+0x54>
    16ca:	2e00      	cmp	r6, #0
    16cc:	d106      	bne.n	16dc <__call_exitprocs+0x48>
    16ce:	9b01      	ldr	r3, [sp, #4]
    16d0:	3f04      	subs	r7, #4
    16d2:	3b01      	subs	r3, #1
    16d4:	9301      	str	r3, [sp, #4]
    16d6:	9b02      	ldr	r3, [sp, #8]
    16d8:	3b04      	subs	r3, #4
    16da:	e7ef      	b.n	16bc <__call_exitprocs+0x28>
    16dc:	003b      	movs	r3, r7
    16de:	3380      	adds	r3, #128	; 0x80
    16e0:	681b      	ldr	r3, [r3, #0]
    16e2:	9a03      	ldr	r2, [sp, #12]
    16e4:	429a      	cmp	r2, r3
    16e6:	d1f2      	bne.n	16ce <__call_exitprocs+0x3a>
    16e8:	6862      	ldr	r2, [r4, #4]
    16ea:	9b02      	ldr	r3, [sp, #8]
    16ec:	9901      	ldr	r1, [sp, #4]
    16ee:	3a01      	subs	r2, #1
    16f0:	685b      	ldr	r3, [r3, #4]
    16f2:	4291      	cmp	r1, r2
    16f4:	d101      	bne.n	16fa <__call_exitprocs+0x66>
    16f6:	6061      	str	r1, [r4, #4]
    16f8:	e002      	b.n	1700 <__call_exitprocs+0x6c>
    16fa:	2200      	movs	r2, #0
    16fc:	9902      	ldr	r1, [sp, #8]
    16fe:	604a      	str	r2, [r1, #4]
    1700:	2b00      	cmp	r3, #0
    1702:	d0e4      	beq.n	16ce <__call_exitprocs+0x3a>
    1704:	6862      	ldr	r2, [r4, #4]
    1706:	9204      	str	r2, [sp, #16]
    1708:	2e00      	cmp	r6, #0
    170a:	d007      	beq.n	171c <__call_exitprocs+0x88>
    170c:	2201      	movs	r2, #1
    170e:	9901      	ldr	r1, [sp, #4]
    1710:	408a      	lsls	r2, r1
    1712:	0031      	movs	r1, r6
    1714:	31fc      	adds	r1, #252	; 0xfc
    1716:	6848      	ldr	r0, [r1, #4]
    1718:	4210      	tst	r0, r2
    171a:	d101      	bne.n	1720 <__call_exitprocs+0x8c>
    171c:	4798      	blx	r3
    171e:	e008      	b.n	1732 <__call_exitprocs+0x9e>
    1720:	6889      	ldr	r1, [r1, #8]
    1722:	4211      	tst	r1, r2
    1724:	d103      	bne.n	172e <__call_exitprocs+0x9a>
    1726:	6839      	ldr	r1, [r7, #0]
    1728:	9805      	ldr	r0, [sp, #20]
    172a:	4798      	blx	r3
    172c:	e001      	b.n	1732 <__call_exitprocs+0x9e>
    172e:	6838      	ldr	r0, [r7, #0]
    1730:	4798      	blx	r3
    1732:	9b04      	ldr	r3, [sp, #16]
    1734:	6862      	ldr	r2, [r4, #4]
    1736:	4293      	cmp	r3, r2
    1738:	d1b0      	bne.n	169c <__call_exitprocs+0x8>
    173a:	682b      	ldr	r3, [r5, #0]
    173c:	429c      	cmp	r4, r3
    173e:	d0c6      	beq.n	16ce <__call_exitprocs+0x3a>
    1740:	e7ac      	b.n	169c <__call_exitprocs+0x8>
    1742:	4b0e      	ldr	r3, [pc, #56]	; (177c <__call_exitprocs+0xe8>)
    1744:	2b00      	cmp	r3, #0
    1746:	d012      	beq.n	176e <__call_exitprocs+0xda>
    1748:	6862      	ldr	r2, [r4, #4]
    174a:	6823      	ldr	r3, [r4, #0]
    174c:	2a00      	cmp	r2, #0
    174e:	d10b      	bne.n	1768 <__call_exitprocs+0xd4>
    1750:	2b00      	cmp	r3, #0
    1752:	d009      	beq.n	1768 <__call_exitprocs+0xd4>
    1754:	602b      	str	r3, [r5, #0]
    1756:	2e00      	cmp	r6, #0
    1758:	d002      	beq.n	1760 <__call_exitprocs+0xcc>
    175a:	0030      	movs	r0, r6
    175c:	f7ff fe66 	bl	142c <free>
    1760:	0020      	movs	r0, r4
    1762:	f7ff fe63 	bl	142c <free>
    1766:	e79a      	b.n	169e <__call_exitprocs+0xa>
    1768:	0025      	movs	r5, r4
    176a:	001c      	movs	r4, r3
    176c:	e798      	b.n	16a0 <__call_exitprocs+0xc>
    176e:	b007      	add	sp, #28
    1770:	bdf0      	pop	{r4, r5, r6, r7, pc}
    1772:	46c0      	nop			; (mov r8, r8)
    1774:	1ffff200 	svcne	0x00fff200
    1778:	3fffffff 	svccc	0x00ffffff
    177c:	0000142d 	andeq	r1, r0, sp, lsr #8

00001780 <_sbrk>:
    1780:	4a04      	ldr	r2, [pc, #16]	; (1794 <_sbrk+0x14>)
    1782:	6813      	ldr	r3, [r2, #0]
    1784:	2b00      	cmp	r3, #0
    1786:	d003      	beq.n	1790 <_sbrk+0x10>
    1788:	1818      	adds	r0, r3, r0
    178a:	6010      	str	r0, [r2, #0]
    178c:	0018      	movs	r0, r3
    178e:	4770      	bx	lr
    1790:	4b01      	ldr	r3, [pc, #4]	; (1798 <_sbrk+0x18>)
    1792:	e7f9      	b.n	1788 <_sbrk+0x8>
    1794:	1ffff204 	svcne	0x00fff204
    1798:	1ffff4f0 	svcne	0x00fff4f0

0000179c <_exit>:
    179c:	e7fe      	b.n	179c <_exit>
    179e:	46c0      	nop			; (mov r8, r8)

000017a0 <CwLetterData>:
    17a0:	6c8a8e50 	stcvs	14, cr8, [sl], {80}	; 0x50
    17a4:	9e649a30 	mcrls	10, 3, r9, cr4, cr0, {1}
    17a8:	96689058 			; <UNDEFINED> instruction: 0x96689058
    17ac:	92604840 	rsbls	r4, r0, #64, 16	; 0x400000
    17b0:	207c749a 			; <UNDEFINED> instruction: 0x207c749a
    17b4:	8c709c78 	ldclhi	12, cr9, [r0], #-480	; 0xfffffe20
    17b8:	b0a08688 	adclt	r8, r0, r8, lsl #13

000017ba <CwNumberData>:
    17ba:	bcb8b0a0 	ldclt	0, cr11, [r8], #640	; 0x280
    17be:	a7afbfbe 			; <UNDEFINED> instruction: 0xa7afbfbe
    17c2:	4241a1a3 	submi	sl, r1, #-1073741784	; 0xc0000028
    17c6:	004a5431 	subeq	r5, sl, r1, lsr r4
    17ca:	0054414c 	subseq	r4, r4, ip, asr #2
    17ce:	004e4f4c 	subeq	r4, lr, ip, asr #30
    17d2:	2e353431 	mrccs	4, 1, r3, cr5, cr1, {1}
    17d6:	30303933 	eorscc	r3, r0, r3, lsr r9
    17da:	410a0d00 	tstmi	sl, r0, lsl #26
    17de:	4d442b54 	vstrmi	d18, [r4, #-336]	; 0xfffffeb0
    17e2:	4e4f434f 	cdpmi	3, 4, cr4, cr15, cr15, {2}
    17e6:	5443454e 	strbpl	r4, [r3], #-1358	; 0xfffffab2
    17ea:	41000a0d 	tstmi	r0, sp, lsl #20
    17ee:	4d442b54 	vstrmi	d18, [r4, #-336]	; 0xfffffeb0
    17f2:	5445534f 	strbpl	r5, [r5], #-847	; 0xfffffcb1
    17f6:	554f5247 	strbpl	r5, [pc, #-583]	; 15b7 <_sbrk_r+0x1b>
    17fa:	2c303d50 	ldccs	13, cr3, [r0], #-320	; 0xfffffec0
    17fe:	2e353431 	mrccs	4, 1, r3, cr5, cr1, {1}
    1802:	30303035 	eorscc	r3, r0, r5, lsr r0
    1806:	3534312c 	ldrcc	r3, [r4, #-300]!	; 0xfffffed4
    180a:	3030352e 	eorscc	r3, r0, lr, lsr #10
    180e:	30302c30 	eorscc	r2, r0, r0, lsr ip
    1812:	372c3030 			; <UNDEFINED> instruction: 0x372c3030
    1816:	3030302c 	eorscc	r3, r0, ip, lsr #32
    181a:	000a0d30 	andeq	r0, sl, r0, lsr sp
    181e:	54314241 	ldrtpl	r4, [r1], #-577	; 0xfffffdbf
    1822:	3e312d4a 	cdpcc	13, 3, cr2, cr1, cr10, {2}
    1826:	53525041 	cmppl	r2, #65	; 0x41
    182a:	4449572c 	strbmi	r5, [r9], #-1836	; 0xfffff8d4
    182e:	312d3145 	teqcc	sp, r5, asr #2
    1832:	f02c032c 			; <UNDEFINED> instruction: 0xf02c032c
    1836:	4241002c 	submi	r0, r1, #44	; 0x2c
    183a:	2d4a5431 	cfstrdcs	mvd5, [sl, #-196]	; 0xffffff3c
    183e:	50413e31 	subpl	r3, r1, r1, lsr lr
    1842:	572c5352 			; <UNDEFINED> instruction: 0x572c5352
    1846:	31454449 	cmpcc	r5, r9, asr #8
    184a:	f003312d 			; <UNDEFINED> instruction: 0xf003312d
    184e:	5345542c 	movtpl	r5, #21548	; 0x542c
    1852:	474e4954 	smlsldmi	r4, lr, r4, r9
    1856:	53455420 	movtpl	r5, #21536	; 0x5420
    185a:	474e4954 	smlsldmi	r4, lr, r4, r9
    185e:	53455420 	movtpl	r5, #21536	; 0x5420
    1862:	474e4954 	smlsldmi	r4, lr, r4, r9
    1866:	53455420 	movtpl	r5, #21536	; 0x5420
    186a:	474e4954 	smlsldmi	r4, lr, r4, r9
    186e:	00004300 	andeq	r4, r0, r0, lsl #6
	...

00001874 <_global_impure_ptr>:
    1874:	1ffff0e8 	svcne	0x00fff0e8

00001878 <_init>:
    1878:	b5f8      	push	{r3, r4, r5, r6, r7, lr}
    187a:	46c0      	nop			; (mov r8, r8)
    187c:	bcf8      	pop	{r3, r4, r5, r6, r7}
    187e:	bc08      	pop	{r3}
    1880:	469e      	mov	lr, r3
    1882:	4770      	bx	lr

00001884 <_fini>:
    1884:	b5f8      	push	{r3, r4, r5, r6, r7, lr}
    1886:	46c0      	nop			; (mov r8, r8)
    1888:	bcf8      	pop	{r3, r4, r5, r6, r7}
    188a:	bc08      	pop	{r3}
    188c:	469e      	mov	lr, r3
    188e:	4770      	bx	lr

Disassembly of section .ARM:

00001890 <__exidx_start>:
    1890:	7fffeb80 	svcvc	0x00ffeb80
    1894:	00000001 	andeq	r0, r0, r1

Disassembly of section .init_array:

00001898 <__CTOR_END__>:
    1898:	000004c1 	andeq	r0, r0, r1, asr #9

Disassembly of section .fini_array:

0000189c <__do_global_dtors_aux_fini_array_entry>:
    189c:	00000495 	muleq	r0, r5, r4

Disassembly of section .data:

1ffff000 <__DATA_RAM>:
1ffff000:	01fe01d1 	ldrsbeq	r0, [lr, #17]!
1ffff004:	0258022b 	subseq	r0, r8, #-1342177278	; 0xb0000002
1ffff008:	02ac0282 	adceq	r0, ip, #536870920	; 0x20000008
1ffff00c:	02f702d3 	rscseq	r0, r7, #805306381	; 0x3000000d
1ffff010:	03390318 	teqeq	r9, #24, 6	; 0x60000000
1ffff014:	03690354 	cmneq	r9, #84, 6	; 0x50000001
1ffff018:	038d037e 	orreq	r0, sp, #-134217727	; 0xf8000001
1ffff01c:	039f0399 	orrseq	r0, pc, #1677721602	; 0x64000002
1ffff020:	039f03a2 	orrseq	r0, pc, #-2013265918	; 0x88000002
1ffff024:	038d0399 	orreq	r0, sp, #1677721602	; 0x64000002
1ffff028:	0369037e 	cmneq	r9, #-134217727	; 0xf8000001
1ffff02c:	03390354 	teqeq	r9, #84, 6	; 0x50000001
1ffff030:	02f70318 	rscseq	r0, r7, #24, 6	; 0x60000000
1ffff034:	02ac02d3 	adceq	r0, ip, #805306381	; 0x3000000d
1ffff038:	02580282 	subseq	r0, r8, #536870920	; 0x20000008
1ffff03c:	01fe022b 	mvnseq	r0, fp, lsr #4
1ffff040:	01a101d1 	ldrdeq	r0, [r1, r1]!
1ffff044:	014a0174 	hvceq	40980	; 0xa014
1ffff048:	00f3011d 	rscseq	r0, r3, sp, lsl r1
1ffff04c:	00a800cc 	adceq	r0, r8, ip, asr #1
1ffff050:	00690087 	rsbeq	r0, r9, r7, lsl #1
1ffff054:	0036004e 	eorseq	r0, r6, lr, asr #32
1ffff058:	00120021 	andseq	r0, r2, r1, lsr #32
1ffff05c:	00000006 	andeq	r0, r0, r6
1ffff060:	00000000 	andeq	r0, r0, r0
1ffff064:	00120006 	andseq	r0, r2, r6
1ffff068:	00360021 	eorseq	r0, r6, r1, lsr #32
1ffff06c:	0069004e 	rsbeq	r0, r9, lr, asr #32
1ffff070:	00a80087 	adceq	r0, r8, r7, lsl #1
1ffff074:	00f300cc 	rscseq	r0, r3, ip, asr #1
1ffff078:	014a011d 	cmpeq	sl, sp, lsl r1
1ffff07c:	01a10174 			; <UNDEFINED> instruction: 0x01a10174

1ffff080 <fmt>:
1ffff080:	52504724 	subspl	r4, r0, #36, 14	; 0x900000
1ffff084:	742c434d 	strtvc	r4, [ip], #-845	; 0xfffffcb3
1ffff088:	612c732c 	teqvs	ip, ip, lsr #6
1ffff08c:	6f2c412c 	svcvs	0x002c412c
1ffff090:	6b2c4f2c 	blvs	20b12d48 <__StackTop+0xb0fd48>
1ffff094:	642c632c 	strtvs	r6, [ip], #-812	; 0xfffffcd4
1ffff098:	2c6d452c 	cfstr64cs	mvdx4, [sp], #-176	; 0xffffff50
1ffff09c:	4343434d 	movtmi	r4, #13133	; 0x334d
1ffff0a0:	47240045 	strmi	r0, [r4, -r5, asr #32]!

1ffff0a2 <nmea_test>:
1ffff0a2:	52504724 	subspl	r4, r0, #36, 14	; 0x900000
1ffff0a6:	312c434d 	teqcc	ip, sp, asr #6
1ffff0aa:	34313434 	ldrtcc	r3, [r1], #-1076	; 0xfffffbcc
1ffff0ae:	30302e30 	eorscc	r2, r0, r0, lsr lr
1ffff0b2:	312c412c 	teqcc	ip, ip, lsr #2
1ffff0b6:	2e333332 	mrccs	3, 1, r3, cr3, cr2, {1}
1ffff0ba:	37363131 			; <UNDEFINED> instruction: 0x37363131
1ffff0be:	2c4e2c31 	mcrrcs	12, 3, r2, lr, cr1
1ffff0c2:	33343231 	teqcc	r4, #268435459	; 0x10000003
1ffff0c6:	31372e35 	teqcc	r7, r5, lsr lr
1ffff0ca:	2c343933 	ldccs	9, cr3, [r4], #-204	; 0xffffff34
1ffff0ce:	2e302c57 	mrccs	12, 1, r2, cr0, cr7, {2}
1ffff0d2:	2c383231 	lfmcs	f3, 4, [r8], #-196	; 0xffffff3c
1ffff0d6:	3031332c 	eorscc	r3, r1, ip, lsr #6
1ffff0da:	2c353138 	ldfcss	f3, [r5], #-224	; 0xffffff20
1ffff0de:	2a412c2c 	bcs	2104a196 <__StackTop+0x1047196>
1ffff0e2:	00004436 	andeq	r4, r0, r6, lsr r4
	...

1ffff0e8 <impure_data>:
	...
1ffff108:	0000186f 	andeq	r1, r0, pc, ror #16
	...

1ffff148 <_impure_ptr>:
1ffff148:	1ffff0e8 	svcne	0x00fff0e8

1ffff14c <__JCR_END__>:
1ffff14c:	00000000 	andeq	r0, r0, r0

Disassembly of section .bss:

1ffff150 <__START_BSS>:
1ffff150:	00000000 	andeq	r0, r0, r0

1ffff154 <object.8366>:
	...

1ffff16c <__malloc_sbrk_start>:
1ffff16c:	00000000 	andeq	r0, r0, r0

1ffff170 <__malloc_free_list>:
1ffff170:	00000000 	andeq	r0, r0, r0

1ffff174 <_global_atexit0>:
	...

1ffff200 <_global_atexit>:
1ffff200:	00000000 	andeq	r0, r0, r0

1ffff204 <heap_end.4167>:
1ffff204:	00000000 	andeq	r0, r0, r0

1ffff208 <ax25OnesCount>:
	...

1ffff209 <ax25CurrBit>:
	...

1ffff20a <ax25CRC>:
	...

1ffff20c <ax25SinIndex>:
1ffff20c:	00000000 	andeq	r0, r0, r0

1ffff210 <ax25CurrByte>:
	...

1ffff211 <ax25Sending>:
1ffff211:	00000000 	andeq	r0, r0, r0

1ffff214 <ax25CurrDelay>:
1ffff214:	00000000 	andeq	r0, r0, r0

1ffff218 <ax25Padding>:
1ffff218:	00000000 	andeq	r0, r0, r0

1ffff21c <ax25DataPtr>:
1ffff21c:	00000000 	andeq	r0, r0, r0

1ffff220 <ax25Preamble>:
1ffff220:	00000000 	andeq	r0, r0, r0

1ffff224 <ax25BytesLeft>:
1ffff224:	00000000 	andeq	r0, r0, r0

1ffff228 <sinIndex>:
1ffff228:	00000000 	andeq	r0, r0, r0

1ffff22c <PITData>:
	...

1ffff234 <uart0Data>:
	...

1ffff2f8 <uart1Data>:
	...

1ffff3bc <uart2Data>:
	...

1ffff480 <draData>:
	...

1ffff4a0 <gpsTerm>:
1ffff4a0:	00000000 	andeq	r0, r0, r0

1ffff4a4 <temp>:
1ffff4a4:	00000000 	andeq	r0, r0, r0

1ffff4a8 <state>:
1ffff4a8:	00000000 	andeq	r0, r0, r0

1ffff4ac <gpsData>:
	...

1ffff4e4 <fix>:
1ffff4e4:	00000000 	andeq	r0, r0, r0

1ffff4e8 <gpsCurField>:
1ffff4e8:	00000000 	andeq	r0, r0, r0

1ffff4ec <errno>:
1ffff4ec:	00000000 	andeq	r0, r0, r0

Disassembly of section .heap:

1ffff4f0 <__HeapBase>:
	...

Disassembly of section .stack:

1ffff8f0 <.stack>:
	...

Disassembly of section .ARM.attributes:

00000000 <.ARM.attributes>:
   0:	00002741 	andeq	r2, r0, r1, asr #14
   4:	61656100 	cmnvs	r5, r0, lsl #2
   8:	01006962 	tsteq	r0, r2, ror #18
   c:	0000001d 	andeq	r0, r0, sp, lsl r0
  10:	2d533605 	ldclcs	6, cr3, [r3, #-20]	; 0xffffffec
  14:	0c06004d 	stceq	0, cr0, [r6], {77}	; 0x4d
  18:	01094d07 	tsteq	r9, r7, lsl #26
  1c:	01140412 	tsteq	r4, r2, lsl r4
  20:	03170115 	tsteq	r7, #1073741829	; 0x40000005
  24:	011a0118 	tsteq	sl, r8, lsl r1

Disassembly of section .debug_info:

00000000 <.debug_info>:
       0:	00000425 	andeq	r0, r0, r5, lsr #8
       4:	00000004 	andeq	r0, r0, r4
       8:	01040000 	mrseq	r0, (UNDEF: 4)
       c:	00000017 	andeq	r0, r0, r7, lsl r0
      10:	0002ba0c 	andeq	fp, r2, ip, lsl #20
      14:	0001a300 	andeq	sl, r1, r0, lsl #6
	...
      24:	06010200 	streq	r0, [r1], -r0, lsl #4
      28:	0000016d 	andeq	r0, r0, sp, ror #2
      2c:	0000ee03 	andeq	lr, r0, r3, lsl #28
      30:	371d0200 	ldrcc	r0, [sp, -r0, lsl #4]
      34:	02000000 	andeq	r0, r0, #0
      38:	016b0801 	cmneq	fp, r1, lsl #16
      3c:	02020000 	andeq	r0, r2, #0
      40:	00011705 	andeq	r1, r1, r5, lsl #14
      44:	010c0300 	mrseq	r0, LR_mon
      48:	2b020000 	blcs	80050 <__DATA_END+0x7e660>
      4c:	00000050 	andeq	r0, r0, r0, asr r0
      50:	dd070202 	sfmle	f0, 4, [r7, #-8]
      54:	02000001 	andeq	r0, r0, #1
      58:	01260504 	teqeq	r6, r4, lsl #10
      5c:	f8030000 			; <UNDEFINED> instruction: 0xf8030000
      60:	02000000 	andeq	r0, r0, #0
      64:	00006941 	andeq	r6, r0, r1, asr #18
      68:	07040200 	streq	r0, [r4, -r0, lsl #4]
      6c:	00000183 	andeq	r0, r0, r3, lsl #3
      70:	21050802 	tstcs	r5, r2, lsl #16
      74:	02000001 	andeq	r0, r0, #1
      78:	017e0708 	cmneq	lr, r8, lsl #14
      7c:	04040000 	streq	r0, [r4], #-0
      80:	746e6905 	strbtvc	r6, [lr], #-2309	; 0xfffff6fb
      84:	07040200 	streq	r0, [r4, -r0, lsl #4]
      88:	00000188 	andeq	r0, r0, r8, lsl #3
      8c:	0000f003 	andeq	pc, r0, r3
      90:	2c140300 	ldccs	3, cr0, [r4], {-0}
      94:	03000000 	movweq	r0, #0
      98:	0000010e 	andeq	r0, r0, lr, lsl #2
      9c:	00451a03 	subeq	r1, r5, r3, lsl #20
      a0:	fa030000 	blx	c00a8 <__DATA_END+0xbe6b8>
      a4:	03000000 	movweq	r0, #0
      a8:	00005e20 	andeq	r5, r0, r0, lsr #28
      ac:	07040200 	streq	r0, [r4, -r0, lsl #4]
      b0:	000002a2 	andeq	r0, r0, r2, lsr #5
      b4:	0000a205 	andeq	sl, r0, r5, lsl #4
      b8:	00b40600 	adcseq	r0, r4, r0, lsl #12
      bc:	8c070000 	stchi	0, cr0, [r7], {-0}
      c0:	ce000000 	cdpgt	0, 0, cr0, cr0, cr0, {0}
      c4:	08000000 	stmdaeq	r0, {}	; <UNPREDICTABLE>
      c8:	000000ad 	andeq	r0, r0, sp, lsr #1
      cc:	8c050003 	stchi	0, cr0, [r5], {3}
      d0:	06000000 	streq	r0, [r0], -r0
      d4:	000000ce 	andeq	r0, r0, lr, asr #1
      d8:	00008c07 	andeq	r8, r0, r7, lsl #24
      dc:	0000e800 	andeq	lr, r0, r0, lsl #16
      e0:	00ad0800 	adceq	r0, sp, r0, lsl #16
      e4:	00070000 	andeq	r0, r7, r0
      e8:	9b041009 	blls	104114 <__DATA_END+0x102724>
      ec:	0001b70c 	andeq	fp, r1, ip, lsl #14
      f0:	31430a00 	cmpcc	r3, r0, lsl #20
      f4:	0c9c0400 	cfldrseq	mvf0, [ip], {0}
      f8:	000000ce 	andeq	r0, r0, lr, asr #1
      fc:	32430a00 	subcc	r0, r3, #0, 20
     100:	0c9d0400 	cfldrseq	mvf0, [sp], {0}
     104:	000000ce 	andeq	r0, r0, lr, asr #1
     108:	33430a01 	movtcc	r0, #14849	; 0x3a01
     10c:	0c9e0400 	cfldrseq	mvf0, [lr], {0}
     110:	000000ce 	andeq	r0, r0, lr, asr #1
     114:	34430a02 	strbcc	r0, [r3], #-2562	; 0xfffff5fe
     118:	0c9f0400 	cfldrseq	mvf0, [pc], {0}
     11c:	000000ce 	andeq	r0, r0, lr, asr #1
     120:	35430a03 	strbcc	r0, [r3, #-2563]	; 0xfffff5fd
     124:	0ca00400 	cfstrseq	mvf0, [r0]
     128:	000000ce 	andeq	r0, r0, lr, asr #1
     12c:	36430a04 	strbcc	r0, [r3], -r4, lsl #20
     130:	0ca10400 	cfstrseq	mvf0, [r1]
     134:	000000ce 	andeq	r0, r0, lr, asr #1
     138:	00530a05 	subseq	r0, r3, r5, lsl #20
     13c:	ce0ca204 	cdpgt	2, 0, cr10, cr12, cr4, {0}
     140:	06000000 	streq	r0, [r0], -r0
     144:	00023e0b 	andeq	r3, r2, fp, lsl #28
     148:	0ca30400 	cfstrseq	mvf0, [r3]
     14c:	000001b7 			; <UNDEFINED> instruction: 0x000001b7
     150:	43530a07 	cmpmi	r3, #28672	; 0x7000
     154:	0ca40400 	cfstrseq	mvf0, [r4]
     158:	000000ce 	andeq	r0, r0, lr, asr #1
     15c:	02490b08 	subeq	r0, r9, #8, 22	; 0x2000
     160:	a5040000 	strge	r0, [r4, #-0]
     164:	0001b70c 	andeq	fp, r1, ip, lsl #14
     168:	e20b0900 	and	r0, fp, #0, 18
     16c:	04000000 	streq	r0, [r0], #-0
     170:	00ce0ca6 	sbceq	r0, lr, r6, lsr #25
     174:	0b0a0000 	bleq	28017c <__DATA_END+0x27e78c>
     178:	000000e8 	andeq	r0, r0, r8, ror #1
     17c:	ce0ca704 	cdpgt	7, 0, cr10, cr12, cr4, {0}
     180:	0b000000 	bleq	188 <M_VECTOR_RAM_SIZE+0x188>
     184:	0002540b 	andeq	r5, r2, fp, lsl #8
     188:	0ca80400 	cfstrseq	mvf0, [r8]
     18c:	000001b7 			; <UNDEFINED> instruction: 0x000001b7
     190:	38430a0c 	stmdacc	r3, {r2, r3, r9, fp}^
     194:	0ca90400 	cfstrseq	mvf0, [r9]
     198:	000000ce 	andeq	r0, r0, lr, asr #1
     19c:	39430a0d 	stmdbcc	r3, {r0, r2, r3, r9, fp}^
     1a0:	0caa0400 	cfstrseq	mvf0, [sl]
     1a4:	000000d3 	ldrdeq	r0, [r0], -r3
     1a8:	31430a0e 	cmpcc	r3, lr, lsl #20
     1ac:	ab040030 	blge	100274 <__DATA_END+0xfe884>
     1b0:	0000d30c 	andeq	sp, r0, ip, lsl #6
     1b4:	07000f00 	streq	r0, [r0, -r0, lsl #30]
     1b8:	0000008c 	andeq	r0, r0, ip, lsl #1
     1bc:	000001c7 	andeq	r0, r0, r7, asr #3
     1c0:	0000ad08 	andeq	sl, r0, r8, lsl #26
     1c4:	0c000000 	stceq	0, cr0, [r0], {-0}
     1c8:	0000020e 	andeq	r0, r0, lr, lsl #4
     1cc:	e80cac04 	stmda	ip, {r2, sl, fp, sp, pc}
     1d0:	07000000 	streq	r0, [r0, -r0]
     1d4:	0000008c 	andeq	r0, r0, ip, lsl #1
     1d8:	000001e3 	andeq	r0, r0, r3, ror #3
     1dc:	0000ad08 	andeq	sl, r0, r8, lsl #26
     1e0:	09009b00 	stmdbeq	r0, {r8, r9, fp, ip, pc}
     1e4:	12320403 	eorsne	r0, r2, #50331648	; 0x3000000
     1e8:	00000214 	andeq	r0, r0, r4, lsl r2
     1ec:	0001950b 	andeq	r9, r1, fp, lsl #10
     1f0:	12330400 	eorsne	r0, r3, #0, 8
     1f4:	000000ce 	andeq	r0, r0, lr, asr #1
     1f8:	019c0b00 	orrseq	r0, ip, r0, lsl #22
     1fc:	34040000 	strcc	r0, [r4], #-0
     200:	0000ce12 	andeq	ip, r0, r2, lsl lr
     204:	b40b0100 	strlt	r0, [fp], #-256	; 0xffffff00
     208:	04000002 	streq	r0, [r0], #-2
     20c:	00ce1235 	sbceq	r1, lr, r5, lsr r2
     210:	00020000 	andeq	r0, r2, r0
     214:	0002ab0c 	andeq	sl, r2, ip, lsl #22
     218:	12360400 	eorsne	r0, r6, #0, 8
     21c:	000001e3 	andeq	r0, r0, r3, ror #3
     220:	0411080d 	ldreq	r0, [r1], #-2061	; 0xfffff7f3
     224:	03a21665 			; <UNDEFINED> instruction: 0x03a21665
     228:	170b0000 	strne	r0, [fp, -r0]
     22c:	04000002 	streq	r0, [r0], #-2
     230:	00b41666 	adcseq	r1, r4, r6, ror #12
     234:	0b000000 	bleq	23c <M_VECTOR_RAM_SIZE+0x23c>
     238:	0000012f 	andeq	r0, r0, pc, lsr #2
     23c:	b4166704 	ldrlt	r6, [r6], #-1796	; 0xfffff8fc
     240:	04000000 	streq	r0, [r0], #-0
     244:	00023e0b 	andeq	r3, r2, fp, lsl #28
     248:	16680400 	strbtne	r0, [r8], -r0, lsl #8
     24c:	000003a2 	andeq	r0, r0, r2, lsr #7
     250:	01500e08 	cmpeq	r0, r8, lsl #28
     254:	69040000 	stmdbvs	r4, {}	; <UNPREDICTABLE>
     258:	0000b416 	andeq	fp, r0, r6, lsl r4
     25c:	0e100400 	cfmulseq	mvf0, mvf0, mvf0
     260:	00000249 	andeq	r0, r0, r9, asr #4
     264:	be166a04 	vnmlslt.f32	s12, s12, s8
     268:	08000000 	stmdaeq	r0, {}	; <UNPREDICTABLE>
     26c:	02dc0e10 	sbcseq	r0, ip, #16, 28	; 0x100
     270:	6b040000 	blvs	100278 <__DATA_END+0xfe888>
     274:	0000b416 	andeq	fp, r0, r6, lsl r4
     278:	0e100c00 	cdpeq	12, 1, cr0, cr0, cr0, {0}
     27c:	00000000 	andeq	r0, r0, r0
     280:	b4166c04 	ldrlt	r6, [r6], #-3076	; 0xfffff3fc
     284:	10000000 	andne	r0, r0, r0
     288:	02540e10 	subseq	r0, r4, #16, 28	; 0x100
     28c:	6d040000 	stcvs	0, cr0, [r4, #-0]
     290:	0000be16 	andeq	fp, r0, r6, lsl lr
     294:	0e101400 	cfmulseq	mvf1, mvf0, mvf0
     298:	0000015d 	andeq	r0, r0, sp, asr r1
     29c:	b4166e04 	ldrlt	r6, [r6], #-3588	; 0xfffff1fc
     2a0:	18000000 	stmdane	r0, {}	; <UNPREDICTABLE>
     2a4:	025f0e10 	subseq	r0, pc, #16, 28	; 0x100
     2a8:	6f040000 	svcvs	0x00040000
     2ac:	0000d816 	andeq	sp, r0, r6, lsl r8
     2b0:	0e101c00 	cdpeq	12, 1, cr1, cr0, cr0, {0}
     2b4:	00000012 	andeq	r0, r0, r2, lsl r0
     2b8:	b9167004 	ldmdblt	r6, {r2, ip, sp, lr}
     2bc:	24000000 	strcs	r0, [r0], #-0
     2c0:	026a0e10 	rsbeq	r0, sl, #16, 28	; 0x100
     2c4:	71040000 	mrsvc	r0, (UNDEF: 4)
     2c8:	0003b316 	andeq	fp, r3, r6, lsl r3
     2cc:	0e102800 	cdpeq	8, 1, cr2, cr0, cr0, {0}
     2d0:	00000138 	andeq	r0, r0, r8, lsr r1
     2d4:	b4167204 	ldrlt	r7, [r6], #-516	; 0xfffffdfc
     2d8:	34000000 	strcc	r0, [r0], #-0
     2dc:	013e0e10 	teqeq	lr, r0, lsl lr
     2e0:	73040000 	movwvc	r0, #16384	; 0x4000
     2e4:	0000b416 	andeq	fp, r0, r6, lsl r4
     2e8:	0e103800 	cdpeq	8, 1, cr3, cr0, cr0, {0}
     2ec:	00000144 	andeq	r0, r0, r4, asr #2
     2f0:	b4167404 	ldrlt	r7, [r6], #-1028	; 0xfffffbfc
     2f4:	3c000000 	stccc	0, cr0, [r0], {-0}
     2f8:	014a0e10 	cmpeq	sl, r0, lsl lr
     2fc:	75040000 	strvc	r0, [r4, #-0]
     300:	0000b416 	andeq	fp, r0, r6, lsl r4
     304:	0e104000 	cdpeq	0, 1, cr4, cr0, cr0, {0}
     308:	00000163 	andeq	r0, r0, r3, ror #2
     30c:	b4167604 	ldrlt	r7, [r6], #-1540	; 0xfffff9fc
     310:	44000000 	strmi	r0, [r0], #-0
     314:	02750e10 	rsbseq	r0, r5, #16, 28	; 0x100
     318:	77040000 	strvc	r0, [r4, -r0]
     31c:	0000be16 	andeq	fp, r0, r6, lsl lr
     320:	0e104800 	cdpeq	8, 1, cr4, cr0, cr0, {0}
     324:	00000006 	andeq	r0, r0, r6
     328:	b4167804 	ldrlt	r7, [r6], #-2052	; 0xfffff7fc
     32c:	4c000000 	stcmi	0, cr0, [r0], {-0}
     330:	000c0e10 	andeq	r0, ip, r0, lsl lr
     334:	79040000 	stmdbvc	r4, {}	; <UNPREDICTABLE>
     338:	0000b916 	andeq	fp, r0, r6, lsl r9
     33c:	0e105000 	cdpeq	0, 1, cr5, cr0, cr0, {0}
     340:	00000280 	andeq	r0, r0, r0, lsl #5
     344:	be167a04 	vnmlslt.f32	s14, s12, s8
     348:	54000000 	strpl	r0, [r0], #-0
     34c:	02320e10 	eorseq	r0, r2, #16, 28	; 0x100
     350:	7b040000 	blvc	100358 <__DATA_END+0xfe968>
     354:	0000b916 	andeq	fp, r0, r6, lsl r9
     358:	0e105800 	cdpeq	8, 1, cr5, cr0, cr0, {0}
     35c:	00000238 	andeq	r0, r0, r8, lsr r2
     360:	b9167c04 	ldmdblt	r6, {r2, sl, fp, ip, sp, lr}
     364:	5c000000 	stcpl	0, cr0, [r0], {-0}
     368:	022d0e10 	eoreq	r0, sp, #16, 28	; 0x100
     36c:	7d040000 	stcvc	0, cr0, [r4, #-0]
     370:	0000b916 	andeq	fp, r0, r6, lsl r9
     374:	0e106000 	cdpeq	0, 1, cr6, cr0, cr0, {0}
     378:	0000028b 	andeq	r0, r0, fp, lsl #5
     37c:	d3167e04 	tstle	r6, #4, 28	; 0x40
     380:	64000001 	strvs	r0, [r0], #-1
     384:	01790e10 	cmneq	r9, r0, lsl lr
     388:	7f040000 	svcvc	0x00040000
     38c:	0000b416 	andeq	fp, r0, r6, lsl r4
     390:	0e110000 	cdpeq	0, 1, cr0, cr1, cr0, {0}
     394:	00000156 	andeq	r0, r0, r6, asr r1
     398:	b4168004 	ldrlt	r8, [r6], #-4
     39c:	04000000 	streq	r0, [r0], #-0
     3a0:	8c070011 	stchi	0, cr0, [r7], {17}
     3a4:	b3000000 	movwlt	r0, #0
     3a8:	0f000003 	svceq	0x00000003
     3ac:	000000ad 	andeq	r0, r0, sp, lsr #1
     3b0:	07000ffb 			; <UNDEFINED> instruction: 0x07000ffb
     3b4:	0000008c 	andeq	r0, r0, ip, lsl #1
     3b8:	000003c3 	andeq	r0, r0, r3, asr #7
     3bc:	0000ad08 	andeq	sl, r0, r8, lsl #26
     3c0:	0c000b00 	stceq	11, cr0, [r0], {-0}
     3c4:	00000103 	andeq	r0, r0, r3, lsl #2
     3c8:	20168104 	andscs	r8, r6, r4, lsl #2
     3cc:	10000002 	andne	r0, r0, r2
     3d0:	000001d2 	ldrdeq	r0, [r0], -r2
     3d4:	04f87901 	ldrbteq	r7, [r8], #2305	; 0x901
     3d8:	00240000 	eoreq	r0, r4, r0
     3dc:	9c010000 	stcls	0, cr0, [r1], {-0}
     3e0:	0001f811 	andeq	pc, r1, r1, lsl r8	; <UNPREDICTABLE>
     3e4:	01420100 	mrseq	r0, (UNDEF: 82)
     3e8:	00000000 	andeq	r0, r0, r0
     3ec:	00000134 	andeq	r0, r0, r4, lsr r1
     3f0:	04179c01 	ldreq	r9, [r7], #-3073	; 0xfffff3ff
     3f4:	96120000 	ldrls	r0, [r2], -r0
     3f8:	01000002 	tsteq	r0, r2
     3fc:	00a20144 	adceq	r0, r2, r4, asr #2
     400:	00000000 	andeq	r0, r0, r0
     404:	f0120000 			; <UNDEFINED> instruction: 0xf0120000
     408:	01000001 	tsteq	r0, r1
     40c:	00970145 	addseq	r0, r7, r5, asr #2
     410:	007b0000 	rsbseq	r0, fp, r0
     414:	13000000 	movwne	r0, #0
     418:	0000021d 	andeq	r0, r0, sp, lsl r2
     41c:	00a27301 	adceq	r7, r2, r1, lsl #6
     420:	03050000 	movweq	r0, #20480	; 0x5000
     424:	00000000 	andeq	r0, r0, r0
     428:	00027d00 	andeq	r7, r2, r0, lsl #26
     42c:	06000400 	streq	r0, [r0], -r0, lsl #8
     430:	04000001 	streq	r0, [r0], #-1
     434:	00001701 	andeq	r1, r0, r1, lsl #14
     438:	02e20c00 	rsceq	r0, r2, #0, 24
     43c:	01a30000 			; <UNDEFINED> instruction: 0x01a30000
     440:	00180000 	andseq	r0, r8, r0
     444:	00000000 	andeq	r0, r0, r0
     448:	01120000 	tsteq	r2, r0
     44c:	01020000 	mrseq	r0, (UNDEF: 2)
     450:	00016d06 	andeq	r6, r1, r6, lsl #26
     454:	00ee0300 	rsceq	r0, lr, r0, lsl #6
     458:	1d020000 	stcne	0, cr0, [r2, #-0]
     45c:	00000037 	andeq	r0, r0, r7, lsr r0
     460:	6b080102 	blvs	200870 <__DATA_END+0x1fee80>
     464:	02000001 	andeq	r0, r0, #1
     468:	01170502 	tsteq	r7, r2, lsl #10
     46c:	02020000 	andeq	r0, r2, #0
     470:	0001dd07 	andeq	sp, r1, r7, lsl #26
     474:	05040200 	streq	r0, [r4, #-512]	; 0xfffffe00
     478:	00000126 	andeq	r0, r0, r6, lsr #2
     47c:	0000f803 	andeq	pc, r0, r3, lsl #16
     480:	5e410200 	cdppl	2, 4, cr0, cr1, cr0, {0}
     484:	02000000 	andeq	r0, r0, #0
     488:	01830704 	orreq	r0, r3, r4, lsl #14
     48c:	08020000 	stmdaeq	r2, {}	; <UNPREDICTABLE>
     490:	00012105 	andeq	r2, r1, r5, lsl #2
     494:	07080200 	streq	r0, [r8, -r0, lsl #4]
     498:	0000017e 	andeq	r0, r0, lr, ror r1
     49c:	69050404 	stmdbvs	r5, {r2, sl}
     4a0:	0200746e 	andeq	r7, r0, #1845493760	; 0x6e000000
     4a4:	01880704 	orreq	r0, r8, r4, lsl #14
     4a8:	f0030000 			; <UNDEFINED> instruction: 0xf0030000
     4ac:	03000000 	movweq	r0, #0
     4b0:	00002c14 	andeq	r2, r0, r4, lsl ip
     4b4:	00fa0300 	rscseq	r0, sl, r0, lsl #6
     4b8:	20030000 	andcs	r0, r3, r0
     4bc:	00000053 	andeq	r0, r0, r3, asr r0
     4c0:	a2070402 	andge	r0, r7, #33554432	; 0x2000000
     4c4:	05000002 	streq	r0, [r0, #-2]
     4c8:	013c0428 	teqeq	ip, r8, lsr #8
     4cc:	0000011d 	andeq	r0, r0, sp, lsl r1
     4d0:	00039c06 	andeq	r9, r3, r6, lsl #24
     4d4:	013e0400 	teqeq	lr, r0, lsl #8
     4d8:	00000122 	andeq	r0, r0, r2, lsr #2
     4dc:	03910600 	orrseq	r0, r1, #0, 12
     4e0:	3f040000 	svccc	0x00040000
     4e4:	00011d01 	andeq	r1, r1, r1, lsl #26
     4e8:	0a060400 	beq	1814f0 <__DATA_END+0x17fb00>
     4ec:	04000003 	streq	r0, [r0], #-3
     4f0:	011d0141 	tsteq	sp, r1, asr #2
     4f4:	06080000 	streq	r0, [r8], -r0
     4f8:	00000396 	muleq	r0, r6, r3
     4fc:	1d014504 	cfstr32ne	mvfx4, [r1, #-16]
     500:	0c000001 	stceq	0, cr0, [r0], {1}
     504:	52435307 	subpl	r5, r3, #469762048	; 0x1c000000
     508:	01460400 	cmpeq	r6, r0, lsl #8
     50c:	0000011d 	andeq	r0, r0, sp, lsl r1
     510:	43430710 	movtmi	r0, #14096	; 0x3710
     514:	47040052 	smlsdmi	r4, r2, r0, r0
     518:	00011d01 	andeq	r1, r1, r1, lsl #26
     51c:	18061400 	stmdane	r6, {sl, ip}
     520:	04000003 	streq	r0, [r0], #-3
     524:	008c0148 	addeq	r0, ip, r8, asr #2
     528:	07180000 	ldreq	r0, [r8, -r0]
     52c:	00504853 	subseq	r4, r0, r3, asr r8
     530:	37014904 	strcc	r4, [r1, -r4, lsl #18]
     534:	1c000001 	stcne	0, cr0, [r0], {1}
     538:	0003bb06 	andeq	fp, r3, r6, lsl #22
     53c:	014a0400 	cmpeq	sl, r0, lsl #8
     540:	0000011d 	andeq	r0, r0, sp, lsl r1
     544:	8c080024 	stchi	0, cr0, [r8], {36}	; 0x24
     548:	09000000 	stmdbeq	r0, {}	; <UNPREDICTABLE>
     54c:	0000011d 	andeq	r0, r0, sp, lsl r1
     550:	00008c0a 	andeq	r8, r0, sl, lsl #24
     554:	00013700 	andeq	r3, r1, r0, lsl #14
     558:	00970b00 	addseq	r0, r7, r0, lsl #22
     55c:	00010000 	andeq	r0, r1, r0
     560:	00012708 	andeq	r2, r1, r8, lsl #14
     564:	037f0c00 	cmneq	pc, #0, 24
     568:	4b040000 	blmi	100570 <__DATA_END+0xfeb80>
     56c:	00009e01 	andeq	r9, r0, r1, lsl #28
     570:	03670d00 	cmneq	r7, #0, 26
     574:	3a010000 	bcc	4057c <__DATA_END+0x3eb8c>
     578:	0000051c 	andeq	r0, r0, ip, lsl r5
     57c:	0000007c 	andeq	r0, r0, ip, ror r0
     580:	02059c01 	andeq	r9, r5, #256	; 0x100
     584:	6e0e0000 	cdpvs	0, 0, cr0, cr14, cr0, {0}
     588:	8c3c0100 	ldfhis	f0, [ip], #-0
     58c:	d7000000 	strle	r0, [r0, -r0]
     590:	0f000000 	svceq	0x00000000
     594:	00000358 	andeq	r0, r0, r8, asr r3
     598:	02054c01 	andeq	r4, r5, #256	; 0x100
     59c:	fd0f0000 	stc2	0, cr0, [pc, #-0]	; 5a4 <enqueue+0xc>
     5a0:	01000002 	tsteq	r0, r2
     5a4:	0002054d 	andeq	r0, r2, sp, asr #10
     5a8:	03c10f00 	biceq	r0, r1, #0, 30
     5ac:	4e010000 	cdpmi	0, 0, cr0, cr1, cr0, {0}
     5b0:	00000205 	andeq	r0, r0, r5, lsl #4
     5b4:	00033510 	andeq	r3, r3, r0, lsl r5
     5b8:	8c4f0100 	stfhie	f0, [pc], {-0}
     5bc:	10000000 	andne	r0, r0, r0
     5c0:	0000030f 	andeq	r0, r0, pc, lsl #6
     5c4:	02106601 	andseq	r6, r0, #1048576	; 0x100000
     5c8:	88100000 	ldmdahi	r0, {}	; <UNPREDICTABLE>
     5cc:	01000003 	tsteq	r0, r3
     5d0:	00021066 	andeq	r1, r2, r6, rrx
     5d4:	03ae1000 			; <UNDEFINED> instruction: 0x03ae1000
     5d8:	66010000 	strvs	r0, [r1], -r0
     5dc:	00000210 	andeq	r0, r0, r0, lsl r2
     5e0:	0003df10 	andeq	sp, r3, r0, lsl pc
     5e4:	10670100 	rsbne	r0, r7, r0, lsl #2
     5e8:	10000002 	andne	r0, r0, r2
     5ec:	00000322 	andeq	r0, r0, r2, lsr #6
     5f0:	02106701 	andseq	r6, r0, #262144	; 0x40000
     5f4:	4d0f0000 	stcmi	0, cr0, [pc, #-0]	; 5fc <initQueue+0x4>
     5f8:	01000003 	tsteq	r0, r3
     5fc:	0002056b 	andeq	r0, r2, fp, ror #10
     600:	03e90f00 	mvneq	r0, #0, 30
     604:	6c010000 	stcvs	0, cr0, [r1], {-0}
     608:	00000205 	andeq	r0, r0, r5, lsl #4
     60c:	00032a0f 	andeq	r2, r3, pc, lsl #20
     610:	166d0100 	strbtne	r0, [sp], -r0, lsl #2
     614:	0f000002 	svceq	0x00000002
     618:	000003a2 	andeq	r0, r0, r2, lsr #7
     61c:	02167c01 	andseq	r7, r6, #256	; 0x100
     620:	750f0000 	strvc	r0, [pc, #-0]	; 628 <ax25ChangeDac+0x14>
     624:	01000003 	tsteq	r0, r3
     628:	0002167d 	andeq	r1, r2, sp, ror r6
     62c:	8c0a0000 	stchi	0, cr0, [sl], {-0}
     630:	10000000 	andne	r0, r0, r0
     634:	11000002 	tstne	r0, r2
     638:	81041200 	mrshi	r1, R12_usr
     63c:	0a000000 	beq	644 <ax25ChangeDac+0x30>
     640:	00000221 	andeq	r0, r0, r1, lsr #4
     644:	00000221 	andeq	r0, r0, r1, lsr #4
     648:	01020011 	tsteq	r2, r1, lsl r0
     64c:	00017408 	andeq	r7, r1, r8, lsl #8
     650:	03580f00 	cmpeq	r8, #0, 30
     654:	4c010000 	stcmi	0, cr0, [r1], {-0}
     658:	00000205 	andeq	r0, r0, r5, lsl #4
     65c:	0002fd0f 	andeq	pc, r2, pc, lsl #26
     660:	054d0100 	strbeq	r0, [sp, #-256]	; 0xffffff00
     664:	0f000002 	svceq	0x00000002
     668:	000003c1 	andeq	r0, r0, r1, asr #7
     66c:	02054e01 	andeq	r4, r5, #1, 28
     670:	4d0f0000 	stcmi	0, cr0, [pc, #-0]	; 678 <ax25StartToneTimer+0x8>
     674:	01000003 	tsteq	r0, r3
     678:	0002056b 	andeq	r0, r2, fp, ror #10
     67c:	03e90f00 	mvneq	r0, #0, 30
     680:	6c010000 	stcvs	0, cr0, [r1], {-0}
     684:	00000205 	andeq	r0, r0, r5, lsl #4
     688:	00032a0f 	andeq	r2, r3, pc, lsl #20
     68c:	166d0100 	strbtne	r0, [sp], -r0, lsl #2
     690:	0f000002 	svceq	0x00000002
     694:	000003a2 	andeq	r0, r0, r2, lsr #7
     698:	02167c01 	andseq	r7, r6, #256	; 0x100
     69c:	750f0000 	strvc	r0, [pc, #-0]	; 6a4 <ax25StopTimers+0x20>
     6a0:	01000003 	tsteq	r0, r3
     6a4:	0002167d 	andeq	r1, r2, sp, ror r6
     6a8:	021d0000 	andseq	r0, sp, #0
     6ac:	00040000 	andeq	r0, r4, r0
     6b0:	000001ea 	andeq	r0, r0, sl, ror #3
     6b4:	00170104 	andseq	r0, r7, r4, lsl #2
     6b8:	310c0000 	mrscc	r0, (UNDEF: 12)
     6bc:	a3000004 	movwge	r0, #4
     6c0:	28000001 	stmdacs	r0, {r0}
     6c4:	00000000 	andeq	r0, r0, r0
     6c8:	04000000 	streq	r0, [r0], #-0
     6cc:	02000002 	andeq	r0, r0, #2
     6d0:	01880704 	orreq	r0, r8, r4, lsl #14
     6d4:	04030000 	streq	r0, [r3], #-0
     6d8:	746e6905 	strbtvc	r6, [lr], #-2309	; 0xfffff6fb
     6dc:	06010200 	streq	r0, [r1], -r0, lsl #4
     6e0:	0000016d 	andeq	r0, r0, sp, ror #2
     6e4:	6b080102 	blvs	200af4 <__DATA_END+0x1ff104>
     6e8:	02000001 	andeq	r0, r0, #1
     6ec:	01170502 	tsteq	r7, r2, lsl #10
     6f0:	02020000 	andeq	r0, r2, #0
     6f4:	0001dd07 	andeq	sp, r1, r7, lsl #26
     6f8:	05040200 	streq	r0, [r4, #-512]	; 0xfffffe00
     6fc:	00000126 	andeq	r0, r0, r6, lsr #2
     700:	83070402 	movwhi	r0, #29698	; 0x7402
     704:	02000001 	andeq	r0, r0, #1
     708:	01210508 	teqeq	r1, r8, lsl #10
     70c:	08020000 	stmdaeq	r2, {}	; <UNPREDICTABLE>
     710:	00017e07 	andeq	r7, r1, r7, lsl #28
     714:	07040200 	streq	r0, [r4, -r0, lsl #4]
     718:	000002a2 	andeq	r0, r0, r2, lsr #5
     71c:	74080102 	strvc	r0, [r8], #-258	; 0xfffffefe
     720:	04000001 	streq	r0, [r0], #-1
     724:	be050260 	cdplt	2, 0, cr0, cr5, cr0, {3}
     728:	05000000 	streq	r0, [r0, #-0]
     72c:	00000439 	andeq	r0, r0, r9, lsr r4
     730:	002c0602 	eoreq	r0, ip, r2, lsl #12
     734:	05000000 	streq	r0, [r0, #-0]
     738:	00000409 	andeq	r0, r0, r9, lsl #8
     73c:	002c0702 	eoreq	r0, ip, r2, lsl #14
     740:	05040000 	streq	r0, [r4, #-0]
     744:	0000041c 	andeq	r0, r0, ip, lsl r4
     748:	00be0902 	adcseq	r0, lr, r2, lsl #18
     74c:	05080000 	streq	r0, [r8, #-0]
     750:	000003f4 	strdeq	r0, [r0], -r4
     754:	002c0d02 	eoreq	r0, ip, r2, lsl #26
     758:	05580000 	ldrbeq	r0, [r8, #-0]
     75c:	0000045e 	andeq	r0, r0, lr, asr r4
     760:	002c0e02 	eoreq	r0, ip, r2, lsl #28
     764:	005c0000 	subseq	r0, ip, r0
     768:	00007206 	andeq	r7, r0, r6, lsl #4
     76c:	0000ce00 	andeq	ip, r0, r0, lsl #28
     770:	006b0700 	rsbeq	r0, fp, r0, lsl #14
     774:	004f0000 	subeq	r0, pc, r0
     778:	00042108 	andeq	r2, r4, r8, lsl #2
     77c:	790f0200 	stmdbvc	pc, {r9}	; <UNPREDICTABLE>
     780:	09000000 	stmdbeq	r0, {}	; <UNPREDICTABLE>
     784:	0000044e 	andeq	r0, r0, lr, asr #8
     788:	002c0501 	eoreq	r0, ip, r1, lsl #10
     78c:	05980000 	ldreq	r0, [r8]
     790:	00320000 	eorseq	r0, r2, r0
     794:	9c010000 	stcls	0, cr0, [r1], {-0}
     798:	0000010b 	andeq	r0, r0, fp, lsl #2
     79c:	0100710a 	tsteq	r0, sl, lsl #2
     7a0:	00010b05 	andeq	r0, r1, r5, lsl #22
     7a4:	00014300 	andeq	r4, r1, r0, lsl #6
     7a8:	00630b00 	rsbeq	r0, r3, r0, lsl #22
     7ac:	00720501 	rsbseq	r0, r2, r1, lsl #10
     7b0:	51010000 	mrspl	r0, (UNDEF: 1)
     7b4:	11040c00 	tstne	r4, r0, lsl #24
     7b8:	0d000001 	stceq	0, cr0, [r0, #-4]
     7bc:	000000ce 	andeq	r0, r0, lr, asr #1
     7c0:	00042c09 	andeq	r2, r4, r9, lsl #24
     7c4:	72130100 	andsvc	r0, r3, #0, 2
     7c8:	00000000 	andeq	r0, r0, r0
     7cc:	14000000 	strne	r0, [r0], #-0
     7d0:	01000000 	mrseq	r0, (UNDEF: 0)
     7d4:	00013d9c 	muleq	r1, ip, sp
     7d8:	00710a00 	rsbseq	r0, r1, r0, lsl #20
     7dc:	010b1301 	tsteq	fp, r1, lsl #6
     7e0:	017d0000 	cmneq	sp, r0
     7e4:	09000000 	stmdbeq	r0, {}	; <UNPREDICTABLE>
     7e8:	00000456 	andeq	r0, r0, r6, asr r4
     7ec:	00721b01 	rsbseq	r1, r2, r1, lsl #22
     7f0:	05ca0000 	strbeq	r0, [sl]
     7f4:	002e0000 	eoreq	r0, lr, r0
     7f8:	9c010000 	stcls	0, cr0, [r1], {-0}
     7fc:	00000171 	andeq	r0, r0, r1, ror r1
     800:	0100710a 	tsteq	r0, sl, lsl #2
     804:	00010b1b 	andeq	r0, r1, fp, lsl fp
     808:	00019e00 	andeq	r9, r1, r0, lsl #28
     80c:	00630e00 	rsbeq	r0, r3, r0, lsl #28
     810:	00721c01 	rsbseq	r1, r2, r1, lsl #24
     814:	01bc0000 			; <UNDEFINED> instruction: 0x01bc0000
     818:	09000000 	stmdbeq	r0, {}	; <UNPREDICTABLE>
     81c:	0000043f 	andeq	r0, r0, pc, lsr r4
     820:	002c2a01 	eoreq	r2, ip, r1, lsl #20
     824:	05f80000 	ldrbeq	r0, [r8, #0]!
     828:	001c0000 	andseq	r0, ip, r0
     82c:	9c010000 	stcls	0, cr0, [r1], {-0}
     830:	000001a3 	andeq	r0, r0, r3, lsr #3
     834:	0100710a 	tsteq	r0, sl, lsl #2
     838:	00010b2a 	andeq	r0, r1, sl, lsr #22
     83c:	0001cf00 	andeq	ip, r1, r0, lsl #30
     840:	00690f00 	rsbeq	r0, r9, r0, lsl #30
     844:	002c2b01 	eoreq	r2, ip, r1, lsl #22
     848:	53010000 	movwpl	r0, #4096	; 0x1000
     84c:	04100900 	ldreq	r0, [r0], #-2304	; 0xfffff700
     850:	41010000 	mrsmi	r0, (UNDEF: 1)
     854:	0000002c 	andeq	r0, r0, ip, lsr #32
     858:	00000000 	andeq	r0, r0, r0
     85c:	00000004 	andeq	r0, r0, r4
     860:	01ca9c01 	biceq	r9, sl, r1, lsl #24
     864:	710a0000 	mrsvc	r0, (UNDEF: 10)
     868:	0b410100 	bleq	1040c70 <__DATA_END+0x103f280>
     86c:	f0000001 			; <UNDEFINED> instruction: 0xf0000001
     870:	00000001 	andeq	r0, r0, r1
     874:	0003fd09 	andeq	pc, r3, r9, lsl #26
     878:	2c450100 	stfcse	f0, [r5], {-0}
     87c:	00000000 	andeq	r0, r0, r0
     880:	14000000 	strne	r0, [r0], #-0
     884:	01000000 	mrseq	r0, (UNDEF: 0)
     888:	0002159c 	muleq	r2, ip, r5
     88c:	00710a00 	rsbseq	r0, r1, r0, lsl #20
     890:	010b4501 	tsteq	fp, r1, lsl #10
     894:	02110000 	andseq	r0, r1, #0
     898:	00100000 	andseq	r0, r0, r0
     89c:	15000000 	strne	r0, [r0, #-0]
     8a0:	04000002 	streq	r0, [r0], #-2
     8a4:	11000002 	tstne	r0, r2
     8a8:	74025001 	strvc	r5, [r2], #-1
     8ac:	00120008 	andseq	r0, r2, r8
     8b0:	15000000 	strne	r0, [r0, #-0]
     8b4:	11000002 	tstne	r0, r2
     8b8:	74025001 	strvc	r5, [r2], #-1
     8bc:	13000000 	movwne	r0, #0
     8c0:	00000449 	andeq	r0, r0, r9, asr #8
     8c4:	00000449 	andeq	r0, r0, r9, asr #8
     8c8:	67005603 	strvs	r5, [r0, -r3, lsl #12]
     8cc:	04000006 	streq	r0, [r0], #-6
     8d0:	0002ec00 	andeq	lr, r2, r0, lsl #24
     8d4:	0e010400 	cfcpyseq	mvf0, mvf1
     8d8:	0c000005 	stceq	0, cr0, [r0], {5}
     8dc:	000004c8 	andeq	r0, r0, r8, asr #9
     8e0:	000001a3 	andeq	r0, r0, r3, lsr #3
     8e4:	00000060 	andeq	r0, r0, r0, rrx
     8e8:	00000000 	andeq	r0, r0, r0
     8ec:	000002f3 	strdeq	r0, [r0], -r3
     8f0:	6d060102 	stfvss	f0, [r6, #-8]
     8f4:	03000001 	movweq	r0, #1
     8f8:	000000ee 	andeq	r0, r0, lr, ror #1
     8fc:	00371d02 	eorseq	r1, r7, r2, lsl #26
     900:	01020000 	mrseq	r0, (UNDEF: 2)
     904:	00016b08 	andeq	r6, r1, r8, lsl #22
     908:	05020200 	streq	r0, [r2, #-512]	; 0xfffffe00
     90c:	00000117 	andeq	r0, r0, r7, lsl r1
     910:	00010c03 	andeq	r0, r1, r3, lsl #24
     914:	502b0200 	eorpl	r0, fp, r0, lsl #4
     918:	02000000 	andeq	r0, r0, #0
     91c:	01dd0702 	bicseq	r0, sp, r2, lsl #14
     920:	04020000 	streq	r0, [r2], #-0
     924:	00012605 	andeq	r2, r1, r5, lsl #12
     928:	00f80300 	rscseq	r0, r8, r0, lsl #6
     92c:	41020000 	mrsmi	r0, (UNDEF: 2)
     930:	00000069 	andeq	r0, r0, r9, rrx
     934:	83070402 	movwhi	r0, #29698	; 0x7402
     938:	02000001 	andeq	r0, r0, #1
     93c:	01210508 	teqeq	r1, r8, lsl #10
     940:	08020000 	stmdaeq	r2, {}	; <UNPREDICTABLE>
     944:	00017e07 	andeq	r7, r1, r7, lsl #28
     948:	05040400 	streq	r0, [r4, #-1024]	; 0xfffffc00
     94c:	00746e69 	rsbseq	r6, r4, r9, ror #28
     950:	88070402 	stmdahi	r7, {r1, sl}
     954:	03000001 	movweq	r0, #1
     958:	000000f0 	strdeq	r0, [r0], -r0	; <UNPREDICTABLE>
     95c:	002c1403 	eoreq	r1, ip, r3, lsl #8
     960:	0e030000 	cdpeq	0, 0, cr0, cr3, cr0, {0}
     964:	03000001 	movweq	r0, #1
     968:	0000451a 	andeq	r4, r0, sl, lsl r5
     96c:	00fa0300 	rscseq	r0, sl, r0, lsl #6
     970:	20030000 	andcs	r0, r3, r0
     974:	0000005e 	andeq	r0, r0, lr, asr r0
     978:	a2070402 	andge	r0, r7, #33554432	; 0x2000000
     97c:	05000002 	streq	r0, [r0, #-2]
     980:	000000a2 	andeq	r0, r0, r2, lsr #1
     984:	0000b406 	andeq	fp, r0, r6, lsl #8
     988:	008c0700 	addeq	r0, ip, r0, lsl #14
     98c:	00ce0000 	sbceq	r0, lr, r0
     990:	ad080000 	stcge	0, cr0, [r8, #-0]
     994:	03000000 	movweq	r0, #0
     998:	008c0700 	addeq	r0, ip, r0, lsl #14
     99c:	00de0000 	sbcseq	r0, lr, r0
     9a0:	ad080000 	stcge	0, cr0, [r8, #-0]
     9a4:	07000000 	streq	r0, [r0, -r0]
     9a8:	008c0700 	addeq	r0, ip, r0, lsl #14
     9ac:	00ee0000 	rsceq	r0, lr, r0
     9b0:	ad080000 	stcge	0, cr0, [r8, #-0]
     9b4:	9b000000 	blls	9bc <PIT_IRQHandler+0x4>
     9b8:	04100900 	ldreq	r0, [r0], #-2304	; 0xfffff700
     9bc:	012c1191 			; <UNDEFINED> instruction: 0x012c1191
     9c0:	6d0a0000 	stcvs	0, cr0, [sl, #-0]
     9c4:	04000004 	streq	r0, [r0], #-4
     9c8:	00b41192 	umlalseq	r1, r4, r2, r1
     9cc:	0a000000 	beq	9d4 <PIT_IRQHandler+0x1c>
     9d0:	00000657 	andeq	r0, r0, r7, asr r6
     9d4:	b9119304 	ldmdblt	r1, {r2, r8, r9, ip, pc}
     9d8:	04000000 	streq	r0, [r0], #-0
     9dc:	0004ec0a 	andeq	lr, r4, sl, lsl #24
     9e0:	11940400 	orrsne	r0, r4, r0, lsl #8
     9e4:	000000b4 	strheq	r0, [r0], -r4
     9e8:	06c30a08 	strbeq	r0, [r3], r8, lsl #20
     9ec:	95040000 	strls	r0, [r4, #-0]
     9f0:	0000b411 	andeq	fp, r0, r1, lsl r4
     9f4:	0b000c00 	bleq	39fc <__DATA_END+0x200c>
     9f8:	8b040120 	blhi	100e80 <__DATA_END+0xff490>
     9fc:	00018611 	andeq	r8, r1, r1, lsl r6
     a00:	434d0c00 	movtmi	r0, #56320	; 0xdc00
     a04:	8c040052 	stchi	0, cr0, [r4], {82}	; 0x52
     a08:	0000b411 	andeq	fp, r0, r1, lsl r4
     a0c:	3e0a0000 	cdpcc	0, 0, cr0, cr10, cr0, {0}
     a10:	04000002 	streq	r0, [r0], #-2
     a14:	0186118d 	orreq	r1, r6, sp, lsl #3
     a18:	0a040000 	beq	100a20 <__DATA_END+0xff030>
     a1c:	000004f2 	strdeq	r0, [r0], -r2
     a20:	b9118e04 	ldmdblt	r1, {r2, r9, sl, fp, pc}
     a24:	e0000000 	and	r0, r0, r0
     a28:	0004fa0a 	andeq	pc, r4, sl, lsl #20
     a2c:	118f0400 	orrne	r0, pc, r0, lsl #8
     a30:	000000b9 	strheq	r0, [r0], -r9
     a34:	02490ae4 	subeq	r0, r9, #228, 20	; 0xe4000
     a38:	90040000 	andls	r0, r4, r0
     a3c:	00019611 	andeq	r9, r1, r1, lsl r6
     a40:	7a0de800 	bvc	37aa48 <__DATA_END+0x379058>
     a44:	04000004 	streq	r0, [r0], #-4
     a48:	01a61196 			; <UNDEFINED> instruction: 0x01a61196
     a4c:	01000000 	mrseq	r0, (UNDEF: 0)
     a50:	008c0700 	addeq	r0, ip, r0, lsl #14
     a54:	01960000 	orrseq	r0, r6, r0
     a58:	ad080000 	stcge	0, cr0, [r8, #-0]
     a5c:	db000000 	blle	a64 <uartInit+0x64>
     a60:	008c0700 	addeq	r0, ip, r0, lsl #14
     a64:	01a60000 			; <UNDEFINED> instruction: 0x01a60000
     a68:	ad080000 	stcge	0, cr0, [r8, #-0]
     a6c:	17000000 	strne	r0, [r0, -r0]
     a70:	00ee0700 	rsceq	r0, lr, r0, lsl #14
     a74:	01b60000 			; <UNDEFINED> instruction: 0x01b60000
     a78:	ad080000 	stcge	0, cr0, [r8, #-0]
     a7c:	01000000 	mrseq	r0, (UNDEF: 0)
     a80:	06050e00 	streq	r0, [r5], -r0, lsl #28
     a84:	97040000 	strls	r0, [r4, -r0]
     a88:	00012c11 	andeq	r2, r1, r1, lsl ip
     a8c:	11080b00 	tstne	r8, r0, lsl #22
     a90:	44166504 	ldrmi	r6, [r6], #-1284	; 0xfffffafc
     a94:	0a000003 	beq	aa8 <uartInit+0xa8>
     a98:	00000217 	andeq	r0, r0, r7, lsl r2
     a9c:	b4166604 	ldrlt	r6, [r6], #-1540	; 0xfffff9fc
     aa0:	00000000 	andeq	r0, r0, r0
     aa4:	00012f0a 	andeq	r2, r1, sl, lsl #30
     aa8:	16670400 	strbtne	r0, [r7], -r0, lsl #8
     aac:	000000b4 	strheq	r0, [r0], -r4
     ab0:	023e0a04 	eorseq	r0, lr, #4, 20	; 0x4000
     ab4:	68040000 	stmdavs	r4, {}	; <UNPREDICTABLE>
     ab8:	00034416 	andeq	r4, r3, r6, lsl r4
     abc:	500d0800 	andpl	r0, sp, r0, lsl #16
     ac0:	04000001 	streq	r0, [r0], #-1
     ac4:	00b41669 	adcseq	r1, r4, r9, ror #12
     ac8:	10040000 	andne	r0, r4, r0
     acc:	0002490d 	andeq	r4, r2, sp, lsl #18
     ad0:	166a0400 	strbtne	r0, [sl], -r0, lsl #8
     ad4:	000000be 	strheq	r0, [r0], -lr
     ad8:	dc0d1008 	stcle	0, cr1, [sp], {8}
     adc:	04000002 	streq	r0, [r0], #-2
     ae0:	00b4166b 	adcseq	r1, r4, fp, ror #12
     ae4:	100c0000 	andne	r0, ip, r0
     ae8:	0000000d 	andeq	r0, r0, sp
     aec:	166c0400 	strbtne	r0, [ip], -r0, lsl #8
     af0:	000000b4 	strheq	r0, [r0], -r4
     af4:	540d1010 	strpl	r1, [sp], #-16
     af8:	04000002 	streq	r0, [r0], #-2
     afc:	00be166d 	adcseq	r1, lr, sp, ror #12
     b00:	10140000 	andsne	r0, r4, r0
     b04:	00015d0d 	andeq	r5, r1, sp, lsl #26
     b08:	166e0400 	strbtne	r0, [lr], -r0, lsl #8
     b0c:	000000b4 	strheq	r0, [r0], -r4
     b10:	5f0d1018 	svcpl	0x000d1018
     b14:	04000002 	streq	r0, [r0], #-2
     b18:	00ce166f 	sbceq	r1, lr, pc, ror #12
     b1c:	101c0000 	andsne	r0, ip, r0
     b20:	0000120d 	andeq	r1, r0, sp, lsl #4
     b24:	16700400 	ldrbtne	r0, [r0], -r0, lsl #8
     b28:	000000b9 	strheq	r0, [r0], -r9
     b2c:	6a0d1024 	bvs	344bc4 <__DATA_END+0x3431d4>
     b30:	04000002 	streq	r0, [r0], #-2
     b34:	03551671 	cmpeq	r5, #118489088	; 0x7100000
     b38:	10280000 	eorne	r0, r8, r0
     b3c:	0001380d 	andeq	r3, r1, sp, lsl #16
     b40:	16720400 	ldrbtne	r0, [r2], -r0, lsl #8
     b44:	000000b4 	strheq	r0, [r0], -r4
     b48:	3e0d1034 	mcrcc	0, 0, r1, cr13, cr4, {1}
     b4c:	04000001 	streq	r0, [r0], #-1
     b50:	00b41673 	adcseq	r1, r4, r3, ror r6
     b54:	10380000 	eorsne	r0, r8, r0
     b58:	0001440d 	andeq	r4, r1, sp, lsl #8
     b5c:	16740400 	ldrbtne	r0, [r4], -r0, lsl #8
     b60:	000000b4 	strheq	r0, [r0], -r4
     b64:	4a0d103c 	bmi	344c5c <__DATA_END+0x34326c>
     b68:	04000001 	streq	r0, [r0], #-1
     b6c:	00b41675 	adcseq	r1, r4, r5, ror r6
     b70:	10400000 	subne	r0, r0, r0
     b74:	0001630d 	andeq	r6, r1, sp, lsl #6
     b78:	16760400 	ldrbtne	r0, [r6], -r0, lsl #8
     b7c:	000000b4 	strheq	r0, [r0], -r4
     b80:	750d1044 	strvc	r1, [sp, #-68]	; 0xffffffbc
     b84:	04000002 	streq	r0, [r0], #-2
     b88:	00be1677 	adcseq	r1, lr, r7, ror r6
     b8c:	10480000 	subne	r0, r8, r0
     b90:	0000060d 	andeq	r0, r0, sp, lsl #12
     b94:	16780400 	ldrbtne	r0, [r8], -r0, lsl #8
     b98:	000000b4 	strheq	r0, [r0], -r4
     b9c:	0c0d104c 	stceq	0, cr1, [sp], {76}	; 0x4c
     ba0:	04000000 	streq	r0, [r0], #-0
     ba4:	00b91679 	adcseq	r1, r9, r9, ror r6
     ba8:	10500000 	subsne	r0, r0, r0
     bac:	0002800d 	andeq	r8, r2, sp
     bb0:	167a0400 	ldrbtne	r0, [sl], -r0, lsl #8
     bb4:	000000be 	strheq	r0, [r0], -lr
     bb8:	320d1054 	andcc	r1, sp, #84	; 0x54
     bbc:	04000002 	streq	r0, [r0], #-2
     bc0:	00b9167b 	adcseq	r1, r9, fp, ror r6
     bc4:	10580000 	subsne	r0, r8, r0
     bc8:	0002380d 	andeq	r3, r2, sp, lsl #16
     bcc:	167c0400 	ldrbtne	r0, [ip], -r0, lsl #8
     bd0:	000000b9 	strheq	r0, [r0], -r9
     bd4:	2d0d105c 	stccs	0, cr1, [sp, #-368]	; 0xfffffe90
     bd8:	04000002 	streq	r0, [r0], #-2
     bdc:	00b9167d 	adcseq	r1, r9, sp, ror r6
     be0:	10600000 	rsbne	r0, r0, r0
     be4:	00028b0d 	andeq	r8, r2, sp, lsl #22
     be8:	167e0400 	ldrbtne	r0, [lr], -r0, lsl #8
     bec:	000000de 	ldrdeq	r0, [r0], -lr
     bf0:	790d1064 	stmdbvc	sp, {r2, r5, r6, ip}
     bf4:	04000001 	streq	r0, [r0], #-1
     bf8:	00b4167f 	adcseq	r1, r4, pc, ror r6
     bfc:	11000000 	mrsne	r0, (UNDEF: 0)
     c00:	0001560d 	andeq	r5, r1, sp, lsl #12
     c04:	16800400 	strne	r0, [r0], r0, lsl #8
     c08:	000000b4 	strheq	r0, [r0], -r4
     c0c:	07001104 	streq	r1, [r0, -r4, lsl #2]
     c10:	0000008c 	andeq	r0, r0, ip, lsl #1
     c14:	00000355 	andeq	r0, r0, r5, asr r3
     c18:	0000ad0f 	andeq	sl, r0, pc, lsl #26
     c1c:	000ffb00 	andeq	pc, pc, r0, lsl #22
     c20:	00008c07 	andeq	r8, r0, r7, lsl #24
     c24:	00036500 	andeq	r6, r3, r0, lsl #10
     c28:	00ad0800 	adceq	r0, sp, r0, lsl #16
     c2c:	000b0000 	andeq	r0, fp, r0
     c30:	0001030e 	andeq	r0, r1, lr, lsl #6
     c34:	16810400 	strne	r0, [r1], r0, lsl #8
     c38:	000001c2 	andeq	r0, r0, r2, asr #3
     c3c:	00067810 	andeq	r7, r6, r0, lsl r8
     c40:	01840100 	orreq	r0, r4, r0, lsl #2
     c44:	0004cf10 	andeq	ip, r4, r0, lsl pc
     c48:	015d0100 	cmpeq	sp, r0, lsl #2
     c4c:	00037111 	andeq	r7, r3, r1, lsl r1
     c50:	00061400 	andeq	r1, r6, r0, lsl #8
     c54:	00004400 	andeq	r4, r0, r0, lsl #8
     c58:	9e9c0100 	fmllse	f0, f4, f0
     c5c:	12000003 	andne	r0, r0, #3
     c60:	00000630 	andeq	r0, r0, r0, lsr r6
     c64:	0000061d 	andeq	r0, r0, sp, lsl r6
     c68:	04dd1300 	ldrbeq	r1, [sp], #768	; 0x300
     c6c:	1f010000 	svcne	0x00010000
     c70:	000003b3 			; <UNDEFINED> instruction: 0x000003b3
     c74:	00000000 	andeq	r0, r0, r0
     c78:	0000000c 	andeq	r0, r0, ip
     c7c:	01029c01 	tsteq	r2, r1, lsl #24
     c80:	00017408 	andeq	r7, r1, r8, lsl #8
     c84:	04891400 	streq	r1, [r9], #1024	; 0x400
     c88:	45010000 	strmi	r0, [r1, #-0]
     c8c:	00000658 	andeq	r0, r0, r8, asr r6
     c90:	00000018 	andeq	r0, r0, r8, lsl r0
     c94:	03e39c01 	mvneq	r9, #256	; 0x100
     c98:	64150000 	ldrvs	r0, [r5], #-0
     c9c:	28000006 	stmdacs	r0, {r1, r2}
     ca0:	16000006 	strne	r0, [r0], -r6
     ca4:	03055001 	movweq	r5, #20481	; 0x5001
     ca8:	00000615 	andeq	r0, r0, r5, lsl r6
     cac:	1a140000 	bne	500cb4 <__DATA_END+0x4ff2c4>
     cb0:	01000006 	tsteq	r0, r6
     cb4:	0006704a 	andeq	r7, r6, sl, asr #32
     cb8:	00001400 	andeq	r1, r0, r0, lsl #8
     cbc:	139c0100 	orrsne	r0, ip, #0, 2
     cc0:	15000004 	strne	r0, [r0, #-4]
     cc4:	0000067a 	andeq	r0, r0, sl, ror r6
     cc8:	00000633 	andeq	r0, r0, r3, lsr r6
     ccc:	05500116 	ldrbeq	r0, [r0, #-278]	; 0xfffffeea
     cd0:	00075903 	andeq	r5, r7, r3, lsl #18
     cd4:	51011600 	tstpl	r1, r0, lsl #12
     cd8:	4e200a03 	vmulmi.f32	s0, s0, s6
     cdc:	2d140000 	ldccs	0, cr0, [r4, #-0]
     ce0:	01000006 	tsteq	r0, r6
     ce4:	0006844f 	andeq	r8, r6, pc, asr #8
     ce8:	00002400 	andeq	r2, r0, r0, lsl #8
     cec:	3b9c0100 	blcc	fe7010f4 <__StackTop+0xde6fe0f4>
     cf0:	12000004 	andne	r0, r0, #4
     cf4:	0000068a 	andeq	r0, r0, sl, lsl #13
     cf8:	0000063e 	andeq	r0, r0, lr, lsr r6
     cfc:	00068e12 	andeq	r8, r6, r2, lsl lr
     d00:	00064900 	andeq	r4, r6, r0, lsl #18
     d04:	0e170000 	cdpeq	0, 1, cr0, cr7, cr0, {0}
     d08:	01000006 	tsteq	r0, r6
     d0c:	00007e24 	andeq	r7, r0, r4, lsr #28
     d10:	0006a800 	andeq	sl, r6, r0, lsl #16
     d14:	00009800 	andeq	r9, r0, r0, lsl #16
     d18:	cb9c0100 	blgt	fe701120 <__StackTop+0xde6fe120>
     d1c:	18000004 	stmdane	r0, {r2}
     d20:	000005fd 	strdeq	r0, [r0], -sp
     d24:	04cb2401 	strbeq	r2, [fp], #1025	; 0x401
     d28:	023d0000 	eorseq	r0, sp, #0
     d2c:	6c190000 	ldcvs	0, cr0, [r9], {-0}
     d30:	01006e65 	tsteq	r0, r5, ror #28
     d34:	00007e24 	andeq	r7, r0, r4, lsr #28
     d38:	00025e00 	andeq	r5, r2, r0, lsl #28
     d3c:	04731a00 	ldrbteq	r1, [r3], #-2560	; 0xfffff600
     d40:	26010000 	strcs	r0, [r1], -r0
     d44:	000000a2 	andeq	r0, r0, r2, lsr #1
     d48:	0000028e 	andeq	r0, r0, lr, lsl #5
     d4c:	0004a91b 	andeq	sl, r4, fp, lsl r9
     d50:	7e370100 	rsfvcs	f0, f7, f0
     d54:	92000000 	andls	r0, r0, #0
     d58:	1c000004 	stcne	0, cr0, [r0], {4}
     d5c:	06e61200 	strbteq	r1, [r6], r0, lsl #4
     d60:	06540000 	ldrbeq	r0, [r4], -r0
     d64:	ea120000 	b	480d6c <__DATA_END+0x47f37c>
     d68:	ba000006 	blt	d88 <start+0x78>
     d6c:	1d000003 	stcne	0, cr0, [r0, #-12]
     d70:	000006f0 	strdeq	r0, [r0], -r0	; <UNPREDICTABLE>
     d74:	0000065f 	andeq	r0, r0, pc, asr r6
     d78:	000004b8 			; <UNDEFINED> instruction: 0x000004b8
     d7c:	02500116 	subseq	r0, r0, #-2147483643	; 0x80000005
     d80:	12006408 	andne	r6, r0, #8, 8	; 0x8000000
     d84:	000006f4 	strdeq	r0, [r0], -r4
     d88:	000003e3 	andeq	r0, r0, r3, ror #7
     d8c:	00071012 	andeq	r1, r7, r2, lsl r0
     d90:	00041300 	andeq	r1, r4, r0, lsl #6
     d94:	041e0000 	ldreq	r0, [lr], #-0
     d98:	000003b3 			; <UNDEFINED> instruction: 0x000003b3
     d9c:	0006a81f 	andeq	sl, r6, pc, lsl r8
     da0:	40550100 	subsmi	r0, r5, r0, lsl #2
     da4:	18000007 	stmdane	r0, {r0, r1, r2}
     da8:	01000000 	mrseq	r0, (UNDEF: 0)
     dac:	0379119c 	cmneq	r9, #156, 2	; 0x27
     db0:	07580000 	ldrbeq	r0, [r8, -r0]
     db4:	00c80000 	sbceq	r0, r8, r0
     db8:	9c010000 	stcls	0, cr0, [r1], {-0}
     dbc:	00000508 	andeq	r0, r0, r8, lsl #10
     dc0:	0007a012 	andeq	sl, r7, r2, lsl r0
     dc4:	0004d100 	andeq	sp, r4, r0, lsl #2
     dc8:	07ac1200 	streq	r1, [ip, r0, lsl #4]!
     dcc:	04d10000 	ldrbeq	r0, [r1], #0
     dd0:	14000000 	strne	r0, [r0], #-0
     dd4:	0000049b 	muleq	r0, fp, r4
     dd8:	00009001 	andeq	r9, r0, r1
     ddc:	00280000 	eoreq	r0, r8, r0
     de0:	9c010000 	stcls	0, cr0, [r1], {-0}
     de4:	0000052d 	andeq	r0, r0, sp, lsr #10
     de8:	74696219 	strbtvc	r6, [r9], #-537	; 0xfffffde7
     dec:	b3900100 	orrslt	r0, r0, #0, 2
     df0:	a1000003 	tstge	r0, r3
     df4:	00000002 	andeq	r0, r0, r2
     df8:	00009707 	andeq	r9, r0, r7, lsl #14
     dfc:	00053d00 	andeq	r3, r5, r0, lsl #26
     e00:	00ad0800 	adceq	r0, sp, r0, lsl #16
     e04:	003f0000 	eorseq	r0, pc, r0
     e08:	0005e020 	andeq	lr, r5, r0, lsr #32
     e0c:	2d240500 	cfstr32cs	mvfx0, [r4, #-0]
     e10:	21000005 	tstcs	r0, r5
     e14:	0000066a 	andeq	r0, r0, sl, ror #12
     e18:	05591401 	ldrbeq	r1, [r9, #-1025]	; 0xfffffbff
     e1c:	03050000 	movweq	r0, #20480	; 0x5000
     e20:	1ffff224 	svcne	0x00fff224
     e24:	00007e05 	andeq	r7, r0, r5, lsl #28
     e28:	04af2100 	strteq	r2, [pc], #256	; e30 <main+0x90>
     e2c:	15010000 	strne	r0, [r1, #-0]
     e30:	0000056f 	andeq	r0, r0, pc, ror #10
     e34:	f21c0305 	vcgt.s16	d0, d12, d5
     e38:	041e1fff 	ldreq	r1, [lr], #-4095	; 0xfffff001
     e3c:	00000575 	andeq	r0, r0, r5, ror r5
     e40:	0003b305 	andeq	fp, r3, r5, lsl #6
     e44:	04bb2100 	ldrteq	r2, [fp], #256	; 0x100
     e48:	16010000 	strne	r0, [r1], -r0
     e4c:	00000559 	andeq	r0, r0, r9, asr r5
     e50:	f20c0305 	vcgt.s8	d0, d12, d5
     e54:	b7211fff 			; <UNDEFINED> instruction: 0xb7211fff
     e58:	01000006 	tsteq	r0, r6
     e5c:	00059c17 	andeq	r9, r5, r7, lsl ip
     e60:	09030500 	stmdbeq	r3, {r8, sl}
     e64:	051ffff2 	ldreq	pc, [pc, #-4082]	; fffffe7a <__StackTop+0xdfffce7a>
     e68:	00000025 	andeq	r0, r0, r5, lsr #32
     e6c:	00069c21 	andeq	r9, r6, r1, lsr #24
     e70:	75180100 	ldrvc	r0, [r8, #-256]	; 0xffffff00
     e74:	05000005 	streq	r0, [r0, #-5]
     e78:	fff21803 			; <UNDEFINED> instruction: 0xfff21803
     e7c:	06c8211f 			; <UNDEFINED> instruction: 0x06c8211f
     e80:	23010000 	movwcs	r0, #4096	; 0x1000
     e84:	000005c3 	andeq	r0, r0, r3, asr #11
     e88:	f20a0305 	vcgt.s8	d0, d10, d5
     e8c:	97051fff 			; <UNDEFINED> instruction: 0x97051fff
     e90:	21000000 	mrscs	r0, (UNDEF: 0)
     e94:	0000064a 	andeq	r0, r0, sl, asr #12
     e98:	059c1901 	ldreq	r1, [ip, #2305]	; 0x901
     e9c:	03050000 	movweq	r0, #20480	; 0x5000
     ea0:	1ffff210 	svcne	0x00fff210
     ea4:	00050221 	andeq	r0, r5, r1, lsr #4
     ea8:	751a0100 	ldrvc	r0, [sl, #-256]	; 0xffffff00
     eac:	05000005 	streq	r0, [r0, #-5]
     eb0:	fff21103 			; <UNDEFINED> instruction: 0xfff21103
     eb4:	063c211f 			; <UNDEFINED> instruction: 0x063c211f
     eb8:	1c010000 	stcne	0, cr0, [r1], {-0}
     ebc:	000000b4 	strheq	r0, [r0], -r4
     ec0:	f2140305 	vcgt.s16	d0, d4, d5
     ec4:	5c211fff 	stcpl	15, cr1, [r1], #-1020	; 0xfffffc04
     ec8:	01000006 	tsteq	r0, r6
     ecc:	0005751d 	andeq	r7, r5, sp, lsl r5
     ed0:	08030500 	stmdaeq	r3, {r8, sl}
     ed4:	211ffff2 			; <UNDEFINED> instruction: 0x211ffff2
     ed8:	00000686 	andeq	r0, r0, r6, lsl #13
     edc:	05751b01 	ldrbeq	r1, [r5, #-2817]!	; 0xfffff4ff
     ee0:	03050000 	movweq	r0, #20480	; 0x5000
     ee4:	1ffff220 	svcne	0x00fff220
     ee8:	00048222 	andeq	r8, r4, r2, lsr #4
     eec:	00048200 	andeq	r8, r4, r0, lsl #4
     ef0:	22080600 	andcs	r0, r8, #0, 12
     ef4:	000005d6 	ldrdeq	r0, [r0], -r6
     ef8:	000005d6 	ldrdeq	r0, [r0], -r6
     efc:	ea220a07 	b	883720 <__DATA_END+0x881d30>
     f00:	ea000005 	b	f1c <initDRA+0x74>
     f04:	07000005 	streq	r0, [r0, -r5]
     f08:	05f4220b 	ldrbeq	r2, [r4, #523]!	; 0x20b
     f0c:	05f40000 	ldrbeq	r0, [r4, #0]!
     f10:	0c070000 	stceq	0, cr0, [r7], {-0}
     f14:	00069322 	andeq	r9, r6, r2, lsr #6
     f18:	00069300 	andeq	r9, r6, r0, lsl #6
     f1c:	220d0700 	andcs	r0, sp, #0, 14
     f20:	00000465 	andeq	r0, r0, r5, ror #8
     f24:	00000465 	andeq	r0, r0, r5, ror #8
     f28:	a9220506 	stmdbge	r2!, {r1, r2, r8, sl}
     f2c:	a9000004 	stmdbge	r0, {r2}
     f30:	01000004 	tsteq	r0, r4
     f34:	03000037 	movweq	r0, #55	; 0x37
     f38:	00040000 	andeq	r0, r4, r0
     f3c:	000004db 	ldrdeq	r0, [r0], -fp
     f40:	00170104 	andseq	r0, r7, r4, lsl #2
     f44:	420c0000 	andmi	r0, ip, #0
     f48:	a3000007 	movwge	r0, #7
     f4c:	b0000001 	andlt	r0, r0, r1
     f50:	00000000 	andeq	r0, r0, r0
     f54:	9d000000 	stcls	0, cr0, [r0, #-0]
     f58:	02000004 	andeq	r0, r0, #4
     f5c:	016d0601 	cmneq	sp, r1, lsl #12
     f60:	01020000 	mrseq	r0, (UNDEF: 2)
     f64:	00016b08 	andeq	r6, r1, r8, lsl #22
     f68:	05020200 	streq	r0, [r2, #-512]	; 0xfffffe00
     f6c:	00000117 	andeq	r0, r0, r7, lsl r1
     f70:	00010c03 	andeq	r0, r1, r3, lsl #24
     f74:	452b0200 	strmi	r0, [fp, #-512]!	; 0xfffffe00
     f78:	02000000 	andeq	r0, r0, #0
     f7c:	01dd0702 	bicseq	r0, sp, r2, lsl #14
     f80:	04020000 	streq	r0, [r2], #-0
     f84:	00012605 	andeq	r2, r1, r5, lsl #12
     f88:	00f80300 	rscseq	r0, r8, r0, lsl #6
     f8c:	41020000 	mrsmi	r0, (UNDEF: 2)
     f90:	0000005e 	andeq	r0, r0, lr, asr r0
     f94:	83070402 	movwhi	r0, #29698	; 0x7402
     f98:	02000001 	andeq	r0, r0, #1
     f9c:	01210508 	teqeq	r1, r8, lsl #10
     fa0:	08020000 	stmdaeq	r2, {}	; <UNPREDICTABLE>
     fa4:	00017e07 	andeq	r7, r1, r7, lsl #28
     fa8:	05040400 	streq	r0, [r4, #-1024]	; 0xfffffc00
     fac:	00746e69 	rsbseq	r6, r4, r9, ror #28
     fb0:	88070402 	stmdahi	r7, {r1, sl}
     fb4:	03000001 	movweq	r0, #1
     fb8:	0000010e 	andeq	r0, r0, lr, lsl #2
     fbc:	003a1a03 	eorseq	r1, sl, r3, lsl #20
     fc0:	fa030000 	blx	c0fc8 <__DATA_END+0xbf5d8>
     fc4:	03000000 	movweq	r0, #0
     fc8:	00005320 	andeq	r5, r0, r0, lsr #6
     fcc:	07040200 	streq	r0, [r4, -r0, lsl #4]
     fd0:	000002a2 	andeq	r0, r0, r2, lsr #5
     fd4:	00008c05 	andeq	r8, r0, r5, lsl #24
     fd8:	009e0600 	addseq	r0, lr, r0, lsl #12
     fdc:	18070000 	stmdane	r7, {}	; <UNPREDICTABLE>
     fe0:	0006ff04 	andeq	pc, r6, r4, lsl #30
     fe4:	08000001 	stmdaeq	r0, {r0}
     fe8:	000006f8 	strdeq	r0, [r0], -r8
     fec:	9e070004 	cdpls	0, 0, cr0, cr7, cr4, {0}
     ff0:	00000000 	andeq	r0, r0, r0
     ff4:	00072408 	andeq	r2, r7, r8, lsl #8
     ff8:	07010400 	streq	r0, [r1, -r0, lsl #8]
     ffc:	0000009e 	muleq	r0, lr, r0
    1000:	07690804 	strbeq	r0, [r9, -r4, lsl #16]!
    1004:	02040000 	andeq	r0, r4, #0
    1008:	00009e07 	andeq	r9, r0, r7, lsl #28
    100c:	54080800 	strpl	r0, [r8], #-2048	; 0xfffff800
    1010:	04000007 	streq	r0, [r0], #-7
    1014:	009e0703 	addseq	r0, lr, r3, lsl #14
    1018:	080c0000 	stmdaeq	ip, {}	; <UNPREDICTABLE>
    101c:	000006ea 	andeq	r0, r0, sl, ror #13
    1020:	a3070404 	movwge	r0, #29700	; 0x7404
    1024:	10000000 	andne	r0, r0, r0
    1028:	00070a08 	andeq	r0, r7, r8, lsl #20
    102c:	07050400 	streq	r0, [r5, -r0, lsl #8]
    1030:	0000009e 	muleq	r0, lr, r0
    1034:	0f090014 	svceq	0x00090014
    1038:	04000007 	streq	r0, [r0], #-7
    103c:	00a80706 	adceq	r0, r8, r6, lsl #14
    1040:	320a0000 	andcc	r0, sl, #0
    1044:	01000007 	tsteq	r0, r7
    1048:	00082021 	andeq	r2, r8, r1, lsr #32
    104c:	00002800 	andeq	r2, r0, r0, lsl #16
    1050:	2b9c0100 	blcs	fe701458 <__StackTop+0xde6fe458>
    1054:	0b000001 	bleq	1060 <initGps+0x14>
    1058:	00000834 	andeq	r0, r0, r4, lsr r8
    105c:	000002cc 	andeq	r0, r0, ip, asr #5
    1060:	073b0a00 	ldreq	r0, [fp, -r0, lsl #20]!
    1064:	27010000 	strcs	r0, [r1, -r0]
    1068:	00000848 	andeq	r0, r0, r8, asr #16
    106c:	00000038 	andeq	r0, r0, r8, lsr r0
    1070:	018b9c01 	orreq	r9, fp, r1, lsl #24
    1074:	290c0000 	stmdbcs	ip, {}	; <UNPREDICTABLE>
    1078:	01000007 	tsteq	r0, r7
    107c:	00018b27 	andeq	r8, r1, r7, lsr #22
    1080:	0002c200 	andeq	ip, r2, r0, lsl #4
    1084:	07190d00 	ldreq	r0, [r9, -r0, lsl #26]
    1088:	28010000 	stmdacs	r1, {}	; <UNPREDICTABLE>
    108c:	0000005e 	andeq	r0, r0, lr, asr r0
    1090:	00085a0e 	andeq	r5, r8, lr, lsl #20
    1094:	0002d700 	andeq	sp, r2, r0, lsl #14
    1098:	00017800 	andeq	r7, r1, r0, lsl #16
    109c:	50010f00 	andpl	r0, r1, r0, lsl #30
    10a0:	08210305 	stmdaeq	r1!, {r0, r2, r8, r9}
    10a4:	010f0000 	mrseq	r0, CPSR
    10a8:	710a0351 	tstvc	sl, r1, asr r3
    10ac:	680b0002 	stmdavs	fp, {r1}
    10b0:	e2000008 	and	r0, r0, #8
    10b4:	0b000002 	bleq	10c4 <ParseGPS+0x5c>
    10b8:	0000086c 	andeq	r0, r0, ip, ror #16
    10bc:	000002ed 	andeq	r0, r0, sp, ror #5
    10c0:	08010200 	stmdaeq	r1, {r9}
    10c4:	00000174 	andeq	r0, r0, r4, ror r1
    10c8:	00076210 	andeq	r6, r7, r0, lsl r2
    10cc:	8b340100 	blhi	d014d4 <__DATA_END+0xcffae4>
    10d0:	80000001 	andhi	r0, r0, r1
    10d4:	88000008 	stmdahi	r0, {r3}
    10d8:	01000000 	mrseq	r0, (UNDEF: 0)
    10dc:	00024e9c 	muleq	r2, ip, lr
    10e0:	041c0c00 	ldreq	r0, [ip], #-3072	; 0xfffff400
    10e4:	34010000 	strcc	r0, [r1], #-0
    10e8:	0000024e 	andeq	r0, r0, lr, asr #4
    10ec:	000002e3 	andeq	r0, r0, r3, ror #5
    10f0:	6e656c11 	mcrvs	12, 3, r6, cr5, cr1, {0}
    10f4:	73340100 	teqvc	r4, #0, 2
    10f8:	04000000 	streq	r0, [r0], #-0
    10fc:	12000003 	andne	r0, r0, #3
    1100:	000006d8 	ldrdeq	r0, [r0], -r8
    1104:	018b3601 	orreq	r3, fp, r1, lsl #12
    1108:	03250000 	teqeq	r5, #0
    110c:	ef120000 	svc	0x00120000
    1110:	01000006 	tsteq	r0, r6
    1114:	00018b37 	andeq	r8, r1, r7, lsr fp
    1118:	00037800 	andeq	r7, r3, r0, lsl #16
    111c:	06e01200 	strbteq	r1, [r0], r0, lsl #4
    1120:	38010000 	stmdacc	r1, {}	; <UNPREDICTABLE>
    1124:	0000024e 	andeq	r0, r0, lr, asr #4
    1128:	000003c8 	andeq	r0, r0, r8, asr #7
    112c:	0006d012 	andeq	sp, r6, r2, lsl r0
    1130:	8b390100 	blhi	e41538 <__DATA_END+0xe3fb48>
    1134:	e7000001 	str	r0, [r0, -r1]
    1138:	0b000003 	bleq	114c <ParseGPS+0xe4>
    113c:	00000894 	muleq	r0, r4, r8
    1140:	000002f8 	strdeq	r0, [r0], -r8
    1144:	0008dc0e 	andeq	sp, r8, lr, lsl #24
    1148:	00012b00 	andeq	r2, r1, r0, lsl #22
    114c:	00022800 	andeq	r2, r2, r0, lsl #16
    1150:	50010f00 	andpl	r0, r1, r0, lsl #30
    1154:	76800808 	strvc	r0, [r0], r8, lsl #16
    1158:	00772600 	rsbseq	r2, r7, r0, lsl #12
    115c:	e60e001a 			; <UNDEFINED> instruction: 0xe60e001a
    1160:	e2000008 	and	r0, r0, #8
    1164:	3c000002 	stccc	0, cr0, [r0], {2}
    1168:	0f000002 	svceq	0x00000002
    116c:	08025001 	stmdaeq	r2, {r0, ip, lr}
    1170:	f4130064 			; <UNDEFINED> instruction: 0xf4130064
    1174:	e2000008 	and	r0, r0, #8
    1178:	0f000002 	svceq	0x00000002
    117c:	0a035001 	beq	d5188 <__DATA_END+0xd3798>
    1180:	0000012c 	andeq	r0, r0, ip, lsr #2
    1184:	018b0414 	orreq	r0, fp, r4, lsl r4
    1188:	81150000 	tsthi	r5, r0
    118c:	64000000 	strvs	r0, [r0], #-0
    1190:	16000002 	strne	r0, [r0], -r2
    1194:	00000097 	muleq	r0, r7, r0
    1198:	e017003f 	ands	r0, r7, pc, lsr r0
    119c:	05000005 	streq	r0, [r0, #-5]
    11a0:	0002540a 	andeq	r5, r2, sl, lsl #8
    11a4:	018b1500 	orreq	r1, fp, r0, lsl #10
    11a8:	027f0000 	rsbseq	r0, pc, #0
    11ac:	97160000 	ldrls	r0, [r6, -r0]
    11b0:	19000000 	stmdbne	r0, {}	; <UNPREDICTABLE>
    11b4:	07471800 	strbeq	r1, [r7, -r0, lsl #16]
    11b8:	18010000 	stmdane	r1, {}	; <UNPREDICTABLE>
    11bc:	00000290 	muleq	r0, r0, r2
    11c0:	17a00305 	strne	r0, [r0, r5, lsl #6]!
    11c4:	6f060000 	svcvs	0x00060000
    11c8:	15000002 	strne	r0, [r0, #-2]
    11cc:	0000018b 	andeq	r0, r0, fp, lsl #3
    11d0:	000002a5 	andeq	r0, r0, r5, lsr #5
    11d4:	00009716 	andeq	r9, r0, r6, lsl r7
    11d8:	18000900 	stmdane	r0, {r8, fp}
    11dc:	000006fd 	strdeq	r0, [r0], -sp
    11e0:	02b61c01 	adcseq	r1, r6, #256	; 0x100
    11e4:	03050000 	movweq	r0, #20480	; 0x5000
    11e8:	000017ba 			; <UNDEFINED> instruction: 0x000017ba
    11ec:	00029506 	andeq	r9, r2, r6, lsl #10
    11f0:	07591800 	ldrbeq	r1, [r9, -r0, lsl #16]
    11f4:	1f010000 	svcne	0x00010000
    11f8:	00000073 	andeq	r0, r0, r3, ror r0
    11fc:	f2280305 	vcgt.s32	d0, d8, d5
    1200:	82191fff 	andshi	r1, r9, #1020	; 0x3fc
    1204:	82000004 	andhi	r0, r0, #4
    1208:	06000004 	streq	r0, [r0], -r4
    120c:	05d61908 	ldrbeq	r1, [r6, #2312]	; 0x908
    1210:	05d60000 	ldrbeq	r0, [r6]
    1214:	0a070000 	beq	1c121c <__DATA_END+0x1bf82c>
    1218:	0004a919 	andeq	sl, r4, r9, lsl r9
    121c:	0004a900 	andeq	sl, r4, r0, lsl #18
    1220:	190b0800 	stmdbne	fp, {fp}
    1224:	000005f4 	strdeq	r0, [r0], -r4
    1228:	000005f4 	strdeq	r0, [r0], -r4
    122c:	65190c07 	ldrvs	r0, [r9, #-3079]	; 0xfffff3f9
    1230:	65000004 	strvs	r0, [r0, #-4]
    1234:	06000004 	streq	r0, [r0], -r4
    1238:	06d00005 	ldrbeq	r0, [r0], r5
    123c:	00040000 	andeq	r0, r4, r0
    1240:	00000636 	andeq	r0, r0, r6, lsr r6
    1244:	00170104 	andseq	r0, r7, r4, lsl #2
    1248:	ce0c0000 	cdpgt	0, 0, cr0, cr12, cr0, {0}
    124c:	a3000009 	movwge	r0, #9
    1250:	d0000001 	andle	r0, r0, r1
    1254:	00000000 	andeq	r0, r0, r0
    1258:	c0000000 	andgt	r0, r0, r0
    125c:	02000005 	andeq	r0, r0, #5
    1260:	016d0601 	cmneq	sp, r1, lsl #12
    1264:	ee030000 	cdp	0, 0, cr0, cr3, cr0, {0}
    1268:	04000000 	streq	r0, [r0], #-0
    126c:	0000371d 	andeq	r3, r0, sp, lsl r7
    1270:	08010200 	stmdaeq	r1, {r9}
    1274:	0000016b 	andeq	r0, r0, fp, ror #2
    1278:	17050202 	strne	r0, [r5, -r2, lsl #4]
    127c:	02000001 	andeq	r0, r0, #1
    1280:	01dd0702 	bicseq	r0, sp, r2, lsl #14
    1284:	04020000 	streq	r0, [r2], #-0
    1288:	00012605 	andeq	r2, r1, r5, lsl #12
    128c:	00f80300 	rscseq	r0, r8, r0, lsl #6
    1290:	41040000 	mrsmi	r0, (UNDEF: 4)
    1294:	0000005e 	andeq	r0, r0, lr, asr r0
    1298:	83070402 	movwhi	r0, #29698	; 0x7402
    129c:	02000001 	andeq	r0, r0, #1
    12a0:	01210508 	teqeq	r1, r8, lsl #10
    12a4:	08020000 	stmdaeq	r2, {}	; <UNPREDICTABLE>
    12a8:	00017e07 	andeq	r7, r1, r7, lsl #28
    12ac:	05040400 	streq	r0, [r4, #-1024]	; 0xfffffc00
    12b0:	00746e69 	rsbseq	r6, r4, r9, ror #28
    12b4:	88070402 	stmdahi	r7, {r1, sl}
    12b8:	03000001 	movweq	r0, #1
    12bc:	000000f0 	strdeq	r0, [r0], -r0	; <UNPREDICTABLE>
    12c0:	002c1405 	eoreq	r1, ip, r5, lsl #8
    12c4:	fa030000 	blx	c12cc <__DATA_END+0xbf8dc>
    12c8:	05000000 	streq	r0, [r0, #-0]
    12cc:	00005320 	andeq	r5, r0, r0, lsr #6
    12d0:	08020500 	stmdaeq	r2, {r8, sl}
    12d4:	25010000 	strcs	r0, [r1, #-0]
    12d8:	06000000 	streq	r0, [r0], -r0
    12dc:	00018d8b 	andeq	r8, r1, fp, lsl #27
    12e0:	07d60600 	ldrbeq	r0, [r6, r0, lsl #12]
    12e4:	7f800000 	svcvc	0x00800000
    12e8:	00094706 	andeq	r4, r9, r6, lsl #14
    12ec:	af067200 	svcge	0x00067200
    12f0:	73000008 	movwvc	r0, #8
    12f4:	0008a306 	andeq	sl, r8, r6, lsl #6
    12f8:	07067b00 	streq	r7, [r6, -r0, lsl #22]
    12fc:	7e000008 	cdpvc	0, 0, cr0, cr0, cr8, {0}
    1300:	00077706 	andeq	r7, r7, r6, lsl #14
    1304:	e4077f00 	str	r7, [r7], #-3840	; 0xfffff100
    1308:	00000007 	andeq	r0, r0, r7
    130c:	00093407 	andeq	r3, r9, r7, lsl #8
    1310:	cc070100 	stfgts	f0, [r7], {-0}
    1314:	02000007 	andeq	r0, r0, #7
    1318:	00079e07 	andeq	r9, r7, r7, lsl #28
    131c:	f7070300 			; <UNDEFINED> instruction: 0xf7070300
    1320:	04000007 	streq	r0, [r0], #-7
    1324:	00097c07 	andeq	r7, r9, r7, lsl #24
    1328:	5b070500 	blpl	1c2730 <__DATA_END+0x1c0d40>
    132c:	06000009 	streq	r0, [r0], -r9
    1330:	0009a407 	andeq	sl, r9, r7, lsl #8
    1334:	2a070700 	bcs	1c2f3c <__DATA_END+0x1c154c>
    1338:	08000009 	stmdaeq	r0, {r0, r3}
    133c:	0007c207 	andeq	ip, r7, r7, lsl #4
    1340:	94070900 	strls	r0, [r7], #-2304	; 0xfffff700
    1344:	0a000008 	beq	136c <atexit+0x4>
    1348:	00078407 	andeq	r8, r7, r7, lsl #8
    134c:	b8070b00 	stmdalt	r7, {r8, r9, fp}
    1350:	0c000009 	stceq	0, cr0, [r0], {9}
    1354:	00085307 	andeq	r5, r8, r7, lsl #6
    1358:	c3070d00 	movwgt	r0, #32000	; 0x7d00
    135c:	0e000009 	cdpeq	0, 0, cr0, cr0, cr9, {0}
    1360:	0008f807 	andeq	pc, r8, r7, lsl #16
    1364:	90070f00 	andls	r0, r7, r0, lsl #30
    1368:	10000009 	andne	r0, r0, r9
    136c:	00099a07 	andeq	r9, r9, r7, lsl #20
    1370:	13071100 	movwne	r1, #28928	; 0x7100
    1374:	12000008 	andne	r0, r0, #8
    1378:	00098607 	andeq	r8, r9, r7, lsl #12
    137c:	3e071300 	cdpcc	3, 0, cr1, cr7, cr0, {0}
    1380:	14000009 	strne	r0, [r0], #-9
    1384:	0008d707 	andeq	sp, r8, r7, lsl #14
    1388:	6e071500 	cfsh32vs	mvfx1, mvfx7, #0
    138c:	16000007 	strne	r0, [r0], -r7
    1390:	0009ae07 	andeq	sl, r9, r7, lsl #28
    1394:	da071700 	ble	1c6f9c <__DATA_END+0x1c55ac>
    1398:	18000009 	stmdane	r0, {r0, r3}
    139c:	0007a807 	andeq	sl, r7, r7, lsl #16
    13a0:	20071900 	andcs	r1, r7, r0, lsl #18
    13a4:	1a000009 	bne	13d0 <__libc_init_array+0x4>
    13a8:	00096807 	andeq	r6, r9, r7, lsl #16
    13ac:	1d071b00 	vstrne	d1, [r7, #-0]
    13b0:	1c000008 	stcne	0, cr0, [r0], {8}
    13b4:	0008e807 	andeq	lr, r8, r7, lsl #16
    13b8:	71071d00 	tstvc	r7, r0, lsl #26
    13bc:	1e000009 	cdpne	0, 0, cr0, cr0, cr9, {0}
    13c0:	0008be07 	andeq	fp, r8, r7, lsl #28
    13c4:	03001f00 	movweq	r1, #3840	; 0xf00
    13c8:	00000876 	andeq	r0, r0, r6, ror r8
    13cc:	0097b706 	addseq	fp, r7, r6, lsl #14
    13d0:	20080000 	andcs	r0, r8, r0
    13d4:	01230203 	teqeq	r3, r3, lsl #4
    13d8:	0000022a 	andeq	r0, r0, sl, lsr #4
    13dc:	00090709 	andeq	r0, r9, r9, lsl #14
    13e0:	01250200 	teqeq	r5, r0, lsl #4
    13e4:	00000241 	andeq	r0, r0, r1, asr #4
    13e8:	07940900 	ldreq	r0, [r4, r0, lsl #18]
    13ec:	26020000 	strcs	r0, [r2], -r0
    13f0:	00024601 	andeq	r4, r2, r1, lsl #12
    13f4:	9e090400 	cfcpysls	mvf0, mvf9
    13f8:	02000008 	andeq	r0, r0, #8
    13fc:	02560127 	subseq	r0, r6, #-1073741815	; 0xc0000009
    1400:	09800000 	stmibeq	r0, {}	; <UNPREDICTABLE>
    1404:	000007ee 	andeq	r0, r0, lr, ror #15
    1408:	46012802 	strmi	r2, [r1], -r2, lsl #16
    140c:	84000002 	strhi	r0, [r0], #-2
    1410:	0009020a 	andeq	r0, r9, sl, lsl #4
    1414:	01290200 	teqeq	r9, r0, lsl #4
    1418:	0000025b 	andeq	r0, r0, fp, asr r2
    141c:	160a0100 	strne	r0, [sl], -r0, lsl #2
    1420:	02000009 	andeq	r0, r0, #9
    1424:	0246012a 	subeq	r0, r6, #-2147483638	; 0x8000000a
    1428:	01040000 	mrseq	r0, (UNDEF: 4)
    142c:	0008800a 	andeq	r8, r8, sl
    1430:	012b0200 	teqeq	fp, r0, lsl #4
    1434:	00000260 	andeq	r0, r0, r0, ror #4
    1438:	b20a0180 	andlt	r0, sl, #128, 2
    143c:	02000007 	andeq	r0, r0, #7
    1440:	0246012c 	subeq	r0, r6, #44, 2
    1444:	01840000 	orreq	r0, r4, r0
    1448:	00090c0a 	andeq	r0, r9, sl, lsl #24
    144c:	012d0200 	teqeq	sp, r0, lsl #4
    1450:	00000265 	andeq	r0, r0, r5, ror #4
    1454:	490b0200 	stmdbmi	fp, {r9}
    1458:	2e020050 	mcrcs	0, 0, r0, cr2, cr0, {2}
    145c:	00028501 	andeq	r8, r2, r1, lsl #10
    1460:	00030000 	andeq	r0, r3, r0
    1464:	00008c0c 	andeq	r8, r0, ip, lsl #24
    1468:	00023a00 	andeq	r3, r2, r0, lsl #20
    146c:	023a0d00 	eorseq	r0, sl, #0, 26
    1470:	00000000 	andeq	r0, r0, r0
    1474:	a2070402 	andge	r0, r7, #33554432	; 0x2000000
    1478:	0e000002 	cdpeq	0, 0, cr0, cr0, cr2, {0}
    147c:	0000022a 	andeq	r0, r0, sl, lsr #4
    1480:	00008c0c 	andeq	r8, r0, ip, lsl #24
    1484:	00025600 	andeq	r5, r2, r0, lsl #12
    1488:	023a0d00 	eorseq	r0, sl, #0, 26
    148c:	001e0000 	andseq	r0, lr, r0
    1490:	00022a0e 	andeq	r2, r2, lr, lsl #20
    1494:	022a0e00 	eoreq	r0, sl, #0, 28
    1498:	2a0e0000 	bcs	3814a0 <__DATA_END+0x37fab0>
    149c:	0c000002 	stceq	0, cr0, [r0], {2}
    14a0:	0000008c 	andeq	r0, r0, ip, lsl #1
    14a4:	00000275 	andeq	r0, r0, r5, ror r2
    14a8:	00023a0d 	andeq	r3, r2, sp, lsl #20
    14ac:	0c003f00 	stceq	15, cr3, [r0], {-0}
    14b0:	0000008c 	andeq	r0, r0, ip, lsl #1
    14b4:	00000285 	andeq	r0, r0, r5, lsl #5
    14b8:	00023a0d 	andeq	r3, r2, sp, lsl #20
    14bc:	0e000700 	cdpeq	7, 0, cr0, cr0, cr0, {0}
    14c0:	00000275 	andeq	r0, r0, r5, ror r2
    14c4:	00086c0f 	andeq	r6, r8, pc, lsl #24
    14c8:	012f0200 	teqeq	pc, r0, lsl #4
    14cc:	00000198 	muleq	r0, r8, r1
    14d0:	00008c0e 	andeq	r8, r0, lr, lsl #24
    14d4:	02961000 	addseq	r1, r6, #0
    14d8:	810c0000 	mrshi	r0, (UNDEF: 12)
    14dc:	b0000000 	andlt	r0, r0, r0
    14e0:	0d000002 	stceq	0, cr0, [r0, #-8]
    14e4:	0000023a 	andeq	r0, r0, sl, lsr r2
    14e8:	810c0003 	tsthi	ip, r3
    14ec:	c0000000 	andgt	r0, r0, r0
    14f0:	0d000002 	stceq	0, cr0, [r0, #-8]
    14f4:	0000023a 	andeq	r0, r0, sl, lsr r2
    14f8:	810c0007 	tsthi	ip, r7
    14fc:	d0000000 	andle	r0, r0, r0
    1500:	0d000002 	stceq	0, cr0, [r0, #-8]
    1504:	0000023a 	andeq	r0, r0, sl, lsr r2
    1508:	1011009b 	mulsne	r1, fp, r0
    150c:	0e119106 	mnfeqs	f1, f6
    1510:	09000003 	stmdbeq	r0, {r0, r1}
    1514:	0000046d 	andeq	r0, r0, sp, ror #8
    1518:	96119206 	ldrls	r9, [r1], -r6, lsl #4
    151c:	00000002 	andeq	r0, r0, r2
    1520:	00065709 	andeq	r5, r6, r9, lsl #14
    1524:	11930600 	orrsne	r0, r3, r0, lsl #12
    1528:	0000029b 	muleq	r0, fp, r2
    152c:	04ec0904 	strbteq	r0, [ip], #2308	; 0x904
    1530:	94060000 	strls	r0, [r6], #-0
    1534:	00029611 	andeq	r9, r2, r1, lsl r6
    1538:	c3090800 	movwgt	r0, #38912	; 0x9800
    153c:	06000006 	streq	r0, [r0], -r6
    1540:	02961195 	addseq	r1, r6, #1073741861	; 0x40000025
    1544:	000c0000 	andeq	r0, ip, r0
    1548:	06012008 	streq	r2, [r1], -r8
    154c:	0368118b 	cmneq	r8, #-1073741790	; 0xc0000022
    1550:	4d120000 	ldcmi	0, cr0, [r2, #-0]
    1554:	06005243 	streq	r5, [r0], -r3, asr #4
    1558:	0296118c 	addseq	r1, r6, #140, 2	; 0x23
    155c:	09000000 	stmdbeq	r0, {}	; <UNPREDICTABLE>
    1560:	0000023e 	andeq	r0, r0, lr, lsr r2
    1564:	68118d06 	ldmdavs	r1, {r1, r2, r8, sl, fp, pc}
    1568:	04000003 	streq	r0, [r0], #-3
    156c:	0004f209 	andeq	pc, r4, r9, lsl #4
    1570:	118e0600 	orrne	r0, lr, r0, lsl #12
    1574:	0000029b 	muleq	r0, fp, r2
    1578:	04fa09e0 	ldrbteq	r0, [sl], #2528	; 0x9e0
    157c:	8f060000 	svchi	0x00060000
    1580:	00029b11 	andeq	r9, r2, r1, lsl fp
    1584:	4909e400 	stmdbmi	r9, {sl, sp, lr, pc}
    1588:	06000002 	streq	r0, [r0], -r2
    158c:	03781190 	cmneq	r8, #144, 2	; 0x24
    1590:	0ae80000 	beq	ffa01598 <__StackTop+0xdf9fe598>
    1594:	0000047a 	andeq	r0, r0, sl, ror r4
    1598:	88119606 	ldmdahi	r1, {r1, r2, r9, sl, ip, pc}
    159c:	00000003 	andeq	r0, r0, r3
    15a0:	810c0001 	tsthi	ip, r1
    15a4:	78000000 	stmdavc	r0, {}	; <UNPREDICTABLE>
    15a8:	0d000003 	stceq	0, cr0, [r0, #-12]
    15ac:	0000023a 	andeq	r0, r0, sl, lsr r2
    15b0:	810c00db 	ldrdhi	r0, [ip, -fp]
    15b4:	88000000 	stmdahi	r0, {}	; <UNPREDICTABLE>
    15b8:	0d000003 	stceq	0, cr0, [r0, #-12]
    15bc:	0000023a 	andeq	r0, r0, sl, lsr r2
    15c0:	d00c0017 	andle	r0, ip, r7, lsl r0
    15c4:	98000002 	stmdals	r0, {r1}
    15c8:	0d000003 	stceq	0, cr0, [r0, #-12]
    15cc:	0000023a 	andeq	r0, r0, sl, lsr r2
    15d0:	050f0001 	streq	r0, [pc, #-1]	; 15d7 <__register_exitproc+0x17>
    15d4:	06000006 	streq	r0, [r0], -r6
    15d8:	030e1197 	movweq	r1, #57751	; 0xe197
    15dc:	08080000 	stmdaeq	r8, {}	; <UNPREDICTABLE>
    15e0:	16650611 			; <UNDEFINED> instruction: 0x16650611
    15e4:	00000526 	andeq	r0, r0, r6, lsr #10
    15e8:	00021709 	andeq	r1, r2, r9, lsl #14
    15ec:	16660600 	strbtne	r0, [r6], -r0, lsl #12
    15f0:	00000296 	muleq	r0, r6, r2
    15f4:	012f0900 	teqeq	pc, r0, lsl #18
    15f8:	67060000 	strvs	r0, [r6, -r0]
    15fc:	00029616 	andeq	r9, r2, r6, lsl r6
    1600:	3e090400 	cfcpyscc	mvf0, mvf9
    1604:	06000002 	streq	r0, [r0], -r2
    1608:	05261668 	streq	r1, [r6, #-1640]!	; 0xfffff998
    160c:	0a080000 	beq	201614 <__DATA_END+0x1ffc24>
    1610:	00000150 	andeq	r0, r0, r0, asr r1
    1614:	96166906 	ldrls	r6, [r6], -r6, lsl #18
    1618:	04000002 	streq	r0, [r0], #-2
    161c:	02490a10 	subeq	r0, r9, #16, 20	; 0x10000
    1620:	6a060000 	bvs	181628 <__DATA_END+0x17fc38>
    1624:	0002a016 	andeq	sl, r2, r6, lsl r0
    1628:	0a100800 	beq	403630 <__DATA_END+0x401c40>
    162c:	000002dc 	ldrdeq	r0, [r0], -ip
    1630:	96166b06 	ldrls	r6, [r6], -r6, lsl #22
    1634:	0c000002 	stceq	0, cr0, [r0], {2}
    1638:	00000a10 	andeq	r0, r0, r0, lsl sl
    163c:	6c060000 	stcvs	0, cr0, [r6], {-0}
    1640:	00029616 	andeq	r9, r2, r6, lsl r6
    1644:	0a101000 	beq	40564c <__DATA_END+0x403c5c>
    1648:	00000254 	andeq	r0, r0, r4, asr r2
    164c:	a0166d06 	andsge	r6, r6, r6, lsl #26
    1650:	14000002 	strne	r0, [r0], #-2
    1654:	015d0a10 	cmpeq	sp, r0, lsl sl
    1658:	6e060000 	cdpvs	0, 0, cr0, cr6, cr0, {0}
    165c:	00029616 	andeq	r9, r2, r6, lsl r6
    1660:	0a101800 	beq	407668 <__DATA_END+0x405c78>
    1664:	0000025f 	andeq	r0, r0, pc, asr r2
    1668:	b0166f06 	andslt	r6, r6, r6, lsl #30
    166c:	1c000002 	stcne	0, cr0, [r0], {2}
    1670:	00120a10 	andseq	r0, r2, r0, lsl sl
    1674:	70060000 	andvc	r0, r6, r0
    1678:	00029b16 	andeq	r9, r2, r6, lsl fp
    167c:	0a102400 	beq	40a684 <__DATA_END+0x408c94>
    1680:	0000026a 	andeq	r0, r0, sl, ror #4
    1684:	37167106 	ldrcc	r7, [r6, -r6, lsl #2]
    1688:	28000005 	stmdacs	r0, {r0, r2}
    168c:	01380a10 	teqeq	r8, r0, lsl sl
    1690:	72060000 	andvc	r0, r6, #0
    1694:	00029616 	andeq	r9, r2, r6, lsl r6
    1698:	0a103400 	beq	40e6a0 <__DATA_END+0x40ccb0>
    169c:	0000013e 	andeq	r0, r0, lr, lsr r1
    16a0:	96167306 	ldrls	r7, [r6], -r6, lsl #6
    16a4:	38000002 	stmdacc	r0, {r1}
    16a8:	01440a10 	cmpeq	r4, r0, lsl sl
    16ac:	74060000 	strvc	r0, [r6], #-0
    16b0:	00029616 	andeq	r9, r2, r6, lsl r6
    16b4:	0a103c00 	beq	4106bc <__DATA_END+0x40eccc>
    16b8:	0000014a 	andeq	r0, r0, sl, asr #2
    16bc:	96167506 	ldrls	r7, [r6], -r6, lsl #10
    16c0:	40000002 	andmi	r0, r0, r2
    16c4:	01630a10 	cmneq	r3, r0, lsl sl
    16c8:	76060000 	strvc	r0, [r6], -r0
    16cc:	00029616 	andeq	r9, r2, r6, lsl r6
    16d0:	0a104400 	beq	4126d8 <__DATA_END+0x410ce8>
    16d4:	00000275 	andeq	r0, r0, r5, ror r2
    16d8:	a0167706 	andsge	r7, r6, r6, lsl #14
    16dc:	48000002 	stmdami	r0, {r1}
    16e0:	00060a10 	andeq	r0, r6, r0, lsl sl
    16e4:	78060000 	stmdavc	r6, {}	; <UNPREDICTABLE>
    16e8:	00029616 	andeq	r9, r2, r6, lsl r6
    16ec:	0a104c00 	beq	4146f4 <__DATA_END+0x412d04>
    16f0:	0000000c 	andeq	r0, r0, ip
    16f4:	9b167906 	blls	59fb14 <__DATA_END+0x59e124>
    16f8:	50000002 	andpl	r0, r0, r2
    16fc:	02800a10 	addeq	r0, r0, #16, 20	; 0x10000
    1700:	7a060000 	bvc	181708 <__DATA_END+0x17fd18>
    1704:	0002a016 	andeq	sl, r2, r6, lsl r0
    1708:	0a105400 	beq	416710 <__DATA_END+0x414d20>
    170c:	00000232 	andeq	r0, r0, r2, lsr r2
    1710:	9b167b06 	blls	5a0330 <__DATA_END+0x59e940>
    1714:	58000002 	stmdapl	r0, {r1}
    1718:	02380a10 	eorseq	r0, r8, #16, 20	; 0x10000
    171c:	7c060000 	stcvc	0, cr0, [r6], {-0}
    1720:	00029b16 	andeq	r9, r2, r6, lsl fp
    1724:	0a105c00 	beq	41872c <__DATA_END+0x416d3c>
    1728:	0000022d 	andeq	r0, r0, sp, lsr #4
    172c:	9b167d06 	blls	5a0b4c <__DATA_END+0x59f15c>
    1730:	60000002 	andvs	r0, r0, r2
    1734:	028b0a10 	addeq	r0, fp, #16, 20	; 0x10000
    1738:	7e060000 	cdpvc	0, 0, cr0, cr6, cr0, {0}
    173c:	0002c016 	andeq	ip, r2, r6, lsl r0
    1740:	0a106400 	beq	41a748 <__DATA_END+0x418d58>
    1744:	00000179 	andeq	r0, r0, r9, ror r1
    1748:	96167f06 	ldrls	r7, [r6], -r6, lsl #30
    174c:	00000002 	andeq	r0, r0, r2
    1750:	01560a11 	cmpeq	r6, r1, lsl sl
    1754:	80060000 	andhi	r0, r6, r0
    1758:	00029616 	andeq	r9, r2, r6, lsl r6
    175c:	00110400 	andseq	r0, r1, r0, lsl #8
    1760:	0000810c 	andeq	r8, r0, ip, lsl #2
    1764:	00053700 	andeq	r3, r5, r0, lsl #14
    1768:	023a1300 	eorseq	r1, sl, #0, 6
    176c:	0ffb0000 	svceq	0x00fb0000
    1770:	00810c00 	addeq	r0, r1, r0, lsl #24
    1774:	05470000 	strbeq	r0, [r7, #-0]
    1778:	3a0d0000 	bcc	341780 <__DATA_END+0x33fd90>
    177c:	0b000002 	bleq	178c <_sbrk+0xc>
    1780:	01030f00 	tsteq	r3, r0, lsl #30
    1784:	81060000 	mrshi	r0, (UNDEF: 6)
    1788:	0003a416 	andeq	sl, r3, r6, lsl r4
    178c:	07081400 	streq	r1, [r8, -r0, lsl #8]
    1790:	00057406 	andeq	r7, r5, r6, lsl #8
    1794:	09d41500 	ldmibeq	r4, {r8, sl, ip}^
    1798:	07070000 	streq	r0, [r7, -r0]
    179c:	00000575 	andeq	r0, r0, r5, ror r5
    17a0:	07bc1500 	ldreq	r1, [ip, r0, lsl #10]!
    17a4:	08070000 	stmdaeq	r7, {}	; <UNPREDICTABLE>
    17a8:	00000575 	andeq	r0, r0, r5, ror r5
    17ac:	17160004 	ldrne	r0, [r6, -r4]
    17b0:	00057404 	andeq	r7, r5, r4, lsl #8
    17b4:	085e0300 	ldmdaeq	lr, {r8, r9}^
    17b8:	09070000 	stmdbeq	r7, {}	; <UNPREDICTABLE>
    17bc:	00000553 	andeq	r0, r0, r3, asr r5
    17c0:	00082918 	andeq	r2, r8, r8, lsl r9
    17c4:	01490300 	mrseq	r0, (UNDEF: 121)
    17c8:	08361903 	ldmdaeq	r6!, {r0, r1, r8, fp, ip}
    17cc:	72020000 	andvc	r0, r2, #0
    17d0:	05a90302 	streq	r0, [r9, #770]!	; 0x302
    17d4:	021a0000 	andseq	r0, sl, #0
    17d8:	02000008 	andeq	r0, r0, #8
    17dc:	018d0272 	orreq	r0, sp, r2, ror r2
    17e0:	18000000 	stmdane	r0, {}	; <UNPREDICTABLE>
    17e4:	00000845 	andeq	r0, r0, r5, asr #16
    17e8:	03015403 	movweq	r5, #5123	; 0x1403
    17ec:	0005d61b 	andeq	sp, r5, fp, lsl r6
    17f0:	08070100 	stmdaeq	r7, {r8}
    17f4:	4c000009 	stcmi	0, cr0, [r0], {9}
    17f8:	01000000 	mrseq	r0, (UNDEF: 0)
    17fc:	00060f9c 	muleq	r6, ip, pc	; <UNPREDICTABLE>
    1800:	09d41c00 	ldmibeq	r4, {sl, fp, ip}^
    1804:	07010000 	streq	r0, [r1, -r0]
    1808:	00000575 	andeq	r0, r0, r5, ror r5
    180c:	00000422 	andeq	r0, r0, r2, lsr #8
    1810:	00078e1c 	andeq	r8, r7, ip, lsl lr
    1814:	73070100 	movwvc	r0, #28928	; 0x7100
    1818:	52000000 	andpl	r0, r0, #0
    181c:	1d000004 	stcne	0, cr0, [r0, #-16]
    1820:	0000058f 	andeq	r0, r0, pc, lsl #11
    1824:	00000934 	andeq	r0, r0, r4, lsr r9
    1828:	00000008 	andeq	r0, r0, r8
    182c:	05ff1201 	ldrbeq	r1, [pc, #513]!	; 1a35 <__DATA_END+0x45>
    1830:	9c1e0000 	ldcls	0, cr0, [lr], {-0}
    1834:	16000005 	strne	r0, [r0], -r5
    1838:	05861f00 	streq	r1, [r6, #3840]	; 0xf00
    183c:	093c0000 	ldmdbeq	ip!, {}	; <UNPREDICTABLE>
    1840:	00020000 	andeq	r0, r2, r0
    1844:	13010000 	movwne	r0, #4096	; 0x1000
    1848:	05ea1b00 	strbeq	r1, [sl, #2816]!	; 0xb00
    184c:	15010000 	strne	r0, [r1, #-0]
    1850:	00000954 	andeq	r0, r0, r4, asr r9
    1854:	0000004c 	andeq	r0, r0, ip, asr #32
    1858:	066c9c01 	strbteq	r9, [ip], -r1, lsl #24
    185c:	bc1c0000 	ldclt	0, cr0, [ip], {-0}
    1860:	01000007 	tsteq	r0, r7
    1864:	00057515 	andeq	r7, r5, r5, lsl r5
    1868:	00047f00 	andeq	r7, r4, r0, lsl #30
    186c:	078e1c00 	streq	r1, [lr, r0, lsl #24]
    1870:	15010000 	strne	r0, [r1, #-0]
    1874:	00000073 	andeq	r0, r0, r3, ror r0
    1878:	000004af 	andeq	r0, r0, pc, lsr #9
    187c:	00058f1d 	andeq	r8, r5, sp, lsl pc
    1880:	00098000 	andeq	r8, r9, r0
    1884:	00000800 	andeq	r0, r0, r0, lsl #16
    1888:	5c210100 	stfpls	f0, [r1], #-0
    188c:	1e000006 	cdpne	0, 0, cr0, cr0, cr6, {0}
    1890:	0000059c 	muleq	r0, ip, r5
    1894:	861f0016 			; <UNDEFINED> instruction: 0x861f0016
    1898:	88000005 	stmdahi	r0, {r0, r2}
    189c:	02000009 	andeq	r0, r0, #9
    18a0:	01000000 	mrseq	r0, (UNDEF: 0)
    18a4:	f4200022 	vld4.8	{d0-d3}, [r0 :128], r2
    18a8:	01000005 	tsteq	r0, r5
    18ac:	0009a025 	andeq	sl, r9, r5, lsr #32
    18b0:	00000c00 	andeq	r0, r0, r0, lsl #24
    18b4:	209c0100 	addscs	r0, ip, r0, lsl #2
    18b8:	00000693 	muleq	r0, r3, r6
    18bc:	09ac2901 	stmibeq	ip!, {r0, r8, fp, sp}
    18c0:	000c0000 	andeq	r0, ip, r0
    18c4:	9c010000 	stcls	0, cr0, [r1], {-0}
    18c8:	00088521 	andeq	r8, r8, r1, lsr #10
    18cc:	b82d0100 	stmdalt	sp!, {r8}
    18d0:	34000009 	strcc	r0, [r0], #-9
    18d4:	01000000 	mrseq	r0, (UNDEF: 0)
    18d8:	0006c29c 	muleq	r6, ip, r2
    18dc:	05a91f00 	streq	r1, [r9, #3840]!	; 0xf00
    18e0:	09ba0000 	ldmibeq	sl!, {}	; <UNPREDICTABLE>
    18e4:	00020000 	andeq	r0, r2, r0
    18e8:	2f010000 	svccs	0x00010000
    18ec:	0005861f 	andeq	r8, r5, pc, lsl r6
    18f0:	0009e000 	andeq	lr, r9, r0
    18f4:	00000200 	andeq	r0, r0, r0, lsl #4
    18f8:	00380100 	eorseq	r0, r8, r0, lsl #2
    18fc:	0008cf22 	andeq	ip, r8, r2, lsr #30
    1900:	7b060100 	blvc	181d08 <__DATA_END+0x180318>
    1904:	05000005 	streq	r0, [r0, #-5]
    1908:	fff22c03 			; <UNDEFINED> instruction: 0xfff22c03
    190c:	0f6e001f 	svceq	0x006e001f
    1910:	00040000 	andeq	r0, r4, r0
    1914:	0000080a 	andeq	r0, r0, sl, lsl #16
    1918:	00170104 	andseq	r0, r7, r4, lsl #2
    191c:	750c0000 	strvc	r0, [ip, #-0]
    1920:	a300000a 	movwge	r0, #10
    1924:	18000001 	stmdane	r0, {r0}
    1928:	00000001 	andeq	r0, r0, r1
    192c:	35000000 	strcc	r0, [r0, #-0]
    1930:	02000007 	andeq	r0, r0, #7
    1934:	016d0601 	cmneq	sp, r1, lsl #12
    1938:	ee030000 	cdp	0, 0, cr0, cr3, cr0, {0}
    193c:	04000000 	streq	r0, [r0], #-0
    1940:	0000371d 	andeq	r3, r0, sp, lsl r7
    1944:	08010200 	stmdaeq	r1, {r9}
    1948:	0000016b 	andeq	r0, r0, fp, ror #2
    194c:	17050202 	strne	r0, [r5, -r2, lsl #4]
    1950:	02000001 	andeq	r0, r0, #1
    1954:	01dd0702 	bicseq	r0, sp, r2, lsl #14
    1958:	04020000 	streq	r0, [r2], #-0
    195c:	00012605 	andeq	r2, r1, r5, lsl #12
    1960:	00f80300 	rscseq	r0, r8, r0, lsl #6
    1964:	41040000 	mrsmi	r0, (UNDEF: 4)
    1968:	0000005e 	andeq	r0, r0, lr, asr r0
    196c:	83070402 	movwhi	r0, #29698	; 0x7402
    1970:	02000001 	andeq	r0, r0, #1
    1974:	01210508 	teqeq	r1, r8, lsl #10
    1978:	08020000 	stmdaeq	r2, {}	; <UNPREDICTABLE>
    197c:	00017e07 	andeq	r7, r1, r7, lsl #28
    1980:	05040400 	streq	r0, [r4, #-1024]	; 0xfffffc00
    1984:	00746e69 	rsbseq	r6, r4, r9, ror #28
    1988:	88070402 	stmdahi	r7, {r1, sl}
    198c:	03000001 	movweq	r0, #1
    1990:	000000f0 	strdeq	r0, [r0], -r0	; <UNPREDICTABLE>
    1994:	002c1405 	eoreq	r1, ip, r5, lsl #8
    1998:	fa030000 	blx	c19a0 <__DATA_END+0xbffb0>
    199c:	05000000 	streq	r0, [r0, #-0]
    19a0:	00005320 	andeq	r5, r0, r0, lsr #6
    19a4:	08020500 	stmdaeq	r2, {r8, sl}
    19a8:	25010000 	strcs	r0, [r1, #-0]
    19ac:	06000000 	streq	r0, [r0], -r0
    19b0:	00018d8b 	andeq	r8, r1, fp, lsl #27
    19b4:	07d60600 	ldrbeq	r0, [r6, r0, lsl #12]
    19b8:	7f800000 	svcvc	0x00800000
    19bc:	00094706 	andeq	r4, r9, r6, lsl #14
    19c0:	af067200 	svcge	0x00067200
    19c4:	73000008 	movwvc	r0, #8
    19c8:	0008a306 	andeq	sl, r8, r6, lsl #6
    19cc:	07067b00 	streq	r7, [r6, -r0, lsl #22]
    19d0:	7e000008 	cdpvc	0, 0, cr0, cr0, cr8, {0}
    19d4:	00077706 	andeq	r7, r7, r6, lsl #14
    19d8:	e4077f00 	str	r7, [r7], #-3840	; 0xfffff100
    19dc:	00000007 	andeq	r0, r0, r7
    19e0:	00093407 	andeq	r3, r9, r7, lsl #8
    19e4:	cc070100 	stfgts	f0, [r7], {-0}
    19e8:	02000007 	andeq	r0, r0, #7
    19ec:	00079e07 	andeq	r9, r7, r7, lsl #28
    19f0:	f7070300 			; <UNDEFINED> instruction: 0xf7070300
    19f4:	04000007 	streq	r0, [r0], #-7
    19f8:	00097c07 	andeq	r7, r9, r7, lsl #24
    19fc:	5b070500 	blpl	1c2e04 <__DATA_END+0x1c1414>
    1a00:	06000009 	streq	r0, [r0], -r9
    1a04:	0009a407 	andeq	sl, r9, r7, lsl #8
    1a08:	2a070700 	bcs	1c3610 <__DATA_END+0x1c1c20>
    1a0c:	08000009 	stmdaeq	r0, {r0, r3}
    1a10:	0007c207 	andeq	ip, r7, r7, lsl #4
    1a14:	94070900 	strls	r0, [r7], #-2304	; 0xfffff700
    1a18:	0a000008 	beq	1a40 <__DATA_END+0x50>
    1a1c:	00078407 	andeq	r8, r7, r7, lsl #8
    1a20:	b8070b00 	stmdalt	r7, {r8, r9, fp}
    1a24:	0c000009 	stceq	0, cr0, [r0], {9}
    1a28:	00085307 	andeq	r5, r8, r7, lsl #6
    1a2c:	c3070d00 	movwgt	r0, #32000	; 0x7d00
    1a30:	0e000009 	cdpeq	0, 0, cr0, cr0, cr9, {0}
    1a34:	0008f807 	andeq	pc, r8, r7, lsl #16
    1a38:	90070f00 	andls	r0, r7, r0, lsl #30
    1a3c:	10000009 	andne	r0, r0, r9
    1a40:	00099a07 	andeq	r9, r9, r7, lsl #20
    1a44:	13071100 	movwne	r1, #28928	; 0x7100
    1a48:	12000008 	andne	r0, r0, #8
    1a4c:	00098607 	andeq	r8, r9, r7, lsl #12
    1a50:	3e071300 	cdpcc	3, 0, cr1, cr7, cr0, {0}
    1a54:	14000009 	strne	r0, [r0], #-9
    1a58:	0008d707 	andeq	sp, r8, r7, lsl #14
    1a5c:	6e071500 	cfsh32vs	mvfx1, mvfx7, #0
    1a60:	16000007 	strne	r0, [r0], -r7
    1a64:	0009ae07 	andeq	sl, r9, r7, lsl #28
    1a68:	da071700 	ble	1c7670 <__DATA_END+0x1c5c80>
    1a6c:	18000009 	stmdane	r0, {r0, r3}
    1a70:	0007a807 	andeq	sl, r7, r7, lsl #16
    1a74:	20071900 	andcs	r1, r7, r0, lsl #18
    1a78:	1a000009 	bne	1aa4 <__DATA_END+0xb4>
    1a7c:	00096807 	andeq	r6, r9, r7, lsl #16
    1a80:	1d071b00 	vstrne	d1, [r7, #-0]
    1a84:	1c000008 	stcne	0, cr0, [r0], {8}
    1a88:	0008e807 	andeq	lr, r8, r7, lsl #16
    1a8c:	71071d00 	tstvc	r7, r0, lsl #26
    1a90:	1e000009 	cdpne	0, 0, cr0, cr0, cr9, {0}
    1a94:	0008be07 	andeq	fp, r8, r7, lsl #28
    1a98:	03001f00 	movweq	r1, #3840	; 0xf00
    1a9c:	00000876 	andeq	r0, r0, r6, ror r8
    1aa0:	0097b706 	addseq	fp, r7, r6, lsl #14
    1aa4:	20080000 	andcs	r0, r8, r0
    1aa8:	01230303 	teqeq	r3, r3, lsl #6
    1aac:	0000022a 	andeq	r0, r0, sl, lsr #4
    1ab0:	00090709 	andeq	r0, r9, r9, lsl #14
    1ab4:	01250300 	teqeq	r5, r0, lsl #6
    1ab8:	00000241 	andeq	r0, r0, r1, asr #4
    1abc:	07940900 	ldreq	r0, [r4, r0, lsl #18]
    1ac0:	26030000 	strcs	r0, [r3], -r0
    1ac4:	00024601 	andeq	r4, r2, r1, lsl #12
    1ac8:	9e090400 	cfcpysls	mvf0, mvf9
    1acc:	03000008 	movweq	r0, #8
    1ad0:	02560127 	subseq	r0, r6, #-1073741815	; 0xc0000009
    1ad4:	09800000 	stmibeq	r0, {}	; <UNPREDICTABLE>
    1ad8:	000007ee 	andeq	r0, r0, lr, ror #15
    1adc:	46012803 	strmi	r2, [r1], -r3, lsl #16
    1ae0:	84000002 	strhi	r0, [r0], #-2
    1ae4:	0009020a 	andeq	r0, r9, sl, lsl #4
    1ae8:	01290300 	teqeq	r9, r0, lsl #6
    1aec:	0000025b 	andeq	r0, r0, fp, asr r2
    1af0:	160a0100 	strne	r0, [sl], -r0, lsl #2
    1af4:	03000009 	movweq	r0, #9
    1af8:	0246012a 	subeq	r0, r6, #-2147483638	; 0x8000000a
    1afc:	01040000 	mrseq	r0, (UNDEF: 4)
    1b00:	0008800a 	andeq	r8, r8, sl
    1b04:	012b0300 	teqeq	fp, r0, lsl #6
    1b08:	00000260 	andeq	r0, r0, r0, ror #4
    1b0c:	b20a0180 	andlt	r0, sl, #128, 2
    1b10:	03000007 	movweq	r0, #7
    1b14:	0246012c 	subeq	r0, r6, #44, 2
    1b18:	01840000 	orreq	r0, r4, r0
    1b1c:	00090c0a 	andeq	r0, r9, sl, lsl #24
    1b20:	012d0300 	teqeq	sp, r0, lsl #6
    1b24:	00000265 	andeq	r0, r0, r5, ror #4
    1b28:	490b0200 	stmdbmi	fp, {r9}
    1b2c:	2e030050 	mcrcs	0, 0, r0, cr3, cr0, {2}
    1b30:	00028501 	andeq	r8, r2, r1, lsl #10
    1b34:	00030000 	andeq	r0, r3, r0
    1b38:	00008c0c 	andeq	r8, r0, ip, lsl #24
    1b3c:	00023a00 	andeq	r3, r2, r0, lsl #20
    1b40:	023a0d00 	eorseq	r0, sl, #0, 26
    1b44:	00000000 	andeq	r0, r0, r0
    1b48:	a2070402 	andge	r0, r7, #33554432	; 0x2000000
    1b4c:	0e000002 	cdpeq	0, 0, cr0, cr0, cr2, {0}
    1b50:	0000022a 	andeq	r0, r0, sl, lsr #4
    1b54:	00008c0c 	andeq	r8, r0, ip, lsl #24
    1b58:	00025600 	andeq	r5, r2, r0, lsl #12
    1b5c:	023a0d00 	eorseq	r0, sl, #0, 26
    1b60:	001e0000 	andseq	r0, lr, r0
    1b64:	00022a0e 	andeq	r2, r2, lr, lsl #20
    1b68:	022a0e00 	eoreq	r0, sl, #0, 28
    1b6c:	2a0e0000 	bcs	381b74 <__DATA_END+0x380184>
    1b70:	0c000002 	stceq	0, cr0, [r0], {2}
    1b74:	0000008c 	andeq	r0, r0, ip, lsl #1
    1b78:	00000275 	andeq	r0, r0, r5, ror r2
    1b7c:	00023a0d 	andeq	r3, r2, sp, lsl #20
    1b80:	0c003f00 	stceq	15, cr3, [r0], {-0}
    1b84:	0000008c 	andeq	r0, r0, ip, lsl #1
    1b88:	00000285 	andeq	r0, r0, r5, lsl #5
    1b8c:	00023a0d 	andeq	r3, r2, sp, lsl #20
    1b90:	0e000700 	cdpeq	7, 0, cr0, cr0, cr0, {0}
    1b94:	00000275 	andeq	r0, r0, r5, ror r2
    1b98:	00086c0f 	andeq	r6, r8, pc, lsl #24
    1b9c:	012f0300 	teqeq	pc, r0, lsl #6
    1ba0:	00000198 	muleq	r0, r8, r1
    1ba4:	00008c0e 	andeq	r8, r0, lr, lsl #24
    1ba8:	02961000 	addseq	r1, r6, #0
    1bac:	810c0000 	mrshi	r0, (UNDEF: 12)
    1bb0:	b0000000 	andlt	r0, r0, r0
    1bb4:	0d000002 	stceq	0, cr0, [r0, #-8]
    1bb8:	0000023a 	andeq	r0, r0, sl, lsr r2
    1bbc:	810e0003 	tsthi	lr, r3
    1bc0:	10000000 	andne	r0, r0, r0
    1bc4:	000002b0 			; <UNDEFINED> instruction: 0x000002b0
    1bc8:	ff061811 			; <UNDEFINED> instruction: 0xff061811
    1bcc:	00031206 	andeq	r1, r3, r6, lsl #4
    1bd0:	06f80900 	ldrbteq	r0, [r8], r0, lsl #18
    1bd4:	00060000 	andeq	r0, r6, r0
    1bd8:	00029607 	andeq	r9, r2, r7, lsl #12
    1bdc:	24090000 	strcs	r0, [r9], #-0
    1be0:	06000007 	streq	r0, [r0], -r7
    1be4:	02960701 	addseq	r0, r6, #262144	; 0x40000
    1be8:	09040000 	stmdbeq	r4, {}	; <UNPREDICTABLE>
    1bec:	00000769 	andeq	r0, r0, r9, ror #14
    1bf0:	96070206 	strls	r0, [r7], -r6, lsl #4
    1bf4:	08000002 	stmdaeq	r0, {r1}
    1bf8:	00075409 	andeq	r5, r7, r9, lsl #8
    1bfc:	07030600 	streq	r0, [r3, -r0, lsl #12]
    1c00:	00000296 	muleq	r0, r6, r2
    1c04:	06ea090c 	strbteq	r0, [sl], ip, lsl #18
    1c08:	04060000 	streq	r0, [r6], #-0
    1c0c:	00029b07 	andeq	r9, r2, r7, lsl #22
    1c10:	0a091000 	beq	245c18 <__DATA_END+0x244228>
    1c14:	06000007 	streq	r0, [r0], -r7
    1c18:	02960705 	addseq	r0, r6, #1310720	; 0x140000
    1c1c:	00140000 	andseq	r0, r4, r0
    1c20:	00070f0f 	andeq	r0, r7, pc, lsl #30
    1c24:	07060600 	streq	r0, [r6, -r0, lsl #12]
    1c28:	000002ba 			; <UNDEFINED> instruction: 0x000002ba
    1c2c:	0000810c 	andeq	r8, r0, ip, lsl #2
    1c30:	00032e00 	andeq	r2, r3, r0, lsl #28
    1c34:	023a0d00 	eorseq	r0, sl, #0, 26
    1c38:	00070000 	andeq	r0, r7, r0
    1c3c:	0000810c 	andeq	r8, r0, ip, lsl #2
    1c40:	00033e00 	andeq	r3, r3, r0, lsl #28
    1c44:	023a0d00 	eorseq	r0, sl, #0, 26
    1c48:	009b0000 	addseq	r0, fp, r0
    1c4c:	0000810c 	andeq	r8, r0, ip, lsl #2
    1c50:	00034e00 	andeq	r4, r3, r0, lsl #28
    1c54:	023a0d00 	eorseq	r0, sl, #0, 26
    1c58:	00170000 	andseq	r0, r7, r0
    1c5c:	c306a411 	movwgt	sl, #25617	; 0x6411
    1c60:	00039912 	andeq	r9, r3, r2, lsl r9
    1c64:	43501200 	cmpmi	r0, #0, 4
    1c68:	c4060052 	strgt	r0, [r6], #-82	; 0xffffffae
    1c6c:	0003a912 	andeq	sl, r3, r2, lsl r9
    1c70:	e4090000 	str	r0, [r9], #-0
    1c74:	06000009 	streq	r0, [r0], -r9
    1c78:	029612c5 	addseq	r1, r6, #1342177292	; 0x5000000c
    1c7c:	09800000 	stmibeq	r0, {}	; <UNPREDICTABLE>
    1c80:	00000b73 	andeq	r0, r0, r3, ror fp
    1c84:	9612c606 	ldrls	ip, [r2], -r6, lsl #12
    1c88:	84000002 	strhi	r0, [r0], #-2
    1c8c:	00023e09 	andeq	r3, r2, r9, lsl #28
    1c90:	12c70600 	sbcne	r0, r7, #0, 12
    1c94:	0000033e 	andeq	r0, r0, lr, lsr r3
    1c98:	0a4f0988 	beq	13c42c0 <__DATA_END+0x13c28d0>
    1c9c:	c8060000 	stmdagt	r6, {}	; <UNPREDICTABLE>
    1ca0:	00029612 	andeq	r9, r2, r2, lsl r6
    1ca4:	0c00a000 	stceq	0, cr10, [r0], {-0}
    1ca8:	0000008c 	andeq	r0, r0, ip, lsl #1
    1cac:	000003a9 	andeq	r0, r0, r9, lsr #7
    1cb0:	00023a0d 	andeq	r3, r2, sp, lsl #20
    1cb4:	0e001f00 	cdpeq	15, 0, cr1, cr0, cr0, {0}
    1cb8:	00000399 	muleq	r0, r9, r3
    1cbc:	000a240f 	andeq	r2, sl, pc, lsl #8
    1cc0:	12c90600 	sbcne	r0, r9, #0, 12
    1cc4:	0000034e 	andeq	r0, r0, lr, asr #6
    1cc8:	06110808 	ldreq	r0, [r1], -r8, lsl #16
    1ccc:	053c1665 	ldreq	r1, [ip, #-1637]!	; 0xfffff99b
    1cd0:	17090000 	strne	r0, [r9, -r0]
    1cd4:	06000002 	streq	r0, [r0], -r2
    1cd8:	02961666 	addseq	r1, r6, #106954752	; 0x6600000
    1cdc:	09000000 	stmdbeq	r0, {}	; <UNPREDICTABLE>
    1ce0:	0000012f 	andeq	r0, r0, pc, lsr #2
    1ce4:	96166706 	ldrls	r6, [r6], -r6, lsl #14
    1ce8:	04000002 	streq	r0, [r0], #-2
    1cec:	00023e09 	andeq	r3, r2, r9, lsl #28
    1cf0:	16680600 	strbtne	r0, [r8], -r0, lsl #12
    1cf4:	0000053c 	andeq	r0, r0, ip, lsr r5
    1cf8:	01500a08 	cmpeq	r0, r8, lsl #20
    1cfc:	69060000 	stmdbvs	r6, {}	; <UNPREDICTABLE>
    1d00:	00029616 	andeq	r9, r2, r6, lsl r6
    1d04:	0a100400 	beq	402d0c <__DATA_END+0x40131c>
    1d08:	00000249 	andeq	r0, r0, r9, asr #4
    1d0c:	a0166a06 	andsge	r6, r6, r6, lsl #20
    1d10:	08000002 	stmdaeq	r0, {r1}
    1d14:	02dc0a10 	sbcseq	r0, ip, #16, 20	; 0x10000
    1d18:	6b060000 	blvs	181d20 <__DATA_END+0x180330>
    1d1c:	00029616 	andeq	r9, r2, r6, lsl r6
    1d20:	0a100c00 	beq	404d28 <__DATA_END+0x403338>
    1d24:	00000000 	andeq	r0, r0, r0
    1d28:	96166c06 	ldrls	r6, [r6], -r6, lsl #24
    1d2c:	10000002 	andne	r0, r0, r2
    1d30:	02540a10 	subseq	r0, r4, #16, 20	; 0x10000
    1d34:	6d060000 	stcvs	0, cr0, [r6, #-0]
    1d38:	0002a016 	andeq	sl, r2, r6, lsl r0
    1d3c:	0a101400 	beq	406d44 <__DATA_END+0x405354>
    1d40:	0000015d 	andeq	r0, r0, sp, asr r1
    1d44:	96166e06 	ldrls	r6, [r6], -r6, lsl #28
    1d48:	18000002 	stmdane	r0, {r1}
    1d4c:	025f0a10 	subseq	r0, pc, #16, 20	; 0x10000
    1d50:	6f060000 	svcvs	0x00060000
    1d54:	00031e16 	andeq	r1, r3, r6, lsl lr
    1d58:	0a101c00 	beq	408d60 <__DATA_END+0x407370>
    1d5c:	00000012 	andeq	r0, r0, r2, lsl r0
    1d60:	9b167006 	blls	59dd80 <__DATA_END+0x59c390>
    1d64:	24000002 	strcs	r0, [r0], #-2
    1d68:	026a0a10 	rsbeq	r0, sl, #16, 20	; 0x10000
    1d6c:	71060000 	mrsvc	r0, (UNDEF: 6)
    1d70:	00054d16 	andeq	r4, r5, r6, lsl sp
    1d74:	0a102800 	beq	40bd7c <__DATA_END+0x40a38c>
    1d78:	00000138 	andeq	r0, r0, r8, lsr r1
    1d7c:	96167206 	ldrls	r7, [r6], -r6, lsl #4
    1d80:	34000002 	strcc	r0, [r0], #-2
    1d84:	013e0a10 	teqeq	lr, r0, lsl sl
    1d88:	73060000 	movwvc	r0, #24576	; 0x6000
    1d8c:	00029616 	andeq	r9, r2, r6, lsl r6
    1d90:	0a103800 	beq	40fd98 <__DATA_END+0x40e3a8>
    1d94:	00000144 	andeq	r0, r0, r4, asr #2
    1d98:	96167406 	ldrls	r7, [r6], -r6, lsl #8
    1d9c:	3c000002 	stccc	0, cr0, [r0], {2}
    1da0:	014a0a10 	cmpeq	sl, r0, lsl sl
    1da4:	75060000 	strvc	r0, [r6, #-0]
    1da8:	00029616 	andeq	r9, r2, r6, lsl r6
    1dac:	0a104000 	beq	411db4 <__DATA_END+0x4103c4>
    1db0:	00000163 	andeq	r0, r0, r3, ror #2
    1db4:	96167606 	ldrls	r7, [r6], -r6, lsl #12
    1db8:	44000002 	strmi	r0, [r0], #-2
    1dbc:	02750a10 	rsbseq	r0, r5, #16, 20	; 0x10000
    1dc0:	77060000 	strvc	r0, [r6, -r0]
    1dc4:	0002a016 	andeq	sl, r2, r6, lsl r0
    1dc8:	0a104800 	beq	413dd0 <__DATA_END+0x4123e0>
    1dcc:	00000006 	andeq	r0, r0, r6
    1dd0:	96167806 	ldrls	r7, [r6], -r6, lsl #16
    1dd4:	4c000002 	stcmi	0, cr0, [r0], {2}
    1dd8:	000c0a10 	andeq	r0, ip, r0, lsl sl
    1ddc:	79060000 	stmdbvc	r6, {}	; <UNPREDICTABLE>
    1de0:	00029b16 	andeq	r9, r2, r6, lsl fp
    1de4:	0a105000 	beq	415dec <__DATA_END+0x4143fc>
    1de8:	00000280 	andeq	r0, r0, r0, lsl #5
    1dec:	a0167a06 	andsge	r7, r6, r6, lsl #20
    1df0:	54000002 	strpl	r0, [r0], #-2
    1df4:	02320a10 	eorseq	r0, r2, #16, 20	; 0x10000
    1df8:	7b060000 	blvc	181e00 <__DATA_END+0x180410>
    1dfc:	00029b16 	andeq	r9, r2, r6, lsl fp
    1e00:	0a105800 	beq	417e08 <__DATA_END+0x416418>
    1e04:	00000238 	andeq	r0, r0, r8, lsr r2
    1e08:	9b167c06 	blls	5a0e28 <__DATA_END+0x59f438>
    1e0c:	5c000002 	stcpl	0, cr0, [r0], {2}
    1e10:	022d0a10 	eoreq	r0, sp, #16, 20	; 0x10000
    1e14:	7d060000 	stcvc	0, cr0, [r6, #-0]
    1e18:	00029b16 	andeq	r9, r2, r6, lsl fp
    1e1c:	0a106000 	beq	419e24 <__DATA_END+0x418434>
    1e20:	0000028b 	andeq	r0, r0, fp, lsl #5
    1e24:	2e167e06 	cdpcs	14, 1, cr7, cr6, cr6, {0}
    1e28:	64000003 	strvs	r0, [r0], #-3
    1e2c:	01790a10 	cmneq	r9, r0, lsl sl
    1e30:	7f060000 	svcvc	0x00060000
    1e34:	00029616 	andeq	r9, r2, r6, lsl r6
    1e38:	0a110000 	beq	441e40 <__DATA_END+0x440450>
    1e3c:	00000156 	andeq	r0, r0, r6, asr r1
    1e40:	96168006 	ldrls	r8, [r6], -r6
    1e44:	04000002 	streq	r0, [r0], #-2
    1e48:	810c0011 	tsthi	ip, r1, lsl r0
    1e4c:	4d000000 	stcmi	0, cr0, [r0, #-0]
    1e50:	13000005 	movwne	r0, #5
    1e54:	0000023a 	andeq	r0, r0, sl, lsr r2
    1e58:	0c000ffb 	stceq	15, cr0, [r0], {251}	; 0xfb
    1e5c:	00000081 	andeq	r0, r0, r1, lsl #1
    1e60:	0000055d 	andeq	r0, r0, sp, asr r5
    1e64:	00023a0d 	andeq	r3, r2, sp, lsl #20
    1e68:	0f000b00 	svceq	0x00000b00
    1e6c:	00000103 	andeq	r0, r0, r3, lsl #2
    1e70:	ba168106 	blt	5a2290 <__DATA_END+0x5a08a0>
    1e74:	11000003 	tstne	r0, r3
    1e78:	1bc30609 	blne	ff0c36a4 <__StackTop+0xdf0c06a4>
    1e7c:	000005e0 	andeq	r0, r0, r0, ror #11
    1e80:	48444212 	stmdami	r4, {r1, r4, r9, lr}^
    1e84:	1bc40600 	blne	ff10368c <__StackTop+0xdf10068c>
    1e88:	000002b0 			; <UNDEFINED> instruction: 0x000002b0
    1e8c:	44421200 	strbmi	r1, [r2], #-512	; 0xfffffe00
    1e90:	c506004c 	strgt	r0, [r6, #-76]	; 0xffffffb4
    1e94:	0002b01b 	andeq	fp, r2, fp, lsl r0
    1e98:	43120100 	tstmi	r2, #0, 2
    1e9c:	c6060031 			; <UNDEFINED> instruction: 0xc6060031
    1ea0:	0002b01b 	andeq	fp, r2, fp, lsl r0
    1ea4:	43120200 	tstmi	r2, #0, 4
    1ea8:	c7060032 	smladxgt	r6, r2, r0, r0
    1eac:	0002b01b 	andeq	fp, r2, fp, lsl r0
    1eb0:	53120300 	tstpl	r2, #0, 6
    1eb4:	c8060031 	stmdagt	r6, {r0, r4, r5}
    1eb8:	0002b51b 	andeq	fp, r2, fp, lsl r5
    1ebc:	53120400 	tstpl	r2, #0, 8
    1ec0:	c9060032 	stmdbgt	r6, {r1, r4, r5}
    1ec4:	0002b01b 	andeq	fp, r2, fp, lsl r0
    1ec8:	43120500 	tstmi	r2, #0, 10
    1ecc:	ca060033 	bgt	181fa0 <__DATA_END+0x1805b0>
    1ed0:	0002b01b 	andeq	fp, r2, fp, lsl r0
    1ed4:	44120600 	ldrmi	r0, [r2], #-1536	; 0xfffffa00
    1ed8:	1bcb0600 	blne	ff2c36e0 <__StackTop+0xdf2c06e0>
    1edc:	000002b0 			; <UNDEFINED> instruction: 0x000002b0
    1ee0:	34431207 	strbcc	r1, [r3], #-519	; 0xfffffdf9
    1ee4:	1bcc0600 	blne	ff3036ec <__StackTop+0xdf3006ec>
    1ee8:	000002b0 			; <UNDEFINED> instruction: 0x000002b0
    1eec:	950f0008 	strls	r0, [pc, #-8]	; 1eec <__DATA_END+0x4fc>
    1ef0:	0600000a 	streq	r0, [r0], -sl
    1ef4:	05691bcd 	strbeq	r1, [r9, #-3021]!	; 0xfffff433
    1ef8:	0c110000 	ldceq	0, cr0, [r1], {-0}
    1efc:	891d2006 	ldmdbhi	sp, {r1, r2, sp}
    1f00:	12000006 	andne	r0, r0, #6
    1f04:	00484442 	subeq	r4, r8, r2, asr #8
    1f08:	b01d2106 	andslt	r2, sp, r6, lsl #2
    1f0c:	00000002 	andeq	r0, r0, r2
    1f10:	4c444212 	sfmmi	f4, 2, [r4], {18}
    1f14:	1d220600 	stcne	6, cr0, [r2, #-0]
    1f18:	000002b0 			; <UNDEFINED> instruction: 0x000002b0
    1f1c:	31431201 	cmpcc	r3, r1, lsl #4
    1f20:	1d230600 	stcne	6, cr0, [r3, #-0]
    1f24:	000002b0 			; <UNDEFINED> instruction: 0x000002b0
    1f28:	32431202 	subcc	r1, r3, #536870912	; 0x20000000
    1f2c:	1d240600 	stcne	6, cr0, [r4, #-0]
    1f30:	000002b0 			; <UNDEFINED> instruction: 0x000002b0
    1f34:	31531203 	cmpcc	r3, r3, lsl #4
    1f38:	1d250600 	stcne	6, cr0, [r5, #-0]
    1f3c:	000002b0 			; <UNDEFINED> instruction: 0x000002b0
    1f40:	32531204 	subscc	r1, r3, #4, 4	; 0x40000000
    1f44:	1d260600 	stcne	6, cr0, [r6, #-0]
    1f48:	000002b0 			; <UNDEFINED> instruction: 0x000002b0
    1f4c:	33431205 	movtcc	r1, #12805	; 0x3205
    1f50:	1d270600 	stcne	6, cr0, [r7, #-0]
    1f54:	000002b0 			; <UNDEFINED> instruction: 0x000002b0
    1f58:	00441206 	subeq	r1, r4, r6, lsl #4
    1f5c:	b01d2806 	andslt	r2, sp, r6, lsl #16
    1f60:	07000002 	streq	r0, [r0, -r2]
    1f64:	31414d12 	cmpcc	r1, r2, lsl sp
    1f68:	1d290600 	stcne	6, cr0, [r9, #-0]
    1f6c:	000002b0 			; <UNDEFINED> instruction: 0x000002b0
    1f70:	414d1208 	cmpmi	sp, r8, lsl #4
    1f74:	2a060032 	bcs	182044 <__DATA_END+0x180654>
    1f78:	0002b01d 	andeq	fp, r2, sp, lsl r0
    1f7c:	43120900 	tstmi	r2, #0, 18
    1f80:	2b060034 	blcs	182058 <__DATA_END+0x180668>
    1f84:	0002b01d 	andeq	fp, r2, sp, lsl r0
    1f88:	43120a00 	tstmi	r2, #0, 20
    1f8c:	2c060035 	stccs	0, cr0, [r6], {53}	; 0x35
    1f90:	0002b01d 	andeq	fp, r2, sp, lsl r0
    1f94:	0f000b00 	svceq	0x00000b00
    1f98:	00000aff 	strdeq	r0, [r0], -pc	; <UNPREDICTABLE>
    1f9c:	ec1d2d06 	ldc	13, cr2, [sp], {6}
    1fa0:	14000005 	strne	r0, [r0], #-5
    1fa4:	da050760 	ble	143d2c <__DATA_END+0x14233c>
    1fa8:	15000006 	strne	r0, [r0, #-6]
    1fac:	00000439 	andeq	r0, r0, r9, lsr r4
    1fb0:	00730607 	rsbseq	r0, r3, r7, lsl #12
    1fb4:	15000000 	strne	r0, [r0, #-0]
    1fb8:	00000409 	andeq	r0, r0, r9, lsl #8
    1fbc:	00730707 	rsbseq	r0, r3, r7, lsl #14
    1fc0:	15040000 	strne	r0, [r4, #-0]
    1fc4:	0000041c 	andeq	r0, r0, ip, lsl r4
    1fc8:	06da0907 	ldrbeq	r0, [sl], r7, lsl #18
    1fcc:	15080000 	strne	r0, [r8, #-0]
    1fd0:	000003f4 	strdeq	r0, [r0], -r4
    1fd4:	00730d07 	rsbseq	r0, r3, r7, lsl #26
    1fd8:	15580000 	ldrbne	r0, [r8, #-0]
    1fdc:	0000045e 	andeq	r0, r0, lr, asr r4
    1fe0:	00730e07 	rsbseq	r0, r3, r7, lsl #28
    1fe4:	005c0000 	subseq	r0, ip, r0
    1fe8:	0006ea0c 	andeq	lr, r6, ip, lsl #20
    1fec:	0006ea00 	andeq	lr, r6, r0, lsl #20
    1ff0:	023a0d00 	eorseq	r0, sl, #0, 26
    1ff4:	004f0000 	subeq	r0, pc, r0
    1ff8:	74080102 	strvc	r0, [r8], #-258	; 0xfffffefe
    1ffc:	03000001 	movweq	r0, #1
    2000:	00000421 	andeq	r0, r0, r1, lsr #8
    2004:	06950f07 	ldreq	r0, [r5], r7, lsl #30
    2008:	c4140000 	ldrgt	r0, [r4], #-0
    200c:	07290608 	streq	r0, [r9, -r8, lsl #12]!
    2010:	72160000 	andsvc	r0, r6, #0
    2014:	08005178 	stmdaeq	r0, {r3, r4, r5, r6, r8, ip, lr}
    2018:	00072907 	andeq	r2, r7, r7, lsl #18
    201c:	74160000 	ldrvc	r0, [r6], #-0
    2020:	08005178 	stmdaeq	r0, {r3, r4, r5, r6, r8, ip, lr}
    2024:	00072908 	andeq	r2, r7, r8, lsl #18
    2028:	8a156000 	bhi	55a030 <__DATA_END+0x558640>
    202c:	0800000b 	stmdaeq	r0, {r0, r1, r3}
    2030:	00072e09 	andeq	r2, r7, r9, lsl #28
    2034:	0e00c000 	cdpeq	0, 0, cr12, cr0, cr0, {0}
    2038:	000006f1 	strdeq	r0, [r0], -r1
    203c:	07340417 			; <UNDEFINED> instruction: 0x07340417
    2040:	e00e0000 	and	r0, lr, r0
    2044:	03000005 	movweq	r0, #5
    2048:	000009ea 	andeq	r0, r0, sl, ror #19
    204c:	06fc0a08 	ldrbteq	r0, [ip], r8, lsl #20
    2050:	29180000 	ldmdbcs	r8, {}	; <UNPREDICTABLE>
    2054:	02000008 	andeq	r0, r0, #8
    2058:	19030149 	stmdbne	r3, {r0, r3, r6, r8}
    205c:	00000836 	andeq	r0, r0, r6, lsr r8
    2060:	03027203 	movweq	r7, #8707	; 0x2203
    2064:	00000767 	andeq	r0, r0, r7, ror #14
    2068:	0008021a 	andeq	r0, r8, sl, lsl r2
    206c:	02720300 	rsbseq	r0, r2, #0, 6
    2070:	0000018d 	andeq	r0, r0, sp, lsl #3
    2074:	0a851900 	beq	fe14847c <__StackTop+0xde14547c>
    2078:	7e030000 	cdpvc	0, 0, cr0, cr3, cr0, {0}
    207c:	07810302 	streq	r0, [r1, r2, lsl #6]
    2080:	021a0000 	andseq	r0, sl, #0
    2084:	03000008 	movweq	r0, #8
    2088:	018d027e 	orreq	r0, sp, lr, ror r2
    208c:	18000000 	stmdane	r0, {}	; <UNPREDICTABLE>
    2090:	00000845 	andeq	r0, r0, r5, asr #16
    2094:	03015402 	movweq	r5, #5122	; 0x1402
    2098:	000bcd1b 	andeq	ip, fp, fp, lsl sp
    209c:	730d0100 	movwvc	r0, #53504	; 0xd100
    20a0:	00000000 	andeq	r0, r0, r0
    20a4:	10000000 	andne	r0, r0, r0
    20a8:	01000000 	mrseq	r0, (UNDEF: 0)
    20ac:	0007b29c 	muleq	r7, ip, r2
    20b0:	09f91c00 	ldmibeq	r9!, {sl, fp, ip}^
    20b4:	0d010000 	stceq	0, cr0, [r1, #-0]
    20b8:	00000739 	andeq	r0, r0, r9, lsr r7
    20bc:	00709102 	rsbseq	r9, r0, r2, lsl #2
    20c0:	000bbc1d 	andeq	fp, fp, sp, lsl ip
    20c4:	ec100100 	ldfs	f0, [r0], {-0}
    20c8:	12000009 	andne	r0, r0, #9
    20cc:	01000000 	mrseq	r0, (UNDEF: 0)
    20d0:	0007d69c 	muleq	r7, ip, r6
    20d4:	09f91c00 	ldmibeq	r9!, {sl, fp, ip}^
    20d8:	10010000 	andne	r0, r1, r0
    20dc:	00000739 	andeq	r0, r0, r9, lsr r7
    20e0:	00709102 	rsbseq	r9, r0, r2, lsl #2
    20e4:	000a7c1d 	andeq	r7, sl, sp, lsl ip
    20e8:	00150100 	andseq	r0, r5, r0, lsl #2
    20ec:	0000000a 	andeq	r0, r0, sl
    20f0:	01000001 	tsteq	r0, r1
    20f4:	0008439c 	muleq	r8, ip, r3
    20f8:	0b8f1e00 	bleq	fe3c9900 <__StackTop+0xde3c6900>
    20fc:	15010000 	strne	r0, [r1, #-0]
    2100:	00000843 	andeq	r0, r0, r3, asr #16
    2104:	000004dc 	ldrdeq	r0, [r0], -ip
    2108:	000a661e 	andeq	r6, sl, lr, lsl r6
    210c:	73150100 	tstvc	r5, #0, 2
    2110:	34000000 	strcc	r0, [r0], #-0
    2114:	1f000005 	svcne	0x00000005
    2118:	00000744 	andeq	r0, r0, r4, asr #14
    211c:	00000ab8 			; <UNDEFINED> instruction: 0x00000ab8
    2120:	00000002 	andeq	r0, r0, r2
    2124:	4a204701 	bmi	813d30 <__DATA_END+0x812340>
    2128:	2600000a 	strcs	r0, [r0], -sl
    212c:	2f00000f 	svccs	0x0000000f
    2130:	21000008 	tstcs	r0, r8
    2134:	03055001 	movweq	r5, #20481	; 0x5001
    2138:	1ffff234 	svcne	0x00fff234
    213c:	0a502200 	beq	140a944 <__DATA_END+0x1408f54>
    2140:	0f260000 	svceq	0x00260000
    2144:	01210000 	teqeq	r1, r0
    2148:	94030550 	strls	r0, [r3], #-1360	; 0xfffffab0
    214c:	001ffff2 			; <UNDEFINED> instruction: 0x001ffff2
    2150:	e0041700 	and	r1, r4, r0, lsl #14
    2154:	23000005 	movwcs	r0, #5
    2158:	00000a9f 	muleq	r0, pc, sl	; <UNPREDICTABLE>
    215c:	0b004a01 	bleq	14968 <__DATA_END+0x12f78>
    2160:	00100000 	andseq	r0, r0, r0
    2164:	9c010000 	stcls	0, cr0, [r1], {-0}
    2168:	00000875 	andeq	r0, r0, r5, ror r8
    216c:	00074d24 	andeq	r4, r7, r4, lsr #26
    2170:	000b0000 	andeq	r0, fp, r0
    2174:	00000800 	andeq	r0, r0, r0, lsl #16
    2178:	254b0100 	strbcs	r0, [fp, #-256]	; 0xffffff00
    217c:	0000075a 	andeq	r0, r0, sl, asr r7
    2180:	2300000d 	movwcs	r0, #13
    2184:	00000a0e 	andeq	r0, r0, lr, lsl #20
    2188:	00005101 	andeq	r5, r0, r1, lsl #2
    218c:	001c0000 	andseq	r0, ip, r0
    2190:	9c010000 	stcls	0, cr0, [r1], {-0}
    2194:	000008a1 	andeq	r0, r0, r1, lsr #17
    2198:	00074d26 	andeq	r4, r7, r6, lsr #26
    219c:	00000000 	andeq	r0, r0, r0
    21a0:	00010000 	andeq	r0, r1, r0
    21a4:	25520100 	ldrbcs	r0, [r2, #-256]	; 0xffffff00
    21a8:	0000075a 	andeq	r0, r0, sl, asr r7
    21ac:	2700000d 	strcs	r0, [r0, -sp]
    21b0:	00000b31 	andeq	r0, r0, r1, lsr fp
    21b4:	28015601 	stmdacs	r1, {r0, r9, sl, ip, lr}
    21b8:	000008a1 	andeq	r0, r0, r1, lsr #17
    21bc:	00000000 	andeq	r0, r0, r0
    21c0:	00000010 	andeq	r0, r0, r0, lsl r0
    21c4:	08d39c01 	ldmeq	r3, {r0, sl, fp, ip, pc}^
    21c8:	67240000 	strvs	r0, [r4, -r0]!
    21cc:	00000007 	andeq	r0, r0, r7
    21d0:	08000000 	stmdaeq	r0, {}	; <UNPREDICTABLE>
    21d4:	01000000 	mrseq	r0, (UNDEF: 0)
    21d8:	07742557 			; <UNDEFINED> instruction: 0x07742557
    21dc:	000d0000 	andeq	r0, sp, r0
    21e0:	0b671d00 	bleq	19c95e8 <__DATA_END+0x19c7bf8>
    21e4:	b1010000 	mrslt	r0, (UNDEF: 1)
    21e8:	00000000 	andeq	r0, r0, r0
    21ec:	0000003e 	andeq	r0, r0, lr, lsr r0
    21f0:	09339c01 	ldmdbeq	r3!, {r0, sl, fp, ip, pc}
    21f4:	f91c0000 			; <UNDEFINED> instruction: 0xf91c0000
    21f8:	01000009 	tsteq	r0, r9
    21fc:	000739b1 			; <UNDEFINED> instruction: 0x000739b1
    2200:	70910200 	addsvc	r0, r1, r0, lsl #4
    2204:	00686329 	rsbeq	r6, r8, r9, lsr #6
    2208:	06eab101 	strbteq	fp, [sl], r1, lsl #2
    220c:	91030000 	mrsls	r0, (UNDEF: 3)
    2210:	811f01b4 			; <UNDEFINED> instruction: 0x811f01b4
    2214:	00000007 	andeq	r0, r0, r7
    2218:	02000000 	andeq	r0, r0, #0
    221c:	01000000 	mrseq	r0, (UNDEF: 0)
    2220:	07441fb4 			; <UNDEFINED> instruction: 0x07441fb4
    2224:	00000000 	andeq	r0, r0, r0
    2228:	00020000 	andeq	r0, r2, r0
    222c:	b6010000 	strlt	r0, [r1], -r0
    2230:	00000022 	andeq	r0, r0, r2, lsr #32
    2234:	000f3100 	andeq	r3, pc, r0, lsl #2
    2238:	50012100 	andpl	r2, r1, r0, lsl #2
    223c:	00309102 	eorseq	r9, r0, r2, lsl #2
    2240:	0af11d00 	beq	ffc49648 <__StackTop+0xdfc46648>
    2244:	9b010000 	blls	4224c <__DATA_END+0x4085c>
    2248:	00000000 	andeq	r0, r0, r0
    224c:	0000003c 	andeq	r0, r0, ip, lsr r0
    2250:	09ab9c01 	stmibeq	fp!, {r0, sl, fp, ip, pc}
    2254:	f91c0000 			; <UNDEFINED> instruction: 0xf91c0000
    2258:	01000009 	tsteq	r0, r9
    225c:	0007399b 	muleq	r7, fp, r9
    2260:	70910200 	addsvc	r0, r1, r0, lsl #4
    2264:	72747329 	rsbsvc	r7, r4, #-1543503872	; 0xa4000000
    2268:	ab9b0100 	blge	fe6c2670 <__StackTop+0xde6bf670>
    226c:	03000009 	movweq	r0, #9
    2270:	2a01b491 	bcs	6f4bc <__DATA_END+0x6dacc>
    2274:	9c010069 	stcls	0, cr0, [r1], {105}	; 0x69
    2278:	00000073 	andeq	r0, r0, r3, ror r0
    227c:	00000587 	andeq	r0, r0, r7, lsl #11
    2280:	000b5d2b 	andeq	r5, fp, fp, lsr #26
    2284:	ea9d0100 	b	fe74268c <__StackTop+0xde73f68c>
    2288:	b4000006 	strlt	r0, [r0], #-6
    228c:	20000005 	andcs	r0, r0, r5
    2290:	00000000 	andeq	r0, r0, r0
    2294:	00000f3c 	andeq	r0, r0, ip, lsr pc
    2298:	000009a1 	andeq	r0, r0, r1, lsr #19
    229c:	02500121 	subseq	r0, r0, #1073741832	; 0x40000008
    22a0:	0121007d 	teqeq	r1, sp, ror r0
    22a4:	60910251 	addsvs	r0, r1, r1, asr r2
    22a8:	02520121 	subseq	r0, r2, #1073741832	; 0x40000008
    22ac:	2c00b408 	cfstrscs	mvf11, [r0], {8}
    22b0:	00000000 	andeq	r0, r0, r0
    22b4:	000008d3 	ldrdeq	r0, [r0], -r3
    22b8:	ea041700 	b	107ec0 <__DATA_END+0x1064d0>
    22bc:	1d000006 	stcne	0, cr0, [r0, #-24]	; 0xffffffe8
    22c0:	00000b9c 	muleq	r0, ip, fp
    22c4:	0b20ba01 	bleq	830ad0 <__DATA_END+0x82f0e0>
    22c8:	00260000 	eoreq	r0, r6, r0
    22cc:	9c010000 	stcls	0, cr0, [r1], {-0}
    22d0:	000009e3 	andeq	r0, r0, r3, ror #19
    22d4:	0009f91c 	andeq	pc, r9, ip, lsl r9	; <UNPREDICTABLE>
    22d8:	39ba0100 	ldmibcc	sl!, {r8}
    22dc:	02000007 	andeq	r0, r0, #7
    22e0:	63297091 	teqvs	r9, #145	; 0x91
    22e4:	ba010068 	blt	4248c <__DATA_END+0x40a9c>
    22e8:	000006ea 	andeq	r0, r0, sl, ror #13
    22ec:	01b49103 			; <UNDEFINED> instruction: 0x01b49103
    22f0:	0a3c1d00 	beq	f096f8 <__DATA_END+0xf07d08>
    22f4:	a6010000 	strge	r0, [r1], -r0
    22f8:	00000b46 	andeq	r0, r0, r6, asr #22
    22fc:	0000003c 	andeq	r0, r0, ip, lsr r0
    2300:	0a5b9c01 	beq	16e930c <__DATA_END+0x16e791c>
    2304:	f91c0000 			; <UNDEFINED> instruction: 0xf91c0000
    2308:	01000009 	tsteq	r0, r9
    230c:	000739a6 	andeq	r3, r7, r6, lsr #19
    2310:	70910200 	addsvc	r0, r1, r0, lsl #4
    2314:	72747329 	rsbsvc	r7, r4, #-1543503872	; 0xa4000000
    2318:	aba60100 	blge	fe982720 <__StackTop+0xde97f720>
    231c:	03000009 	movweq	r0, #9
    2320:	2a01b491 	bcs	6f56c <__DATA_END+0x6db7c>
    2324:	a7010069 	strge	r0, [r1, -r9, rrx]
    2328:	00000073 	andeq	r0, r0, r3, ror r0
    232c:	000005d2 	ldrdeq	r0, [r0], -r2
    2330:	000b5d2b 	andeq	r5, fp, fp, lsr #26
    2334:	eaa80100 	b	fea0273c <__StackTop+0xde9ff73c>
    2338:	ff000006 			; <UNDEFINED> instruction: 0xff000006
    233c:	20000005 	andcs	r0, r0, r5
    2340:	00000b6a 	andeq	r0, r0, sl, ror #22
    2344:	00000f3c 	andeq	r0, r0, ip, lsr pc
    2348:	00000a51 	andeq	r0, r0, r1, asr sl
    234c:	02500121 	subseq	r0, r0, #1073741832	; 0x40000008
    2350:	0121007d 	teqeq	r1, sp, ror r0
    2354:	60910251 	addsvs	r0, r1, r1, asr r2
    2358:	02520121 	subseq	r0, r2, #1073741832	; 0x40000008
    235c:	2c00b408 	cfstrscs	mvf11, [r0], {8}
    2360:	00000b76 	andeq	r0, r0, r6, ror fp
    2364:	000009b1 			; <UNDEFINED> instruction: 0x000009b1
    2368:	0a021b00 	beq	88f70 <__DATA_END+0x87580>
    236c:	bf010000 	svclt	0x00010000
    2370:	000006ea 	andeq	r0, r0, sl, ror #13
    2374:	00000000 	andeq	r0, r0, r0
    2378:	00000038 	andeq	r0, r0, r8, lsr r0
    237c:	0ae39c01 	beq	ff8e9388 <__StackTop+0xdf8e6388>
    2380:	f91c0000 			; <UNDEFINED> instruction: 0xf91c0000
    2384:	01000009 	tsteq	r0, r9
    2388:	000739bf 			; <UNDEFINED> instruction: 0x000739bf
    238c:	70910200 	addsvc	r0, r1, r0, lsl #4
    2390:	7465722a 	strbtvc	r7, [r5], #-554	; 0xfffffdd6
    2394:	eac00100 	b	ff00279c <__StackTop+0xdefff79c>
    2398:	1d000006 	stcne	0, cr0, [r0, #-24]	; 0xffffffe8
    239c:	2b000006 	blcs	23bc <__DATA_END+0x9cc>
    23a0:	00000b48 	andeq	r0, r0, r8, asr #22
    23a4:	0073c101 	rsbseq	ip, r3, r1, lsl #2
    23a8:	06300000 	ldrteq	r0, [r0], -r0
    23ac:	811f0000 	tsthi	pc, r0
    23b0:	00000007 	andeq	r0, r0, r7
    23b4:	02000000 	andeq	r0, r0, #0
    23b8:	01000000 	mrseq	r0, (UNDEF: 0)
    23bc:	07441fc5 	strbeq	r1, [r4, -r5, asr #31]
    23c0:	00000000 	andeq	r0, r0, r0
    23c4:	00020000 	andeq	r0, r2, r0
    23c8:	c7010000 	strgt	r0, [r1, -r0]
    23cc:	00000020 	andeq	r0, r0, r0, lsr #32
    23d0:	000f4500 	andeq	r4, pc, r0, lsl #10
    23d4:	000ad200 	andeq	sp, sl, r0, lsl #4
    23d8:	50012100 	andpl	r2, r1, r0, lsl #2
    23dc:	00509102 	subseq	r9, r0, r2, lsl #2
    23e0:	00000022 	andeq	r0, r0, r2, lsr #32
    23e4:	000f5000 	andeq	r5, pc, r0
    23e8:	50012100 	andpl	r2, r1, r0, lsl #2
    23ec:	00509102 	subseq	r9, r0, r2, lsl #2
    23f0:	0a2e1b00 	beq	b88ff8 <__DATA_END+0xb87608>
    23f4:	59010000 	stmdbpl	r1, {}	; <UNPREDICTABLE>
    23f8:	00000073 	andeq	r0, r0, r3, ror r0
    23fc:	00000000 	andeq	r0, r0, r0
    2400:	00000086 	andeq	r0, r0, r6, lsl #1
    2404:	0b9d9c01 	bleq	fe769410 <__StackTop+0xde766410>
    2408:	f91c0000 			; <UNDEFINED> instruction: 0xf91c0000
    240c:	01000009 	tsteq	r0, r9
    2410:	00073959 	andeq	r3, r7, r9, asr r9
    2414:	70910200 	addsvc	r0, r1, r0, lsl #4
    2418:	72747329 	rsbsvc	r7, r4, #-1543503872	; 0xa4000000
    241c:	ab590100 	blge	1642824 <__DATA_END+0x1640e34>
    2420:	03000009 	movweq	r0, #9
    2424:	2d01b491 	cfstrscs	mvf11, [r1, #-580]	; 0xfffffdbc
    2428:	006e656c 	rsbeq	r6, lr, ip, ror #10
    242c:	00735901 	rsbseq	r5, r3, r1, lsl #18
    2430:	06900000 	ldreq	r0, [r0], r0
    2434:	af2e0000 	svcge	0x002e0000
    2438:	0100000b 	tsteq	r0, fp
    243c:	00007a5b 	andeq	r7, r0, fp, asr sl
    2440:	0b622b00 	bleq	188d048 <__DATA_END+0x188b658>
    2444:	5c010000 	stcpl	0, cr0, [r1], {-0}
    2448:	000006ea 	andeq	r0, r0, sl, ror #13
    244c:	000006c1 	andeq	r0, r0, r1, asr #13
    2450:	0100692a 	tsteq	r0, sl, lsr #18
    2454:	0000735d 	andeq	r7, r0, sp, asr r3
    2458:	0006ea00 	andeq	lr, r6, r0, lsl #20
    245c:	00002000 	andeq	r2, r0, r0
    2460:	0f3c0000 	svceq	0x003c0000
    2464:	0b6f0000 	bleq	1bc246c <__DATA_END+0x1bc0a7c>
    2468:	01210000 	teqeq	r1, r0
    246c:	007d0250 	rsbseq	r0, sp, r0, asr r2
    2470:	02510121 	subseq	r0, r1, #1073741832	; 0x40000008
    2474:	01216091 			; <UNDEFINED> instruction: 0x01216091
    2478:	b4080252 	strlt	r0, [r8], #-594	; 0xfffffdae
    247c:	00002c00 	andeq	r2, r0, r0, lsl #24
    2480:	0a5b0000 	beq	16c2488 <__DATA_END+0x16c0a98>
    2484:	00200000 	eoreq	r0, r0, r0
    2488:	5b000000 	blpl	2490 <__DATA_END+0xaa0>
    248c:	8c00000f 	stchi	0, cr0, [r0], {15}
    2490:	2100000b 	tstcs	r0, fp
    2494:	91025001 	tstls	r2, r1
    2498:	00220050 	eoreq	r0, r2, r0, asr r0
    249c:	50000000 	andpl	r0, r0, r0
    24a0:	2100000f 	tstcs	r0, pc
    24a4:	91025001 	tstls	r2, r1
    24a8:	1b000050 	blne	25f0 <__DATA_END+0xc00>
    24ac:	00000b25 	andeq	r0, r0, r5, lsr #22
    24b0:	0073ce01 	rsbseq	ip, r3, r1, lsl #28
    24b4:	00000000 	andeq	r0, r0, r0
    24b8:	006c0000 	rsbeq	r0, ip, r0
    24bc:	9c010000 	stcls	0, cr0, [r1], {-0}
    24c0:	00000c60 	andeq	r0, r0, r0, ror #24
    24c4:	0009f91c 	andeq	pc, r9, ip, lsl r9	; <UNPREDICTABLE>
    24c8:	39ce0100 	stmibcc	lr, {r8}^
    24cc:	02000007 	andeq	r0, r0, #7
    24d0:	73297091 	teqvc	r9, #145	; 0x91
    24d4:	01007274 	tsteq	r0, r4, ror r2
    24d8:	0009abce 	andeq	sl, r9, lr, asr #23
    24dc:	b4910300 	ldrlt	r0, [r1], #768	; 0x300
    24e0:	656c2901 	strbvs	r2, [ip, #-2305]!	; 0xfffff6ff
    24e4:	ce01006e 	cdpgt	0, 0, cr0, cr1, cr14, {3}
    24e8:	00000073 	andeq	r0, r0, r3, ror r0
    24ec:	01b89103 			; <UNDEFINED> instruction: 0x01b89103
    24f0:	000b622b 	andeq	r6, fp, fp, lsr #4
    24f4:	ead00100 	b	ff4028fc <__StackTop+0xdf3ff8fc>
    24f8:	08000006 	stmdaeq	r0, {r1, r2}
    24fc:	2a000007 	bcs	2520 <__DATA_END+0xb30>
    2500:	d1010069 	tstle	r1, r9, rrx
    2504:	00000073 	andeq	r0, r0, r3, ror r0
    2508:	00000735 	andeq	r0, r0, r5, lsr r7
    250c:	000bad2b 	andeq	sl, fp, fp, lsr #26
    2510:	73d20100 	bicsvc	r0, r2, #0, 2
    2514:	77000000 	strvc	r0, [r0, -r0]
    2518:	20000007 	andcs	r0, r0, r7
    251c:	00000000 	andeq	r0, r0, r0
    2520:	00000f3c 	andeq	r0, r0, ip, lsr pc
    2524:	00000c2d 	andeq	r0, r0, sp, lsr #24
    2528:	02500121 	subseq	r0, r0, #1073741832	; 0x40000008
    252c:	0121007d 	teqeq	r1, sp, ror r0
    2530:	60910251 	addsvs	r0, r1, r1, asr r2
    2534:	02520121 	subseq	r0, r2, #1073741832	; 0x40000008
    2538:	2c00b408 	cfstrscs	mvf11, [r0], {8}
    253c:	00000000 	andeq	r0, r0, r0
    2540:	00000a5b 	andeq	r0, r0, fp, asr sl
    2544:	00000020 	andeq	r0, r0, r0, lsr #32
    2548:	000f3c00 	andeq	r3, pc, r0, lsl #24
    254c:	000c5600 	andeq	r5, ip, r0, lsl #12
    2550:	50012100 	andpl	r2, r1, r0, lsl #2
    2554:	21007d02 	tstcs	r0, r2, lsl #26
    2558:	91025101 	tstls	r2, r1, lsl #2
    255c:	52012160 	andpl	r2, r1, #96, 2
    2560:	00b40802 	adcseq	r0, r4, r2, lsl #16
    2564:	0000002c 	andeq	r0, r0, ip, lsr #32
    2568:	000a5b00 	andeq	r5, sl, r0, lsl #22
    256c:	bc1b0000 	ldclt	0, cr0, [fp], {-0}
    2570:	0100000a 	tsteq	r0, sl
    2574:	0006eaed 	andeq	lr, r6, sp, ror #21
    2578:	00000000 	andeq	r0, r0, r0
    257c:	00004400 	andeq	r4, r0, r0, lsl #8
    2580:	af9c0100 	svcge	0x009c0100
    2584:	1c00000c 	stcne	0, cr0, [r0], {12}
    2588:	000009f9 	strdeq	r0, [r0], -r9
    258c:	0739ed01 	ldreq	lr, [r9, -r1, lsl #26]!
    2590:	91020000 	mrsls	r0, (UNDEF: 2)
    2594:	65722f70 	ldrbvs	r2, [r2, #-3952]!	; 0xfffff090
    2598:	ee010074 	mcr	0, 0, r0, cr1, cr4, {3}
    259c:	000006ea 	andeq	r0, r0, sl, ror #13
    25a0:	b52e5001 	strlt	r5, [lr, #-1]!
    25a4:	0100000a 	tsteq	r0, sl
    25a8:	0006eaef 	andeq	lr, r6, pc, ror #21
    25ac:	0baf2b00 	bleq	febcd1b4 <__StackTop+0xdebca1b4>
    25b0:	f0010000 			; <UNDEFINED> instruction: 0xf0010000
    25b4:	00000073 	andeq	r0, r0, r3, ror r0
    25b8:	0000078a 	andeq	r0, r0, sl, lsl #15
    25bc:	0ade1b00 	beq	ff7891c4 <__StackTop+0xdf7861c4>
    25c0:	7f010000 	svcvc	0x00010000
    25c4:	00000073 	andeq	r0, r0, r3, ror r0
    25c8:	00000000 	andeq	r0, r0, r0
    25cc:	0000007e 	andeq	r0, r0, lr, ror r0
    25d0:	0d729c01 	ldcleq	12, cr9, [r2, #-4]!
    25d4:	f91c0000 			; <UNDEFINED> instruction: 0xf91c0000
    25d8:	01000009 	tsteq	r0, r9
    25dc:	0007397f 	andeq	r3, r7, pc, ror r9
    25e0:	70910200 	addsvc	r0, r1, r0, lsl #4
    25e4:	72747329 	rsbsvc	r7, r4, #-1543503872	; 0xa4000000
    25e8:	ab7f0100 	blge	1fc29f0 <__DATA_END+0x1fc1000>
    25ec:	03000009 	movweq	r0, #9
    25f0:	2d01b491 	cfstrscs	mvf11, [r1, #-580]	; 0xfffffdbc
    25f4:	006e656c 	rsbeq	r6, lr, ip, ror #10
    25f8:	00737f01 	rsbseq	r7, r3, r1, lsl #30
    25fc:	07b60000 	ldreq	r0, [r6, r0]!
    2600:	622b0000 	eorvs	r0, fp, #0
    2604:	0100000b 	tsteq	r0, fp
    2608:	0006ea80 	andeq	lr, r6, r0, lsl #21
    260c:	0007e700 	andeq	lr, r7, r0, lsl #14
    2610:	00692a00 	rsbeq	r2, r9, r0, lsl #20
    2614:	00738101 	rsbseq	r8, r3, r1, lsl #2
    2618:	08050000 	stmdaeq	r5, {}	; <UNPREDICTABLE>
    261c:	af2b0000 	svcge	0x002b0000
    2620:	0100000b 	tsteq	r0, fp
    2624:	00007382 	andeq	r7, r0, r2, lsl #7
    2628:	00084600 	andeq	r4, r8, r0, lsl #12
    262c:	00002000 	andeq	r2, r0, r0
    2630:	0f3c0000 	svceq	0x003c0000
    2634:	0d3f0000 	ldceq	0, cr0, [pc, #-0]	; 263c <__DATA_END+0xc4c>
    2638:	01210000 	teqeq	r1, r0
    263c:	007d0250 	rsbseq	r0, sp, r0, asr r2
    2640:	02510121 	subseq	r0, r1, #1073741832	; 0x40000008
    2644:	01216091 			; <UNDEFINED> instruction: 0x01216091
    2648:	b4080252 	strlt	r0, [r8], #-594	; 0xfffffdae
    264c:	00002c00 	andeq	r2, r0, r0, lsl #24
    2650:	0c600000 	stcleq	0, cr0, [r0], #-0
    2654:	00200000 	eoreq	r0, r0, r0
    2658:	3c000000 	stccc	0, cr0, [r0], {-0}
    265c:	6800000f 	stmdavs	r0, {r0, r1, r2, r3}
    2660:	2100000d 	tstcs	r0, sp
    2664:	7d025001 	stcvc	0, cr5, [r2, #-4]
    2668:	51012100 	mrspl	r2, (UNDEF: 17)
    266c:	21609102 	cmncs	r0, r2, lsl #2
    2670:	08025201 	stmdaeq	r2, {r0, r9, ip, lr}
    2674:	002c00b4 	strhteq	r0, [ip], -r4
    2678:	60000000 	andvs	r0, r0, r0
    267c:	0000000c 	andeq	r0, r0, ip
    2680:	000a5d1d 	andeq	r5, sl, sp, lsl sp
    2684:	00fb0100 	rscseq	r0, fp, r0, lsl #2
    2688:	1e000000 	cdpne	0, 0, cr0, cr0, cr0, {0}
    268c:	01000000 	mrseq	r0, (UNDEF: 0)
    2690:	000d969c 	muleq	sp, ip, r6
    2694:	09f91c00 	ldmibeq	r9!, {sl, fp, ip}^
    2698:	fb010000 	blx	426a2 <__DATA_END+0x40cb2>
    269c:	00000739 	andeq	r0, r0, r9, lsr r7
    26a0:	00709102 	rsbseq	r9, r0, r2, lsl #2
    26a4:	000b791d 	andeq	r7, fp, sp, lsl r9
    26a8:	84ff0100 	ldrbthi	r0, [pc], #256	; 26b0 <__DATA_END+0xcc0>
    26ac:	7800000b 	stmdavc	r0, {r0, r1, r3}
    26b0:	01000000 	mrseq	r0, (UNDEF: 0)
    26b4:	000e169c 	muleq	lr, ip, r6
    26b8:	041c3000 	ldreq	r3, [ip], #-0
    26bc:	00010000 	andeq	r0, r1, r0
    26c0:	0006ea01 	andeq	lr, r6, r1, lsl #20
    26c4:	00087f00 	andeq	r7, r8, r0, lsl #30
    26c8:	0ab53000 	beq	fed4e6d0 <__StackTop+0xded4b6d0>
    26cc:	01010000 	mrseq	r0, (UNDEF: 1)
    26d0:	0006ea01 	andeq	lr, r6, r1, lsl #20
    26d4:	00089200 	andeq	r9, r8, r0, lsl #4
    26d8:	07813100 	streq	r3, [r1, r0, lsl #2]
    26dc:	0b8e0000 	bleq	fe3826e4 <__StackTop+0xde37f6e4>
    26e0:	00020000 	andeq	r0, r2, r0
    26e4:	03010000 	movweq	r0, #4096	; 0x1000
    26e8:	07443101 	strbeq	r3, [r4, -r1, lsl #2]
    26ec:	0be60000 	bleq	ff9826f4 <__StackTop+0xdf97f6f4>
    26f0:	00020000 	andeq	r0, r2, r0
    26f4:	19010000 	stmdbne	r1, {}	; <UNPREDICTABLE>
    26f8:	0ba62001 	bleq	fe98a704 <__StackTop+0xde987704>
    26fc:	0f500000 	svceq	0x00500000
    2700:	0e020000 	cdpeq	0, 0, cr0, cr2, cr0, {0}
    2704:	01210000 	teqeq	r1, r0
    2708:	94030550 	strls	r0, [r3], #-1360	; 0xfffffab0
    270c:	001ffff2 			; <UNDEFINED> instruction: 0x001ffff2
    2710:	000be622 	andeq	lr, fp, r2, lsr #12
    2714:	000f3100 	andeq	r3, pc, r0, lsl #2
    2718:	50012100 	andpl	r2, r1, r0, lsl #2
    271c:	f2340305 	vcgt.s<illegal width 64>	d0, d4, d5
    2720:	00001fff 	strdeq	r1, [r0], -pc	; <UNPREDICTABLE>
    2724:	000b1432 	andeq	r1, fp, r2, lsr r4
    2728:	011b0100 	tsteq	fp, r0, lsl #2
    272c:	00000bfc 	strdeq	r0, [r0], -ip
    2730:	00000048 	andeq	r0, r0, r8, asr #32
    2734:	0e7d9c01 	cdpeq	12, 7, cr9, cr13, cr1, {0}
    2738:	b5300000 	ldrlt	r0, [r0, #-0]!
    273c:	0100000a 	tsteq	r0, sl
    2740:	06ea011d 	usateq	r0, #10, sp, lsl #2
    2744:	08b00000 	ldmeq	r0!, {}	; <UNPREDICTABLE>
    2748:	81310000 	teqhi	r1, r0
    274c:	fe000007 	cdp2	0, 0, cr0, cr0, cr7, {0}
    2750:	0200000b 	andeq	r0, r0, #11
    2754:	01000000 	mrseq	r0, (UNDEF: 0)
    2758:	4431011e 	ldrtmi	r0, [r1], #-286	; 0xfffffee2
    275c:	32000007 	andcc	r0, r0, #7
    2760:	0200000c 	andeq	r0, r0, #12
    2764:	01000000 	mrseq	r0, (UNDEF: 0)
    2768:	1220012c 	eorne	r0, r0, #44, 2
    276c:	5000000c 	andpl	r0, r0, ip
    2770:	7300000f 	movwvc	r0, #15
    2774:	2100000e 	tstcs	r0, lr
    2778:	03055001 	movweq	r5, #20481	; 0x5001
    277c:	1ffff358 	svcne	0x00fff358
    2780:	0c322c00 	ldceq	12, cr2, [r2], #-0
    2784:	0f660000 	svceq	0x00660000
    2788:	32000000 	andcc	r0, r0, #0
    278c:	00000acd 	andeq	r0, r0, sp, asr #21
    2790:	44012e01 	strmi	r2, [r1], #-3585	; 0xfffff1ff
    2794:	4800000c 	stmdami	r0, {r2, r3}
    2798:	01000000 	mrseq	r0, (UNDEF: 0)
    279c:	000eee9c 	muleq	lr, ip, lr
    27a0:	0ab53000 	beq	fed4e7a8 <__StackTop+0xded4b7a8>
    27a4:	30010000 	andcc	r0, r1, r0
    27a8:	0006ea01 	andeq	lr, r6, r1, lsl #20
    27ac:	0008c300 	andeq	ip, r8, r0, lsl #6
    27b0:	07813100 	streq	r3, [r1, r0, lsl #2]
    27b4:	0c460000 	mareq	acc0, r0, r6
    27b8:	00020000 	andeq	r0, r2, r0
    27bc:	31010000 	mrscc	r0, (UNDEF: 1)
    27c0:	07443101 	strbeq	r3, [r4, -r1, lsl #2]
    27c4:	0c7c0000 	ldcleq	0, cr0, [ip], #-0
    27c8:	00020000 	andeq	r0, r2, r0
    27cc:	3e010000 	cdpcc	0, 0, cr0, cr1, cr0, {0}
    27d0:	0c5a2001 	mrrceq	0, 0, r2, sl, cr1
    27d4:	0f500000 	svceq	0x00500000
    27d8:	0eda0000 	cdpeq	0, 13, cr0, cr10, cr0, {0}
    27dc:	01210000 	teqeq	r1, r0
    27e0:	1c030550 	cfstr32ne	mvfx0, [r3], {80}	; 0x50
    27e4:	001ffff4 			; <UNDEFINED> instruction: 0x001ffff4
    27e8:	000c7c22 	andeq	r7, ip, r2, lsr #24
    27ec:	000f3100 	andeq	r3, pc, r0, lsl #2
    27f0:	50012100 	andpl	r2, r1, r0, lsl #2
    27f4:	f3bc0305 	vsubw.u<illegal width 64>	q0, q6, d5
    27f8:	00001fff 	strdeq	r1, [r0], -pc	; <UNPREDICTABLE>
    27fc:	000a6b33 	andeq	r6, sl, r3, lsr fp
    2800:	ff090100 			; <UNDEFINED> instruction: 0xff090100
    2804:	0500000e 	streq	r0, [r0, #-14]
    2808:	fff23403 			; <UNDEFINED> instruction: 0xfff23403
    280c:	07390e1f 			; <UNDEFINED> instruction: 0x07390e1f
    2810:	0a330000 	beq	cc2818 <__DATA_END+0xcc0e28>
    2814:	0100000b 	tsteq	r0, fp
    2818:	000eff0a 	andeq	pc, lr, sl, lsl #30
    281c:	f8030500 			; <UNDEFINED> instruction: 0xf8030500
    2820:	331ffff2 	tstcc	pc, #968	; 0x3c8
    2824:	00000b53 	andeq	r0, r0, r3, asr fp
    2828:	0eff0b01 	vmoveq.f64	d16, #241	; 0xf1
    282c:	03050000 	movweq	r0, #20480	; 0x5000
    2830:	1ffff3bc 	svcne	0x00fff3bc
    2834:	00043f34 	andeq	r3, r4, r4, lsr pc
    2838:	00043f00 	andeq	r3, r4, r0, lsl #30
    283c:	34130700 	ldrcc	r0, [r3], #-1792	; 0xfffff900
    2840:	0000044e 	andeq	r0, r0, lr, asr #8
    2844:	0000044e 	andeq	r0, r0, lr, asr #8
    2848:	b5351107 	ldrlt	r1, [r5, #-263]!	; 0xfffffef9
    284c:	b500000b 	strlt	r0, [r0, #-11]
    2850:	3400000b 	strcc	r0, [r0], #-11
    2854:	00000410 	andeq	r0, r0, r0, lsl r4
    2858:	00000410 	andeq	r0, r0, r0, lsl r4
    285c:	56341807 	ldrtpl	r1, [r4], -r7, lsl #16
    2860:	56000004 	strpl	r0, [r0], -r4
    2864:	07000004 	streq	r0, [r0, -r4]
    2868:	042c3412 	strteq	r3, [ip], #-1042	; 0xfffffbee
    286c:	042c0000 	strteq	r0, [ip], #-0
    2870:	17070000 	strne	r0, [r7, -r0]
    2874:	000a5434 	andeq	r5, sl, r4, lsr r4
    2878:	000a5400 	andeq	r5, sl, r0, lsl #8
    287c:	00190900 	andseq	r0, r9, r0, lsl #18
    2880:	000009ba 			; <UNDEFINED> instruction: 0x000009ba
    2884:	0b020004 	bleq	8289c <__DATA_END+0x80eac>
    2888:	01040000 	mrseq	r0, (UNDEF: 4)
    288c:	0000050e 	andeq	r0, r0, lr, lsl #10
    2890:	000c720c 	andeq	r7, ip, ip, lsl #4
    2894:	0001a300 	andeq	sl, r1, r0, lsl #6
    2898:	0001b800 	andeq	fp, r1, r0, lsl #16
    289c:	00000000 	andeq	r0, r0, r0
    28a0:	000acf00 	andeq	ip, sl, r0, lsl #30
    28a4:	06010200 	streq	r0, [r1], -r0, lsl #4
    28a8:	0000016d 	andeq	r0, r0, sp, ror #2
    28ac:	0000ee03 	andeq	lr, r0, r3, lsl #28
    28b0:	371d0200 	ldrcc	r0, [sp, -r0, lsl #4]
    28b4:	02000000 	andeq	r0, r0, #0
    28b8:	016b0801 	cmneq	fp, r1, lsl #16
    28bc:	02020000 	andeq	r0, r2, #0
    28c0:	00011705 	andeq	r1, r1, r5, lsl #14
    28c4:	07020200 	streq	r0, [r2, -r0, lsl #4]
    28c8:	000001dd 	ldrdeq	r0, [r0], -sp
    28cc:	26050402 	strcs	r0, [r5], -r2, lsl #8
    28d0:	03000001 	movweq	r0, #1
    28d4:	000000f8 	strdeq	r0, [r0], -r8
    28d8:	005e4102 	subseq	r4, lr, r2, lsl #2
    28dc:	04020000 	streq	r0, [r2], #-0
    28e0:	00018307 	andeq	r8, r1, r7, lsl #6
    28e4:	05080200 	streq	r0, [r8, #-512]	; 0xfffffe00
    28e8:	00000121 	andeq	r0, r0, r1, lsr #2
    28ec:	7e070802 	cdpvc	8, 0, cr0, cr7, cr2, {0}
    28f0:	04000001 	streq	r0, [r0], #-1
    28f4:	6e690504 	cdpvs	5, 6, cr0, cr9, cr4, {0}
    28f8:	04020074 	streq	r0, [r2], #-116	; 0xffffff8c
    28fc:	00018807 	andeq	r8, r1, r7, lsl #16
    2900:	00f00300 	rscseq	r0, r0, r0, lsl #6
    2904:	14030000 	strne	r0, [r3], #-0
    2908:	0000002c 	andeq	r0, r0, ip, lsr #32
    290c:	0000fa03 	andeq	pc, r0, r3, lsl #20
    2910:	53200300 	teqpl	r0, #0, 6
    2914:	02000000 	andeq	r0, r0, #0
    2918:	02a20704 	adceq	r0, r2, #4, 14	; 0x100000
    291c:	8c050000 	stchi	0, cr0, [r5], {-0}
    2920:	06000000 	streq	r0, [r0], -r0
    2924:	0000009e 	muleq	r0, lr, r0
    2928:	00008107 	andeq	r8, r0, r7, lsl #2
    292c:	0000b800 	andeq	fp, r0, r0, lsl #16
    2930:	00970800 	addseq	r0, r7, r0, lsl #16
    2934:	00030000 	andeq	r0, r3, r0
    2938:	00008105 	andeq	r8, r0, r5, lsl #2
    293c:	00b80600 	adcseq	r0, r8, r0, lsl #12
    2940:	18090000 	stmdane	r9, {}	; <UNPREDICTABLE>
    2944:	1a06ff04 	bne	1c255c <__DATA_END+0x1c0b6c>
    2948:	0a000001 	beq	2954 <__DATA_END+0xf64>
    294c:	000006f8 	strdeq	r0, [r0], -r8
    2950:	9e070004 	cdpls	0, 0, cr0, cr7, cr4, {0}
    2954:	00000000 	andeq	r0, r0, r0
    2958:	0007240a 	andeq	r2, r7, sl, lsl #8
    295c:	07010400 	streq	r0, [r1, -r0, lsl #8]
    2960:	0000009e 	muleq	r0, lr, r0
    2964:	07690a04 	strbeq	r0, [r9, -r4, lsl #20]!
    2968:	02040000 	andeq	r0, r4, #0
    296c:	00009e07 	andeq	r9, r0, r7, lsl #28
    2970:	540a0800 	strpl	r0, [sl], #-2048	; 0xfffff800
    2974:	04000007 	streq	r0, [r0], #-7
    2978:	009e0703 	addseq	r0, lr, r3, lsl #14
    297c:	0a0c0000 	beq	302984 <__DATA_END+0x300f94>
    2980:	000006ea 	andeq	r0, r0, sl, ror #13
    2984:	a3070404 	movwge	r0, #29700	; 0x7404
    2988:	10000000 	andne	r0, r0, r0
    298c:	00070a0a 	andeq	r0, r7, sl, lsl #20
    2990:	07050400 	streq	r0, [r5, -r0, lsl #8]
    2994:	0000009e 	muleq	r0, lr, r0
    2998:	0f0b0014 	svceq	0x000b0014
    299c:	04000007 	streq	r0, [r0], #-7
    29a0:	00c20706 	sbceq	r0, r2, r6, lsl #14
    29a4:	0c090000 	stceq	0, cr0, [r9], {-0}
    29a8:	c107ae04 	tstgt	r7, r4, lsl #28
    29ac:	0c000001 	stceq	0, cr0, [r0], {1}
    29b0:	04003141 	streq	r3, [r0], #-321	; 0xfffffebf
    29b4:	00b807af 	adcseq	r0, r8, pc, lsr #15
    29b8:	0c000000 	stceq	0, cr0, [r0], {-0}
    29bc:	b0040046 	andlt	r0, r4, r6, asr #32
    29c0:	0000b807 	andeq	fp, r0, r7, lsl #16
    29c4:	430c0100 	movwmi	r0, #49408	; 0xc100
    29c8:	b1040031 	tstlt	r4, r1, lsr r0
    29cc:	0000b807 	andeq	fp, r0, r7, lsl #16
    29d0:	530c0200 	movwpl	r0, #49664	; 0xc200
    29d4:	07b20400 	ldreq	r0, [r2, r0, lsl #8]!
    29d8:	000000b8 	strheq	r0, [r0], -r8
    29dc:	00440c03 	subeq	r0, r4, r3, lsl #24
    29e0:	b807b304 	stmdalt	r7, {r2, r8, r9, ip, sp, pc}
    29e4:	04000000 	streq	r0, [r0], #-0
    29e8:	0032430c 	eorseq	r4, r2, ip, lsl #6
    29ec:	b807b404 	stmdalt	r7, {r2, sl, ip, sp, pc}
    29f0:	05000000 	streq	r0, [r0, #-0]
    29f4:	544c460c 	strbpl	r4, [ip], #-1548	; 0xfffff9f4
    29f8:	07b50400 	ldreq	r0, [r5, r0, lsl #8]!
    29fc:	000000b8 	strheq	r0, [r0], -r8
    2a00:	41520c06 	cmpmi	r2, r6, lsl #24
    2a04:	07b60400 	ldreq	r0, [r6, r0, lsl #8]!
    2a08:	000000b8 	strheq	r0, [r0], -r8
    2a0c:	4d530c07 	ldclmi	12, cr0, [r3, #-28]	; 0xffffffe4
    2a10:	b7040042 	strlt	r0, [r4, -r2, asr #32]
    2a14:	0000b807 	andeq	fp, r0, r7, lsl #16
    2a18:	410c0800 	tstmi	ip, r0, lsl #16
    2a1c:	b8040032 	stmdalt	r4, {r1, r4, r5}
    2a20:	0000b807 	andeq	fp, r0, r7, lsl #16
    2a24:	fa0a0900 	blx	284e2c <__DATA_END+0x28343c>
    2a28:	0400000b 	streq	r0, [r0], #-11
    2a2c:	00b807b9 	ldrhteq	r0, [r8], r9
    2a30:	0a0a0000 	beq	282a38 <__DATA_END+0x281048>
    2a34:	00000bff 	strdeq	r0, [r0], -pc	; <UNPREDICTABLE>
    2a38:	b807ba04 	stmdalt	r7, {r2, r9, fp, ip, sp, pc}
    2a3c:	0b000000 	bleq	2a44 <__DATA_END+0x1054>
    2a40:	0c1a0b00 	ldceq	11, cr0, [sl], {-0}
    2a44:	bb040000 	bllt	102a4c <__DATA_END+0x10105c>
    2a48:	00012607 	andeq	r2, r1, r7, lsl #12
    2a4c:	00810700 	addeq	r0, r1, r0, lsl #14
    2a50:	01dd0000 	bicseq	r0, sp, r0
    2a54:	97080000 	strls	r0, [r8, -r0]
    2a58:	07000000 	streq	r0, [r0, -r0]
    2a5c:	04100900 	ldreq	r0, [r0], #-2304	; 0xfffff700
    2a60:	02ac0c9b 	adceq	r0, ip, #39680	; 0x9b00
    2a64:	430c0000 	movwmi	r0, #49152	; 0xc000
    2a68:	9c040031 	stcls	0, cr0, [r4], {49}	; 0x31
    2a6c:	0000b80c 	andeq	fp, r0, ip, lsl #16
    2a70:	430c0000 	movwmi	r0, #49152	; 0xc000
    2a74:	9d040032 	stcls	0, cr0, [r4, #-200]	; 0xffffff38
    2a78:	0000b80c 	andeq	fp, r0, ip, lsl #16
    2a7c:	430c0100 	movwmi	r0, #49408	; 0xc100
    2a80:	9e040033 	mcrls	0, 0, r0, cr4, cr3, {1}
    2a84:	0000b80c 	andeq	fp, r0, ip, lsl #16
    2a88:	430c0200 	movwmi	r0, #49664	; 0xc200
    2a8c:	9f040034 	svcls	0x00040034
    2a90:	0000b80c 	andeq	fp, r0, ip, lsl #16
    2a94:	430c0300 	movwmi	r0, #49920	; 0xc300
    2a98:	a0040035 	andge	r0, r4, r5, lsr r0
    2a9c:	0000b80c 	andeq	fp, r0, ip, lsl #16
    2aa0:	430c0400 	movwmi	r0, #50176	; 0xc400
    2aa4:	a1040036 	tstge	r4, r6, lsr r0
    2aa8:	0000b80c 	andeq	fp, r0, ip, lsl #16
    2aac:	530c0500 	movwpl	r0, #50432	; 0xc500
    2ab0:	0ca20400 	cfstrseq	mvf0, [r2]
    2ab4:	000000b8 	strheq	r0, [r0], -r8
    2ab8:	023e0a06 	eorseq	r0, lr, #24576	; 0x6000
    2abc:	a3040000 	movwge	r0, #16384	; 0x4000
    2ac0:	0002ac0c 	andeq	sl, r2, ip, lsl #24
    2ac4:	530c0700 	movwpl	r0, #50944	; 0xc700
    2ac8:	a4040043 	strge	r0, [r4], #-67	; 0xffffffbd
    2acc:	0000b80c 	andeq	fp, r0, ip, lsl #16
    2ad0:	490a0800 	stmdbmi	sl, {fp}
    2ad4:	04000002 	streq	r0, [r0], #-2
    2ad8:	02ac0ca5 	adceq	r0, ip, #42240	; 0xa500
    2adc:	0a090000 	beq	242ae4 <__DATA_END+0x2410f4>
    2ae0:	000000e2 	andeq	r0, r0, r2, ror #1
    2ae4:	b80ca604 	stmdalt	ip, {r2, r9, sl, sp, pc}
    2ae8:	0a000000 	beq	2af0 <__DATA_END+0x1100>
    2aec:	0000e80a 	andeq	lr, r0, sl, lsl #16
    2af0:	0ca70400 	cfstrseq	mvf0, [r7]
    2af4:	000000b8 	strheq	r0, [r0], -r8
    2af8:	02540a0b 	subseq	r0, r4, #45056	; 0xb000
    2afc:	a8040000 	stmdage	r4, {}	; <UNPREDICTABLE>
    2b00:	0002ac0c 	andeq	sl, r2, ip, lsl #24
    2b04:	430c0c00 	movwmi	r0, #52224	; 0xcc00
    2b08:	a9040038 	stmdbge	r4, {r3, r4, r5}
    2b0c:	0000b80c 	andeq	fp, r0, ip, lsl #16
    2b10:	430c0d00 	movwmi	r0, #52480	; 0xcd00
    2b14:	aa040039 	bge	102c00 <__DATA_END+0x101210>
    2b18:	0000bd0c 	andeq	fp, r0, ip, lsl #26
    2b1c:	430c0e00 	movwmi	r0, #52736	; 0xce00
    2b20:	04003031 	streq	r3, [r0], #-49	; 0xffffffcf
    2b24:	00bd0cab 	adcseq	r0, sp, fp, lsr #25
    2b28:	000f0000 	andeq	r0, pc, r0
    2b2c:	00008107 	andeq	r8, r0, r7, lsl #2
    2b30:	0002bc00 	andeq	fp, r2, r0, lsl #24
    2b34:	00970800 	addseq	r0, r7, r0, lsl #16
    2b38:	00000000 	andeq	r0, r0, r0
    2b3c:	00020e0b 	andeq	r0, r2, fp, lsl #28
    2b40:	0cac0400 	cfstrseq	mvf0, [ip]
    2b44:	000001dd 	ldrdeq	r0, [r0], -sp
    2b48:	00008107 	andeq	r8, r0, r7, lsl #2
    2b4c:	0002d800 	andeq	sp, r2, r0, lsl #16
    2b50:	00970800 	addseq	r0, r7, r0, lsl #16
    2b54:	009b0000 	addseq	r0, fp, r0
    2b58:	20040109 	andcs	r0, r4, r9, lsl #2
    2b5c:	0002ee11 	andeq	lr, r2, r1, lsl lr
    2b60:	52430c00 	subpl	r0, r3, #0, 24
    2b64:	11210400 	teqne	r1, r0, lsl #8
    2b68:	000000b8 	strheq	r0, [r0], -r8
    2b6c:	790b0000 	stmdbvc	fp, {}	; <UNPREDICTABLE>
    2b70:	0400000c 	streq	r0, [r0], #-12
    2b74:	02d81122 	sbcseq	r1, r8, #-2147483640	; 0x80000008
    2b78:	81070000 	mrshi	r0, (UNDEF: 7)
    2b7c:	0a000000 	beq	2b84 <__DATA_END+0x1194>
    2b80:	08000003 	stmdaeq	r0, {r0, r1}
    2b84:	00000097 	muleq	r0, r7, r0
    2b88:	a4090017 	strge	r0, [r9], #-23	; 0xffffffe9
    2b8c:	5512c304 	ldrpl	ip, [r2, #-772]	; 0xfffffcfc
    2b90:	0c000003 	stceq	0, cr0, [r0], {3}
    2b94:	00524350 	subseq	r4, r2, r0, asr r3
    2b98:	6512c404 	ldrvs	ip, [r2, #-1028]	; 0xfffffbfc
    2b9c:	00000003 	andeq	r0, r0, r3
    2ba0:	0009e40a 	andeq	lr, r9, sl, lsl #8
    2ba4:	12c50400 	sbcne	r0, r5, #0, 8
    2ba8:	0000009e 	muleq	r0, lr, r0
    2bac:	0b730a80 	bleq	1cc55b4 <__DATA_END+0x1cc3bc4>
    2bb0:	c6040000 	strgt	r0, [r4], -r0
    2bb4:	00009e12 	andeq	r9, r0, r2, lsl lr
    2bb8:	3e0a8400 	cfcpyscc	mvf8, mvf10
    2bbc:	04000002 	streq	r0, [r0], #-2
    2bc0:	02fa12c7 	rscseq	r1, sl, #1879048204	; 0x7000000c
    2bc4:	0a880000 	beq	fe202bcc <__StackTop+0xde1ffbcc>
    2bc8:	00000a4f 	andeq	r0, r0, pc, asr #20
    2bcc:	9e12c804 	cdpls	8, 1, cr12, cr2, cr4, {0}
    2bd0:	a0000000 	andge	r0, r0, r0
    2bd4:	008c0700 	addeq	r0, ip, r0, lsl #14
    2bd8:	03650000 	cmneq	r5, #0
    2bdc:	97080000 	strls	r0, [r8, -r0]
    2be0:	1f000000 	svcne	0x00000000
    2be4:	03550500 	cmpeq	r5, #0, 10
    2be8:	240b0000 	strcs	r0, [fp], #-0
    2bec:	0400000a 	streq	r0, [r0], #-10
    2bf0:	030a12c9 	movweq	r1, #41673	; 0xa2c9
    2bf4:	080d0000 	stmdaeq	sp, {}	; <UNPREDICTABLE>
    2bf8:	16650411 			; <UNDEFINED> instruction: 0x16650411
    2bfc:	000004f8 	strdeq	r0, [r0], -r8
    2c00:	0002170a 	andeq	r1, r2, sl, lsl #14
    2c04:	16660400 	strbtne	r0, [r6], -r0, lsl #8
    2c08:	0000009e 	muleq	r0, lr, r0
    2c0c:	012f0a00 	teqeq	pc, r0, lsl #20
    2c10:	67040000 	strvs	r0, [r4, -r0]
    2c14:	00009e16 	andeq	r9, r0, r6, lsl lr
    2c18:	3e0a0400 	cfcpyscc	mvf0, mvf10
    2c1c:	04000002 	streq	r0, [r0], #-2
    2c20:	04f81668 	ldrbteq	r1, [r8], #1640	; 0x668
    2c24:	0e080000 	cdpeq	0, 0, cr0, cr8, cr0, {0}
    2c28:	00000150 	andeq	r0, r0, r0, asr r1
    2c2c:	9e166904 	cdpls	9, 1, cr6, cr6, cr4, {0}
    2c30:	04000000 	streq	r0, [r0], #-0
    2c34:	02490e10 	subeq	r0, r9, #16, 28	; 0x100
    2c38:	6a040000 	bvs	102c40 <__DATA_END+0x101250>
    2c3c:	0000a816 	andeq	sl, r0, r6, lsl r8
    2c40:	0e100800 	cdpeq	8, 1, cr0, cr0, cr0, {0}
    2c44:	000002dc 	ldrdeq	r0, [r0], -ip
    2c48:	9e166b04 	vnmlsls.f64	d6, d6, d4
    2c4c:	0c000000 	stceq	0, cr0, [r0], {-0}
    2c50:	00000e10 	andeq	r0, r0, r0, lsl lr
    2c54:	6c040000 	stcvs	0, cr0, [r4], {-0}
    2c58:	00009e16 	andeq	r9, r0, r6, lsl lr
    2c5c:	0e101000 	cdpeq	0, 1, cr1, cr0, cr0, {0}
    2c60:	00000254 	andeq	r0, r0, r4, asr r2
    2c64:	a8166d04 	ldmdage	r6, {r2, r8, sl, fp, sp, lr}
    2c68:	14000000 	strne	r0, [r0], #-0
    2c6c:	015d0e10 	cmpeq	sp, r0, lsl lr
    2c70:	6e040000 	cdpvs	0, 0, cr0, cr4, cr0, {0}
    2c74:	00009e16 	andeq	r9, r0, r6, lsl lr
    2c78:	0e101800 	cdpeq	8, 1, cr1, cr0, cr0, {0}
    2c7c:	0000025f 	andeq	r0, r0, pc, asr r2
    2c80:	cd166f04 	ldcgt	15, cr6, [r6, #-16]
    2c84:	1c000001 	stcne	0, cr0, [r0], {1}
    2c88:	00120e10 	andseq	r0, r2, r0, lsl lr
    2c8c:	70040000 	andvc	r0, r4, r0
    2c90:	0000a316 	andeq	sl, r0, r6, lsl r3
    2c94:	0e102400 	cfmulseq	mvf2, mvf0, mvf0
    2c98:	0000026a 	andeq	r0, r0, sl, ror #4
    2c9c:	09167104 	ldmdbeq	r6, {r2, r8, ip, sp, lr}
    2ca0:	28000005 	stmdacs	r0, {r0, r2}
    2ca4:	01380e10 	teqeq	r8, r0, lsl lr
    2ca8:	72040000 	andvc	r0, r4, #0
    2cac:	00009e16 	andeq	r9, r0, r6, lsl lr
    2cb0:	0e103400 	cfmulseq	mvf3, mvf0, mvf0
    2cb4:	0000013e 	andeq	r0, r0, lr, lsr r1
    2cb8:	9e167304 	cdpls	3, 1, cr7, cr6, cr4, {0}
    2cbc:	38000000 	stmdacc	r0, {}	; <UNPREDICTABLE>
    2cc0:	01440e10 	cmpeq	r4, r0, lsl lr
    2cc4:	74040000 	strvc	r0, [r4], #-0
    2cc8:	00009e16 	andeq	r9, r0, r6, lsl lr
    2ccc:	0e103c00 	cdpeq	12, 1, cr3, cr0, cr0, {0}
    2cd0:	0000014a 	andeq	r0, r0, sl, asr #2
    2cd4:	9e167504 	cfmul32ls	mvfx7, mvfx6, mvfx4
    2cd8:	40000000 	andmi	r0, r0, r0
    2cdc:	01630e10 	cmneq	r3, r0, lsl lr
    2ce0:	76040000 	strvc	r0, [r4], -r0
    2ce4:	00009e16 	andeq	r9, r0, r6, lsl lr
    2ce8:	0e104400 	cfmulseq	mvf4, mvf0, mvf0
    2cec:	00000275 	andeq	r0, r0, r5, ror r2
    2cf0:	a8167704 	ldmdage	r6, {r2, r8, r9, sl, ip, sp, lr}
    2cf4:	48000000 	stmdami	r0, {}	; <UNPREDICTABLE>
    2cf8:	00060e10 	andeq	r0, r6, r0, lsl lr
    2cfc:	78040000 	stmdavc	r4, {}	; <UNPREDICTABLE>
    2d00:	00009e16 	andeq	r9, r0, r6, lsl lr
    2d04:	0e104c00 	cdpeq	12, 1, cr4, cr0, cr0, {0}
    2d08:	0000000c 	andeq	r0, r0, ip
    2d0c:	a3167904 	tstge	r6, #4, 18	; 0x10000
    2d10:	50000000 	andpl	r0, r0, r0
    2d14:	02800e10 	addeq	r0, r0, #16, 28	; 0x100
    2d18:	7a040000 	bvc	102d20 <__DATA_END+0x101330>
    2d1c:	0000a816 	andeq	sl, r0, r6, lsl r8
    2d20:	0e105400 	cfmulseq	mvf5, mvf0, mvf0
    2d24:	00000232 	andeq	r0, r0, r2, lsr r2
    2d28:	a3167b04 	tstge	r6, #4, 22	; 0x1000
    2d2c:	58000000 	stmdapl	r0, {}	; <UNPREDICTABLE>
    2d30:	02380e10 	eorseq	r0, r8, #16, 28	; 0x100
    2d34:	7c040000 	stcvc	0, cr0, [r4], {-0}
    2d38:	0000a316 	andeq	sl, r0, r6, lsl r3
    2d3c:	0e105c00 	cdpeq	12, 1, cr5, cr0, cr0, {0}
    2d40:	0000022d 	andeq	r0, r0, sp, lsr #4
    2d44:	a3167d04 	tstge	r6, #4, 26	; 0x100
    2d48:	60000000 	andvs	r0, r0, r0
    2d4c:	028b0e10 	addeq	r0, fp, #16, 28	; 0x100
    2d50:	7e040000 	cdpvc	0, 0, cr0, cr4, cr0, {0}
    2d54:	0002c816 	andeq	ip, r2, r6, lsl r8
    2d58:	0e106400 	cfmulseq	mvf6, mvf0, mvf0
    2d5c:	00000179 	andeq	r0, r0, r9, ror r1
    2d60:	9e167f04 	cdpls	15, 1, cr7, cr6, cr4, {0}
    2d64:	00000000 	andeq	r0, r0, r0
    2d68:	01560e11 	cmpeq	r6, r1, lsl lr
    2d6c:	80040000 	andhi	r0, r4, r0
    2d70:	00009e16 	andeq	r9, r0, r6, lsl lr
    2d74:	00110400 	andseq	r0, r1, r0, lsl #8
    2d78:	00008107 	andeq	r8, r0, r7, lsl #2
    2d7c:	00050900 	andeq	r0, r5, r0, lsl #18
    2d80:	00970f00 	addseq	r0, r7, r0, lsl #30
    2d84:	0ffb0000 	svceq	0x00fb0000
    2d88:	00810700 	addeq	r0, r1, r0, lsl #14
    2d8c:	05190000 	ldreq	r0, [r9, #-0]
    2d90:	97080000 	strls	r0, [r8, -r0]
    2d94:	0b000000 	bleq	2d9c <__DATA_END+0x13ac>
    2d98:	01030b00 	tsteq	r3, r0, lsl #22
    2d9c:	81040000 	mrshi	r0, (UNDEF: 4)
    2da0:	00037616 	andeq	r7, r3, r6, lsl r6
    2da4:	04090900 	streq	r0, [r9], #-2304	; 0xfffff700
    2da8:	059c1bc3 	ldreq	r1, [ip, #3011]	; 0xbc3
    2dac:	420c0000 	andmi	r0, ip, #0
    2db0:	04004844 	streq	r4, [r0], #-2116	; 0xfffff7bc
    2db4:	00b81bc4 	adcseq	r1, r8, r4, asr #23
    2db8:	0c000000 	stceq	0, cr0, [r0], {-0}
    2dbc:	004c4442 	subeq	r4, ip, r2, asr #8
    2dc0:	b81bc504 	ldmdalt	fp, {r2, r8, sl, lr, pc}
    2dc4:	01000000 	mrseq	r0, (UNDEF: 0)
    2dc8:	0031430c 	eorseq	r4, r1, ip, lsl #6
    2dcc:	b81bc604 	ldmdalt	fp, {r2, r9, sl, lr, pc}
    2dd0:	02000000 	andeq	r0, r0, #0
    2dd4:	0032430c 	eorseq	r4, r2, ip, lsl #6
    2dd8:	b81bc704 	ldmdalt	fp, {r2, r8, r9, sl, lr, pc}
    2ddc:	03000000 	movweq	r0, #0
    2de0:	0031530c 	eorseq	r5, r1, ip, lsl #6
    2de4:	bd1bc804 	ldclt	8, cr12, [fp, #-16]
    2de8:	04000000 	streq	r0, [r0], #-0
    2dec:	0032530c 	eorseq	r5, r2, ip, lsl #6
    2df0:	b81bc904 	ldmdalt	fp, {r2, r8, fp, lr, pc}
    2df4:	05000000 	streq	r0, [r0, #-0]
    2df8:	0033430c 	eorseq	r4, r3, ip, lsl #6
    2dfc:	b81bca04 	ldmdalt	fp, {r2, r9, fp, lr, pc}
    2e00:	06000000 	streq	r0, [r0], -r0
    2e04:	0400440c 	streq	r4, [r0], #-1036	; 0xfffffbf4
    2e08:	00b81bcb 	adcseq	r1, r8, fp, asr #23
    2e0c:	0c070000 	stceq	0, cr0, [r7], {-0}
    2e10:	04003443 	streq	r3, [r0], #-1091	; 0xfffffbbd
    2e14:	00b81bcc 	adcseq	r1, r8, ip, asr #23
    2e18:	00080000 	andeq	r0, r8, r0
    2e1c:	000a950b 	andeq	r9, sl, fp, lsl #10
    2e20:	1bcd0400 	blne	ff343e28 <__StackTop+0xdf340e28>
    2e24:	00000525 	andeq	r0, r0, r5, lsr #10
    2e28:	74080102 	strvc	r0, [r8], #-258	; 0xfffffefe
    2e2c:	10000001 	andne	r0, r0, r1
    2e30:	24060538 	strcs	r0, [r6], #-1336	; 0xfffffac8
    2e34:	11000006 	tstne	r0, r6
    2e38:	00000c63 	andeq	r0, r0, r3, ror #24
    2e3c:	06240705 	strteq	r0, [r4], -r5, lsl #14
    2e40:	11000000 	mrsne	r0, (UNDEF: 0)
    2e44:	00000c8a 	andeq	r0, r0, sl, lsl #25
    2e48:	05a80805 	streq	r0, [r8, #2053]!	; 0x805
    2e4c:	120b0000 	andne	r0, fp, #0
    2e50:	0074616c 	rsbseq	r6, r4, ip, ror #2
    2e54:	06240905 	strteq	r0, [r4], -r5, lsl #18
    2e58:	110c0000 	mrsne	r0, (UNDEF: 12)
    2e5c:	00000c55 	andeq	r0, r0, r5, asr ip
    2e60:	05a80a05 	streq	r0, [r8, #2565]!	; 0xa05
    2e64:	12170000 	andsne	r0, r7, #0
    2e68:	006e6f6c 	rsbeq	r6, lr, ip, ror #30
    2e6c:	06340b05 	ldrteq	r0, [r4], -r5, lsl #22
    2e70:	11180000 	tstne	r8, r0
    2e74:	00000c4d 	andeq	r0, r0, sp, asr #24
    2e78:	05a80c05 	streq	r0, [r8, #3077]!	; 0xc05
    2e7c:	11240000 	teqne	r4, r0
    2e80:	00000c5d 	andeq	r0, r0, sp, asr ip
    2e84:	06440d05 	strbeq	r0, [r4], -r5, lsl #26
    2e88:	11250000 	teqne	r5, r0
    2e8c:	00000c2e 	andeq	r0, r0, lr, lsr #24
    2e90:	06440e05 	strbeq	r0, [r4], -r5, lsl #28
    2e94:	112b0000 	teqne	fp, r0
    2e98:	00000209 	andeq	r0, r0, r9, lsl #4
    2e9c:	06540f05 	ldrbeq	r0, [r4], -r5, lsl #30
    2ea0:	00310000 	eorseq	r0, r1, r0
    2ea4:	0005a807 	andeq	sl, r5, r7, lsl #16
    2ea8:	00063400 	andeq	r3, r6, r0, lsl #8
    2eac:	00970800 	addseq	r0, r7, r0, lsl #16
    2eb0:	000a0000 	andeq	r0, sl, r0
    2eb4:	0005a807 	andeq	sl, r5, r7, lsl #16
    2eb8:	00064400 	andeq	r4, r6, r0, lsl #8
    2ebc:	00970800 	addseq	r0, r7, r0, lsl #16
    2ec0:	000b0000 	andeq	r0, fp, r0
    2ec4:	0005a807 	andeq	sl, r5, r7, lsl #16
    2ec8:	00065400 	andeq	r5, r6, r0, lsl #8
    2ecc:	00970800 	addseq	r0, r7, r0, lsl #16
    2ed0:	00050000 	andeq	r0, r5, r0
    2ed4:	0005a807 	andeq	sl, r5, r7, lsl #16
    2ed8:	00066400 	andeq	r6, r6, r0, lsl #8
    2edc:	00970800 	addseq	r0, r7, r0, lsl #16
    2ee0:	00060000 	andeq	r0, r6, r0
    2ee4:	000c4503 	andeq	r4, ip, r3, lsl #10
    2ee8:	af100500 	svcge	0x00100500
    2eec:	13000005 	movwne	r0, #5
    2ef0:	00000c35 	andeq	r0, r0, r5, lsr ip
    2ef4:	0c8c1b01 	fstmiaxeq	ip, {d1-d0}	;@ Deprecated
    2ef8:	00840000 	addeq	r0, r4, r0
    2efc:	9c010000 	stcls	0, cr0, [r1], {-0}
    2f00:	000e2514 	andeq	r2, lr, r4, lsl r5
    2f04:	103a0100 	eorsne	r0, sl, r0, lsl #2
    2f08:	9000000d 	andls	r0, r0, sp
    2f0c:	01000000 	mrseq	r0, (UNDEF: 0)
    2f10:	0006e29c 	muleq	r6, ip, r2
    2f14:	0d221500 	cfstr32eq	mvfx1, [r2, #-0]
    2f18:	066f0000 	strbteq	r0, [pc], -r0
    2f1c:	70150000 	andsvc	r0, r5, r0
    2f20:	2e00000d 	cdpcs	0, 0, cr0, cr0, cr13, {0}
    2f24:	15000009 	strne	r0, [r0, #-9]
    2f28:	00000d74 	andeq	r0, r0, r4, ror sp
    2f2c:	00000939 	andeq	r0, r0, r9, lsr r9
    2f30:	000d7e16 	andeq	r7, sp, r6, lsl lr
    2f34:	00094400 	andeq	r4, r9, r0, lsl #8
    2f38:	0006ce00 	andeq	ip, r6, r0, lsl #28
    2f3c:	50011700 	andpl	r1, r1, r0, lsl #14
    2f40:	b0000c05 	andlt	r0, r0, r5, lsl #24
    2f44:	01174006 	tsteq	r7, r6
    2f48:	800a0351 	andhi	r0, sl, r1, asr r3
    2f4c:	84180025 	ldrhi	r0, [r8], #-37	; 0xffffffdb
    2f50:	4f00000d 	svcmi	0x0000000d
    2f54:	17000009 	strne	r0, [r0, -r9]
    2f58:	0c055001 	stceq	0, cr5, [r5], {1}
    2f5c:	40066000 	andmi	r6, r6, r0
    2f60:	0d190000 	ldceq	0, cr0, [r9, #-0]
    2f64:	0100000c 	tsteq	r0, ip
    2f68:	0000734f 	andeq	r7, r0, pc, asr #6
    2f6c:	000da000 	andeq	sl, sp, r0
    2f70:	0000f400 	andeq	pc, r0, r0, lsl #8
    2f74:	239c0100 	orrscs	r0, ip, #0, 2
    2f78:	1a000009 	bne	2fa4 <__DATA_END+0x15b4>
    2f7c:	01007762 	tsteq	r0, r2, ror #14
    2f80:	00008c51 	andeq	r8, r0, r1, asr ip
    2f84:	0dd01b00 	vldreq	d17, [r0]
    2f88:	00c40000 	sbceq	r0, r4, r0
    2f8c:	08e40000 	stmiaeq	r4!, {}^	; <UNPREDICTABLE>
    2f90:	8f1c0000 	svchi	0x001c0000
    2f94:	0100000c 	tsteq	r0, ip
    2f98:	00007372 	andeq	r7, r0, r2, ror r3
    2f9c:	00072300 	andeq	r2, r7, r0, lsl #6
    2fa0:	15001d00 	strne	r1, [r0, #-3328]	; 0xfffff300
    2fa4:	00000dd4 	ldrdeq	r0, [r0], -r4
    2fa8:	0000095a 	andeq	r0, r0, sl, asr r9
    2fac:	000ddc16 	andeq	sp, sp, r6, lsl ip
    2fb0:	00096500 	andeq	r6, r9, r0, lsl #10
    2fb4:	00074100 	andeq	r4, r7, r0, lsl #2
    2fb8:	50011700 	andpl	r1, r1, r0, lsl #14
    2fbc:	01f40a03 	mvnseq	r0, r3, lsl #20
    2fc0:	0de61600 	stcleq	6, cr1, [r6]
    2fc4:	09700000 	ldmdbeq	r0!, {}^	; <UNPREDICTABLE>
    2fc8:	075a0000 	ldrbeq	r0, [sl, -r0]
    2fcc:	01170000 	tsteq	r7, r0
    2fd0:	00740250 	rsbseq	r0, r4, r0, asr r2
    2fd4:	01510117 	cmpeq	r1, r7, lsl r1
    2fd8:	ec160035 	ldc	0, cr0, [r6], {53}	; 0x35
    2fdc:	6500000d 	strvs	r0, [r0, #-13]
    2fe0:	6e000009 	cdpvs	0, 0, cr0, cr0, cr9, {0}
    2fe4:	17000007 	strne	r0, [r0, -r7]
    2fe8:	08025001 	stmdaeq	r2, {r0, ip, lr}
    2fec:	f4160064 			; <UNDEFINED> instruction: 0xf4160064
    2ff0:	7000000d 	andvc	r0, r0, sp
    2ff4:	8a000009 	bhi	3020 <__DATA_END+0x1630>
    2ff8:	17000007 	strne	r0, [r0, -r7]
    2ffc:	03055001 	movweq	r5, #20481	; 0x5001
    3000:	000017ca 	andeq	r1, r0, sl, asr #15
    3004:	01510117 	cmpeq	r1, r7, lsl r1
    3008:	fa160033 	blx	5830dc <__DATA_END+0x5816ec>
    300c:	6500000d 	strvs	r0, [r0, #-13]
    3010:	9e000009 	cdpls	0, 0, cr0, cr0, cr9, {0}
    3014:	17000007 	strne	r0, [r0, -r7]
    3018:	08025001 	stmdaeq	r2, {r0, ip, lr}
    301c:	021600c8 	andseq	r0, r6, #200	; 0xc8
    3020:	7000000e 	andvc	r0, r0, lr
    3024:	b1000009 	tstlt	r0, r9
    3028:	17000007 	strne	r0, [r0, -r7]
    302c:	3a015101 	bcc	57438 <__DATA_END+0x55a48>
    3030:	0e0a1600 	cfmadd32eq	mvax0, mvfx1, mvfx10, mvfx0
    3034:	09650000 	stmdbeq	r5!, {}^	; <UNPREDICTABLE>
    3038:	07c60000 	strbeq	r0, [r6, r0]
    303c:	01170000 	tsteq	r7, r0
    3040:	e80a0350 	stmda	sl, {r4, r6, r8, r9}
    3044:	12160003 	andsne	r0, r6, #3
    3048:	7000000e 	andvc	r0, r0, lr
    304c:	e2000009 	and	r0, r0, #9
    3050:	17000007 	strne	r0, [r0, -r7]
    3054:	03055001 	movweq	r5, #20481	; 0x5001
    3058:	000017ce 	andeq	r1, r0, lr, asr #15
    305c:	01510117 	cmpeq	r1, r7, lsl r1
    3060:	18160033 	ldmdane	r6, {r0, r1, r4, r5}
    3064:	6500000e 	strvs	r0, [r0, #-14]
    3068:	f6000009 			; <UNDEFINED> instruction: 0xf6000009
    306c:	17000007 	strne	r0, [r0, -r7]
    3070:	08025001 	stmdaeq	r2, {r0, ip, lr}
    3074:	201600c8 	andscs	r0, r6, r8, asr #1
    3078:	7000000e 	andvc	r0, r0, lr
    307c:	09000009 	stmdbeq	r0, {r0, r3}
    3080:	17000008 	strne	r0, [r0, -r8]
    3084:	3b015101 	blcc	57490 <__DATA_END+0x55aa0>
    3088:	0e261600 	cfmadda32eq	mvax0, mvax1, mvfx6, mvfx0
    308c:	09650000 	stmdbeq	r5!, {}^	; <UNPREDICTABLE>
    3090:	081d0000 	ldmdaeq	sp, {}	; <UNPREDICTABLE>
    3094:	01170000 	tsteq	r7, r0
    3098:	c8080250 	stmdagt	r8, {r4, r6, r9}
    309c:	0e2a1500 	cfsh64eq	mvdx1, mvdx10, #0
    30a0:	097b0000 	ldmdbeq	fp!, {}^	; <UNPREDICTABLE>
    30a4:	30160000 	andscc	r0, r6, r0
    30a8:	6500000e 	strvs	r0, [r0, #-14]
    30ac:	3a000009 	bcc	30d8 <__DATA_END+0x16e8>
    30b0:	17000008 	strne	r0, [r0, -r8]
    30b4:	08025001 	stmdaeq	r2, {r0, ip, lr}
    30b8:	341500c8 	ldrcc	r0, [r5], #-200	; 0xffffff38
    30bc:	8600000e 	strhi	r0, [r0], -lr
    30c0:	15000009 	strne	r0, [r0, #-9]
    30c4:	00000e38 	andeq	r0, r0, r8, lsr lr
    30c8:	00000991 	muleq	r0, r1, r9
    30cc:	000e3e16 	andeq	r3, lr, r6, lsl lr
    30d0:	00096500 	andeq	r6, r9, r0, lsl #10
    30d4:	00086100 	andeq	r6, r8, r0, lsl #2
    30d8:	50011700 	andpl	r1, r1, r0, lsl #14
    30dc:	9c400a03 	mcrrls	10, 0, r0, r0, cr3
    30e0:	0e421500 	cdpeq	5, 4, cr1, cr2, cr0, {0}
    30e4:	095a0000 	ldmdbeq	sl, {}^	; <UNPREDICTABLE>
    30e8:	4a160000 	bmi	5830f0 <__DATA_END+0x581700>
    30ec:	6500000e 	strvs	r0, [r0, #-14]
    30f0:	7f000009 	svcvc	0x00000009
    30f4:	17000008 	strne	r0, [r0, -r8]
    30f8:	0a035001 	beq	d7104 <__DATA_END+0xd5714>
    30fc:	160001f4 			; <UNDEFINED> instruction: 0x160001f4
    3100:	00000e52 	andeq	r0, r0, r2, asr lr
    3104:	00000970 	andeq	r0, r0, r0, ror r9
    3108:	00000898 	muleq	r0, r8, r8
    310c:	02500117 	subseq	r0, r0, #-1073741819	; 0xc0000005
    3110:	01170074 	tsteq	r7, r4, ror r0
    3114:	00350151 	eorseq	r0, r5, r1, asr r1
    3118:	000e5816 	andeq	r5, lr, r6, lsl r8
    311c:	00096500 	andeq	r6, r9, r0, lsl #10
    3120:	0008ac00 	andeq	sl, r8, r0, lsl #24
    3124:	50011700 	andpl	r1, r1, r0, lsl #14
    3128:	00640802 	rsbeq	r0, r4, r2, lsl #16
    312c:	000e5c15 	andeq	r5, lr, r5, lsl ip
    3130:	00097b00 	andeq	r7, r9, r0, lsl #22
    3134:	0e621600 	cdpeq	6, 6, cr1, cr2, cr0, {0}
    3138:	09650000 	stmdbeq	r5!, {}^	; <UNPREDICTABLE>
    313c:	08c90000 	stmiaeq	r9, {}^	; <UNPREDICTABLE>
    3140:	01170000 	tsteq	r7, r0
    3144:	c8080250 	stmdagt	r8, {r4, r6, r9}
    3148:	0e661500 	cdpeq	5, 6, cr1, cr6, cr0, {0}
    314c:	09860000 	stmibeq	r6, {}	; <UNPREDICTABLE>
    3150:	6c180000 	ldcvs	0, cr0, [r8], {-0}
    3154:	6500000e 	strvs	r0, [r0, #-14]
    3158:	17000009 	strne	r0, [r0, -r9]
    315c:	0a035001 	beq	d7168 <__DATA_END+0xd5778>
    3160:	0000c350 	andeq	ip, r0, r0, asr r3
    3164:	000da615 	andeq	sl, sp, r5, lsl r6
    3168:	00068000 	andeq	r8, r6, r0
    316c:	0daa1500 	cfstr32eq	mvfx1, [sl]
    3170:	099c0000 	ldmibeq	ip, {}	; <UNPREDICTABLE>
    3174:	ae150000 	cdpge	0, 1, cr0, cr5, cr0, {0}
    3178:	8600000d 	strhi	r0, [r0], -sp
    317c:	15000009 	strne	r0, [r0, #-9]
    3180:	00000dba 			; <UNDEFINED> instruction: 0x00000dba
    3184:	000009a7 	andeq	r0, r0, r7, lsr #19
    3188:	000dbe15 	andeq	fp, sp, r5, lsl lr
    318c:	0009b200 	andeq	fp, r9, r0, lsl #4
    3190:	0dca1800 	stcleq	8, cr1, [sl]
    3194:	09650000 	stmdbeq	r5!, {}^	; <UNPREDICTABLE>
    3198:	01170000 	tsteq	r7, r0
    319c:	100a0350 	andne	r0, sl, r0, asr r3
    31a0:	1e000027 	cdpne	0, 0, cr0, cr0, cr7, {1}
    31a4:	00000c12 	andeq	r0, r0, r2, lsl ip
    31a8:	06641705 	strbteq	r1, [r4], -r5, lsl #14
    31ac:	f21f0000 	vhadd.s16	d0, d15, d0
    31b0:	f200000b 	vhadd.s8	d0, d0, d11
    31b4:	0500000b 	streq	r0, [r0, #-11]
    31b8:	0c681f12 	stcleq	15, cr1, [r8], #-72	; 0xffffffb8
    31bc:	0c680000 	stcleq	0, cr0, [r8], #-0
    31c0:	1c050000 	stcne	0, cr0, [r5], {-0}
    31c4:	000a7c1f 	andeq	r7, sl, pc, lsl ip
    31c8:	000a7c00 	andeq	r7, sl, r0, lsl #24
    31cc:	1f110600 	svcne	0x00110600
    31d0:	00000be1 	andeq	r0, r0, r1, ror #23
    31d4:	00000be1 	andeq	r0, r0, r1, ror #23
    31d8:	3f1f1007 	svccc	0x001f1007
    31dc:	3f00000c 	svccc	0x0000000c
    31e0:	0800000c 	stmdaeq	r0, {r2, r3}
    31e4:	04a91f1c 	strteq	r1, [r9], #3868	; 0xf1c
    31e8:	04a90000 	strteq	r0, [r9], #0
    31ec:	0b090000 	bleq	2431f4 <__DATA_END+0x241804>
    31f0:	0007621f 	andeq	r6, r7, pc, lsl r2
    31f4:	00076200 	andeq	r6, r7, r0, lsl #4
    31f8:	1f120a00 	svcne	0x00120a00
    31fc:	00000bea 	andeq	r0, r0, sl, ror #23
    3200:	00000bea 	andeq	r0, r0, sl, ror #23
    3204:	db1f040b 	blle	7c4238 <__DATA_END+0x7c2848>
    3208:	db00000b 	blle	323c <__DATA_END+0x184c>
    320c:	0800000b 	stmdaeq	r0, {r0, r1, r3}
    3210:	0c8f1f1d 	stceq	15, cr1, [pc], {29}
    3214:	0c8f0000 	stceq	0, cr0, [pc], {0}
    3218:	72010000 	andvc	r0, r1, #0
    321c:	000c821f 	andeq	r8, ip, pc, lsl r2
    3220:	000c8200 	andeq	r8, ip, r0, lsl #4
    3224:	1f160800 	svcne	0x00160800
    3228:	00000c04 	andeq	r0, r0, r4, lsl #24
    322c:	00000c04 	andeq	r0, r0, r4, lsl #24
    3230:	231f1808 	tstcs	pc, #8, 16	; 0x80000
    3234:	2300000c 	movwcs	r0, #12
    3238:	0800000c 	stmdaeq	r0, {r2, r3}
    323c:	009e001b 	addseq	r0, lr, fp, lsl r0
    3240:	00040000 	andeq	r0, r4, r0
    3244:	00000caf 	andeq	r0, r0, pc, lsr #25
    3248:	00170104 	andseq	r0, r7, r4, lsl #2
    324c:	960c0000 	strls	r0, [ip], -r0
    3250:	a300000c 	movwge	r0, #12
    3254:	af000001 	svcge	0x00000001
    3258:	0200000c 	andeq	r0, r0, #12
    325c:	016d0601 	cmneq	sp, r1, lsl #12
    3260:	01020000 	mrseq	r0, (UNDEF: 2)
    3264:	00016b08 	andeq	r6, r1, r8, lsl #22
    3268:	05020200 	streq	r0, [r2, #-512]	; 0xfffffe00
    326c:	00000117 	andeq	r0, r0, r7, lsl r1
    3270:	00010c03 	andeq	r0, r1, r3, lsl #24
    3274:	3d2b0100 	stfccs	f0, [fp, #-0]
    3278:	02000000 	andeq	r0, r0, #0
    327c:	01dd0702 	bicseq	r0, sp, r2, lsl #14
    3280:	04020000 	streq	r0, [r2], #-0
    3284:	00012605 	andeq	r2, r1, r5, lsl #12
    3288:	07040200 	streq	r0, [r4, -r0, lsl #4]
    328c:	00000183 	andeq	r0, r0, r3, lsl #3
    3290:	21050802 	tstcs	r5, r2, lsl #16
    3294:	02000001 	andeq	r0, r0, #1
    3298:	017e0708 	cmneq	lr, r8, lsl #14
    329c:	04040000 	streq	r0, [r4], #-0
    32a0:	746e6905 	strbtvc	r6, [lr], #-2309	; 0xfffff6fb
    32a4:	07040200 	streq	r0, [r4, -r0, lsl #4]
    32a8:	00000188 	andeq	r0, r0, r8, lsl #3
    32ac:	00010e03 	andeq	r0, r1, r3, lsl #28
    32b0:	321a0200 	andscc	r0, sl, #0, 4
    32b4:	05000000 	streq	r0, [r0, #-0]
    32b8:	0000006e 	andeq	r0, r0, lr, rrx
    32bc:	00000089 	andeq	r0, r0, r9, lsl #1
    32c0:	00008906 	andeq	r8, r0, r6, lsl #18
    32c4:	02003f00 	andeq	r3, r0, #0, 30
    32c8:	02a20704 	adceq	r0, r2, #4, 14	; 0x100000
    32cc:	e0070000 	and	r0, r7, r0
    32d0:	03000005 	movweq	r0, #5
    32d4:	00007903 	andeq	r7, r0, r3, lsl #18
    32d8:	00030500 	andeq	r0, r3, r0, lsl #10
    32dc:	001ffff0 			; <UNDEFINED> instruction: 0x001ffff0
    32e0:	0000091c 	andeq	r0, r0, ip, lsl r9
    32e4:	0d050004 	stceq	0, cr0, [r5, #-16]
    32e8:	01040000 	mrseq	r0, (UNDEF: 4)
    32ec:	0000050e 	andeq	r0, r0, lr, lsl #10
    32f0:	000ca20c 	andeq	sl, ip, ip, lsl #4
    32f4:	0001a300 	andeq	sl, r1, r0, lsl #6
    32f8:	00021000 	andeq	r1, r2, r0
    32fc:	00000000 	andeq	r0, r0, r0
    3300:	000d3800 	andeq	r3, sp, r0, lsl #16
    3304:	06010200 	streq	r0, [r1], -r0, lsl #4
    3308:	0000016d 	andeq	r0, r0, sp, ror #2
    330c:	0000ee03 	andeq	lr, r0, r3, lsl #28
    3310:	371d0200 	ldrcc	r0, [sp, -r0, lsl #4]
    3314:	02000000 	andeq	r0, r0, #0
    3318:	016b0801 	cmneq	fp, r1, lsl #16
    331c:	02020000 	andeq	r0, r2, #0
    3320:	00011705 	andeq	r1, r1, r5, lsl #14
    3324:	07020200 	streq	r0, [r2, -r0, lsl #4]
    3328:	000001dd 	ldrdeq	r0, [r0], -sp
    332c:	26050402 	strcs	r0, [r5], -r2, lsl #8
    3330:	03000001 	movweq	r0, #1
    3334:	000000f8 	strdeq	r0, [r0], -r8
    3338:	005e4102 	subseq	r4, lr, r2, lsl #2
    333c:	04020000 	streq	r0, [r2], #-0
    3340:	00018307 	andeq	r8, r1, r7, lsl #6
    3344:	05080200 	streq	r0, [r8, #-512]	; 0xfffffe00
    3348:	00000121 	andeq	r0, r0, r1, lsr #2
    334c:	7e070802 	cdpvc	8, 0, cr0, cr7, cr2, {0}
    3350:	04000001 	streq	r0, [r0], #-1
    3354:	6e690504 	cdpvs	5, 6, cr0, cr9, cr4, {0}
    3358:	04020074 	streq	r0, [r2], #-116	; 0xffffff8c
    335c:	00018807 	andeq	r8, r1, r7, lsl #16
    3360:	00f00300 	rscseq	r0, r0, r0, lsl #6
    3364:	14030000 	strne	r0, [r3], #-0
    3368:	0000002c 	andeq	r0, r0, ip, lsr #32
    336c:	0000fa03 	andeq	pc, r0, r3, lsl #20
    3370:	53200300 	teqpl	r0, #0, 6
    3374:	02000000 	andeq	r0, r0, #0
    3378:	02a20704 	adceq	r0, r2, #4, 14	; 0x100000
    337c:	8c050000 	stchi	0, cr0, [r5], {-0}
    3380:	06000000 	streq	r0, [r0], -r0
    3384:	0000009e 	muleq	r0, lr, r0
    3388:	00008107 	andeq	r8, r0, r7, lsl #2
    338c:	0000b800 	andeq	fp, r0, r0, lsl #16
    3390:	00970800 	addseq	r0, r7, r0, lsl #16
    3394:	00030000 	andeq	r0, r3, r0
    3398:	00008105 	andeq	r8, r0, r5, lsl #2
    339c:	00b80600 	adcseq	r0, r8, r0, lsl #12
    33a0:	18090000 	stmdane	r9, {}	; <UNPREDICTABLE>
    33a4:	1a06ff04 	bne	1c2fbc <__DATA_END+0x1c15cc>
    33a8:	0a000001 	beq	33b4 <__DATA_END+0x19c4>
    33ac:	000006f8 	strdeq	r0, [r0], -r8
    33b0:	9e070004 	cdpls	0, 0, cr0, cr7, cr4, {0}
    33b4:	00000000 	andeq	r0, r0, r0
    33b8:	0007240a 	andeq	r2, r7, sl, lsl #8
    33bc:	07010400 	streq	r0, [r1, -r0, lsl #8]
    33c0:	0000009e 	muleq	r0, lr, r0
    33c4:	07690a04 	strbeq	r0, [r9, -r4, lsl #20]!
    33c8:	02040000 	andeq	r0, r4, #0
    33cc:	00009e07 	andeq	r9, r0, r7, lsl #28
    33d0:	540a0800 	strpl	r0, [sl], #-2048	; 0xfffff800
    33d4:	04000007 	streq	r0, [r0], #-7
    33d8:	009e0703 	addseq	r0, lr, r3, lsl #14
    33dc:	0a0c0000 	beq	3033e4 <__DATA_END+0x3019f4>
    33e0:	000006ea 	andeq	r0, r0, sl, ror #13
    33e4:	a3070404 	movwge	r0, #29700	; 0x7404
    33e8:	10000000 	andne	r0, r0, r0
    33ec:	00070a0a 	andeq	r0, r7, sl, lsl #20
    33f0:	07050400 	streq	r0, [r5, -r0, lsl #8]
    33f4:	0000009e 	muleq	r0, lr, r0
    33f8:	0f0b0014 	svceq	0x000b0014
    33fc:	04000007 	streq	r0, [r0], #-7
    3400:	00c20706 	sbceq	r0, r2, r6, lsl #14
    3404:	81070000 	mrshi	r0, (UNDEF: 7)
    3408:	36000000 	strcc	r0, [r0], -r0
    340c:	08000001 	stmdaeq	r0, {r0}
    3410:	00000097 	muleq	r0, r7, r0
    3414:	81070007 	tsthi	r7, r7
    3418:	46000000 	strmi	r0, [r0], -r0
    341c:	08000001 	stmdaeq	r0, {r0}
    3420:	00000097 	muleq	r0, r7, r0
    3424:	8107009b 	swphi	r0, fp, [r7]
    3428:	56000000 	strpl	r0, [r0], -r0
    342c:	08000001 	stmdaeq	r0, {r0}
    3430:	00000097 	muleq	r0, r7, r0
    3434:	a4090017 	strge	r0, [r9], #-23	; 0xffffffe9
    3438:	a112c304 	tstge	r2, r4, lsl #6
    343c:	0c000001 	stceq	0, cr0, [r0], {1}
    3440:	00524350 	subseq	r4, r2, r0, asr r3
    3444:	b112c404 	tstlt	r2, r4, lsl #8
    3448:	00000001 	andeq	r0, r0, r1
    344c:	0009e40a 	andeq	lr, r9, sl, lsl #8
    3450:	12c50400 	sbcne	r0, r5, #0, 8
    3454:	0000009e 	muleq	r0, lr, r0
    3458:	0b730a80 	bleq	1cc5e60 <__DATA_END+0x1cc4470>
    345c:	c6040000 	strgt	r0, [r4], -r0
    3460:	00009e12 	andeq	r9, r0, r2, lsl lr
    3464:	3e0a8400 	cfcpyscc	mvf8, mvf10
    3468:	04000002 	streq	r0, [r0], #-2
    346c:	014612c7 	smlalbteq	r1, r6, r7, r2
    3470:	0a880000 	beq	fe203478 <__StackTop+0xde200478>
    3474:	00000a4f 	andeq	r0, r0, pc, asr #20
    3478:	9e12c804 	cdpls	8, 1, cr12, cr2, cr4, {0}
    347c:	a0000000 	andge	r0, r0, r0
    3480:	008c0700 	addeq	r0, ip, r0, lsl #14
    3484:	01b10000 			; <UNDEFINED> instruction: 0x01b10000
    3488:	97080000 	strls	r0, [r8, -r0]
    348c:	1f000000 	svcne	0x00000000
    3490:	01a10500 			; <UNDEFINED> instruction: 0x01a10500
    3494:	240b0000 	strcs	r0, [fp], #-0
    3498:	0400000a 	streq	r0, [r0], #-10
    349c:	015612c9 	cmpeq	r6, r9, asr #5
    34a0:	080d0000 	stmdaeq	sp, {}	; <UNPREDICTABLE>
    34a4:	16650411 			; <UNDEFINED> instruction: 0x16650411
    34a8:	00000344 	andeq	r0, r0, r4, asr #6
    34ac:	0002170a 	andeq	r1, r2, sl, lsl #14
    34b0:	16660400 	strbtne	r0, [r6], -r0, lsl #8
    34b4:	0000009e 	muleq	r0, lr, r0
    34b8:	012f0a00 	teqeq	pc, r0, lsl #20
    34bc:	67040000 	strvs	r0, [r4, -r0]
    34c0:	00009e16 	andeq	r9, r0, r6, lsl lr
    34c4:	3e0a0400 	cfcpyscc	mvf0, mvf10
    34c8:	04000002 	streq	r0, [r0], #-2
    34cc:	03441668 	movteq	r1, #18024	; 0x4668
    34d0:	0e080000 	cdpeq	0, 0, cr0, cr8, cr0, {0}
    34d4:	00000150 	andeq	r0, r0, r0, asr r1
    34d8:	9e166904 	cdpls	9, 1, cr6, cr6, cr4, {0}
    34dc:	04000000 	streq	r0, [r0], #-0
    34e0:	02490e10 	subeq	r0, r9, #16, 28	; 0x100
    34e4:	6a040000 	bvs	1034ec <__DATA_END+0x101afc>
    34e8:	0000a816 	andeq	sl, r0, r6, lsl r8
    34ec:	0e100800 	cdpeq	8, 1, cr0, cr0, cr0, {0}
    34f0:	000002dc 	ldrdeq	r0, [r0], -ip
    34f4:	9e166b04 	vnmlsls.f64	d6, d6, d4
    34f8:	0c000000 	stceq	0, cr0, [r0], {-0}
    34fc:	00000e10 	andeq	r0, r0, r0, lsl lr
    3500:	6c040000 	stcvs	0, cr0, [r4], {-0}
    3504:	00009e16 	andeq	r9, r0, r6, lsl lr
    3508:	0e101000 	cdpeq	0, 1, cr1, cr0, cr0, {0}
    350c:	00000254 	andeq	r0, r0, r4, asr r2
    3510:	a8166d04 	ldmdage	r6, {r2, r8, sl, fp, sp, lr}
    3514:	14000000 	strne	r0, [r0], #-0
    3518:	015d0e10 	cmpeq	sp, r0, lsl lr
    351c:	6e040000 	cdpvs	0, 0, cr0, cr4, cr0, {0}
    3520:	00009e16 	andeq	r9, r0, r6, lsl lr
    3524:	0e101800 	cdpeq	8, 1, cr1, cr0, cr0, {0}
    3528:	0000025f 	andeq	r0, r0, pc, asr r2
    352c:	26166f04 	ldrcs	r6, [r6], -r4, lsl #30
    3530:	1c000001 	stcne	0, cr0, [r0], {1}
    3534:	00120e10 	andseq	r0, r2, r0, lsl lr
    3538:	70040000 	andvc	r0, r4, r0
    353c:	0000a316 	andeq	sl, r0, r6, lsl r3
    3540:	0e102400 	cfmulseq	mvf2, mvf0, mvf0
    3544:	0000026a 	andeq	r0, r0, sl, ror #4
    3548:	55167104 	ldrpl	r7, [r6, #-260]	; 0xfffffefc
    354c:	28000003 	stmdacs	r0, {r0, r1}
    3550:	01380e10 	teqeq	r8, r0, lsl lr
    3554:	72040000 	andvc	r0, r4, #0
    3558:	00009e16 	andeq	r9, r0, r6, lsl lr
    355c:	0e103400 	cfmulseq	mvf3, mvf0, mvf0
    3560:	0000013e 	andeq	r0, r0, lr, lsr r1
    3564:	9e167304 	cdpls	3, 1, cr7, cr6, cr4, {0}
    3568:	38000000 	stmdacc	r0, {}	; <UNPREDICTABLE>
    356c:	01440e10 	cmpeq	r4, r0, lsl lr
    3570:	74040000 	strvc	r0, [r4], #-0
    3574:	00009e16 	andeq	r9, r0, r6, lsl lr
    3578:	0e103c00 	cdpeq	12, 1, cr3, cr0, cr0, {0}
    357c:	0000014a 	andeq	r0, r0, sl, asr #2
    3580:	9e167504 	cfmul32ls	mvfx7, mvfx6, mvfx4
    3584:	40000000 	andmi	r0, r0, r0
    3588:	01630e10 	cmneq	r3, r0, lsl lr
    358c:	76040000 	strvc	r0, [r4], -r0
    3590:	00009e16 	andeq	r9, r0, r6, lsl lr
    3594:	0e104400 	cfmulseq	mvf4, mvf0, mvf0
    3598:	00000275 	andeq	r0, r0, r5, ror r2
    359c:	a8167704 	ldmdage	r6, {r2, r8, r9, sl, ip, sp, lr}
    35a0:	48000000 	stmdami	r0, {}	; <UNPREDICTABLE>
    35a4:	00060e10 	andeq	r0, r6, r0, lsl lr
    35a8:	78040000 	stmdavc	r4, {}	; <UNPREDICTABLE>
    35ac:	00009e16 	andeq	r9, r0, r6, lsl lr
    35b0:	0e104c00 	cdpeq	12, 1, cr4, cr0, cr0, {0}
    35b4:	0000000c 	andeq	r0, r0, ip
    35b8:	a3167904 	tstge	r6, #4, 18	; 0x10000
    35bc:	50000000 	andpl	r0, r0, r0
    35c0:	02800e10 	addeq	r0, r0, #16, 28	; 0x100
    35c4:	7a040000 	bvc	1035cc <__DATA_END+0x101bdc>
    35c8:	0000a816 	andeq	sl, r0, r6, lsl r8
    35cc:	0e105400 	cfmulseq	mvf5, mvf0, mvf0
    35d0:	00000232 	andeq	r0, r0, r2, lsr r2
    35d4:	a3167b04 	tstge	r6, #4, 22	; 0x1000
    35d8:	58000000 	stmdapl	r0, {}	; <UNPREDICTABLE>
    35dc:	02380e10 	eorseq	r0, r8, #16, 28	; 0x100
    35e0:	7c040000 	stcvc	0, cr0, [r4], {-0}
    35e4:	0000a316 	andeq	sl, r0, r6, lsl r3
    35e8:	0e105c00 	cdpeq	12, 1, cr5, cr0, cr0, {0}
    35ec:	0000022d 	andeq	r0, r0, sp, lsr #4
    35f0:	a3167d04 	tstge	r6, #4, 26	; 0x100
    35f4:	60000000 	andvs	r0, r0, r0
    35f8:	028b0e10 	addeq	r0, fp, #16, 28	; 0x100
    35fc:	7e040000 	cdpvc	0, 0, cr0, cr4, cr0, {0}
    3600:	00013616 	andeq	r3, r1, r6, lsl r6
    3604:	0e106400 	cfmulseq	mvf6, mvf0, mvf0
    3608:	00000179 	andeq	r0, r0, r9, ror r1
    360c:	9e167f04 	cdpls	15, 1, cr7, cr6, cr4, {0}
    3610:	00000000 	andeq	r0, r0, r0
    3614:	01560e11 	cmpeq	r6, r1, lsl lr
    3618:	80040000 	andhi	r0, r4, r0
    361c:	00009e16 	andeq	r9, r0, r6, lsl lr
    3620:	00110400 	andseq	r0, r1, r0, lsl #8
    3624:	00008107 	andeq	r8, r0, r7, lsl #2
    3628:	00035500 	andeq	r5, r3, r0, lsl #10
    362c:	00970f00 	addseq	r0, r7, r0, lsl #30
    3630:	0ffb0000 	svceq	0x00fb0000
    3634:	00810700 	addeq	r0, r1, r0, lsl #14
    3638:	03650000 	cmneq	r5, #0
    363c:	97080000 	strls	r0, [r8, -r0]
    3640:	0b000000 	bleq	3648 <__DATA_END+0x1c58>
    3644:	01030b00 	tsteq	r3, r0, lsl #22
    3648:	81040000 	mrshi	r0, (UNDEF: 4)
    364c:	0001c216 	andeq	ip, r1, r6, lsl r2
    3650:	04090900 	streq	r0, [r9], #-2304	; 0xfffff700
    3654:	03e81bc3 	mvneq	r1, #199680	; 0x30c00
    3658:	420c0000 	andmi	r0, ip, #0
    365c:	04004844 	streq	r4, [r0], #-2116	; 0xfffff7bc
    3660:	00b81bc4 	adcseq	r1, r8, r4, asr #23
    3664:	0c000000 	stceq	0, cr0, [r0], {-0}
    3668:	004c4442 	subeq	r4, ip, r2, asr #8
    366c:	b81bc504 	ldmdalt	fp, {r2, r8, sl, lr, pc}
    3670:	01000000 	mrseq	r0, (UNDEF: 0)
    3674:	0031430c 	eorseq	r4, r1, ip, lsl #6
    3678:	b81bc604 	ldmdalt	fp, {r2, r9, sl, lr, pc}
    367c:	02000000 	andeq	r0, r0, #0
    3680:	0032430c 	eorseq	r4, r2, ip, lsl #6
    3684:	b81bc704 	ldmdalt	fp, {r2, r8, r9, sl, lr, pc}
    3688:	03000000 	movweq	r0, #0
    368c:	0031530c 	eorseq	r5, r1, ip, lsl #6
    3690:	bd1bc804 	ldclt	8, cr12, [fp, #-16]
    3694:	04000000 	streq	r0, [r0], #-0
    3698:	0032530c 	eorseq	r5, r2, ip, lsl #6
    369c:	b81bc904 	ldmdalt	fp, {r2, r8, fp, lr, pc}
    36a0:	05000000 	streq	r0, [r0, #-0]
    36a4:	0033430c 	eorseq	r4, r3, ip, lsl #6
    36a8:	b81bca04 	ldmdalt	fp, {r2, r9, fp, lr, pc}
    36ac:	06000000 	streq	r0, [r0], -r0
    36b0:	0400440c 	streq	r4, [r0], #-1036	; 0xfffffbf4
    36b4:	00b81bcb 	adcseq	r1, r8, fp, asr #23
    36b8:	0c070000 	stceq	0, cr0, [r7], {-0}
    36bc:	04003443 	streq	r3, [r0], #-1091	; 0xfffffbbd
    36c0:	00b81bcc 	adcseq	r1, r8, ip, asr #23
    36c4:	00080000 	andeq	r0, r8, r0
    36c8:	000a950b 	andeq	r9, sl, fp, lsl #10
    36cc:	1bcd0400 	blne	ff3446d4 <__StackTop+0xdf3416d4>
    36d0:	00000371 	andeq	r0, r0, r1, ror r3
    36d4:	20040c09 	andcs	r0, r4, r9, lsl #24
    36d8:	0004911d 	andeq	r9, r4, sp, lsl r1
    36dc:	44420c00 	strbmi	r0, [r2], #-3072	; 0xfffff400
    36e0:	21040048 	tstcs	r4, r8, asr #32
    36e4:	0000b81d 	andeq	fp, r0, sp, lsl r8
    36e8:	420c0000 	andmi	r0, ip, #0
    36ec:	04004c44 	streq	r4, [r0], #-3140	; 0xfffff3bc
    36f0:	00b81d22 	adcseq	r1, r8, r2, lsr #26
    36f4:	0c010000 	stceq	0, cr0, [r1], {-0}
    36f8:	04003143 	streq	r3, [r0], #-323	; 0xfffffebd
    36fc:	00b81d23 	adcseq	r1, r8, r3, lsr #26
    3700:	0c020000 	stceq	0, cr0, [r2], {-0}
    3704:	04003243 	streq	r3, [r0], #-579	; 0xfffffdbd
    3708:	00b81d24 	adcseq	r1, r8, r4, lsr #26
    370c:	0c030000 	stceq	0, cr0, [r3], {-0}
    3710:	04003153 	streq	r3, [r0], #-339	; 0xfffffead
    3714:	00b81d25 	adcseq	r1, r8, r5, lsr #26
    3718:	0c040000 	stceq	0, cr0, [r4], {-0}
    371c:	04003253 	streq	r3, [r0], #-595	; 0xfffffdad
    3720:	00b81d26 	adcseq	r1, r8, r6, lsr #26
    3724:	0c050000 	stceq	0, cr0, [r5], {-0}
    3728:	04003343 	streq	r3, [r0], #-835	; 0xfffffcbd
    372c:	00b81d27 	adcseq	r1, r8, r7, lsr #26
    3730:	0c060000 	stceq	0, cr0, [r6], {-0}
    3734:	28040044 	stmdacs	r4, {r2, r6}
    3738:	0000b81d 	andeq	fp, r0, sp, lsl r8
    373c:	4d0c0700 	stcmi	7, cr0, [ip, #-0]
    3740:	04003141 	streq	r3, [r0], #-321	; 0xfffffebf
    3744:	00b81d29 	adcseq	r1, r8, r9, lsr #26
    3748:	0c080000 	stceq	0, cr0, [r8], {-0}
    374c:	0032414d 	eorseq	r4, r2, sp, asr #2
    3750:	b81d2a04 	ldmdalt	sp, {r2, r9, fp, sp}
    3754:	09000000 	stmdbeq	r0, {}	; <UNPREDICTABLE>
    3758:	0034430c 	eorseq	r4, r4, ip, lsl #6
    375c:	b81d2b04 	ldmdalt	sp, {r2, r8, r9, fp, sp}
    3760:	0a000000 	beq	3768 <__DATA_END+0x1d78>
    3764:	0035430c 	eorseq	r4, r5, ip, lsl #6
    3768:	b81d2c04 	ldmdalt	sp, {r2, sl, fp, sp}
    376c:	0b000000 	bleq	3774 <__DATA_END+0x1d84>
    3770:	0aff0b00 	beq	fffc6378 <__StackTop+0xdffc3378>
    3774:	2d040000 	stccs	0, cr0, [r4, #-0]
    3778:	0003f41d 	andeq	pc, r3, sp, lsl r4	; <UNPREDICTABLE>
    377c:	05601000 	strbeq	r1, [r0, #-0]!
    3780:	0004e205 	andeq	lr, r4, r5, lsl #4
    3784:	04391100 	ldrteq	r1, [r9], #-256	; 0xffffff00
    3788:	06050000 	streq	r0, [r5], -r0
    378c:	00000073 	andeq	r0, r0, r3, ror r0
    3790:	04091100 	streq	r1, [r9], #-256	; 0xffffff00
    3794:	07050000 	streq	r0, [r5, -r0]
    3798:	00000073 	andeq	r0, r0, r3, ror r0
    379c:	041c1104 	ldreq	r1, [ip], #-260	; 0xfffffefc
    37a0:	09050000 	stmdbeq	r5, {}	; <UNPREDICTABLE>
    37a4:	000004e2 	andeq	r0, r0, r2, ror #9
    37a8:	03f41108 	mvnseq	r1, #8, 2
    37ac:	0d050000 	stceq	0, cr0, [r5, #-0]
    37b0:	00000073 	andeq	r0, r0, r3, ror r0
    37b4:	045e1158 	ldrbeq	r1, [lr], #-344	; 0xfffffea8
    37b8:	0e050000 	cdpeq	0, 0, cr0, cr5, cr0, {0}
    37bc:	00000073 	andeq	r0, r0, r3, ror r0
    37c0:	f207005c 	vqadd.s8	q0, <illegal reg q3.5>, q6
    37c4:	f2000004 	vhadd.s8	d0, d0, d4
    37c8:	08000004 	stmdaeq	r0, {r2}
    37cc:	00000097 	muleq	r0, r7, r0
    37d0:	0102004f 	tsteq	r2, pc, asr #32
    37d4:	00017408 	andeq	r7, r1, r8, lsl #8
    37d8:	04210300 	strteq	r0, [r1], #-768	; 0xfffffd00
    37dc:	0f050000 	svceq	0x00050000
    37e0:	0000049d 	muleq	r0, sp, r4
    37e4:	0606c410 			; <UNDEFINED> instruction: 0x0606c410
    37e8:	00000531 	andeq	r0, r0, r1, lsr r5
    37ec:	51787212 	cmnpl	r8, r2, lsl r2
    37f0:	31070600 	tstcc	r7, r0, lsl #12
    37f4:	00000005 	andeq	r0, r0, r5
    37f8:	51787412 	cmnpl	r8, r2, lsl r4
    37fc:	31080600 	tstcc	r8, r0, lsl #12
    3800:	60000005 	andvs	r0, r0, r5
    3804:	000b8a11 	andeq	r8, fp, r1, lsl sl
    3808:	36090600 	strcc	r0, [r9], -r0, lsl #12
    380c:	c0000005 	andgt	r0, r0, r5
    3810:	04f90500 	ldrbteq	r0, [r9], #1280	; 0x500
    3814:	04130000 	ldreq	r0, [r3], #-0
    3818:	0000053c 	andeq	r0, r0, ip, lsr r5
    381c:	0003e805 	andeq	lr, r3, r5, lsl #16
    3820:	09ea0300 	stmibeq	sl!, {r8, r9}^
    3824:	0a060000 	beq	18382c <__DATA_END+0x181e3c>
    3828:	00000504 	andeq	r0, r0, r4, lsl #10
    382c:	04f20413 	ldrbteq	r0, [r2], #1043	; 0x413
    3830:	1e100000 	cdpne	0, 1, cr0, cr0, cr0, {0}
    3834:	05970d07 	ldreq	r0, [r7, #3335]	; 0xd07
    3838:	09110000 	ldmdbeq	r1, {}	; <UNPREDICTABLE>
    383c:	0700000d 	streq	r0, [r0, -sp]
    3840:	0005970e 	andeq	r9, r5, lr, lsl #14
    3844:	d7110000 	ldrle	r0, [r1, -r0]
    3848:	0700000c 	streq	r0, [r0, -ip]
    384c:	0005970f 	andeq	r9, r5, pc, lsl #14
    3850:	e1110b00 	tst	r1, r0, lsl #22
    3854:	0700000c 	streq	r0, [r0, -ip]
    3858:	0005a710 	andeq	sl, r5, r0, lsl r7
    385c:	9c111600 	ldcls	6, cr1, [r1], {-0}
    3860:	0700000c 	streq	r0, [r0, -ip]
    3864:	0005b711 	andeq	fp, r5, r1, lsl r7
    3868:	f9111800 			; <UNDEFINED> instruction: 0xf9111800
    386c:	0700000c 	streq	r0, [r0, -ip]
    3870:	0004f213 	andeq	pc, r4, r3, lsl r2	; <UNPREDICTABLE>
    3874:	07001d00 	streq	r1, [r0, -r0, lsl #26]
    3878:	000004f2 	strdeq	r0, [r0], -r2
    387c:	000005a7 	andeq	r0, r0, r7, lsr #11
    3880:	00009708 	andeq	r9, r0, r8, lsl #14
    3884:	07000a00 	streq	r0, [r0, -r0, lsl #20]
    3888:	000004f2 	strdeq	r0, [r0], -r2
    388c:	000005b7 			; <UNDEFINED> instruction: 0x000005b7
    3890:	00009708 	andeq	r9, r0, r8, lsl #14
    3894:	07000100 	streq	r0, [r0, -r0, lsl #2]
    3898:	000004f2 	strdeq	r0, [r0], -r2
    389c:	000005c7 	andeq	r0, r0, r7, asr #11
    38a0:	00009708 	andeq	r9, r0, r8, lsl #14
    38a4:	03000400 	movweq	r0, #1024	; 0x400
    38a8:	00000ca8 	andeq	r0, r0, r8, lsr #25
    38ac:	05521407 	ldrbeq	r1, [r2, #-1031]	; 0xfffffbf9
    38b0:	6e140000 	cdpvs	0, 1, cr0, cr4, cr0, {0}
    38b4:	0100000e 	tsteq	r0, lr
    38b8:	00007308 	andeq	r7, r0, r8, lsl #6
    38bc:	000e9400 	andeq	r9, lr, r0, lsl #8
    38c0:	00001400 	andeq	r1, r0, r0, lsl #8
    38c4:	159c0100 	ldrne	r0, [ip, #256]	; 0x100
    38c8:	15000006 	strne	r0, [r0, #-6]
    38cc:	00747364 	rsbseq	r7, r4, r4, ror #6
    38d0:	054c0801 	strbeq	r0, [ip, #-2049]	; 0xfffff7ff
    38d4:	08d60000 	ldmeq	r6, {}^	; <UNPREDICTABLE>
    38d8:	73160000 	tstvc	r6, #0
    38dc:	01006372 	tsteq	r0, r2, ror r3
    38e0:	00054c08 	andeq	r4, r5, r8, lsl #24
    38e4:	17510100 	ldrbne	r0, [r1, -r0, lsl #2]
    38e8:	09010069 	stmdbeq	r1, {r0, r3, r5, r6}
    38ec:	00000073 	andeq	r0, r0, r3, ror r0
    38f0:	000008f7 	strdeq	r0, [r0], -r7
    38f4:	0c821400 	cfstrseq	mvf1, [r2], {0}
    38f8:	13010000 	movwne	r0, #4096	; 0x1000
    38fc:	00000073 	andeq	r0, r0, r3, ror r0
    3900:	00000ea8 	andeq	r0, r0, r8, lsr #29
    3904:	000000a8 	andeq	r0, r0, r8, lsr #1
    3908:	06a89c01 	strteq	r9, [r8], r1, lsl #24
    390c:	a9180000 	ldmdbge	r8, {}	; <UNPREDICTABLE>
    3910:	01000004 	tsteq	r0, r4
    3914:	00007326 	andeq	r7, r0, r6, lsr #6
    3918:	00063f00 	andeq	r3, r6, r0, lsl #30
    391c:	1a001900 	bne	9d24 <__DATA_END+0x8334>
    3920:	00000eb4 			; <UNDEFINED> instruction: 0x00000eb4
    3924:	000005d2 	ldrdeq	r0, [r0], -r2
    3928:	0000065c 	andeq	r0, r0, ip, asr r6
    392c:	0550011b 	ldrbeq	r0, [r0, #-283]	; 0xfffffee5
    3930:	fff48003 			; <UNDEFINED> instruction: 0xfff48003
    3934:	51011b1f 	tstpl	r1, pc, lsl fp
    3938:	00007402 	andeq	r7, r0, r2, lsl #8
    393c:	000ebc1a 	andeq	fp, lr, sl, lsl ip
    3940:	0005d200 	andeq	sp, r5, r0, lsl #4
    3944:	00067900 	andeq	r7, r6, r0, lsl #18
    3948:	50011b00 	andpl	r1, r1, r0, lsl #22
    394c:	f48b0305 	vst4.8	{d0[0],d1[0],d2[0],d3[0]}, [fp], r5
    3950:	011b1fff 			; <UNDEFINED> instruction: 0x011b1fff
    3954:	00740251 	rsbseq	r0, r4, r1, asr r2
    3958:	0ec61a00 	vdiveq.f32	s3, s12, s0
    395c:	08ea0000 	stmiaeq	sl!, {}^	; <UNPREDICTABLE>
    3960:	06970000 	ldreq	r0, [r7], r0
    3964:	011b0000 	tsteq	fp, r0
    3968:	000c0550 	andeq	r0, ip, r0, asr r5
    396c:	1b4006a0 	blne	10053f4 <__DATA_END+0x1003a04>
    3970:	0a035101 	beq	d7d7c <__DATA_END+0xd638c>
    3974:	1c002580 	cfstr32ne	mvfx2, [r0], {128}	; 0x80
    3978:	00000f14 	andeq	r0, r0, r4, lsl pc
    397c:	000008f5 	strdeq	r0, [r0], -r5
    3980:	0250011b 	subseq	r0, r0, #-1073741818	; 0xc0000006
    3984:	00006408 	andeq	r6, r0, r8, lsl #8
    3988:	000c0414 	andeq	r0, ip, r4, lsl r4
    398c:	f22d0100 	vrhadd.s32	d0, d13, d0
    3990:	50000004 	andpl	r0, r0, r4
    3994:	7800000f 	stmdavc	r0, {r0, r1, r2, r3}
    3998:	01000000 	mrseq	r0, (UNDEF: 0)
    399c:	00077a9c 	muleq	r7, ip, sl
    39a0:	0d031d00 	stceq	13, cr1, [r3, #-0]
    39a4:	2e010000 	cdpcs	0, 0, cr0, cr1, cr0, {0}
    39a8:	00000073 	andeq	r0, r0, r3, ror r0
    39ac:	00000916 	andeq	r0, r0, r6, lsl r9
    39b0:	7465721e 	strbtvc	r7, [r5], #-542	; 0xfffffde2
    39b4:	7a2f0100 	bvc	bc3dbc <__DATA_END+0xbc23cc>
    39b8:	1f000007 	svcne	0x00000007
    39bc:	000001d8 	ldrdeq	r0, [r0], -r8
    39c0:	0004a918 	andeq	sl, r4, r8, lsl r9
    39c4:	73260100 	teqvc	r6, #0, 2
    39c8:	f1000000 	cps	#0
    39cc:	19000006 	stmdbne	r0, {r1, r2}
    39d0:	0bbc1800 	bleq	fef099d8 <__StackTop+0xdef069d8>
    39d4:	35010000 	strcc	r0, [r1, #-0]
    39d8:	00000073 	andeq	r0, r0, r3, ror r0
    39dc:	00000702 	andeq	r0, r0, r2, lsl #14
    39e0:	661a0019 			; <UNDEFINED> instruction: 0x661a0019
    39e4:	f500000f 			; <UNDEFINED> instruction: 0xf500000f
    39e8:	15000008 	strne	r0, [r0, #-8]
    39ec:	1b000007 	blne	3a10 <__DATA_END+0x2020>
    39f0:	3a015001 	bcc	579fc <__DATA_END+0x5600c>
    39f4:	0f761a00 	svceq	0x00761a00
    39f8:	09000000 	stmdbeq	r0, {}	; <UNPREDICTABLE>
    39fc:	07350000 	ldreq	r0, [r5, -r0]!
    3a00:	011b0000 	tsteq	fp, r0
    3a04:	007d0250 	rsbseq	r0, sp, r0, asr r2
    3a08:	0251011b 	subseq	r0, r1, #-1073741818	; 0xc0000006
    3a0c:	011b0076 	tsteq	fp, r6, ror r0
    3a10:	b4080252 	strlt	r0, [r8], #-594	; 0xfffffdae
    3a14:	0f822000 	svceq	0x00822000
    3a18:	09090000 	stmdbeq	r9, {}	; <UNPREDICTABLE>
    3a1c:	901a0000 	andsls	r0, sl, r0
    3a20:	0000000f 	andeq	r0, r0, pc
    3a24:	5e000009 	cdppl	0, 0, cr0, cr0, cr9, {0}
    3a28:	1b000007 	blne	3a4c <__DATA_END+0x205c>
    3a2c:	7d025001 	stcvc	0, cr5, [r2, #-4]
    3a30:	51011b00 	tstpl	r1, r0, lsl #22
    3a34:	1b007602 	blne	21244 <__DATA_END+0x1f854>
    3a38:	08025201 	stmdaeq	r2, {r0, r9, ip, lr}
    3a3c:	9c2000b4 	stcls	0, cr0, [r0], #-720	; 0xfffffd30
    3a40:	1400000f 	strne	r0, [r0], #-15
    3a44:	1c000009 	stcne	0, cr0, [r0], {9}
    3a48:	00000fa4 	andeq	r0, r0, r4, lsr #31
    3a4c:	000008f5 	strdeq	r0, [r0], -r5
    3a50:	0350011b 	cmpeq	r0, #-1073741818	; 0xc0000006
    3a54:	0003e80a 	andeq	lr, r3, sl, lsl #16
    3a58:	f2070000 	vhadd.s8	d0, d7, d0
    3a5c:	8a000004 	bhi	3a74 <__DATA_END+0x2084>
    3a60:	08000007 	stmdaeq	r0, {r0, r1, r2}
    3a64:	00000097 	muleq	r0, r7, r0
    3a68:	23140027 	tstcs	r4, #39	; 0x27
    3a6c:	0100000c 	tsteq	r0, ip
    3a70:	0004f258 	andeq	pc, r4, r8, asr r2	; <UNPREDICTABLE>
    3a74:	000fc800 	andeq	ip, pc, r0, lsl #16
    3a78:	00004c00 	andeq	r4, r0, r0, lsl #24
    3a7c:	039c0100 	orrseq	r0, ip, #0, 2
    3a80:	1d000008 	stcne	0, cr0, [r0, #-32]	; 0xffffffe0
    3a84:	00000d03 	andeq	r0, r0, r3, lsl #26
    3a88:	00735b01 	rsbseq	r5, r3, r1, lsl #22
    3a8c:	095e0000 	ldmdbeq	lr, {}^	; <UNPREDICTABLE>
    3a90:	f81f0000 			; <UNDEFINED> instruction: 0xf81f0000
    3a94:	18000001 	stmdane	r0, {r0}
    3a98:	000004a9 	andeq	r0, r0, r9, lsr #9
    3a9c:	00732601 	rsbseq	r2, r3, r1, lsl #12
    3aa0:	07c80000 	strbeq	r0, [r8, r0]
    3aa4:	00190000 	andseq	r0, r9, r0
    3aa8:	000fe81a 	andeq	lr, pc, sl, lsl r8	; <UNPREDICTABLE>
    3aac:	00090000 	andeq	r0, r9, r0
    3ab0:	0007e800 	andeq	lr, r7, r0, lsl #16
    3ab4:	50011b00 	andpl	r1, r1, r0, lsl #22
    3ab8:	1b007d02 	blne	22ec8 <__DATA_END+0x214d8>
    3abc:	74025101 	strvc	r5, [r2], #-257	; 0xfffffeff
    3ac0:	52011b10 	andpl	r1, r1, #16, 22	; 0x4000
    3ac4:	00b40802 	adcseq	r0, r4, r2, lsl #16
    3ac8:	000ff420 	andeq	pc, pc, r0, lsr #8
    3acc:	00091400 	andeq	r1, r9, r0, lsl #8
    3ad0:	0ffc1c00 	svceq	0x00fc1c00
    3ad4:	08f50000 	ldmeq	r5!, {}^	; <UNPREDICTABLE>
    3ad8:	011b0000 	tsteq	fp, r0
    3adc:	64080250 	strvs	r0, [r8], #-592	; 0xfffffdb0
    3ae0:	14000000 	strne	r0, [r0], #-0
    3ae4:	00000cec 	andeq	r0, r0, ip, ror #25
    3ae8:	04f24601 	ldrbteq	r4, [r2], #1537	; 0x601
    3aec:	00000000 	andeq	r0, r0, r0
    3af0:	001c0000 	andseq	r0, ip, r0
    3af4:	9c010000 	stcls	0, cr0, [r1], {-0}
    3af8:	00000844 	andeq	r0, r0, r4, asr #16
    3afc:	000cd221 	andeq	sp, ip, r1, lsr #4
    3b00:	4c460100 	stfmie	f0, [r6], {-0}
    3b04:	89000005 	stmdbhi	r0, {r0, r2}
    3b08:	17000009 	strne	r0, [r0, -r9]
    3b0c:	0076636c 	rsbseq	r6, r6, ip, ror #6
    3b10:	00734801 	rsbseq	r4, r3, r1, lsl #16
    3b14:	09aa0000 	stmibeq	sl!, {}	; <UNPREDICTABLE>
    3b18:	00200000 	eoreq	r0, r0, r0
    3b1c:	8a000000 	bhi	3b24 <__DATA_END+0x2134>
    3b20:	00000007 	andeq	r0, r0, r7
    3b24:	000cb614 	andeq	fp, ip, r4, lsl r6
    3b28:	f24f0100 	vrhadd.s8	d16, d15, d0
    3b2c:	00000004 	andeq	r0, r0, r4
    3b30:	1c000000 	stcne	0, cr0, [r0], {-0}
    3b34:	01000000 	mrseq	r0, (UNDEF: 0)
    3b38:	0008859c 	muleq	r8, ip, r5
    3b3c:	0cd22100 	ldfeqe	f2, [r2], {0}
    3b40:	4f010000 	svcmi	0x00010000
    3b44:	0000054c 	andeq	r0, r0, ip, asr #10
    3b48:	000009c9 	andeq	r0, r0, r9, asr #19
    3b4c:	76636c17 			; <UNDEFINED> instruction: 0x76636c17
    3b50:	73510100 	cmpvc	r1, #0, 2
    3b54:	ea000000 	b	3b5c <__DATA_END+0x216c>
    3b58:	20000009 	andcs	r0, r0, r9
    3b5c:	00000000 	andeq	r0, r0, r0
    3b60:	0000078a 	andeq	r0, r0, sl, lsl #15
    3b64:	0c3f2200 	lfmeq	f2, 4, [pc], #-0	; 3b6c <__DATA_END+0x217c>
    3b68:	6f010000 	svcvs	0x00010000
    3b6c:	00001014 	andeq	r1, r0, r4, lsl r0
    3b70:	0000001c 	andeq	r0, r0, ip, lsl r0
    3b74:	db229c01 	blle	8aab80 <__DATA_END+0x8a9190>
    3b78:	0100000b 	tsteq	r0, fp
    3b7c:	00103074 	andseq	r3, r0, r4, ror r0
    3b80:	00001c00 	andeq	r1, r0, r0, lsl #24
    3b84:	229c0100 	addscs	r0, ip, #0, 2
    3b88:	00000d13 	andeq	r0, r0, r3, lsl sp
    3b8c:	00007a01 	andeq	r7, r0, r1, lsl #20
    3b90:	00180000 	andseq	r0, r8, r0
    3b94:	9c010000 	stcls	0, cr0, [r1], {-0}
    3b98:	000cc322 	andeq	ip, ip, r2, lsr #6
    3b9c:	007f0100 	rsbseq	r0, pc, r0, lsl #2
    3ba0:	18000000 	stmdane	r0, {}	; <UNPREDICTABLE>
    3ba4:	01000000 	mrseq	r0, (UNDEF: 0)
    3ba8:	0a6b239c 	beq	1acca20 <__DATA_END+0x1acb030>
    3bac:	0d060000 	stceq	0, cr0, [r6, #-0]
    3bb0:	000008d4 	ldrdeq	r0, [r0], -r4
    3bb4:	00054105 	andeq	r4, r5, r5, lsl #2
    3bb8:	0cca2400 	cfstrdeq	mvd2, [sl], {0}
    3bbc:	12010000 	andne	r0, r1, #0
    3bc0:	000005c7 	andeq	r0, r0, r7, asr #11
    3bc4:	f4800305 	vst4.8	{d0[0],d1[0],d2[0],d3[0]}, [r0], r5
    3bc8:	7c251fff 	stcvc	15, cr1, [r5], #-1020	; 0xfffffc04
    3bcc:	7c00000a 	stcvc	0, cr0, [r0], {10}
    3bd0:	0600000a 	streq	r0, [r0], -sl
    3bd4:	04a92511 	strteq	r2, [r9], #1297	; 0x511
    3bd8:	04a90000 	strteq	r0, [r9], #0
    3bdc:	26010000 	strcs	r0, [r1], -r0
    3be0:	000bb526 	andeq	fp, fp, r6, lsr #10
    3be4:	000bb500 	andeq	fp, fp, r0, lsl #10
    3be8:	0bbc2500 	bleq	fef0cff0 <__StackTop+0xdef09ff0>
    3bec:	0bbc0000 	bleq	fef03bf4 <__StackTop+0xdef00bf4>
    3bf0:	35010000 	strcc	r0, [r1, #-0]
    3bf4:	000a3c25 	andeq	r3, sl, r5, lsr #24
    3bf8:	000a3c00 	andeq	r3, sl, r0, lsl #24
    3bfc:	00180600 	andseq	r0, r8, r0, lsl #12
    3c00:	0000035d 	andeq	r0, r0, sp, asr r3
    3c04:	0f070004 	svceq	0x00070004
    3c08:	01040000 	mrseq	r0, (UNDEF: 4)
    3c0c:	0000050e 	andeq	r0, r0, lr, lsl #10
    3c10:	000d360c 	andeq	r3, sp, ip, lsl #12
    3c14:	0001a300 	andeq	sl, r1, r0, lsl #6
    3c18:	00026800 	andeq	r6, r2, r0, lsl #16
    3c1c:	00000000 	andeq	r0, r0, r0
    3c20:	000f2900 	andeq	r2, pc, r0, lsl #18
    3c24:	06010200 	streq	r0, [r1], -r0, lsl #4
    3c28:	0000016d 	andeq	r0, r0, sp, ror #2
    3c2c:	6b080102 	blvs	20403c <__DATA_END+0x20264c>
    3c30:	02000001 	andeq	r0, r0, #1
    3c34:	01170502 	tsteq	r7, r2, lsl #10
    3c38:	02020000 	andeq	r0, r2, #0
    3c3c:	0001dd07 	andeq	sp, r1, r7, lsl #26
    3c40:	05040200 	streq	r0, [r4, #-512]	; 0xfffffe00
    3c44:	00000126 	andeq	r0, r0, r6, lsr #2
    3c48:	0000f803 	andeq	pc, r0, r3, lsl #16
    3c4c:	53410200 	movtpl	r0, #4608	; 0x1200
    3c50:	02000000 	andeq	r0, r0, #0
    3c54:	01830704 	orreq	r0, r3, r4, lsl #14
    3c58:	08020000 	stmdaeq	r2, {}	; <UNPREDICTABLE>
    3c5c:	00012105 	andeq	r2, r1, r5, lsl #2
    3c60:	07080200 	streq	r0, [r8, -r0, lsl #4]
    3c64:	0000017e 	andeq	r0, r0, lr, ror r1
    3c68:	69050404 	stmdbvs	r5, {r2, sl}
    3c6c:	0200746e 	andeq	r7, r0, #1845493760	; 0x6e000000
    3c70:	01880704 	orreq	r0, r8, r4, lsl #14
    3c74:	fa030000 	blx	c3c7c <__DATA_END+0xc228c>
    3c78:	03000000 	movweq	r0, #0
    3c7c:	00004820 	andeq	r4, r0, r0, lsr #16
    3c80:	07040200 	streq	r0, [r4, -r0, lsl #4]
    3c84:	000002a2 	andeq	r0, r0, r2, lsr #5
    3c88:	00007605 	andeq	r7, r0, r5, lsl #12
    3c8c:	00880600 	addeq	r0, r8, r0, lsl #12
    3c90:	18070000 	stmdane	r7, {}	; <UNPREDICTABLE>
    3c94:	ea06ff04 	b	1c38ac <__DATA_END+0x1c1ebc>
    3c98:	08000000 	stmdaeq	r0, {}	; <UNPREDICTABLE>
    3c9c:	000006f8 	strdeq	r0, [r0], -r8
    3ca0:	88070004 	stmdahi	r7, {r2}
    3ca4:	00000000 	andeq	r0, r0, r0
    3ca8:	00072408 	andeq	r2, r7, r8, lsl #8
    3cac:	07010400 	streq	r0, [r1, -r0, lsl #8]
    3cb0:	00000088 	andeq	r0, r0, r8, lsl #1
    3cb4:	07690804 	strbeq	r0, [r9, -r4, lsl #16]!
    3cb8:	02040000 	andeq	r0, r4, #0
    3cbc:	00008807 	andeq	r8, r0, r7, lsl #16
    3cc0:	54080800 	strpl	r0, [r8], #-2048	; 0xfffff800
    3cc4:	04000007 	streq	r0, [r0], #-7
    3cc8:	00880703 	addeq	r0, r8, r3, lsl #14
    3ccc:	080c0000 	stmdaeq	ip, {}	; <UNPREDICTABLE>
    3cd0:	000006ea 	andeq	r0, r0, sl, ror #13
    3cd4:	8d070404 	cfstrshi	mvf0, [r7, #-16]
    3cd8:	10000000 	andne	r0, r0, r0
    3cdc:	00070a08 	andeq	r0, r7, r8, lsl #20
    3ce0:	07050400 	streq	r0, [r5, -r0, lsl #8]
    3ce4:	00000088 	andeq	r0, r0, r8, lsl #1
    3ce8:	0f090014 	svceq	0x00090014
    3cec:	04000007 	streq	r0, [r0], #-7
    3cf0:	00920706 	addseq	r0, r2, r6, lsl #14
    3cf4:	01020000 	mrseq	r0, (UNDEF: 2)
    3cf8:	00017408 	andeq	r7, r1, r8, lsl #8
    3cfc:	05380a00 	ldreq	r0, [r8, #-2560]!	; 0xfffff600
    3d00:	00017206 	andeq	r7, r1, r6, lsl #4
    3d04:	0c630b00 	stcleq	11, cr0, [r3], #-0
    3d08:	07050000 	streq	r0, [r5, -r0]
    3d0c:	00000172 	andeq	r0, r0, r2, ror r1
    3d10:	0c8a0b00 	vstmiaeq	sl, {d0-d-1}
    3d14:	08050000 	stmdaeq	r5, {}	; <UNPREDICTABLE>
    3d18:	000000f6 	strdeq	r0, [r0], -r6
    3d1c:	616c0c0b 	cmnvs	ip, fp, lsl #24
    3d20:	09050074 	stmdbeq	r5, {r2, r4, r5, r6}
    3d24:	00000172 	andeq	r0, r0, r2, ror r1
    3d28:	0c550b0c 	mrrceq	11, 0, r0, r5, cr12
    3d2c:	0a050000 	beq	143d34 <__DATA_END+0x142344>
    3d30:	000000f6 	strdeq	r0, [r0], -r6
    3d34:	6f6c0c17 	svcvs	0x006c0c17
    3d38:	0b05006e 	bleq	143ef8 <__DATA_END+0x142508>
    3d3c:	00000182 	andeq	r0, r0, r2, lsl #3
    3d40:	0c4d0b18 	vmoveq	d8, r0, sp
    3d44:	0c050000 	stceq	0, cr0, [r5], {-0}
    3d48:	000000f6 	strdeq	r0, [r0], -r6
    3d4c:	0c5d0b24 	mrrceq	11, 2, r0, sp, cr4
    3d50:	0d050000 	stceq	0, cr0, [r5, #-0]
    3d54:	00000192 	muleq	r0, r2, r1
    3d58:	0c2e0b25 	stceq	11, cr0, [lr], #-148	; 0xffffff6c
    3d5c:	0e050000 	cdpeq	0, 0, cr0, cr5, cr0, {0}
    3d60:	00000192 	muleq	r0, r2, r1
    3d64:	02090b2b 	andeq	r0, r9, #44032	; 0xac00
    3d68:	0f050000 	svceq	0x00050000
    3d6c:	000001a2 	andeq	r0, r0, r2, lsr #3
    3d70:	f60d0031 			; <UNDEFINED> instruction: 0xf60d0031
    3d74:	82000000 	andhi	r0, r0, #0
    3d78:	0e000001 	cdpeq	0, 0, cr0, cr0, cr1, {0}
    3d7c:	00000081 	andeq	r0, r0, r1, lsl #1
    3d80:	f60d000a 			; <UNDEFINED> instruction: 0xf60d000a
    3d84:	92000000 	andls	r0, r0, #0
    3d88:	0e000001 	cdpeq	0, 0, cr0, cr0, cr1, {0}
    3d8c:	00000081 	andeq	r0, r0, r1, lsl #1
    3d90:	f60d000b 			; <UNDEFINED> instruction: 0xf60d000b
    3d94:	a2000000 	andge	r0, r0, #0
    3d98:	0e000001 	cdpeq	0, 0, cr0, cr0, cr1, {0}
    3d9c:	00000081 	andeq	r0, r0, r1, lsl #1
    3da0:	f60d0005 			; <UNDEFINED> instruction: 0xf60d0005
    3da4:	b2000000 	andlt	r0, r0, #0
    3da8:	0e000001 	cdpeq	0, 0, cr0, cr0, cr1, {0}
    3dac:	00000081 	andeq	r0, r0, r1, lsl #1
    3db0:	45030006 	strmi	r0, [r3, #-6]
    3db4:	0500000c 	streq	r0, [r0, #-12]
    3db8:	0000fd10 	andeq	pc, r0, r0, lsl sp	; <UNPREDICTABLE>
    3dbc:	0bf20f00 	bleq	ffc879c4 <__StackTop+0xdfc849c4>
    3dc0:	0b010000 	bleq	43dc8 <__DATA_END+0x423d8>
    3dc4:	000000f6 	strdeq	r0, [r0], -r6
    3dc8:	0000104c 	andeq	r1, r0, ip, asr #32
    3dcc:	0000001c 	andeq	r0, r0, ip, lsl r0
    3dd0:	54109c01 	ldrpl	r9, [r0], #-3073	; 0xfffff3ff
    3dd4:	0100000a 	tsteq	r0, sl
    3dd8:	00106819 	andseq	r6, r0, r9, lsl r8
    3ddc:	00012c00 	andeq	r2, r1, r0, lsl #24
    3de0:	009c0100 	addseq	r0, ip, r0, lsl #2
    3de4:	11000002 	tstne	r0, r2
    3de8:	19010063 	stmdbne	r1, {r0, r1, r5, r6}
    3dec:	000000f6 	strdeq	r0, [r0], -r6
    3df0:	00000a09 	andeq	r0, r0, r9, lsl #20
    3df4:	736f7012 	cmnvc	pc, #18
    3df8:	f61a0100 			; <UNDEFINED> instruction: 0xf61a0100
    3dfc:	00000000 	andeq	r0, r0, r0
    3e00:	000c8f13 	andeq	r8, ip, r3, lsl pc
    3e04:	68730100 	ldmdavs	r3!, {r8}^
    3e08:	94000000 	strls	r0, [r0], #-0
    3e0c:	5c000011 	stcpl	0, cr0, [r0], {17}
    3e10:	01000000 	mrseq	r0, (UNDEF: 0)
    3e14:	0002619c 	muleq	r2, ip, r1
    3e18:	0d3c1400 	cfldrseq	mvf1, [ip, #-0]
    3e1c:	74010000 	strvc	r0, [r1], #-0
    3e20:	00000068 	andeq	r0, r0, r8, rrx
    3e24:	00000a43 	andeq	r0, r0, r3, asr #20
    3e28:	0004a915 	andeq	sl, r4, r5, lsl r9
    3e2c:	68790100 	ldmdavs	r9!, {r8}^
    3e30:	39000000 	stmdbcc	r0, {}	; <UNPREDICTABLE>
    3e34:	16000002 	strne	r0, [r0], -r2
    3e38:	11a81700 			; <UNDEFINED> instruction: 0x11a81700
    3e3c:	033f0000 	teqeq	pc, #0
    3e40:	b0180000 	andslt	r0, r8, r0
    3e44:	4a000011 	bmi	3e90 <__DATA_END+0x24a0>
    3e48:	57000003 	strpl	r0, [r0, -r3]
    3e4c:	19000002 	stmdbne	r0, {r1}
    3e50:	0a035001 	beq	d7e5c <__DATA_END+0xd646c>
    3e54:	170007d0 			; <UNDEFINED> instruction: 0x170007d0
    3e58:	000011da 	ldrdeq	r1, [r0], -sl
    3e5c:	00000355 	andeq	r0, r0, r5, asr r3
    3e60:	0c681a00 	stcleq	10, cr1, [r8], #-0
    3e64:	83010000 	movwhi	r0, #4096	; 0x1000
    3e68:	00000068 	andeq	r0, r0, r8, rrx
    3e6c:	000011f0 	strdeq	r1, [r0], -r0
    3e70:	0000001c 	andeq	r0, r0, ip, lsl r0
    3e74:	02919c01 	addseq	r9, r1, #256	; 0x100
    3e78:	691b0000 	ldmdbvs	fp, {}	; <UNPREDICTABLE>
    3e7c:	68840100 	stmvs	r4, {r8}
    3e80:	56000000 	strpl	r0, [r0], -r0
    3e84:	1700000a 	strne	r0, [r0, -sl]
    3e88:	00001202 	andeq	r1, r0, r2, lsl #4
    3e8c:	000001d2 	ldrdeq	r0, [r0], -r2
    3e90:	0c121c00 	ldceq	12, cr1, [r2], {-0}
    3e94:	05010000 	streq	r0, [r1, #-0]
    3e98:	000001b2 			; <UNDEFINED> instruction: 0x000001b2
    3e9c:	f4ac0305 	vld4.8	{d0[0],d1[0],d2[0],d3[0]}, [ip], r5
    3ea0:	621c1fff 	andsvs	r1, ip, #1020	; 0x3fc
    3ea4:	0100000b 	tsteq	r0, fp
    3ea8:	00006807 	andeq	r6, r0, r7, lsl #16
    3eac:	a4030500 	strge	r0, [r3], #-1280	; 0xfffffb00
    3eb0:	1c1ffff4 	ldcne	15, cr15, [pc], {244}	; 0xf4
    3eb4:	00000d19 	andeq	r0, r0, r9, lsl sp
    3eb8:	00680801 	rsbeq	r0, r8, r1, lsl #16
    3ebc:	03050000 	movweq	r0, #20480	; 0x5000
    3ec0:	1ffff4a8 	svcne	0x00fff4a8
    3ec4:	7869661d 	stmdavc	r9!, {r0, r2, r3, r4, r9, sl, sp, lr}^
    3ec8:	68090100 	stmdavs	r9, {r8}
    3ecc:	05000000 	streq	r0, [r0, #-0]
    3ed0:	fff4e403 			; <UNDEFINED> instruction: 0xfff4e403
    3ed4:	0d4d1c1f 	stcleq	12, cr1, [sp, #-124]	; 0xffffff84
    3ed8:	0a010000 	beq	43ee0 <__DATA_END+0x424f0>
    3edc:	000002e6 	andeq	r0, r0, r6, ror #5
    3ee0:	f4e80305 	vld4.8	{d16[0],d17[0],d18[0],d19[0]}, [r8], r5
    3ee4:	041e1fff 	ldreq	r1, [lr], #-4095	; 0xfffff001
    3ee8:	000000f6 	strdeq	r0, [r0], -r6
    3eec:	0000f60d 	andeq	pc, r0, sp, lsl #12
    3ef0:	0002fc00 	andeq	pc, r2, r0, lsl #24
    3ef4:	00810e00 	addeq	r0, r1, r0, lsl #28
    3ef8:	00210000 	eoreq	r0, r1, r0
    3efc:	746d661d 	strbtvc	r6, [sp], #-1565	; 0xfffff9e3
    3f00:	ec150100 	ldfs	f0, [r5], {-0}
    3f04:	05000002 	streq	r0, [r0, #-2]
    3f08:	fff08003 			; <UNDEFINED> instruction: 0xfff08003
    3f0c:	00f60d1f 	rscseq	r0, r6, pc, lsl sp
    3f10:	031d0000 	tsteq	sp, #0
    3f14:	810e0000 	mrshi	r0, (UNDEF: 14)
    3f18:	42000000 	andmi	r0, r0, #0
    3f1c:	0d431c00 	stcleq	12, cr1, [r3, #-0]
    3f20:	16010000 	strne	r0, [r1], -r0
    3f24:	0000030d 	andeq	r0, r0, sp, lsl #6
    3f28:	f0a20305 			; <UNDEFINED> instruction: 0xf0a20305
    3f2c:	591c1fff 	ldmdbpl	ip, {r0, r1, r2, r3, r4, r5, r6, r7, r8, r9, sl, fp, ip}
    3f30:	0100000d 	tsteq	r0, sp
    3f34:	0000f618 	andeq	pc, r0, r8, lsl r6	; <UNPREDICTABLE>
    3f38:	a0030500 	andge	r0, r3, r0, lsl #10
    3f3c:	1f1ffff4 	svcne	0x001ffff4
    3f40:	00000a9f 	muleq	r0, pc, sl	; <UNPREDICTABLE>
    3f44:	00000a9f 	muleq	r0, pc, sl	; <UNPREDICTABLE>
    3f48:	a91f2006 	ldmdbge	pc, {r1, r2, sp}	; <UNPREDICTABLE>
    3f4c:	a9000004 	stmdbge	r0, {r2}
    3f50:	01000004 	tsteq	r0, r4
    3f54:	0d1f1f79 	ldceq	15, cr1, [pc, #-484]	; 3d78 <__DATA_END+0x2388>
    3f58:	0d1f0000 	ldceq	0, cr0, [pc, #-0]	; 3f60 <__DATA_END+0x2570>
    3f5c:	21060000 	mrscs	r0, (UNDEF: 6)
    3f60:	0002ed00 	andeq	lr, r2, r0, lsl #26
    3f64:	ce000400 	cfcpysgt	mvf0, mvf0
    3f68:	04000010 	streq	r0, [r0], #-16
    3f6c:	00001701 	andeq	r1, r0, r1, lsl #14
    3f70:	0d760c00 	ldcleq	12, cr0, [r6, #-0]
    3f74:	01a30000 			; <UNDEFINED> instruction: 0x01a30000
    3f78:	02900000 	addseq	r0, r0, #0
    3f7c:	00000000 	andeq	r0, r0, r0
    3f80:	107c0000 	rsbsne	r0, ip, r0
    3f84:	01020000 	mrseq	r0, (UNDEF: 2)
    3f88:	00016d06 	andeq	r6, r1, r6, lsl #26
    3f8c:	00ee0300 	rsceq	r0, lr, r0, lsl #6
    3f90:	1d020000 	stcne	0, cr0, [r2, #-0]
    3f94:	00000037 	andeq	r0, r0, r7, lsr r0
    3f98:	6b080102 	blvs	2043a8 <__DATA_END+0x2029b8>
    3f9c:	02000001 	andeq	r0, r0, #1
    3fa0:	01170502 	tsteq	r7, r2, lsl #10
    3fa4:	02020000 	andeq	r0, r2, #0
    3fa8:	0001dd07 	andeq	sp, r1, r7, lsl #26
    3fac:	05040200 	streq	r0, [r4, #-512]	; 0xfffffe00
    3fb0:	00000126 	andeq	r0, r0, r6, lsr #2
    3fb4:	0000f803 	andeq	pc, r0, r3, lsl #16
    3fb8:	5e410200 	cdppl	2, 4, cr0, cr1, cr0, {0}
    3fbc:	02000000 	andeq	r0, r0, #0
    3fc0:	01830704 	orreq	r0, r3, r4, lsl #14
    3fc4:	08020000 	stmdaeq	r2, {}	; <UNPREDICTABLE>
    3fc8:	00012105 	andeq	r2, r1, r5, lsl #2
    3fcc:	07080200 	streq	r0, [r8, -r0, lsl #4]
    3fd0:	0000017e 	andeq	r0, r0, lr, ror r1
    3fd4:	69050404 	stmdbvs	r5, {r2, sl}
    3fd8:	0200746e 	andeq	r7, r0, #1845493760	; 0x6e000000
    3fdc:	01880704 	orreq	r0, r8, r4, lsl #14
    3fe0:	f0030000 			; <UNDEFINED> instruction: 0xf0030000
    3fe4:	03000000 	movweq	r0, #0
    3fe8:	00002c14 	andeq	r2, r0, r4, lsl ip
    3fec:	00fa0300 	rscseq	r0, sl, r0, lsl #6
    3ff0:	20030000 	andcs	r0, r3, r0
    3ff4:	00000053 	andeq	r0, r0, r3, asr r0
    3ff8:	a2070402 	andge	r0, r7, #33554432	; 0x2000000
    3ffc:	05000002 	streq	r0, [r0, #-2]
    4000:	0000008c 	andeq	r0, r0, ip, lsl #1
    4004:	00009e06 	andeq	r9, r0, r6, lsl #28
    4008:	00810700 	addeq	r0, r1, r0, lsl #14
    400c:	00b80000 	adcseq	r0, r8, r0
    4010:	97080000 	strls	r0, [r8, -r0]
    4014:	03000000 	movweq	r0, #0
    4018:	00810700 	addeq	r0, r1, r0, lsl #14
    401c:	00c80000 	sbceq	r0, r8, r0
    4020:	97080000 	strls	r0, [r8, -r0]
    4024:	07000000 	streq	r0, [r0, -r0]
    4028:	04100900 	ldreq	r0, [r0], #-2304	; 0xfffff700
    402c:	01060c0a 	tsteq	r6, sl, lsl #24
    4030:	430a0000 	movwmi	r0, #40960	; 0xa000
    4034:	04005253 	streq	r5, [r0], #-595	; 0xfffffdad
    4038:	009e0c0b 	addseq	r0, lr, fp, lsl #24
    403c:	0a000000 	beq	4044 <__DATA_END+0x2654>
    4040:	00525350 	subseq	r5, r2, r0, asr r3
    4044:	9e0c0c04 	cdpls	12, 0, cr0, cr12, cr4, {0}
    4048:	04000000 	streq	r0, [r0], #-0
    404c:	524d430a 	subpl	r4, sp, #671088640	; 0x28000000
    4050:	0c0d0400 	cfstrseq	mvf0, [sp], {-0}
    4054:	0000009e 	muleq	r0, lr, r0
    4058:	4e430a08 	vmlami.f32	s1, s6, s16
    405c:	0e040052 	mcreq	0, 0, r0, cr4, cr2, {2}
    4060:	00009e0c 	andeq	r9, r0, ip, lsl #28
    4064:	0b000c00 	bleq	706c <__DATA_END+0x567c>
    4068:	00000d6b 	andeq	r0, r0, fp, ror #26
    406c:	c80c0f04 	stmdagt	ip, {r2, r8, r9, sl, fp}
    4070:	07000000 	streq	r0, [r0, -r0]
    4074:	00000081 	andeq	r0, r0, r1, lsl #1
    4078:	00000122 	andeq	r0, r0, r2, lsr #2
    407c:	00009708 	andeq	r9, r0, r8, lsl #14
    4080:	0c009b00 	stceq	11, cr9, [r0], {-0}
    4084:	65041108 	strvs	r1, [r4, #-264]	; 0xfffffef8
    4088:	0002a416 	andeq	sl, r2, r6, lsl r4
    408c:	02170d00 	andseq	r0, r7, #0, 26
    4090:	66040000 	strvs	r0, [r4], -r0
    4094:	00009e16 	andeq	r9, r0, r6, lsl lr
    4098:	2f0d0000 	svccs	0x000d0000
    409c:	04000001 	streq	r0, [r0], #-1
    40a0:	009e1667 	addseq	r1, lr, r7, ror #12
    40a4:	0d040000 	stceq	0, cr0, [r4, #-0]
    40a8:	0000023e 	andeq	r0, r0, lr, lsr r2
    40ac:	a4166804 	ldrge	r6, [r6], #-2052	; 0xfffff7fc
    40b0:	08000002 	stmdaeq	r0, {r1}
    40b4:	0001500e 	andeq	r5, r1, lr
    40b8:	16690400 	strbtne	r0, [r9], -r0, lsl #8
    40bc:	0000009e 	muleq	r0, lr, r0
    40c0:	490e1004 	stmdbmi	lr, {r2, ip}
    40c4:	04000002 	streq	r0, [r0], #-2
    40c8:	00a8166a 	adceq	r1, r8, sl, ror #12
    40cc:	10080000 	andne	r0, r8, r0
    40d0:	0002dc0e 	andeq	sp, r2, lr, lsl #24
    40d4:	166b0400 	strbtne	r0, [fp], -r0, lsl #8
    40d8:	0000009e 	muleq	r0, lr, r0
    40dc:	000e100c 	andeq	r1, lr, ip
    40e0:	04000000 	streq	r0, [r0], #-0
    40e4:	009e166c 	addseq	r1, lr, ip, ror #12
    40e8:	10100000 	andsne	r0, r0, r0
    40ec:	0002540e 	andeq	r5, r2, lr, lsl #8
    40f0:	166d0400 	strbtne	r0, [sp], -r0, lsl #8
    40f4:	000000a8 	andeq	r0, r0, r8, lsr #1
    40f8:	5d0e1014 	stcpl	0, cr1, [lr, #-80]	; 0xffffffb0
    40fc:	04000001 	streq	r0, [r0], #-1
    4100:	009e166e 	addseq	r1, lr, lr, ror #12
    4104:	10180000 	andsne	r0, r8, r0
    4108:	00025f0e 	andeq	r5, r2, lr, lsl #30
    410c:	166f0400 	strbtne	r0, [pc], -r0, lsl #8
    4110:	000000b8 	strheq	r0, [r0], -r8
    4114:	120e101c 	andne	r1, lr, #28
    4118:	04000000 	streq	r0, [r0], #-0
    411c:	00a31670 	adceq	r1, r3, r0, ror r6
    4120:	10240000 	eorne	r0, r4, r0
    4124:	00026a0e 	andeq	r6, r2, lr, lsl #20
    4128:	16710400 	ldrbtne	r0, [r1], -r0, lsl #8
    412c:	000002b5 			; <UNDEFINED> instruction: 0x000002b5
    4130:	380e1028 	stmdacc	lr, {r3, r5, ip}
    4134:	04000001 	streq	r0, [r0], #-1
    4138:	009e1672 	addseq	r1, lr, r2, ror r6
    413c:	10340000 	eorsne	r0, r4, r0
    4140:	00013e0e 	andeq	r3, r1, lr, lsl #28
    4144:	16730400 	ldrbtne	r0, [r3], -r0, lsl #8
    4148:	0000009e 	muleq	r0, lr, r0
    414c:	440e1038 	strmi	r1, [lr], #-56	; 0xffffffc8
    4150:	04000001 	streq	r0, [r0], #-1
    4154:	009e1674 	addseq	r1, lr, r4, ror r6
    4158:	103c0000 	eorsne	r0, ip, r0
    415c:	00014a0e 	andeq	r4, r1, lr, lsl #20
    4160:	16750400 	ldrbtne	r0, [r5], -r0, lsl #8
    4164:	0000009e 	muleq	r0, lr, r0
    4168:	630e1040 	movwvs	r1, #57408	; 0xe040
    416c:	04000001 	streq	r0, [r0], #-1
    4170:	009e1676 	addseq	r1, lr, r6, ror r6
    4174:	10440000 	subne	r0, r4, r0
    4178:	0002750e 	andeq	r7, r2, lr, lsl #10
    417c:	16770400 	ldrbtne	r0, [r7], -r0, lsl #8
    4180:	000000a8 	andeq	r0, r0, r8, lsr #1
    4184:	060e1048 	streq	r1, [lr], -r8, asr #32
    4188:	04000000 	streq	r0, [r0], #-0
    418c:	009e1678 	addseq	r1, lr, r8, ror r6
    4190:	104c0000 	subne	r0, ip, r0
    4194:	00000c0e 	andeq	r0, r0, lr, lsl #24
    4198:	16790400 	ldrbtne	r0, [r9], -r0, lsl #8
    419c:	000000a3 	andeq	r0, r0, r3, lsr #1
    41a0:	800e1050 	andhi	r1, lr, r0, asr r0
    41a4:	04000002 	streq	r0, [r0], #-2
    41a8:	00a8167a 	adceq	r1, r8, sl, ror r6
    41ac:	10540000 	subsne	r0, r4, r0
    41b0:	0002320e 	andeq	r3, r2, lr, lsl #4
    41b4:	167b0400 	ldrbtne	r0, [fp], -r0, lsl #8
    41b8:	000000a3 	andeq	r0, r0, r3, lsr #1
    41bc:	380e1058 	stmdacc	lr, {r3, r4, r6, ip}
    41c0:	04000002 	streq	r0, [r0], #-2
    41c4:	00a3167c 	adceq	r1, r3, ip, ror r6
    41c8:	105c0000 	subsne	r0, ip, r0
    41cc:	00022d0e 	andeq	r2, r2, lr, lsl #26
    41d0:	167d0400 	ldrbtne	r0, [sp], -r0, lsl #8
    41d4:	000000a3 	andeq	r0, r0, r3, lsr #1
    41d8:	8b0e1060 	blhi	388360 <__DATA_END+0x386970>
    41dc:	04000002 	streq	r0, [r0], #-2
    41e0:	0112167e 	tsteq	r2, lr, ror r6
    41e4:	10640000 	rsbne	r0, r4, r0
    41e8:	0001790e 	andeq	r7, r1, lr, lsl #18
    41ec:	167f0400 	ldrbtne	r0, [pc], -r0, lsl #8
    41f0:	0000009e 	muleq	r0, lr, r0
    41f4:	560e1100 	strpl	r1, [lr], -r0, lsl #2
    41f8:	04000001 	streq	r0, [r0], #-1
    41fc:	009e1680 	addseq	r1, lr, r0, lsl #13
    4200:	11040000 	mrsne	r0, (UNDEF: 4)
    4204:	00810700 	addeq	r0, r1, r0, lsl #14
    4208:	02b50000 	adcseq	r0, r5, #0
    420c:	970f0000 	strls	r0, [pc, -r0]
    4210:	fb000000 	blx	421a <__DATA_END+0x282a>
    4214:	8107000f 	tsthi	r7, pc
    4218:	c5000000 	strgt	r0, [r0, #-0]
    421c:	08000002 	stmdaeq	r0, {r1}
    4220:	00000097 	muleq	r0, r7, r0
    4224:	030b000b 	movweq	r0, #45067	; 0xb00b
    4228:	04000001 	streq	r0, [r0], #-1
    422c:	01221681 	smlawbeq	r2, r1, r6, r1
    4230:	a9100000 	ldmdbge	r0, {}	; <UNPREDICTABLE>
    4234:	01000004 	tsteq	r0, r4
    4238:	00120c0b 	andseq	r0, r2, fp, lsl #24
    423c:	00003800 	andeq	r3, r0, r0, lsl #16
    4240:	119c0100 	orrsne	r0, ip, r0, lsl #2
    4244:	00000d61 	andeq	r0, r0, r1, ror #26
    4248:	007a0b01 	rsbseq	r0, sl, r1, lsl #22
    424c:	50010000 	andpl	r0, r1, r0
    4250:	0b800000 	bleq	fe004258 <__StackTop+0xde001258>
    4254:	00040000 	andeq	r0, r4, r0
    4258:	000011a9 	andeq	r1, r0, r9, lsr #3
    425c:	00170104 	andseq	r0, r7, r4, lsl #2
    4260:	7e0c0000 	cdpvc	0, 0, cr0, cr12, cr0, {0}
    4264:	a300000d 	movwge	r0, #13
    4268:	b0000001 	andlt	r0, r0, r1
    426c:	00000004 	andeq	r0, r0, r4
    4270:	37000000 	strcc	r0, [r0, -r0]
    4274:	02000011 	andeq	r0, r0, #17
    4278:	016d0601 	cmneq	sp, r1, lsl #12
    427c:	ee030000 	cdp	0, 0, cr0, cr3, cr0, {0}
    4280:	02000000 	andeq	r0, r0, #0
    4284:	0000371d 	andeq	r3, r0, sp, lsl r7
    4288:	08010200 	stmdaeq	r1, {r9}
    428c:	0000016b 	andeq	r0, r0, fp, ror #2
    4290:	17050202 	strne	r0, [r5, -r2, lsl #4]
    4294:	03000001 	movweq	r0, #1
    4298:	0000010c 	andeq	r0, r0, ip, lsl #2
    429c:	00502b02 	subseq	r2, r0, r2, lsl #22
    42a0:	02020000 	andeq	r0, r2, #0
    42a4:	0001dd07 	andeq	sp, r1, r7, lsl #26
    42a8:	05040200 	streq	r0, [r4, #-512]	; 0xfffffe00
    42ac:	00000126 	andeq	r0, r0, r6, lsr #2
    42b0:	0000f803 	andeq	pc, r0, r3, lsl #16
    42b4:	69410200 	stmdbvs	r1, {r9}^
    42b8:	02000000 	andeq	r0, r0, #0
    42bc:	01830704 	orreq	r0, r3, r4, lsl #14
    42c0:	08020000 	stmdaeq	r2, {}	; <UNPREDICTABLE>
    42c4:	00012105 	andeq	r2, r1, r5, lsl #2
    42c8:	07080200 	streq	r0, [r8, -r0, lsl #4]
    42cc:	0000017e 	andeq	r0, r0, lr, ror r1
    42d0:	69050404 	stmdbvs	r5, {r2, sl}
    42d4:	0200746e 	andeq	r7, r0, #1845493760	; 0x6e000000
    42d8:	01880704 	orreq	r0, r8, r4, lsl #14
    42dc:	f0030000 			; <UNDEFINED> instruction: 0xf0030000
    42e0:	03000000 	movweq	r0, #0
    42e4:	00002c14 	andeq	r2, r0, r4, lsl ip
    42e8:	010e0300 	mrseq	r0, ELR_hyp
    42ec:	1a030000 	bne	c42f4 <__DATA_END+0xc2904>
    42f0:	00000045 	andeq	r0, r0, r5, asr #32
    42f4:	0000fa03 	andeq	pc, r0, r3, lsl #20
    42f8:	5e200300 	cdppl	3, 2, cr0, cr0, cr0, {0}
    42fc:	02000000 	andeq	r0, r0, #0
    4300:	02a20704 	adceq	r0, r2, #4, 14	; 0x100000
    4304:	a2050000 	andge	r0, r5, #0
    4308:	06000000 	streq	r0, [r0], -r0
    430c:	000000b4 	strheq	r0, [r0], -r4
    4310:	00008c07 	andeq	r8, r0, r7, lsl #24
    4314:	0000ce00 	andeq	ip, r0, r0, lsl #28
    4318:	00ad0800 	adceq	r0, sp, r0, lsl #16
    431c:	00030000 	andeq	r0, r3, r0
    4320:	00008c05 	andeq	r8, r0, r5, lsl #24
    4324:	040c0900 	streq	r0, [ip], #-2304	; 0xfffff700
    4328:	016e07ae 	smultbeq	lr, lr, r7
    432c:	410a0000 	mrsmi	r0, (UNDEF: 10)
    4330:	af040031 	svcge	0x00040031
    4334:	0000ce07 	andeq	ip, r0, r7, lsl #28
    4338:	460a0000 	strmi	r0, [sl], -r0
    433c:	07b00400 	ldreq	r0, [r0, r0, lsl #8]!
    4340:	000000ce 	andeq	r0, r0, lr, asr #1
    4344:	31430a01 	cmpcc	r3, r1, lsl #20
    4348:	07b10400 	ldreq	r0, [r1, r0, lsl #8]!
    434c:	000000ce 	andeq	r0, r0, lr, asr #1
    4350:	00530a02 	subseq	r0, r3, r2, lsl #20
    4354:	ce07b204 	cdpgt	2, 0, cr11, cr7, cr4, {0}
    4358:	03000000 	movweq	r0, #0
    435c:	0400440a 	streq	r4, [r0], #-1034	; 0xfffffbf6
    4360:	00ce07b3 	strheq	r0, [lr], #115	; 0x73
    4364:	0a040000 	beq	10436c <__DATA_END+0x10297c>
    4368:	04003243 	streq	r3, [r0], #-579	; 0xfffffdbd
    436c:	00ce07b4 	strheq	r0, [lr], #116	; 0x74
    4370:	0a050000 	beq	144378 <__DATA_END+0x142988>
    4374:	00544c46 	subseq	r4, r4, r6, asr #24
    4378:	ce07b504 	cfsh32gt	mvfx11, mvfx7, #4
    437c:	06000000 	streq	r0, [r0], -r0
    4380:	0041520a 	subeq	r5, r1, sl, lsl #4
    4384:	ce07b604 	cfmadd32gt	mvax0, mvfx11, mvfx7, mvfx4
    4388:	07000000 	streq	r0, [r0, -r0]
    438c:	424d530a 	submi	r5, sp, #671088640	; 0x28000000
    4390:	07b70400 	ldreq	r0, [r7, r0, lsl #8]!
    4394:	000000ce 	andeq	r0, r0, lr, asr #1
    4398:	32410a08 	subcc	r0, r1, #8, 20	; 0x8000
    439c:	07b80400 	ldreq	r0, [r8, r0, lsl #8]!
    43a0:	000000ce 	andeq	r0, r0, lr, asr #1
    43a4:	0bfa0b09 	bleq	ffe86fd0 <__StackTop+0xdfe83fd0>
    43a8:	b9040000 	stmdblt	r4, {}	; <UNPREDICTABLE>
    43ac:	0000ce07 	andeq	ip, r0, r7, lsl #28
    43b0:	ff0b0a00 			; <UNDEFINED> instruction: 0xff0b0a00
    43b4:	0400000b 	streq	r0, [r0], #-11
    43b8:	00ce07ba 	strheq	r0, [lr], #122	; 0x7a
    43bc:	000b0000 	andeq	r0, fp, r0
    43c0:	000c1a0c 	andeq	r1, ip, ip, lsl #20
    43c4:	07bb0400 	ldreq	r0, [fp, r0, lsl #8]!
    43c8:	000000d3 	ldrdeq	r0, [r0], -r3
    43cc:	00008c07 	andeq	r8, r0, r7, lsl #24
    43d0:	00018a00 	andeq	r8, r1, r0, lsl #20
    43d4:	00ad0800 	adceq	r0, sp, r0, lsl #16
    43d8:	00070000 	andeq	r0, r7, r0
    43dc:	00008c07 	andeq	r8, r0, r7, lsl #24
    43e0:	00019a00 	andeq	r9, r1, r0, lsl #20
    43e4:	00ad0800 	adceq	r0, sp, r0, lsl #16
    43e8:	009b0000 	addseq	r0, fp, r0
    43ec:	00008c07 	andeq	r8, r0, r7, lsl #24
    43f0:	0001aa00 	andeq	sl, r1, r0, lsl #20
    43f4:	00ad0800 	adceq	r0, sp, r0, lsl #16
    43f8:	00170000 	andseq	r0, r7, r0
    43fc:	c304a409 	movwgt	sl, #17417	; 0x4409
    4400:	0001f512 	andeq	pc, r1, r2, lsl r5	; <UNPREDICTABLE>
    4404:	43500a00 	cmpmi	r0, #0, 20
    4408:	c4040052 	strgt	r0, [r4], #-82	; 0xffffffae
    440c:	00020512 	andeq	r0, r2, r2, lsl r5
    4410:	e40b0000 	str	r0, [fp], #-0
    4414:	04000009 	streq	r0, [r0], #-9
    4418:	00b412c5 	adcseq	r1, r4, r5, asr #5
    441c:	0b800000 	bleq	fe004424 <__StackTop+0xde001424>
    4420:	00000b73 	andeq	r0, r0, r3, ror fp
    4424:	b412c604 	ldrlt	ip, [r2], #-1540	; 0xfffff9fc
    4428:	84000000 	strhi	r0, [r0], #-0
    442c:	00023e0b 	andeq	r3, r2, fp, lsl #28
    4430:	12c70400 	sbcne	r0, r7, #0, 8
    4434:	0000019a 	muleq	r0, sl, r1
    4438:	0a4f0b88 	beq	13c7260 <__DATA_END+0x13c5870>
    443c:	c8040000 	stmdagt	r4, {}	; <UNPREDICTABLE>
    4440:	0000b412 	andeq	fp, r0, r2, lsl r4
    4444:	0700a000 	streq	sl, [r0, -r0]
    4448:	000000a2 	andeq	r0, r0, r2, lsr #1
    444c:	00000205 	andeq	r0, r0, r5, lsl #4
    4450:	0000ad08 	andeq	sl, r0, r8, lsl #26
    4454:	05001f00 	streq	r1, [r0, #-3840]	; 0xfffff100
    4458:	000001f5 	strdeq	r0, [r0], -r5
    445c:	000a240c 	andeq	r2, sl, ip, lsl #8
    4460:	12c90400 	sbcne	r0, r9, #0, 8
    4464:	000001aa 	andeq	r0, r0, sl, lsr #3
    4468:	0411080d 	ldreq	r0, [r1], #-2061	; 0xfffff7f3
    446c:	03981665 	orrseq	r1, r8, #105906176	; 0x6500000
    4470:	170b0000 	strne	r0, [fp, -r0]
    4474:	04000002 	streq	r0, [r0], #-2
    4478:	00b41666 	adcseq	r1, r4, r6, ror #12
    447c:	0b000000 	bleq	4484 <__DATA_END+0x2a94>
    4480:	0000012f 	andeq	r0, r0, pc, lsr #2
    4484:	b4166704 	ldrlt	r6, [r6], #-1796	; 0xfffff8fc
    4488:	04000000 	streq	r0, [r0], #-0
    448c:	00023e0b 	andeq	r3, r2, fp, lsl #28
    4490:	16680400 	strbtne	r0, [r8], -r0, lsl #8
    4494:	00000398 	muleq	r0, r8, r3
    4498:	01500e08 	cmpeq	r0, r8, lsl #28
    449c:	69040000 	stmdbvs	r4, {}	; <UNPREDICTABLE>
    44a0:	0000b416 	andeq	fp, r0, r6, lsl r4
    44a4:	0e100400 	cfmulseq	mvf0, mvf0, mvf0
    44a8:	00000249 	andeq	r0, r0, r9, asr #4
    44ac:	be166a04 	vnmlslt.f32	s12, s12, s8
    44b0:	08000000 	stmdaeq	r0, {}	; <UNPREDICTABLE>
    44b4:	02dc0e10 	sbcseq	r0, ip, #16, 28	; 0x100
    44b8:	6b040000 	blvs	1044c0 <__DATA_END+0x102ad0>
    44bc:	0000b416 	andeq	fp, r0, r6, lsl r4
    44c0:	0e100c00 	cdpeq	12, 1, cr0, cr0, cr0, {0}
    44c4:	00000000 	andeq	r0, r0, r0
    44c8:	b4166c04 	ldrlt	r6, [r6], #-3076	; 0xfffff3fc
    44cc:	10000000 	andne	r0, r0, r0
    44d0:	02540e10 	subseq	r0, r4, #16, 28	; 0x100
    44d4:	6d040000 	stcvs	0, cr0, [r4, #-0]
    44d8:	0000be16 	andeq	fp, r0, r6, lsl lr
    44dc:	0e101400 	cfmulseq	mvf1, mvf0, mvf0
    44e0:	0000015d 	andeq	r0, r0, sp, asr r1
    44e4:	b4166e04 	ldrlt	r6, [r6], #-3588	; 0xfffff1fc
    44e8:	18000000 	stmdane	r0, {}	; <UNPREDICTABLE>
    44ec:	025f0e10 	subseq	r0, pc, #16, 28	; 0x100
    44f0:	6f040000 	svcvs	0x00040000
    44f4:	00017a16 	andeq	r7, r1, r6, lsl sl
    44f8:	0e101c00 	cdpeq	12, 1, cr1, cr0, cr0, {0}
    44fc:	00000012 	andeq	r0, r0, r2, lsl r0
    4500:	b9167004 	ldmdblt	r6, {r2, ip, sp, lr}
    4504:	24000000 	strcs	r0, [r0], #-0
    4508:	026a0e10 	rsbeq	r0, sl, #16, 28	; 0x100
    450c:	71040000 	mrsvc	r0, (UNDEF: 4)
    4510:	0003a916 	andeq	sl, r3, r6, lsl r9
    4514:	0e102800 	cdpeq	8, 1, cr2, cr0, cr0, {0}
    4518:	00000138 	andeq	r0, r0, r8, lsr r1
    451c:	b4167204 	ldrlt	r7, [r6], #-516	; 0xfffffdfc
    4520:	34000000 	strcc	r0, [r0], #-0
    4524:	013e0e10 	teqeq	lr, r0, lsl lr
    4528:	73040000 	movwvc	r0, #16384	; 0x4000
    452c:	0000b416 	andeq	fp, r0, r6, lsl r4
    4530:	0e103800 	cdpeq	8, 1, cr3, cr0, cr0, {0}
    4534:	00000144 	andeq	r0, r0, r4, asr #2
    4538:	b4167404 	ldrlt	r7, [r6], #-1028	; 0xfffffbfc
    453c:	3c000000 	stccc	0, cr0, [r0], {-0}
    4540:	014a0e10 	cmpeq	sl, r0, lsl lr
    4544:	75040000 	strvc	r0, [r4, #-0]
    4548:	0000b416 	andeq	fp, r0, r6, lsl r4
    454c:	0e104000 	cdpeq	0, 1, cr4, cr0, cr0, {0}
    4550:	00000163 	andeq	r0, r0, r3, ror #2
    4554:	b4167604 	ldrlt	r7, [r6], #-1540	; 0xfffff9fc
    4558:	44000000 	strmi	r0, [r0], #-0
    455c:	02750e10 	rsbseq	r0, r5, #16, 28	; 0x100
    4560:	77040000 	strvc	r0, [r4, -r0]
    4564:	0000be16 	andeq	fp, r0, r6, lsl lr
    4568:	0e104800 	cdpeq	8, 1, cr4, cr0, cr0, {0}
    456c:	00000006 	andeq	r0, r0, r6
    4570:	b4167804 	ldrlt	r7, [r6], #-2052	; 0xfffff7fc
    4574:	4c000000 	stcmi	0, cr0, [r0], {-0}
    4578:	000c0e10 	andeq	r0, ip, r0, lsl lr
    457c:	79040000 	stmdbvc	r4, {}	; <UNPREDICTABLE>
    4580:	0000b916 	andeq	fp, r0, r6, lsl r9
    4584:	0e105000 	cdpeq	0, 1, cr5, cr0, cr0, {0}
    4588:	00000280 	andeq	r0, r0, r0, lsl #5
    458c:	be167a04 	vnmlslt.f32	s14, s12, s8
    4590:	54000000 	strpl	r0, [r0], #-0
    4594:	02320e10 	eorseq	r0, r2, #16, 28	; 0x100
    4598:	7b040000 	blvc	1045a0 <__DATA_END+0x102bb0>
    459c:	0000b916 	andeq	fp, r0, r6, lsl r9
    45a0:	0e105800 	cdpeq	8, 1, cr5, cr0, cr0, {0}
    45a4:	00000238 	andeq	r0, r0, r8, lsr r2
    45a8:	b9167c04 	ldmdblt	r6, {r2, sl, fp, ip, sp, lr}
    45ac:	5c000000 	stcpl	0, cr0, [r0], {-0}
    45b0:	022d0e10 	eoreq	r0, sp, #16, 28	; 0x100
    45b4:	7d040000 	stcvc	0, cr0, [r4, #-0]
    45b8:	0000b916 	andeq	fp, r0, r6, lsl r9
    45bc:	0e106000 	cdpeq	0, 1, cr6, cr0, cr0, {0}
    45c0:	0000028b 	andeq	r0, r0, fp, lsl #5
    45c4:	8a167e04 	bhi	5a3ddc <__DATA_END+0x5a23ec>
    45c8:	64000001 	strvs	r0, [r0], #-1
    45cc:	01790e10 	cmneq	r9, r0, lsl lr
    45d0:	7f040000 	svcvc	0x00040000
    45d4:	0000b416 	andeq	fp, r0, r6, lsl r4
    45d8:	0e110000 	cdpeq	0, 1, cr0, cr1, cr0, {0}
    45dc:	00000156 	andeq	r0, r0, r6, asr r1
    45e0:	b4168004 	ldrlt	r8, [r6], #-4
    45e4:	04000000 	streq	r0, [r0], #-0
    45e8:	8c070011 	stchi	0, cr0, [r7], {17}
    45ec:	a9000000 	stmdbge	r0, {}	; <UNPREDICTABLE>
    45f0:	0f000003 	svceq	0x00000003
    45f4:	000000ad 	andeq	r0, r0, sp, lsr #1
    45f8:	07000ffb 			; <UNDEFINED> instruction: 0x07000ffb
    45fc:	0000008c 	andeq	r0, r0, ip, lsl #1
    4600:	000003b9 			; <UNDEFINED> instruction: 0x000003b9
    4604:	0000ad08 	andeq	sl, r0, r8, lsl #26
    4608:	0c000b00 	stceq	11, cr0, [r0], {-0}
    460c:	00000103 	andeq	r0, r0, r3, lsl #2
    4610:	16168104 	ldrne	r8, [r6], -r4, lsl #2
    4614:	10000002 	andne	r0, r0, r2
    4618:	00000de6 	andeq	r0, r0, r6, ror #27
    461c:	db032001 	blle	cc628 <__DATA_END+0xcac38>
    4620:	11000003 	tstne	r0, r3
    4624:	20010070 	andcs	r0, r1, r0, ror r0
    4628:	000003db 	ldrdeq	r0, [r0], -fp
    462c:	6e041200 	cdpvs	2, 0, cr1, cr4, cr0, {0}
    4630:	10000001 	andne	r0, r0, r1
    4634:	00000e12 	andeq	r0, r0, r2, lsl lr
    4638:	f7032301 			; <UNDEFINED> instruction: 0xf7032301
    463c:	11000003 	tstne	r0, r3
    4640:	23010070 	movwcs	r0, #4208	; 0x1070
    4644:	000003db 	ldrdeq	r0, [r0], -fp
    4648:	0e2b1000 	cdpeq	0, 2, cr1, cr11, cr0, {0}
    464c:	21010000 	mrscs	r0, (UNDEF: 1)
    4650:	00040d03 	andeq	r0, r4, r3, lsl #26
    4654:	00701100 	rsbseq	r1, r0, r0, lsl #2
    4658:	03db2101 	bicseq	r2, fp, #1073741824	; 0x40000000
    465c:	10000000 	andne	r0, r0, r0
    4660:	00000d84 	andeq	r0, r0, r4, lsl #27
    4664:	23032201 	movwcs	r2, #12801	; 0x3201
    4668:	11000004 	tstne	r0, r4
    466c:	22010070 	andcs	r0, r1, #112	; 0x70
    4670:	000003db 	ldrdeq	r0, [r0], -fp
    4674:	0d9f1000 	ldceq	0, cr1, [pc]	; 467c <__DATA_END+0x2c8c>
    4678:	35010000 	strcc	r0, [r1, #-0]
    467c:	00043903 	andeq	r3, r4, r3, lsl #18
    4680:	00701100 	rsbseq	r1, r0, r0, lsl #2
    4684:	03db3501 	bicseq	r3, fp, #4194304	; 0x400000
    4688:	13000000 	movwne	r0, #0
    468c:	00000da8 	andeq	r0, r0, r8, lsr #27
    4690:	008c2701 	addeq	r2, ip, r1, lsl #14
    4694:	53030000 	movwpl	r0, #12288	; 0x3000
    4698:	11000004 	tstne	r0, r4
    469c:	27010070 	smlsdxcs	r1, r0, r0, r0
    46a0:	000003db 	ldrdeq	r0, [r0], -fp
    46a4:	0dfa1300 	ldcleq	3, cr1, [sl]
    46a8:	3e010000 	cdpcc	0, 0, cr0, cr1, cr0, {0}
    46ac:	0000007e 	andeq	r0, r0, lr, ror r0
    46b0:	00047803 	andeq	r7, r4, r3, lsl #16
    46b4:	00701100 	rsbseq	r1, r0, r0, lsl #2
    46b8:	03db3e01 	bicseq	r3, fp, #1, 28
    46bc:	1c140000 	ldcne	0, cr0, [r4], {-0}
    46c0:	01000004 	tsteq	r0, r4
    46c4:	00008c3e 	andeq	r8, r0, lr, lsr ip
    46c8:	c0100000 	andsgt	r0, r0, r0
    46cc:	0100000d 	tsteq	r0, sp
    46d0:	048e0326 	streq	r0, [lr], #806	; 0x326
    46d4:	70110000 	andsvc	r0, r1, r0
    46d8:	db260100 	blle	984ae0 <__DATA_END+0x9830f0>
    46dc:	00000003 	andeq	r0, r0, r3
    46e0:	000e2110 	andeq	r2, lr, r0, lsl r1
    46e4:	03290100 	teqeq	r9, #0, 2
    46e8:	000004a4 	andeq	r0, r0, r4, lsr #9
    46ec:	01007011 	tsteq	r0, r1, lsl r0
    46f0:	0003db29 	andeq	sp, r3, r9, lsr #22
    46f4:	36100000 	ldrcc	r0, [r0], -r0
    46f8:	0100000e 	tsteq	r0, lr
    46fc:	04ba0325 	ldrteq	r0, [sl], #805	; 0x325
    4700:	70110000 	andsvc	r0, r1, r0
    4704:	db250100 	blle	944b0c <__DATA_END+0x94311c>
    4708:	00000003 	andeq	r0, r0, r3
    470c:	000df110 	andeq	pc, sp, r0, lsl r1	; <UNPREDICTABLE>
    4710:	032f0100 	teqeq	pc, #0, 2
    4714:	000004d0 	ldrdeq	r0, [r0], -r0	; <UNPREDICTABLE>
    4718:	01007011 	tsteq	r0, r1, lsl r0
    471c:	0003db2f 	andeq	sp, r3, pc, lsr #22
    4720:	d8100000 	ldmdale	r0, {}	; <UNPREDICTABLE>
    4724:	0100000d 	tsteq	r0, sp
    4728:	04e60324 	strbteq	r0, [r6], #804	; 0x324
    472c:	70110000 	andsvc	r0, r1, r0
    4730:	db240100 	blle	904b38 <__DATA_END+0x903148>
    4734:	00000003 	andeq	r0, r0, r3
    4738:	000be115 	andeq	lr, fp, r5, lsl r1
    473c:	44110100 	ldrmi	r0, [r1], #-256	; 0xffffff00
    4740:	40000012 	andmi	r0, r0, r2, lsl r0
    4744:	01000000 	mrseq	r0, (UNDEF: 0)
    4748:	0005079c 	muleq	r5, ip, r7
    474c:	00701600 	rsbseq	r1, r0, r0, lsl #12
    4750:	03db1101 	bicseq	r1, fp, #1073741824	; 0x40000000
    4754:	50010000 	andpl	r0, r1, r0
    4758:	0d921700 	ldceq	7, cr1, [r2]
    475c:	46010000 	strmi	r0, [r1], -r0
    4760:	0000008c 	andeq	r0, r0, ip, lsl #1
    4764:	00000000 	andeq	r0, r0, r0
    4768:	000000f4 	strdeq	r0, [r0], -r4
    476c:	08039c01 	stmdaeq	r3, {r0, sl, fp, ip, pc}
    4770:	d3180000 	tstle	r8, #0
    4774:	0100000d 	tsteq	r0, sp
    4778:	00009746 	andeq	r9, r0, r6, asr #14
    477c:	000a7500 	andeq	r7, sl, r0, lsl #10
    4780:	0db11800 	ldceq	8, cr1, [r1]
    4784:	46010000 	strmi	r0, [r1], -r0
    4788:	0000007e 	andeq	r0, r0, lr, ror r0
    478c:	00000a96 	muleq	r0, r6, sl
    4790:	0005fd18 	andeq	pc, r5, r8, lsl sp	; <UNPREDICTABLE>
    4794:	03460100 	movteq	r0, #24832	; 0x6100
    4798:	cc000008 	stcgt	0, cr0, [r0], {8}
    479c:	1900000a 	stmdbne	r0, {r1, r3}
    47a0:	00746572 	rsbseq	r6, r4, r2, ror r5
    47a4:	007e4701 	rsbseq	r4, lr, r1, lsl #14
    47a8:	ba1a0000 	blt	6847b0 <__DATA_END+0x682dc0>
    47ac:	0100000d 	tsteq	r0, sp
    47b0:	00007e48 	andeq	r7, r0, r8, asr #28
    47b4:	000aed00 	andeq	lr, sl, r0, lsl #26
    47b8:	048e1b00 	streq	r1, [lr], #2816	; 0xb00
    47bc:	00000000 	andeq	r0, r0, r0
    47c0:	02a00000 	adceq	r0, r0, #0
    47c4:	4b010000 	blmi	447cc <__DATA_END+0x42ddc>
    47c8:	000005ba 			; <UNDEFINED> instruction: 0x000005ba
    47cc:	00049a1c 	andeq	r9, r4, ip, lsl sl
    47d0:	06600000 	strbteq	r0, [r0], -r0
    47d4:	03e11b40 	mvneq	r1, #64, 22	; 0x10000
    47d8:	00000000 	andeq	r0, r0, r0
    47dc:	02c00000 	sbceq	r0, r0, #0
    47e0:	2b010000 	blcs	447e8 <__DATA_END+0x42df8>
    47e4:	000005a0 	andeq	r0, r0, r0, lsr #11
    47e8:	0003ed1c 	andeq	lr, r3, ip, lsl sp
    47ec:	06600000 	strbteq	r0, [r0], -r0
    47f0:	c51d0040 	ldrgt	r0, [sp, #-64]	; 0xffffffc0
    47f4:	00000003 	andeq	r0, r0, r3
    47f8:	08000000 	stmdaeq	r0, {}	; <UNPREDICTABLE>
    47fc:	01000000 	mrseq	r0, (UNDEF: 0)
    4800:	03d11c2c 	bicseq	r1, r1, #44, 24	; 0x2c00
    4804:	60000000 	andvs	r0, r0, r0
    4808:	00004006 	andeq	r4, r0, r6
    480c:	0004531b 	andeq	r5, r4, fp, lsl r3
    4810:	00000000 	andeq	r0, r0, r0
    4814:	0002e000 	andeq	lr, r2, r0
    4818:	f74c0100 			; <UNDEFINED> instruction: 0xf74c0100
    481c:	1e000005 	cdpne	0, 0, cr0, cr0, cr5, {0}
    4820:	0000046c 	andeq	r0, r0, ip, ror #8
    4824:	631c7fa0 	tstvs	ip, #160, 30	; 0x280
    4828:	00000004 	andeq	r0, r0, r4
    482c:	1f400660 	svcne	0x00400660
    4830:	00000423 	andeq	r0, r0, r3, lsr #8
    4834:	00000000 	andeq	r0, r0, r0
    4838:	00000300 	andeq	r0, r0, r0, lsl #6
    483c:	2f1c4201 	svccs	0x001c4201
    4840:	00000004 	andeq	r0, r0, r4
    4844:	00400660 	subeq	r0, r0, r0, ror #12
    4848:	04531b00 	ldrbeq	r1, [r3], #-2816	; 0xfffff500
    484c:	00000000 	andeq	r0, r0, r0
    4850:	03180000 	tsteq	r8, #0
    4854:	4e010000 	cdpmi	0, 0, cr0, cr1, cr0, {0}
    4858:	00000636 	andeq	r0, r0, r6, lsr r6
    485c:	00046c20 	andeq	r6, r4, r0, lsr #24
    4860:	000b3f00 	andeq	r3, fp, r0, lsl #30
    4864:	04631c00 	strbteq	r1, [r3], #-3072	; 0xfffff400
    4868:	60000000 	andvs	r0, r0, r0
    486c:	231f4006 	tstcs	pc, #6
    4870:	00000004 	andeq	r0, r0, r4
    4874:	30000000 	andcc	r0, r0, r0
    4878:	01000003 	tsteq	r0, r3
    487c:	042f1c42 	strteq	r1, [pc], #-3138	; 4884 <__DATA_END+0x2e94>
    4880:	60000000 	andvs	r0, r0, r0
    4884:	00004006 	andeq	r4, r0, r6
    4888:	0004531b 	andeq	r5, r4, fp, lsl r3
    488c:	00000000 	andeq	r0, r0, r0
    4890:	00034800 	andeq	r4, r3, r0, lsl #16
    4894:	75500100 	ldrbvc	r0, [r0, #-256]	; 0xffffff00
    4898:	20000006 	andcs	r0, r0, r6
    489c:	0000046c 	andeq	r0, r0, ip, ror #8
    48a0:	00000b5e 	andeq	r0, r0, lr, asr fp
    48a4:	0004631c 	andeq	r6, r4, ip, lsl r3
    48a8:	06600000 	strbteq	r0, [r0], -r0
    48ac:	04231f40 	strteq	r1, [r3], #-3904	; 0xfffff0c0
    48b0:	00000000 	andeq	r0, r0, r0
    48b4:	03600000 	cmneq	r0, #0
    48b8:	42010000 	andmi	r0, r1, #0
    48bc:	00042f1c 	andeq	r2, r4, ip, lsl pc
    48c0:	06600000 	strbteq	r0, [r0], -r0
    48c4:	1b000040 	blne	49cc <__DATA_END+0x2fdc>
    48c8:	00000478 	andeq	r0, r0, r8, ror r4
    48cc:	00000000 	andeq	r0, r0, r0
    48d0:	00000378 	andeq	r0, r0, r8, ror r3
    48d4:	06925201 	ldreq	r5, [r2], r1, lsl #4
    48d8:	841c0000 	ldrhi	r0, [ip], #-0
    48dc:	00000004 	andeq	r0, r0, r4
    48e0:	00400660 	subeq	r0, r0, r0, ror #12
    48e4:	0004531b 	andeq	r5, r4, fp, lsl r3
    48e8:	00000000 	andeq	r0, r0, r0
    48ec:	00039000 	andeq	r9, r3, r0
    48f0:	cf530100 	svcgt	0x00530100
    48f4:	1e000006 	cdpne	0, 0, cr0, cr0, cr6, {0}
    48f8:	0000046c 	andeq	r0, r0, ip, ror #8
    48fc:	631c7fa1 	tstvs	ip, #644	; 0x284
    4900:	00000004 	andeq	r0, r0, r4
    4904:	1f400660 	svcne	0x00400660
    4908:	00000423 	andeq	r0, r0, r3, lsr #8
    490c:	00000000 	andeq	r0, r0, r0
    4910:	000003a8 	andeq	r0, r0, r8, lsr #7
    4914:	2f1c4201 	svccs	0x001c4201
    4918:	00000004 	andeq	r0, r0, r4
    491c:	00400660 	subeq	r0, r0, r0, ror #12
    4920:	03f71b00 	mvnseq	r1, #0, 22
    4924:	00000000 	andeq	r0, r0, r0
    4928:	03c00000 	biceq	r0, r0, #0
    492c:	54010000 	strpl	r0, [r1], #-0
    4930:	000006ec 	andeq	r0, r0, ip, ror #13
    4934:	0004031c 	andeq	r0, r4, ip, lsl r3
    4938:	06600000 	strbteq	r0, [r0], -r0
    493c:	39210040 	stmdbcc	r1!, {r6}
    4940:	00000004 	andeq	r0, r0, r4
    4944:	02000000 	andeq	r0, r0, #0
    4948:	01000000 	mrseq	r0, (UNDEF: 0)
    494c:	00070955 	andeq	r0, r7, r5, asr r9
    4950:	04491c00 	strbeq	r1, [r9], #-3072	; 0xfffff400
    4954:	60000000 	andvs	r0, r0, r0
    4958:	21004006 	tstcs	r0, r6
    495c:	00000423 	andeq	r0, r0, r3, lsr #8
    4960:	00000000 	andeq	r0, r0, r0
    4964:	00000014 	andeq	r0, r0, r4, lsl r0
    4968:	07265601 	streq	r5, [r6, -r1, lsl #12]!
    496c:	2f1c0000 	svccs	0x001c0000
    4970:	00000004 	andeq	r0, r0, r4
    4974:	00400660 	subeq	r0, r0, r0, ror #12
    4978:	0004a41b 	andeq	sl, r4, fp, lsl r4
    497c:	00000000 	andeq	r0, r0, r0
    4980:	0003d800 	andeq	sp, r3, r0, lsl #16
    4984:	435a0100 	cmpmi	sl, #0, 2
    4988:	20000007 	andcs	r0, r0, r7
    498c:	000004b0 			; <UNDEFINED> instruction: 0x000004b0
    4990:	00000b7d 	andeq	r0, r0, sp, ror fp
    4994:	04392100 	ldrteq	r2, [r9], #-256	; 0xffffff00
    4998:	00000000 	andeq	r0, r0, r0
    499c:	00020000 	andeq	r0, r2, r0
    49a0:	59010000 	stmdbpl	r1, {}	; <UNPREDICTABLE>
    49a4:	00000760 	andeq	r0, r0, r0, ror #14
    49a8:	00044920 	andeq	r4, r4, r0, lsr #18
    49ac:	000b9500 	andeq	r9, fp, r0, lsl #10
    49b0:	23210000 	teqcs	r1, #0
    49b4:	00000004 	andeq	r0, r0, r4
    49b8:	18000000 	stmdane	r0, {}	; <UNPREDICTABLE>
    49bc:	01000000 	mrseq	r0, (UNDEF: 0)
    49c0:	0007795b 	andeq	r7, r7, fp, asr r9
    49c4:	042f2200 	strteq	r2, [pc], #-512	; 49cc <__DATA_END+0x2fdc>
    49c8:	21000000 	mrscs	r0, (UNDEF: 0)
    49cc:	00000439 	andeq	r0, r0, r9, lsr r4
    49d0:	00000000 	andeq	r0, r0, r0
    49d4:	00000002 	andeq	r0, r0, r2
    49d8:	07965d01 	ldreq	r5, [r6, r1, lsl #26]
    49dc:	491c0000 	ldmdbmi	ip, {}	; <UNPREDICTABLE>
    49e0:	00000004 	andeq	r0, r0, r4
    49e4:	00400660 	subeq	r0, r0, r0, ror #12
    49e8:	0004d021 	andeq	sp, r4, r1, lsr #32
    49ec:	00000000 	andeq	r0, r0, r0
    49f0:	00000800 	andeq	r0, r0, r0, lsl #16
    49f4:	b35e0100 	cmplt	lr, #0, 2
    49f8:	1c000007 	stcne	0, cr0, [r0], {7}
    49fc:	000004dc 	ldrdeq	r0, [r0], -ip
    4a00:	40066000 	andmi	r6, r6, r0
    4a04:	04ba1d00 	ldrteq	r1, [sl], #3328	; 0xd00
    4a08:	00000000 	andeq	r0, r0, r0
    4a0c:	00100000 	andseq	r0, r0, r0
    4a10:	5f010000 	svcpl	0x00010000
    4a14:	0004c61c 	andeq	ip, r4, ip, lsl r6
    4a18:	06600000 	strbteq	r0, [r0], -r0
    4a1c:	040d2140 	streq	r2, [sp], #-320	; 0xfffffec0
    4a20:	00000000 	andeq	r0, r0, r0
    4a24:	00080000 	andeq	r0, r8, r0
    4a28:	31010000 	mrscc	r0, (UNDEF: 1)
    4a2c:	000007e8 	andeq	r0, r0, r8, ror #15
    4a30:	0004191c 	andeq	r1, r4, ip, lsl r9
    4a34:	06600000 	strbteq	r0, [r0], -r0
    4a38:	f71d0040 			; <UNDEFINED> instruction: 0xf71d0040
    4a3c:	00000003 	andeq	r0, r0, r3
    4a40:	08000000 	stmdaeq	r0, {}	; <UNPREDICTABLE>
    4a44:	01000000 	mrseq	r0, (UNDEF: 0)
    4a48:	04031c32 	streq	r1, [r3], #-3122	; 0xfffff3ce
    4a4c:	60000000 	andvs	r0, r0, r0
    4a50:	00004006 	andeq	r4, r0, r6
    4a54:	09041200 	stmdbeq	r4, {r9, ip}
    4a58:	02000008 	andeq	r0, r0, #8
    4a5c:	01740801 	cmneq	r4, r1, lsl #16
    4a60:	04170000 	ldreq	r0, [r7], #-0
    4a64:	0100000e 	tsteq	r0, lr
    4a68:	00008c62 	andeq	r8, r0, r2, ror #24
    4a6c:	00000000 	andeq	r0, r0, r0
    4a70:	00012000 	andeq	r2, r1, r0
    4a74:	789c0100 	ldmvc	ip, {r8}
    4a78:	1800000b 	stmdane	r0, {r0, r1, r3}
    4a7c:	00000dd3 	ldrdeq	r0, [r0], -r3
    4a80:	00976201 	addseq	r6, r7, r1, lsl #4
    4a84:	0bad0000 	bleq	feb44a8c <__StackTop+0xdeb41a8c>
    4a88:	b1180000 	tstlt	r8, r0
    4a8c:	0100000d 	tsteq	r0, sp
    4a90:	00007e62 	andeq	r7, r0, r2, ror #28
    4a94:	000be400 	andeq	lr, fp, r0, lsl #8
    4a98:	05fd1800 	ldrbeq	r1, [sp, #2048]!	; 0x800
    4a9c:	62010000 	andvs	r0, r1, #0
    4aa0:	00000803 	andeq	r0, r0, r3, lsl #16
    4aa4:	00000c38 	andeq	r0, r0, r8, lsr ip
    4aa8:	000dba1a 	andeq	fp, sp, sl, lsl sl
    4aac:	7e630100 	powvcs	f0, f3, f0
    4ab0:	59000000 	stmdbpl	r0, {}	; <UNPREDICTABLE>
    4ab4:	1b00000c 	blne	4aec <__DATA_END+0x30fc>
    4ab8:	0000048e 	andeq	r0, r0, lr, lsl #9
    4abc:	00000000 	andeq	r0, r0, r0
    4ac0:	000003f0 	strdeq	r0, [r0], -r0	; <UNPREDICTABLE>
    4ac4:	08b86501 	ldmeq	r8!, {r0, r8, sl, sp, lr}
    4ac8:	9a1c0000 	bls	704ad0 <__DATA_END+0x7030e0>
    4acc:	00000004 	andeq	r0, r0, r4
    4ad0:	1b400660 	blne	1006458 <__DATA_END+0x1004a68>
    4ad4:	000003e1 	andeq	r0, r0, r1, ror #7
    4ad8:	00000000 	andeq	r0, r0, r0
    4adc:	00000408 	andeq	r0, r0, r8, lsl #8
    4ae0:	089e2b01 	ldmeq	lr, {r0, r8, r9, fp, sp}
    4ae4:	ed1c0000 	ldc	0, cr0, [ip, #-0]
    4ae8:	00000003 	andeq	r0, r0, r3
    4aec:	00400660 	subeq	r0, r0, r0, ror #12
    4af0:	0003c51d 	andeq	ip, r3, sp, lsl r5
    4af4:	00000000 	andeq	r0, r0, r0
    4af8:	00000800 	andeq	r0, r0, r0, lsl #16
    4afc:	1c2c0100 	stfnes	f0, [ip], #-0
    4b00:	000003d1 	ldrdeq	r0, [r0], -r1
    4b04:	40066000 	andmi	r6, r6, r0
    4b08:	531b0000 	tstpl	fp, #0
    4b0c:	00000004 	andeq	r0, r0, r4
    4b10:	20000000 	andcs	r0, r0, r0
    4b14:	01000004 	tsteq	r0, r4
    4b18:	0008f566 	andeq	pc, r8, r6, ror #10
    4b1c:	046c1e00 	strbteq	r1, [ip], #-3584	; 0xfffff200
    4b20:	7fa00000 	svcvc	0x00a00000
    4b24:	0004631c 	andeq	r6, r4, ip, lsl r3
    4b28:	06600000 	strbteq	r0, [r0], -r0
    4b2c:	04231f40 	strteq	r1, [r3], #-3904	; 0xfffff0c0
    4b30:	00000000 	andeq	r0, r0, r0
    4b34:	04380000 	ldrteq	r0, [r8], #-0
    4b38:	42010000 	andmi	r0, r1, #0
    4b3c:	00042f1c 	andeq	r2, r4, ip, lsl pc
    4b40:	06600000 	strbteq	r0, [r0], -r0
    4b44:	21000040 	tstcs	r0, r0, asr #32
    4b48:	00000453 	andeq	r0, r0, r3, asr r4
    4b4c:	00000000 	andeq	r0, r0, r0
    4b50:	00000016 	andeq	r0, r0, r6, lsl r0
    4b54:	09346801 	ldmdbeq	r4!, {r0, fp, sp, lr}
    4b58:	6c200000 	stcvs	0, cr0, [r0], #-0
    4b5c:	a2000004 	andge	r0, r0, #4
    4b60:	1c00000c 	stcne	0, cr0, [r0], {12}
    4b64:	00000463 	andeq	r0, r0, r3, ror #8
    4b68:	40066000 	andmi	r6, r6, r0
    4b6c:	0004231d 	andeq	r2, r4, sp, lsl r3
    4b70:	00000000 	andeq	r0, r0, r0
    4b74:	00001200 	andeq	r1, r0, r0, lsl #4
    4b78:	1c420100 	stfnee	f0, [r2], {-0}
    4b7c:	0000042f 	andeq	r0, r0, pc, lsr #8
    4b80:	40066000 	andmi	r6, r6, r0
    4b84:	53210000 	teqpl	r1, #0
    4b88:	00000004 	andeq	r0, r0, r4
    4b8c:	1a000000 	bne	4b94 <__DATA_END+0x31a4>
    4b90:	01000000 	mrseq	r0, (UNDEF: 0)
    4b94:	0009736a 	andeq	r7, r9, sl, ror #6
    4b98:	046c2000 	strbteq	r2, [ip], #-0
    4b9c:	0cd00000 	ldcleq	0, cr0, [r0], {0}
    4ba0:	631c0000 	tstvs	ip, #0
    4ba4:	00000004 	andeq	r0, r0, r4
    4ba8:	1d400660 	stclne	6, cr0, [r0, #-384]	; 0xfffffe80
    4bac:	00000423 	andeq	r0, r0, r3, lsr #8
    4bb0:	00000000 	andeq	r0, r0, r0
    4bb4:	00000012 	andeq	r0, r0, r2, lsl r0
    4bb8:	2f1c4201 	svccs	0x001c4201
    4bbc:	00000004 	andeq	r0, r0, r4
    4bc0:	00400660 	subeq	r0, r0, r0, ror #12
    4bc4:	04531b00 	ldrbeq	r1, [r3], #-2816	; 0xfffff500
    4bc8:	00000000 	andeq	r0, r0, r0
    4bcc:	04500000 	ldrbeq	r0, [r0], #-0
    4bd0:	6d010000 	stcvs	0, cr0, [r1, #-0]
    4bd4:	000009b2 			; <UNDEFINED> instruction: 0x000009b2
    4bd8:	00046c20 	andeq	r6, r4, r0, lsr #24
    4bdc:	000cfa00 	andeq	pc, ip, r0, lsl #20
    4be0:	04632000 	strbteq	r2, [r3], #-0
    4be4:	0d190000 	ldceq	0, cr0, [r9, #-0]
    4be8:	231f0000 	tstcs	pc, #0
    4bec:	00000004 	andeq	r0, r0, r4
    4bf0:	68000000 	stmdavs	r0, {}	; <UNPREDICTABLE>
    4bf4:	01000004 	tsteq	r0, r4
    4bf8:	042f2042 	strteq	r2, [pc], #-66	; 4c00 <__DATA_END+0x3210>
    4bfc:	0d310000 	ldceq	0, cr0, [r1, #-0]
    4c00:	00000000 	andeq	r0, r0, r0
    4c04:	0004ba21 	andeq	fp, r4, r1, lsr #20
    4c08:	00000000 	andeq	r0, r0, r0
    4c0c:	00001000 	andeq	r1, r0, r0
    4c10:	05720100 	ldrbeq	r0, [r2, #-256]!	; 0xffffff00
    4c14:	2000000a 	andcs	r0, r0, sl
    4c18:	000004c6 	andeq	r0, r0, r6, asr #9
    4c1c:	00000d49 	andeq	r0, r0, r9, asr #26
    4c20:	00040d21 	andeq	r0, r4, r1, lsr #26
    4c24:	00000000 	andeq	r0, r0, r0
    4c28:	00000800 	andeq	r0, r0, r0, lsl #16
    4c2c:	eb310100 	bl	c45034 <__DATA_END+0xc43644>
    4c30:	20000009 	andcs	r0, r0, r9
    4c34:	00000419 	andeq	r0, r0, r9, lsl r4
    4c38:	00000d49 	andeq	r0, r0, r9, asr #26
    4c3c:	03f71d00 	mvnseq	r1, #0, 26
    4c40:	00000000 	andeq	r0, r0, r0
    4c44:	00080000 	andeq	r0, r8, r0
    4c48:	32010000 	andcc	r0, r1, #0
    4c4c:	00040320 	andeq	r0, r4, r0, lsr #6
    4c50:	000d6100 	andeq	r6, sp, r0, lsl #2
    4c54:	21000000 	mrscs	r0, (UNDEF: 0)
    4c58:	0000048e 	andeq	r0, r0, lr, lsl #9
    4c5c:	00000000 	andeq	r0, r0, r0
    4c60:	00000010 	andeq	r0, r0, r0, lsl r0
    4c64:	0a587501 	beq	1622070 <__DATA_END+0x1620680>
    4c68:	9a200000 	bls	804c70 <__DATA_END+0x803280>
    4c6c:	79000004 	stmdbvc	r0, {r2}
    4c70:	2100000d 	tstcs	r0, sp
    4c74:	000003e1 	andeq	r0, r0, r1, ror #7
    4c78:	00000000 	andeq	r0, r0, r0
    4c7c:	00000008 	andeq	r0, r0, r8
    4c80:	0a3e2b01 	beq	f8f88c <__DATA_END+0xf8de9c>
    4c84:	ed200000 	stc	0, cr0, [r0, #-0]
    4c88:	79000003 	stmdbvc	r0, {r0, r1}
    4c8c:	0000000d 	andeq	r0, r0, sp
    4c90:	0003c51d 	andeq	ip, r3, sp, lsl r5
    4c94:	00000000 	andeq	r0, r0, r0
    4c98:	00000800 	andeq	r0, r0, r0, lsl #16
    4c9c:	202c0100 	eorcs	r0, ip, r0, lsl #2
    4ca0:	000003d1 	ldrdeq	r0, [r0], -r1
    4ca4:	00000d91 	muleq	r0, r1, sp
    4ca8:	53210000 	teqpl	r1, #0
    4cac:	00000004 	andeq	r0, r0, r4
    4cb0:	18000000 	stmdane	r0, {}	; <UNPREDICTABLE>
    4cb4:	01000000 	mrseq	r0, (UNDEF: 0)
    4cb8:	000a9776 	andeq	r9, sl, r6, ror r7
    4cbc:	046c2000 	strbteq	r2, [ip], #-0
    4cc0:	0da90000 	stceq	0, cr0, [r9]
    4cc4:	63200000 	teqvs	r0, #0
    4cc8:	be000004 	cdplt	0, 0, cr0, cr0, cr4, {0}
    4ccc:	1d00000d 	stcne	0, cr0, [r0, #-52]	; 0xffffffcc
    4cd0:	00000423 	andeq	r0, r0, r3, lsr #8
    4cd4:	00000000 	andeq	r0, r0, r0
    4cd8:	00000012 	andeq	r0, r0, r2, lsl r0
    4cdc:	2f204201 	svccs	0x00204201
    4ce0:	d6000004 	strle	r0, [r0], -r4
    4ce4:	0000000d 	andeq	r0, r0, sp
    4ce8:	04532100 	ldrbeq	r2, [r3], #-256	; 0xffffff00
    4cec:	00000000 	andeq	r0, r0, r0
    4cf0:	00160000 	andseq	r0, r6, r0
    4cf4:	78010000 	stmdavc	r1, {}	; <UNPREDICTABLE>
    4cf8:	00000ad6 	ldrdeq	r0, [r0], -r6
    4cfc:	00046c20 	andeq	r6, r4, r0, lsr #24
    4d00:	000dee00 	andeq	lr, sp, r0, lsl #28
    4d04:	04632000 	strbteq	r2, [r3], #-0
    4d08:	0e1c0000 	cdpeq	0, 1, cr0, cr12, cr0, {0}
    4d0c:	231d0000 	tstcs	sp, #0
    4d10:	00000004 	andeq	r0, r0, r4
    4d14:	12000000 	andne	r0, r0, #0
    4d18:	01000000 	mrseq	r0, (UNDEF: 0)
    4d1c:	042f2042 	strteq	r2, [pc], #-66	; 4d24 <__DATA_END+0x3334>
    4d20:	0e340000 	cdpeq	0, 3, cr0, cr4, cr0, {0}
    4d24:	00000000 	andeq	r0, r0, r0
    4d28:	00045321 	andeq	r5, r4, r1, lsr #6
    4d2c:	00000000 	andeq	r0, r0, r0
    4d30:	00001a00 	andeq	r1, r0, r0, lsl #20
    4d34:	157a0100 	ldrbne	r0, [sl, #-256]!	; 0xffffff00
    4d38:	2000000b 	andcs	r0, r0, fp
    4d3c:	0000046c 	andeq	r0, r0, ip, ror #8
    4d40:	00000e4c 	andeq	r0, r0, ip, asr #28
    4d44:	00046320 	andeq	r6, r4, r0, lsr #6
    4d48:	000e7600 	andeq	r7, lr, r0, lsl #12
    4d4c:	04231d00 	strteq	r1, [r3], #-3328	; 0xfffff300
    4d50:	00000000 	andeq	r0, r0, r0
    4d54:	00120000 	andseq	r0, r2, r0
    4d58:	42010000 	andmi	r0, r1, #0
    4d5c:	00042f20 	andeq	r2, r4, r0, lsr #30
    4d60:	000e8e00 	andeq	r8, lr, r0, lsl #28
    4d64:	1b000000 	blne	4d6c <__DATA_END+0x337c>
    4d68:	000004ba 			; <UNDEFINED> instruction: 0x000004ba
    4d6c:	00000000 	andeq	r0, r0, r0
    4d70:	00000480 	andeq	r0, r0, r0, lsl #9
    4d74:	0b687e01 	bleq	1a24580 <__DATA_END+0x1a22b90>
    4d78:	c61c0000 	ldrgt	r0, [ip], -r0
    4d7c:	00000004 	andeq	r0, r0, r4
    4d80:	1b400660 	blne	1006708 <__DATA_END+0x1004d18>
    4d84:	0000040d 	andeq	r0, r0, sp, lsl #8
    4d88:	00000000 	andeq	r0, r0, r0
    4d8c:	00000498 	muleq	r0, r8, r4
    4d90:	0b4e3101 	bleq	139119c <__DATA_END+0x138f7ac>
    4d94:	191c0000 	ldmdbne	ip, {}	; <UNPREDICTABLE>
    4d98:	00000004 	andeq	r0, r0, r4
    4d9c:	00400660 	subeq	r0, r0, r0, ror #12
    4da0:	0003f71d 	andeq	pc, r3, sp, lsl r7	; <UNPREDICTABLE>
    4da4:	00000000 	andeq	r0, r0, r0
    4da8:	00000800 	andeq	r0, r0, r0, lsl #16
    4dac:	1c320100 	ldfnes	f0, [r2], #-0
    4db0:	00000403 	andeq	r0, r0, r3, lsl #8
    4db4:	40066000 	andmi	r6, r6, r0
    4db8:	00230000 	eoreq	r0, r3, r0
    4dbc:	78000000 	stmdavc	r0, {}	; <UNPREDICTABLE>
    4dc0:	2400000b 	strcs	r0, [r0], #-11
    4dc4:	31015001 	tstcc	r1, r1
    4dc8:	a9250000 	stmdbge	r5!, {}	; <UNPREDICTABLE>
    4dcc:	a9000004 	stmdbge	r0, {r2}
    4dd0:	05000004 	streq	r0, [r0, #-4]
    4dd4:	0402000b 	streq	r0, [r2], #-11
    4dd8:	00040000 	andeq	r0, r4, r0
    4ddc:	000013a2 	andeq	r1, r0, r2, lsr #7
    4de0:	00170104 	andseq	r0, r7, r4, lsl #2
    4de4:	4c0c0000 	stcmi	0, cr0, [ip], {-0}
    4de8:	a300000e 	movwge	r0, #14
    4dec:	d0000001 	andle	r0, r0, r1
    4df0:	00000004 	andeq	r0, r0, r4
    4df4:	09000000 	stmdbeq	r0, {}	; <UNPREDICTABLE>
    4df8:	02000013 	andeq	r0, r0, #19
    4dfc:	016d0601 	cmneq	sp, r1, lsl #12
    4e00:	ee030000 	cdp	0, 0, cr0, cr3, cr0, {0}
    4e04:	02000000 	andeq	r0, r0, #0
    4e08:	0000371d 	andeq	r3, r0, sp, lsl r7
    4e0c:	08010200 	stmdaeq	r1, {r9}
    4e10:	0000016b 	andeq	r0, r0, fp, ror #2
    4e14:	17050202 	strne	r0, [r5, -r2, lsl #4]
    4e18:	03000001 	movweq	r0, #1
    4e1c:	0000010c 	andeq	r0, r0, ip, lsl #2
    4e20:	00502b02 	subseq	r2, r0, r2, lsl #22
    4e24:	02020000 	andeq	r0, r2, #0
    4e28:	0001dd07 	andeq	sp, r1, r7, lsl #26
    4e2c:	05040200 	streq	r0, [r4, #-512]	; 0xfffffe00
    4e30:	00000126 	andeq	r0, r0, r6, lsr #2
    4e34:	0000f803 	andeq	pc, r0, r3, lsl #16
    4e38:	69410200 	stmdbvs	r1, {r9}^
    4e3c:	02000000 	andeq	r0, r0, #0
    4e40:	01830704 	orreq	r0, r3, r4, lsl #14
    4e44:	08020000 	stmdaeq	r2, {}	; <UNPREDICTABLE>
    4e48:	00012105 	andeq	r2, r1, r5, lsl #2
    4e4c:	07080200 	streq	r0, [r8, -r0, lsl #4]
    4e50:	0000017e 	andeq	r0, r0, lr, ror r1
    4e54:	69050404 	stmdbvs	r5, {r2, sl}
    4e58:	0200746e 	andeq	r7, r0, #1845493760	; 0x6e000000
    4e5c:	01880704 	orreq	r0, r8, r4, lsl #14
    4e60:	f0030000 			; <UNDEFINED> instruction: 0xf0030000
    4e64:	03000000 	movweq	r0, #0
    4e68:	00002c14 	andeq	r2, r0, r4, lsl ip
    4e6c:	010e0300 	mrseq	r0, ELR_hyp
    4e70:	1a030000 	bne	c4e78 <__DATA_END+0xc3488>
    4e74:	00000045 	andeq	r0, r0, r5, asr #32
    4e78:	0000fa03 	andeq	pc, r0, r3, lsl #20
    4e7c:	5e200300 	cdppl	3, 2, cr0, cr0, cr0, {0}
    4e80:	02000000 	andeq	r0, r0, #0
    4e84:	02a20704 	adceq	r0, r2, #4, 14	; 0x100000
    4e88:	a2050000 	andge	r0, r5, #0
    4e8c:	06000000 	streq	r0, [r0], -r0
    4e90:	000000b4 	strheq	r0, [r0], -r4
    4e94:	00008c07 	andeq	r8, r0, r7, lsl #24
    4e98:	0000ce00 	andeq	ip, r0, r0, lsl #28
    4e9c:	00ad0800 	adceq	r0, sp, r0, lsl #16
    4ea0:	00030000 	andeq	r0, r3, r0
    4ea4:	00008c05 	andeq	r8, r0, r5, lsl #24
    4ea8:	04020900 	streq	r0, [r2], #-2304	; 0xfffff700
    4eac:	00f70333 	rscseq	r0, r7, r3, lsr r3
    4eb0:	570a0000 	strpl	r0, [sl, -r0]
    4eb4:	0400000e 	streq	r0, [r0], #-14
    4eb8:	00ce0334 	sbceq	r0, lr, r4, lsr r3
    4ebc:	0a000000 	beq	4ec4 <__DATA_END+0x34d4>
    4ec0:	00000e52 	andeq	r0, r0, r2, asr lr
    4ec4:	ce033504 	cfsh32gt	mvfx3, mvfx3, #4
    4ec8:	01000000 	mrseq	r0, (UNDEF: 0)
    4ecc:	04240900 	strteq	r0, [r4], #-2304	; 0xfffff700
    4ed0:	014b0332 	cmpeq	fp, r2, lsr r3
    4ed4:	440b0000 	strmi	r0, [fp], #-0
    4ed8:	04005441 	streq	r5, [r0], #-1089	; 0xfffffbbf
    4edc:	014b0336 	cmpeq	fp, r6, lsr r3
    4ee0:	0a000000 	beq	4ee8 <__DATA_END+0x34f8>
    4ee4:	0000023e 	andeq	r0, r0, lr, lsr r2
    4ee8:	5b033704 	blpl	d2b00 <__DATA_END+0xd1110>
    4eec:	04000001 	streq	r0, [r0], #-1
    4ef0:	0052530b 	subseq	r5, r2, fp, lsl #6
    4ef4:	ce033804 	cdpgt	8, 0, cr3, cr3, cr4, {0}
    4ef8:	20000000 	andcs	r0, r0, r0
    4efc:	0030430b 	eorseq	r4, r0, fp, lsl #6
    4f00:	ce033904 	cdpgt	9, 0, cr3, cr3, cr4, {0}
    4f04:	21000000 	mrscs	r0, (UNDEF: 0)
    4f08:	0031430b 	eorseq	r4, r1, fp, lsl #6
    4f0c:	ce033a04 	vmlagt.f32	s6, s6, s8
    4f10:	22000000 	andcs	r0, r0, #0
    4f14:	0032430b 	eorseq	r4, r2, fp, lsl #6
    4f18:	ce033b04 	vmlagt.f64	d3, d3, d4
    4f1c:	23000000 	movwcs	r0, #0
    4f20:	00d30700 	sbcseq	r0, r3, r0, lsl #14
    4f24:	015b0000 	cmpeq	fp, r0
    4f28:	ad080000 	stcge	0, cr0, [r8, #-0]
    4f2c:	01000000 	mrseq	r0, (UNDEF: 0)
    4f30:	008c0700 	addeq	r0, ip, r0, lsl #14
    4f34:	016b0000 	cmneq	fp, r0
    4f38:	ad080000 	stcge	0, cr0, [r8, #-0]
    4f3c:	1b000000 	blne	4f44 <__DATA_END+0x3554>
    4f40:	0e430c00 	cdpeq	12, 4, cr0, cr3, cr0, {0}
    4f44:	3c040000 	stccc	0, cr0, [r4], {-0}
    4f48:	0000f703 	andeq	pc, r0, r3, lsl #14
    4f4c:	008c0700 	addeq	r0, ip, r0, lsl #14
    4f50:	01870000 	orreq	r0, r7, r0
    4f54:	ad080000 	stcge	0, cr0, [r8, #-0]
    4f58:	07000000 	streq	r0, [r0, -r0]
    4f5c:	008c0700 	addeq	r0, ip, r0, lsl #14
    4f60:	01970000 	orrseq	r0, r7, r0
    4f64:	ad080000 	stcge	0, cr0, [r8, #-0]
    4f68:	9b000000 	blls	4f70 <__DATA_END+0x3580>
    4f6c:	008c0700 	addeq	r0, ip, r0, lsl #14
    4f70:	01a70000 			; <UNDEFINED> instruction: 0x01a70000
    4f74:	ad080000 	stcge	0, cr0, [r8, #-0]
    4f78:	17000000 	strne	r0, [r0, -r0]
    4f7c:	04a40900 	strteq	r0, [r4], #2304	; 0x900
    4f80:	01f212c3 	mvnseq	r1, r3, asr #5
    4f84:	500b0000 	andpl	r0, fp, r0
    4f88:	04005243 	streq	r5, [r0], #-579	; 0xfffffdbd
    4f8c:	020212c4 	andeq	r1, r2, #196, 4	; 0x4000000c
    4f90:	0a000000 	beq	4f98 <__DATA_END+0x35a8>
    4f94:	000009e4 	andeq	r0, r0, r4, ror #19
    4f98:	b412c504 	ldrlt	ip, [r2], #-1284	; 0xfffffafc
    4f9c:	80000000 	andhi	r0, r0, r0
    4fa0:	000b730a 	andeq	r7, fp, sl, lsl #6
    4fa4:	12c60400 	sbcne	r0, r6, #0, 8
    4fa8:	000000b4 	strheq	r0, [r0], -r4
    4fac:	023e0a84 	eorseq	r0, lr, #132, 20	; 0x84000
    4fb0:	c7040000 	strgt	r0, [r4, -r0]
    4fb4:	00019712 	andeq	r9, r1, r2, lsl r7
    4fb8:	4f0a8800 	svcmi	0x000a8800
    4fbc:	0400000a 	streq	r0, [r0], #-10
    4fc0:	00b412c8 	adcseq	r1, r4, r8, asr #5
    4fc4:	00a00000 	adceq	r0, r0, r0
    4fc8:	0000a207 	andeq	sl, r0, r7, lsl #4
    4fcc:	00020200 	andeq	r0, r2, r0, lsl #4
    4fd0:	00ad0800 	adceq	r0, sp, r0, lsl #16
    4fd4:	001f0000 	andseq	r0, pc, r0
    4fd8:	0001f205 	andeq	pc, r1, r5, lsl #4
    4fdc:	0a240c00 	beq	907fe4 <__DATA_END+0x9065f4>
    4fe0:	c9040000 	stmdbgt	r4, {}	; <UNPREDICTABLE>
    4fe4:	0001a712 	andeq	sl, r1, r2, lsl r7
    4fe8:	11080d00 	tstne	r8, r0, lsl #26
    4fec:	95166504 	ldrls	r6, [r6, #-1284]	; 0xfffffafc
    4ff0:	0a000003 	beq	5004 <__DATA_END+0x3614>
    4ff4:	00000217 	andeq	r0, r0, r7, lsl r2
    4ff8:	b4166604 	ldrlt	r6, [r6], #-1540	; 0xfffff9fc
    4ffc:	00000000 	andeq	r0, r0, r0
    5000:	00012f0a 	andeq	r2, r1, sl, lsl #30
    5004:	16670400 	strbtne	r0, [r7], -r0, lsl #8
    5008:	000000b4 	strheq	r0, [r0], -r4
    500c:	023e0a04 	eorseq	r0, lr, #4, 20	; 0x4000
    5010:	68040000 	stmdavs	r4, {}	; <UNPREDICTABLE>
    5014:	00039516 	andeq	r9, r3, r6, lsl r5
    5018:	500e0800 	andpl	r0, lr, r0, lsl #16
    501c:	04000001 	streq	r0, [r0], #-1
    5020:	00b41669 	adcseq	r1, r4, r9, ror #12
    5024:	10040000 	andne	r0, r4, r0
    5028:	0002490e 	andeq	r4, r2, lr, lsl #18
    502c:	166a0400 	strbtne	r0, [sl], -r0, lsl #8
    5030:	000000be 	strheq	r0, [r0], -lr
    5034:	dc0e1008 	stcle	0, cr1, [lr], {8}
    5038:	04000002 	streq	r0, [r0], #-2
    503c:	00b4166b 	adcseq	r1, r4, fp, ror #12
    5040:	100c0000 	andne	r0, ip, r0
    5044:	0000000e 	andeq	r0, r0, lr
    5048:	166c0400 	strbtne	r0, [ip], -r0, lsl #8
    504c:	000000b4 	strheq	r0, [r0], -r4
    5050:	540e1010 	strpl	r1, [lr], #-16
    5054:	04000002 	streq	r0, [r0], #-2
    5058:	00be166d 	adcseq	r1, lr, sp, ror #12
    505c:	10140000 	andsne	r0, r4, r0
    5060:	00015d0e 	andeq	r5, r1, lr, lsl #26
    5064:	166e0400 	strbtne	r0, [lr], -r0, lsl #8
    5068:	000000b4 	strheq	r0, [r0], -r4
    506c:	5f0e1018 	svcpl	0x000e1018
    5070:	04000002 	streq	r0, [r0], #-2
    5074:	0177166f 	cmneq	r7, pc, ror #12
    5078:	101c0000 	andsne	r0, ip, r0
    507c:	0000120e 	andeq	r1, r0, lr, lsl #4
    5080:	16700400 	ldrbtne	r0, [r0], -r0, lsl #8
    5084:	000000b9 	strheq	r0, [r0], -r9
    5088:	6a0e1024 	bvs	389120 <__DATA_END+0x387730>
    508c:	04000002 	streq	r0, [r0], #-2
    5090:	03a61671 			; <UNDEFINED> instruction: 0x03a61671
    5094:	10280000 	eorne	r0, r8, r0
    5098:	0001380e 	andeq	r3, r1, lr, lsl #16
    509c:	16720400 	ldrbtne	r0, [r2], -r0, lsl #8
    50a0:	000000b4 	strheq	r0, [r0], -r4
    50a4:	3e0e1034 	mcrcc	0, 0, r1, cr14, cr4, {1}
    50a8:	04000001 	streq	r0, [r0], #-1
    50ac:	00b41673 	adcseq	r1, r4, r3, ror r6
    50b0:	10380000 	eorsne	r0, r8, r0
    50b4:	0001440e 	andeq	r4, r1, lr, lsl #8
    50b8:	16740400 	ldrbtne	r0, [r4], -r0, lsl #8
    50bc:	000000b4 	strheq	r0, [r0], -r4
    50c0:	4a0e103c 	bmi	3891b8 <__DATA_END+0x3877c8>
    50c4:	04000001 	streq	r0, [r0], #-1
    50c8:	00b41675 	adcseq	r1, r4, r5, ror r6
    50cc:	10400000 	subne	r0, r0, r0
    50d0:	0001630e 	andeq	r6, r1, lr, lsl #6
    50d4:	16760400 	ldrbtne	r0, [r6], -r0, lsl #8
    50d8:	000000b4 	strheq	r0, [r0], -r4
    50dc:	750e1044 	strvc	r1, [lr, #-68]	; 0xffffffbc
    50e0:	04000002 	streq	r0, [r0], #-2
    50e4:	00be1677 	adcseq	r1, lr, r7, ror r6
    50e8:	10480000 	subne	r0, r8, r0
    50ec:	0000060e 	andeq	r0, r0, lr, lsl #12
    50f0:	16780400 	ldrbtne	r0, [r8], -r0, lsl #8
    50f4:	000000b4 	strheq	r0, [r0], -r4
    50f8:	0c0e104c 	stceq	0, cr1, [lr], {76}	; 0x4c
    50fc:	04000000 	streq	r0, [r0], #-0
    5100:	00b91679 	adcseq	r1, r9, r9, ror r6
    5104:	10500000 	subsne	r0, r0, r0
    5108:	0002800e 	andeq	r8, r2, lr
    510c:	167a0400 	ldrbtne	r0, [sl], -r0, lsl #8
    5110:	000000be 	strheq	r0, [r0], -lr
    5114:	320e1054 	andcc	r1, lr, #84	; 0x54
    5118:	04000002 	streq	r0, [r0], #-2
    511c:	00b9167b 	adcseq	r1, r9, fp, ror r6
    5120:	10580000 	subsne	r0, r8, r0
    5124:	0002380e 	andeq	r3, r2, lr, lsl #16
    5128:	167c0400 	ldrbtne	r0, [ip], -r0, lsl #8
    512c:	000000b9 	strheq	r0, [r0], -r9
    5130:	2d0e105c 	stccs	0, cr1, [lr, #-368]	; 0xfffffe90
    5134:	04000002 	streq	r0, [r0], #-2
    5138:	00b9167d 	adcseq	r1, r9, sp, ror r6
    513c:	10600000 	rsbne	r0, r0, r0
    5140:	00028b0e 	andeq	r8, r2, lr, lsl #22
    5144:	167e0400 	ldrbtne	r0, [lr], -r0, lsl #8
    5148:	00000187 	andeq	r0, r0, r7, lsl #3
    514c:	790e1064 	stmdbvc	lr, {r2, r5, r6, ip}
    5150:	04000001 	streq	r0, [r0], #-1
    5154:	00b4167f 	adcseq	r1, r4, pc, ror r6
    5158:	11000000 	mrsne	r0, (UNDEF: 0)
    515c:	0001560e 	andeq	r5, r1, lr, lsl #12
    5160:	16800400 	strne	r0, [r0], r0, lsl #8
    5164:	000000b4 	strheq	r0, [r0], -r4
    5168:	07001104 	streq	r1, [r0, -r4, lsl #2]
    516c:	0000008c 	andeq	r0, r0, ip, lsl #1
    5170:	000003a6 	andeq	r0, r0, r6, lsr #7
    5174:	0000ad0f 	andeq	sl, r0, pc, lsl #26
    5178:	000ffb00 	andeq	pc, pc, r0, lsl #22
    517c:	00008c07 	andeq	r8, r0, r7, lsl #24
    5180:	0003b600 	andeq	fp, r3, r0, lsl #12
    5184:	00ad0800 	adceq	r0, sp, r0, lsl #16
    5188:	000b0000 	andeq	r0, fp, r0
    518c:	0001030c 	andeq	r0, r1, ip, lsl #6
    5190:	16810400 	strne	r0, [r1], r0, lsl #8
    5194:	00000213 	andeq	r0, r0, r3, lsl r2
    5198:	00046510 	andeq	r6, r4, r0, lsl r5
    519c:	84030100 	strhi	r0, [r3], #-256	; 0xffffff00
    51a0:	44000012 	strmi	r0, [r0], #-18	; 0xffffffee
    51a4:	01000000 	mrseq	r0, (UNDEF: 0)
    51a8:	0e5c109c 	mrceq	0, 2, r1, cr12, cr12, {4}
    51ac:	0c010000 	stceq	0, cr0, [r1], {-0}
    51b0:	00000000 	andeq	r0, r0, r0
    51b4:	00000002 	andeq	r0, r0, r2
    51b8:	82119c01 	andshi	r9, r1, #256	; 0x100
    51bc:	01000004 	tsteq	r0, r4
    51c0:	0012c80f 	andseq	ip, r2, pc, lsl #16
    51c4:	00001400 	andeq	r1, r0, r0, lsl #8
    51c8:	129c0100 	addsne	r0, ip, #0, 2
    51cc:	006c6176 	rsbeq	r6, ip, r6, ror r1
    51d0:	00970f01 	addseq	r0, r7, r1, lsl #30
    51d4:	0ea60000 	cdpeq	0, 10, cr0, cr6, cr0, {0}
    51d8:	00000000 	andeq	r0, r0, r0
    51dc:	000002a6 	andeq	r0, r0, r6, lsr #5
    51e0:	14950004 	ldrne	r0, [r5], #4
    51e4:	01040000 	mrseq	r0, (UNDEF: 4)
    51e8:	0000050e 	andeq	r0, r0, lr, lsl #10
    51ec:	000e660c 	andeq	r6, lr, ip, lsl #12
    51f0:	0001a300 	andeq	sl, r1, r0, lsl #6
    51f4:	0004f000 	andeq	pc, r4, r0
    51f8:	00000000 	andeq	r0, r0, r0
    51fc:	0013de00 	andseq	sp, r3, r0, lsl #28
    5200:	06010200 	streq	r0, [r1], -r0, lsl #4
    5204:	0000016d 	andeq	r0, r0, sp, ror #2
    5208:	6b080102 	blvs	205618 <__DATA_END+0x203c28>
    520c:	02000001 	andeq	r0, r0, #1
    5210:	01170502 	tsteq	r7, r2, lsl #10
    5214:	02020000 	andeq	r0, r2, #0
    5218:	0001dd07 	andeq	sp, r1, r7, lsl #26
    521c:	05040200 	streq	r0, [r4, #-512]	; 0xfffffe00
    5220:	00000126 	andeq	r0, r0, r6, lsr #2
    5224:	83070402 	movwhi	r0, #29698	; 0x7402
    5228:	02000001 	andeq	r0, r0, #1
    522c:	01210508 	teqeq	r1, r8, lsl #10
    5230:	08020000 	stmdaeq	r2, {}	; <UNPREDICTABLE>
    5234:	00017e07 	andeq	r7, r1, r7, lsl #28
    5238:	05040300 	streq	r0, [r4, #-768]	; 0xfffffd00
    523c:	00746e69 	rsbseq	r6, r4, r9, ror #28
    5240:	88070402 	stmdahi	r7, {r1, sl}
    5244:	02000001 	andeq	r0, r0, #1
    5248:	02a20704 	adceq	r0, r2, #4, 14	; 0x100000
    524c:	01020000 	mrseq	r0, (UNDEF: 2)
    5250:	00017408 	andeq	r7, r1, r8, lsl #8
    5254:	00720400 	rsbseq	r0, r2, r0, lsl #8
    5258:	00890000 	addeq	r0, r9, r0
    525c:	6b050000 	blvs	145264 <__DATA_END+0x143874>
    5260:	0a000000 	beq	5268 <__DATA_END+0x3878>
    5264:	02380600 	eorseq	r0, r8, #0, 12
    5268:	0000fe06 	andeq	pc, r0, r6, lsl #28
    526c:	0c630700 	stcleq	7, cr0, [r3], #-0
    5270:	07020000 	streq	r0, [r2, -r0]
    5274:	00000079 	andeq	r0, r0, r9, ror r0
    5278:	0c8a0700 	stceq	7, cr0, [sl], {0}
    527c:	08020000 	stmdaeq	r2, {}	; <UNPREDICTABLE>
    5280:	00000072 	andeq	r0, r0, r2, ror r0
    5284:	616c080b 	cmnvs	ip, fp, lsl #16
    5288:	09020074 	stmdbeq	r2, {r2, r4, r5, r6}
    528c:	00000079 	andeq	r0, r0, r9, ror r0
    5290:	0c55070c 	mrrceq	7, 0, r0, r5, cr12
    5294:	0a020000 	beq	8529c <__DATA_END+0x838ac>
    5298:	00000072 	andeq	r0, r0, r2, ror r0
    529c:	6f6c0817 	svcvs	0x006c0817
    52a0:	0b02006e 	bleq	85460 <__DATA_END+0x83a70>
    52a4:	000000fe 	strdeq	r0, [r0], -lr
    52a8:	0c4d0718 	mcrreq	7, 1, r0, sp, cr8
    52ac:	0c020000 	stceq	0, cr0, [r2], {-0}
    52b0:	00000072 	andeq	r0, r0, r2, ror r0
    52b4:	0c5d0724 	mrrceq	7, 2, r0, sp, cr4
    52b8:	0d020000 	stceq	0, cr0, [r2, #-0]
    52bc:	0000010e 	andeq	r0, r0, lr, lsl #2
    52c0:	0c2e0725 	stceq	7, cr0, [lr], #-148	; 0xffffff6c
    52c4:	0e020000 	cdpeq	0, 0, cr0, cr2, cr0, {0}
    52c8:	0000010e 	andeq	r0, r0, lr, lsl #2
    52cc:	0209072b 	andeq	r0, r9, #11272192	; 0xac0000
    52d0:	0f020000 	svceq	0x00020000
    52d4:	0000011e 	andeq	r0, r0, lr, lsl r1
    52d8:	72040031 	andvc	r0, r4, #49	; 0x31
    52dc:	0e000000 	cdpeq	0, 0, cr0, cr0, cr0, {0}
    52e0:	05000001 	streq	r0, [r0, #-1]
    52e4:	0000006b 	andeq	r0, r0, fp, rrx
    52e8:	7204000b 	andvc	r0, r4, #11
    52ec:	1e000000 	cdpne	0, 0, cr0, cr0, cr0, {0}
    52f0:	05000001 	streq	r0, [r0, #-1]
    52f4:	0000006b 	andeq	r0, r0, fp, rrx
    52f8:	72040005 	andvc	r0, r4, #5
    52fc:	2e000000 	cdpcs	0, 0, cr0, cr0, cr0, {0}
    5300:	05000001 	streq	r0, [r0, #-1]
    5304:	0000006b 	andeq	r0, r0, fp, rrx
    5308:	45090006 	strmi	r0, [r9, #-6]
    530c:	0200000c 	andeq	r0, r0, #12
    5310:	00008910 	andeq	r8, r0, r0, lsl r9
    5314:	0e6d0a00 	vmuleq.f32	s1, s26, s0
    5318:	05010000 	streq	r0, [r1, #-0]
    531c:	0000005d 	andeq	r0, r0, sp, asr r0
    5320:	000012dc 	ldrdeq	r1, [r0], -ip
    5324:	00000014 	andeq	r0, r0, r4, lsl r0
    5328:	017c9c01 	cmneq	ip, r1, lsl #24
    532c:	640b0000 	strvs	r0, [fp], #-0
    5330:	01007473 	tsteq	r0, r3, ror r4
    5334:	00017c05 	andeq	r7, r1, r5, lsl #24
    5338:	000ec700 	andeq	ip, lr, r0, lsl #14
    533c:	72730c00 	rsbsvc	r0, r3, #0, 24
    5340:	05010063 	streq	r0, [r1, #-99]	; 0xffffff9d
    5344:	0000017c 	andeq	r0, r0, ip, ror r1
    5348:	690d5101 	stmdbvs	sp, {r0, r8, ip, lr}
    534c:	5d060100 	stfpls	f0, [r6, #-0]
    5350:	e8000000 	stmda	r0, {}	; <UNPREDICTABLE>
    5354:	0000000e 	andeq	r0, r0, lr
    5358:	0072040e 	rsbseq	r0, r2, lr, lsl #8
    535c:	ea0f0000 	b	3c5364 <__DATA_END+0x3c3974>
    5360:	0100000b 	tsteq	r0, fp
    5364:	00005d0d 	andeq	r5, r0, sp, lsl #26
    5368:	0012f000 	andseq	pc, r2, r0
    536c:	00007800 	andeq	r7, r0, r0, lsl #16
    5370:	789c0100 	ldmvc	ip, {r8}
    5374:	10000002 	andne	r0, r0, r2
    5378:	00727473 	rsbseq	r7, r2, r3, ror r4
    537c:	02780e01 	rsbseq	r0, r8, #1, 28
    5380:	91030000 	mrsls	r0, (UNDEF: 3)
    5384:	b5117f8c 	ldrlt	r7, [r1, #-3980]	; 0xfffff074
    5388:	0100000a 	tsteq	r0, sl
    538c:	00005d0f 	andeq	r5, r0, pc, lsl #26
    5390:	00690d00 	rsbeq	r0, r9, r0, lsl #26
    5394:	005d1001 	subseq	r1, sp, r1
    5398:	0f070000 	svceq	0x00070000
    539c:	6a0d0000 	bvs	3453a4 <__DATA_END+0x3439b4>
    53a0:	5d110100 	ldfpls	f0, [r1, #-0]
    53a4:	67000000 	strvs	r0, [r0, -r0]
    53a8:	1200000f 	andne	r0, r0, #15
    53ac:	00000e78 	andeq	r0, r0, r8, ror lr
    53b0:	017c1201 	cmneq	ip, r1, lsl #4
    53b4:	0fa80000 	svceq	0x00a80000
    53b8:	a9130000 	ldmdbge	r3, {}	; <UNPREDICTABLE>
    53bc:	01000004 	tsteq	r0, r4
    53c0:	00005d35 	andeq	r5, r0, r5, lsr sp
    53c4:	0001ef00 	andeq	lr, r1, r0, lsl #30
    53c8:	15001400 	strne	r1, [r0, #-1024]	; 0xfffffc00
    53cc:	000012fe 	strdeq	r1, [r0], -lr
    53d0:	00000139 	andeq	r0, r0, r9, lsr r1
    53d4:	0000020c 	andeq	r0, r0, ip, lsl #4
    53d8:	02500116 	subseq	r0, r0, #-2147483643	; 0x80000005
    53dc:	01160076 	tsteq	r6, r6, ror r0
    53e0:	1e030551 	cfrshl32ne	mvfx3, mvfx1, r0
    53e4:	00000018 	andeq	r0, r0, r8, lsl r0
    53e8:	00130815 	andseq	r0, r3, r5, lsl r8
    53ec:	00013900 	andeq	r3, r1, r0, lsl #18
    53f0:	00022300 	andeq	r2, r2, r0, lsl #6
    53f4:	50011600 	andpl	r1, r1, r0, lsl #12
    53f8:	75007605 	strvc	r7, [r0, #-1541]	; 0xfffff9fb
    53fc:	17002200 	strne	r2, [r0, -r0, lsl #4]
    5400:	0000131a 	andeq	r1, r0, sl, lsl r3
    5404:	00000139 	andeq	r0, r0, r9, lsr r1
    5408:	00132e17 	andseq	r2, r3, r7, lsl lr
    540c:	00013900 	andeq	r3, r1, r0, lsl #18
    5410:	133e1500 	teqne	lr, #0, 10
    5414:	02930000 	addseq	r0, r3, #0
    5418:	02490000 	subeq	r0, r9, #0
    541c:	01160000 	tsteq	r6, r0
    5420:	00760250 	rsbseq	r0, r6, r0, asr r2
    5424:	13461500 	movtne	r1, #25856	; 0x6500
    5428:	029e0000 	addseq	r0, lr, #0
    542c:	025e0000 	subseq	r0, lr, #0
    5430:	01160000 	tsteq	r6, r0
    5434:	2c0a0350 	stccs	3, cr0, [sl], {80}	; 0x50
    5438:	4e180001 	cdpmi	0, 1, cr0, cr8, cr1, {0}
    543c:	93000013 	movwls	r0, #19
    5440:	16000002 	strne	r0, [r0], -r2
    5444:	03055001 	movweq	r5, #20481	; 0x5001
    5448:	00001838 	andeq	r1, r0, r8, lsr r8
    544c:	02510116 	subseq	r0, r1, #-2147483643	; 0x80000005
    5450:	00003d08 	andeq	r3, r0, r8, lsl #26
    5454:	00007204 	andeq	r7, r0, r4, lsl #4
    5458:	00028800 	andeq	r8, r2, r0, lsl #16
    545c:	006b0500 	rsbeq	r0, fp, r0, lsl #10
    5460:	00630000 	rsbeq	r0, r3, r0
    5464:	000c1219 	andeq	r1, ip, r9, lsl r2
    5468:	2e170200 	cdpcs	2, 1, cr0, cr7, cr0, {0}
    546c:	1a000001 	bne	5478 <__DATA_END+0x3a88>
    5470:	0000060e 	andeq	r0, r0, lr, lsl #12
    5474:	0000060e 	andeq	r0, r0, lr, lsl #12
    5478:	a91a2503 	ldmdbge	sl, {r0, r1, r8, sl, sp}
    547c:	a9000004 	stmdbge	r0, {r2}
    5480:	01000004 	tsteq	r0, r4
    5484:	00760035 	rsbseq	r0, r6, r5, lsr r0
    5488:	00020000 	andeq	r0, r2, r0
    548c:	00001609 	andeq	r1, r0, r9, lsl #12
    5490:	145c0104 	ldrbne	r0, [ip], #-260	; 0xfffffefc
    5494:	047c0000 	ldrbteq	r0, [ip], #-0
    5498:	04940000 	ldreq	r0, [r4], #0
    549c:	2e2e0000 	cdpcs	0, 2, cr0, cr14, cr0, {0}
    54a0:	736d632f 	cmnvc	sp, #-1140850688	; 0xbc000000
    54a4:	4d2f7369 	stcmi	3, cr7, [pc, #-420]!	; 5308 <__DATA_END+0x3918>
    54a8:	36324c4b 	ldrtcc	r4, [r2], -fp, asr #24
    54ac:	732f345a 	teqvc	pc, #1509949440	; 0x5a000000
    54b0:	74726174 	ldrbtvc	r6, [r2], #-372	; 0xfffffe8c
    54b4:	4d5f7075 	ldclmi	0, cr7, [pc, #-468]	; 52e8 <__DATA_END+0x38f8>
    54b8:	36324c4b 	ldrtcc	r4, [r2], -fp, asr #24
    54bc:	532e345a 	teqpl	lr, #1509949440	; 0x5a000000
    54c0:	6f682f00 	svcvs	0x00682f00
    54c4:	632f656d 	teqvs	pc, #457179136	; 0x1b400000
    54c8:	73697268 	cmnvc	r9, #104, 4	; 0x80000006
    54cc:	646f432f 	strbtvs	r4, [pc], #-815	; 54d4 <__DATA_END+0x3ae4>
    54d0:	50412f65 	subpl	r2, r1, r5, ror #30
    54d4:	6f445352 	svcvs	0x00445352
    54d8:	656c676e 	strbvs	r6, [ip, #-1902]!	; 0xfffff892
    54dc:	666f732f 	strbtvs	r7, [pc], -pc, lsr #6
    54e0:	72617774 	rsbvc	r7, r1, #116, 14	; 0x1d00000
    54e4:	616d2f65 	cmnvs	sp, r5, ror #30
    54e8:	6f426e69 	svcvs	0x00426e69
    54ec:	00647261 	rsbeq	r7, r4, r1, ror #4
    54f0:	20554e47 	subscs	r4, r5, r7, asr #28
    54f4:	32205341 	eorcc	r5, r0, #67108865	; 0x4000001
    54f8:	2e35322e 	cdpcs	2, 3, cr3, cr5, cr14, {1}
    54fc:	80010031 	andhi	r0, r1, r1, lsr r0

Disassembly of section .debug_abbrev:

00000000 <.debug_abbrev>:
       0:	25011101 	strcs	r1, [r1, #-257]	; 0xfffffeff
       4:	030b130e 	movweq	r1, #45838	; 0xb30e
       8:	550e1b0e 	strpl	r1, [lr, #-2830]	; 0xfffff4f2
       c:	10011117 	andne	r1, r1, r7, lsl r1
      10:	02000017 	andeq	r0, r0, #23
      14:	0b0b0024 	bleq	2c00ac <__DATA_END+0x2be6bc>
      18:	0e030b3e 	vmoveq.16	d3[0], r0
      1c:	16030000 	strne	r0, [r3], -r0
      20:	3a0e0300 	bcc	380c28 <__DATA_END+0x37f238>
      24:	490b3b0b 	stmdbmi	fp, {r0, r1, r3, r8, r9, fp, ip, sp}
      28:	04000013 	streq	r0, [r0], #-19	; 0xffffffed
      2c:	0b0b0024 	bleq	2c00c4 <__DATA_END+0x2be6d4>
      30:	08030b3e 	stmdaeq	r3, {r1, r2, r3, r4, r5, r8, r9, fp}
      34:	35050000 	strcc	r0, [r5, #-0]
      38:	00134900 	andseq	r4, r3, r0, lsl #18
      3c:	00260600 	eoreq	r0, r6, r0, lsl #12
      40:	00001349 	andeq	r1, r0, r9, asr #6
      44:	49010107 	stmdbmi	r1, {r0, r1, r2, r8}
      48:	00130113 	andseq	r0, r3, r3, lsl r1
      4c:	00210800 	eoreq	r0, r1, r0, lsl #16
      50:	0b2f1349 	bleq	bc4d7c <__DATA_END+0xbc338c>
      54:	13090000 	movwne	r0, #36864	; 0x9000
      58:	3a0b0b01 	bcc	2c2c64 <__DATA_END+0x2c1274>
      5c:	01053b0b 	tsteq	r5, fp, lsl #22
      60:	0a000013 	beq	b4 <M_VECTOR_RAM_SIZE+0xb4>
      64:	0803000d 	stmdaeq	r3, {r0, r2, r3}
      68:	053b0b3a 	ldreq	r0, [fp, #-2874]!	; 0xfffff4c6
      6c:	0b381349 	bleq	e04d98 <__DATA_END+0xe033a8>
      70:	0d0b0000 	stceq	0, cr0, [fp, #-0]
      74:	3a0e0300 	bcc	380c7c <__DATA_END+0x37f28c>
      78:	49053b0b 	stmdbmi	r5, {r0, r1, r3, r8, r9, fp, ip, sp}
      7c:	000b3813 	andeq	r3, fp, r3, lsl r8
      80:	00160c00 	andseq	r0, r6, r0, lsl #24
      84:	0b3a0e03 	bleq	e83898 <__DATA_END+0xe81ea8>
      88:	1349053b 	movtne	r0, #38203	; 0x953b
      8c:	130d0000 	movwne	r0, #53248	; 0xd000
      90:	3a050b01 	bcc	142c9c <__DATA_END+0x1412ac>
      94:	01053b0b 	tsteq	r5, fp, lsl #22
      98:	0e000013 	mcreq	0, 0, r0, cr0, cr3, {0}
      9c:	0e03000d 	cdpeq	0, 0, cr0, cr3, cr13, {0}
      a0:	053b0b3a 	ldreq	r0, [fp, #-2874]!	; 0xfffff4c6
      a4:	05381349 	ldreq	r1, [r8, #-841]!	; 0xfffffcb7
      a8:	210f0000 	mrscs	r0, CPSR
      ac:	2f134900 	svccs	0x00134900
      b0:	10000005 	andne	r0, r0, r5
      b4:	193f002e 	ldmdbne	pc!, {r1, r2, r3, r5}	; <UNPREDICTABLE>
      b8:	0b3a0e03 	bleq	e838cc <__DATA_END+0xe81edc>
      bc:	19270b3b 	stmdbne	r7!, {r0, r1, r3, r4, r5, r8, r9, fp}
      c0:	06120111 			; <UNDEFINED> instruction: 0x06120111
      c4:	42971840 	addsmi	r1, r7, #64, 16	; 0x400000
      c8:	11000019 	tstne	r0, r9, lsl r0
      cc:	193f012e 	ldmdbne	pc!, {r1, r2, r3, r5, r8}	; <UNPREDICTABLE>
      d0:	0b3a0e03 	bleq	e838e4 <__DATA_END+0xe81ef4>
      d4:	1927053b 	stmdbne	r7!, {r0, r1, r3, r4, r5, r8, sl}
      d8:	06120111 			; <UNDEFINED> instruction: 0x06120111
      dc:	42961840 	addsmi	r1, r6, #64, 16	; 0x400000
      e0:	00130119 	andseq	r0, r3, r9, lsl r1
      e4:	00341200 	eorseq	r1, r4, r0, lsl #4
      e8:	0b3a0e03 	bleq	e838fc <__DATA_END+0xe81f0c>
      ec:	1349053b 	movtne	r0, #38203	; 0x953b
      f0:	00001702 	andeq	r1, r0, r2, lsl #14
      f4:	03003413 	movweq	r3, #1043	; 0x413
      f8:	3b0b3a0e 	blcc	2ce938 <__DATA_END+0x2ccf48>
      fc:	3f13490b 	svccc	0x0013490b
     100:	00180219 	andseq	r0, r8, r9, lsl r2
     104:	11010000 	mrsne	r0, (UNDEF: 1)
     108:	130e2501 	movwne	r2, #58625	; 0xe501
     10c:	1b0e030b 	blne	380d40 <__DATA_END+0x37f350>
     110:	1117550e 	tstne	r7, lr, lsl #10
     114:	00171001 	andseq	r1, r7, r1
     118:	00240200 	eoreq	r0, r4, r0, lsl #4
     11c:	0b3e0b0b 	bleq	f82d50 <__DATA_END+0xf81360>
     120:	00000e03 	andeq	r0, r0, r3, lsl #28
     124:	03001603 	movweq	r1, #1539	; 0x603
     128:	3b0b3a0e 	blcc	2ce968 <__DATA_END+0x2ccf78>
     12c:	0013490b 	andseq	r4, r3, fp, lsl #18
     130:	00240400 	eoreq	r0, r4, r0, lsl #8
     134:	0b3e0b0b 	bleq	f82d68 <__DATA_END+0xf81378>
     138:	00000803 	andeq	r0, r0, r3, lsl #16
     13c:	0b011305 	bleq	44d58 <__DATA_END+0x43368>
     140:	3b0b3a0b 	blcc	2ce974 <__DATA_END+0x2ccf84>
     144:	00130105 	andseq	r0, r3, r5, lsl #2
     148:	000d0600 	andeq	r0, sp, r0, lsl #12
     14c:	0b3a0e03 	bleq	e83960 <__DATA_END+0xe81f70>
     150:	1349053b 	movtne	r0, #38203	; 0x953b
     154:	00000b38 	andeq	r0, r0, r8, lsr fp
     158:	03000d07 	movweq	r0, #3335	; 0xd07
     15c:	3b0b3a08 	blcc	2ce984 <__DATA_END+0x2ccf94>
     160:	38134905 	ldmdacc	r3, {r0, r2, r8, fp, lr}
     164:	0800000b 	stmdaeq	r0, {r0, r1, r3}
     168:	13490035 	movtne	r0, #36917	; 0x9035
     16c:	26090000 	strcs	r0, [r9], -r0
     170:	00134900 	andseq	r4, r3, r0, lsl #18
     174:	01010a00 	tsteq	r1, r0, lsl #20
     178:	13011349 	movwne	r1, #4937	; 0x1349
     17c:	210b0000 	mrscs	r0, (UNDEF: 11)
     180:	2f134900 	svccs	0x00134900
     184:	0c00000b 	stceq	0, cr0, [r0], {11}
     188:	0e030016 	mcreq	0, 0, r0, cr3, cr6, {0}
     18c:	053b0b3a 	ldreq	r0, [fp, #-2874]!	; 0xfffff4c6
     190:	00001349 	andeq	r1, r0, r9, asr #6
     194:	3f012e0d 	svccc	0x00012e0d
     198:	3a0e0319 	bcc	380e04 <__DATA_END+0x37f414>
     19c:	270b3b0b 	strcs	r3, [fp, -fp, lsl #22]
     1a0:	12011119 	andne	r1, r1, #1073741830	; 0x40000006
     1a4:	97184006 	ldrls	r4, [r8, -r6]
     1a8:	13011942 	movwne	r1, #6466	; 0x1942
     1ac:	340e0000 	strcc	r0, [lr], #-0
     1b0:	3a080300 	bcc	200db8 <__DATA_END+0x1ff3c8>
     1b4:	490b3b0b 	stmdbmi	fp, {r0, r1, r3, r8, r9, fp, ip, sp}
     1b8:	00170213 	andseq	r0, r7, r3, lsl r2
     1bc:	00340f00 	eorseq	r0, r4, r0, lsl #30
     1c0:	0b3a0e03 	bleq	e839d4 <__DATA_END+0xe81fe4>
     1c4:	13490b3b 	movtne	r0, #39739	; 0x9b3b
     1c8:	193c193f 	ldmdbne	ip!, {r0, r1, r2, r3, r4, r5, r8, fp, ip}
     1cc:	34100000 	ldrcc	r0, [r0], #-0
     1d0:	3a0e0300 	bcc	380dd8 <__DATA_END+0x37f3e8>
     1d4:	490b3b0b 	stmdbmi	fp, {r0, r1, r3, r8, r9, fp, ip, sp}
     1d8:	11000013 	tstne	r0, r3, lsl r0
     1dc:	00000021 	andeq	r0, r0, r1, lsr #32
     1e0:	0b000f12 	bleq	3e30 <__DATA_END+0x2440>
     1e4:	0013490b 	andseq	r4, r3, fp, lsl #18
     1e8:	11010000 	mrsne	r0, (UNDEF: 1)
     1ec:	130e2501 	movwne	r2, #58625	; 0xe501
     1f0:	1b0e030b 	blne	380e24 <__DATA_END+0x37f434>
     1f4:	1117550e 	tstne	r7, lr, lsl #10
     1f8:	00171001 	andseq	r1, r7, r1
     1fc:	00240200 	eoreq	r0, r4, r0, lsl #4
     200:	0b3e0b0b 	bleq	f82e34 <__DATA_END+0xf81444>
     204:	00000e03 	andeq	r0, r0, r3, lsl #28
     208:	0b002403 	bleq	921c <__DATA_END+0x782c>
     20c:	030b3e0b 	movweq	r3, #48651	; 0xbe0b
     210:	04000008 	streq	r0, [r0], #-8
     214:	0b0b0113 	bleq	2c0668 <__DATA_END+0x2bec78>
     218:	0b3b0b3a 	bleq	ec2f08 <__DATA_END+0xec1518>
     21c:	00001301 	andeq	r1, r0, r1, lsl #6
     220:	03000d05 	movweq	r0, #3333	; 0xd05
     224:	3b0b3a0e 	blcc	2cea64 <__DATA_END+0x2cd074>
     228:	3813490b 	ldmdacc	r3, {r0, r1, r3, r8, fp, lr}
     22c:	0600000b 	streq	r0, [r0], -fp
     230:	13490101 	movtne	r0, #37121	; 0x9101
     234:	00001301 	andeq	r1, r0, r1, lsl #6
     238:	49002107 	stmdbmi	r0, {r0, r1, r2, r8, sp}
     23c:	000b2f13 	andeq	r2, fp, r3, lsl pc
     240:	00160800 	andseq	r0, r6, r0, lsl #16
     244:	0b3a0e03 	bleq	e83a58 <__DATA_END+0xe82068>
     248:	13490b3b 	movtne	r0, #39739	; 0x9b3b
     24c:	2e090000 	cdpcs	0, 0, cr0, cr9, cr0, {0}
     250:	03193f01 	tsteq	r9, #1, 30
     254:	3b0b3a0e 	blcc	2cea94 <__DATA_END+0x2cd0a4>
     258:	4919270b 	ldmdbmi	r9, {r0, r1, r3, r8, r9, sl, sp}
     25c:	12011113 	andne	r1, r1, #-1073741820	; 0xc0000004
     260:	97184006 	ldrls	r4, [r8, -r6]
     264:	13011942 	movwne	r1, #6466	; 0x1942
     268:	050a0000 	streq	r0, [sl, #-0]
     26c:	3a080300 	bcc	200e74 <__DATA_END+0x1ff484>
     270:	490b3b0b 	stmdbmi	fp, {r0, r1, r3, r8, r9, fp, ip, sp}
     274:	00170213 	andseq	r0, r7, r3, lsl r2
     278:	00050b00 	andeq	r0, r5, r0, lsl #22
     27c:	0b3a0803 	bleq	e82290 <__DATA_END+0xe808a0>
     280:	13490b3b 	movtne	r0, #39739	; 0x9b3b
     284:	00001802 	andeq	r1, r0, r2, lsl #16
     288:	0b000f0c 	bleq	3ec0 <__DATA_END+0x24d0>
     28c:	0013490b 	andseq	r4, r3, fp, lsl #18
     290:	00350d00 	eorseq	r0, r5, r0, lsl #26
     294:	00001349 	andeq	r1, r0, r9, asr #6
     298:	0300340e 	movweq	r3, #1038	; 0x40e
     29c:	3b0b3a08 	blcc	2ceac4 <__DATA_END+0x2cd0d4>
     2a0:	0213490b 	andseq	r4, r3, #180224	; 0x2c000
     2a4:	0f000017 	svceq	0x00000017
     2a8:	08030034 	stmdaeq	r3, {r2, r4, r5}
     2ac:	0b3b0b3a 	bleq	ec2f9c <__DATA_END+0xec15ac>
     2b0:	18021349 	stmdane	r2, {r0, r3, r6, r8, r9, ip}
     2b4:	89100000 	ldmdbhi	r0, {}	; <UNPREDICTABLE>
     2b8:	11010182 	smlabbne	r1, r2, r1, r0
     2bc:	01133101 	tsteq	r3, r1, lsl #2
     2c0:	11000013 	tstne	r0, r3, lsl r0
     2c4:	0001828a 	andeq	r8, r1, sl, lsl #5
     2c8:	42911802 	addsmi	r1, r1, #131072	; 0x20000
     2cc:	12000018 	andne	r0, r0, #24
     2d0:	01018289 	smlabbeq	r1, r9, r2, r8
     2d4:	13310111 	teqne	r1, #1073741828	; 0x40000004
     2d8:	2e130000 	cdpcs	0, 1, cr0, cr3, cr0, {0}
     2dc:	3c193f00 	ldccc	15, cr3, [r9], {-0}
     2e0:	030e6e19 	movweq	r6, #60953	; 0xee19
     2e4:	3b0b3a0e 	blcc	2ceb24 <__DATA_END+0x2cd134>
     2e8:	0000000b 	andeq	r0, r0, fp
     2ec:	25011101 	strcs	r1, [r1, #-257]	; 0xfffffeff
     2f0:	030b130e 	movweq	r1, #45838	; 0xb30e
     2f4:	550e1b0e 	strpl	r1, [lr, #-2830]	; 0xfffff4f2
     2f8:	10011117 	andne	r1, r1, r7, lsl r1
     2fc:	02000017 	andeq	r0, r0, #23
     300:	0b0b0024 	bleq	2c0398 <__DATA_END+0x2be9a8>
     304:	0e030b3e 	vmoveq.16	d3[0], r0
     308:	16030000 	strne	r0, [r3], -r0
     30c:	3a0e0300 	bcc	380f14 <__DATA_END+0x37f524>
     310:	490b3b0b 	stmdbmi	fp, {r0, r1, r3, r8, r9, fp, ip, sp}
     314:	04000013 	streq	r0, [r0], #-19	; 0xffffffed
     318:	0b0b0024 	bleq	2c03b0 <__DATA_END+0x2be9c0>
     31c:	08030b3e 	stmdaeq	r3, {r1, r2, r3, r4, r5, r8, r9, fp}
     320:	35050000 	strcc	r0, [r5, #-0]
     324:	00134900 	andseq	r4, r3, r0, lsl #18
     328:	00260600 	eoreq	r0, r6, r0, lsl #12
     32c:	00001349 	andeq	r1, r0, r9, asr #6
     330:	49010107 	stmdbmi	r1, {r0, r1, r2, r8}
     334:	00130113 	andseq	r0, r3, r3, lsl r1
     338:	00210800 	eoreq	r0, r1, r0, lsl #16
     33c:	0b2f1349 	bleq	bc5068 <__DATA_END+0xbc3678>
     340:	13090000 	movwne	r0, #36864	; 0x9000
     344:	3a0b0b01 	bcc	2c2f50 <__DATA_END+0x2c1560>
     348:	01053b0b 	tsteq	r5, fp, lsl #22
     34c:	0a000013 	beq	3a0 <M_VECTOR_RAM_SIZE+0x3a0>
     350:	0e03000d 	cdpeq	0, 0, cr0, cr3, cr13, {0}
     354:	053b0b3a 	ldreq	r0, [fp, #-2874]!	; 0xfffff4c6
     358:	0b381349 	bleq	e05084 <__DATA_END+0xe03694>
     35c:	130b0000 	movwne	r0, #45056	; 0xb000
     360:	3a050b01 	bcc	142f6c <__DATA_END+0x14157c>
     364:	01053b0b 	tsteq	r5, fp, lsl #22
     368:	0c000013 	stceq	0, cr0, [r0], {19}
     36c:	0803000d 	stmdaeq	r3, {r0, r2, r3}
     370:	053b0b3a 	ldreq	r0, [fp, #-2874]!	; 0xfffff4c6
     374:	0b381349 	bleq	e050a0 <__DATA_END+0xe036b0>
     378:	0d0d0000 	stceq	0, cr0, [sp, #-0]
     37c:	3a0e0300 	bcc	380f84 <__DATA_END+0x37f594>
     380:	49053b0b 	stmdbmi	r5, {r0, r1, r3, r8, r9, fp, ip, sp}
     384:	00053813 	andeq	r3, r5, r3, lsl r8
     388:	00160e00 	andseq	r0, r6, r0, lsl #28
     38c:	0b3a0e03 	bleq	e83ba0 <__DATA_END+0xe821b0>
     390:	1349053b 	movtne	r0, #38203	; 0x953b
     394:	210f0000 	mrscs	r0, CPSR
     398:	2f134900 	svccs	0x00134900
     39c:	10000005 	andne	r0, r0, r5
     3a0:	193f002e 	ldmdbne	pc!, {r1, r2, r3, r5}	; <UNPREDICTABLE>
     3a4:	0b3a0e03 	bleq	e83bb8 <__DATA_END+0xe821c8>
     3a8:	19270b3b 	stmdbne	r7!, {r0, r1, r3, r4, r5, r8, r9, fp}
     3ac:	00000b20 	andeq	r0, r0, r0, lsr #22
     3b0:	31012e11 	tstcc	r1, r1, lsl lr
     3b4:	12011113 	andne	r1, r1, #-1073741820	; 0xc0000004
     3b8:	97184006 	ldrls	r4, [r8, -r6]
     3bc:	13011942 	movwne	r1, #6466	; 0x1942
     3c0:	89120000 	ldmdbhi	r2, {}	; <UNPREDICTABLE>
     3c4:	11000182 	smlabbne	r0, r2, r1, r0
     3c8:	00133101 	andseq	r3, r3, r1, lsl #2
     3cc:	002e1300 	eoreq	r1, lr, r0, lsl #6
     3d0:	0e03193f 	mcreq	9, 0, r1, cr3, cr15, {1}
     3d4:	0b3b0b3a 	bleq	ec30c4 <__DATA_END+0xec16d4>
     3d8:	13491927 	movtne	r1, #39207	; 0x9927
     3dc:	06120111 			; <UNDEFINED> instruction: 0x06120111
     3e0:	42971840 	addsmi	r1, r7, #64, 16	; 0x400000
     3e4:	14000019 	strne	r0, [r0], #-25	; 0xffffffe7
     3e8:	193f012e 	ldmdbne	pc!, {r1, r2, r3, r5, r8}	; <UNPREDICTABLE>
     3ec:	0b3a0e03 	bleq	e83c00 <__DATA_END+0xe82210>
     3f0:	19270b3b 	stmdbne	r7!, {r0, r1, r3, r4, r5, r8, r9, fp}
     3f4:	06120111 			; <UNDEFINED> instruction: 0x06120111
     3f8:	42971840 	addsmi	r1, r7, #64, 16	; 0x400000
     3fc:	00130119 	andseq	r0, r3, r9, lsl r1
     400:	82891500 	addhi	r1, r9, #0, 10
     404:	01110101 	tsteq	r1, r1, lsl #2
     408:	00001331 	andeq	r1, r0, r1, lsr r3
     40c:	01828a16 	orreq	r8, r2, r6, lsl sl
     410:	91180200 	tstls	r8, r0, lsl #4
     414:	00001842 	andeq	r1, r0, r2, asr #16
     418:	3f012e17 	svccc	0x00012e17
     41c:	3a0e0319 	bcc	381088 <__DATA_END+0x37f698>
     420:	270b3b0b 	strcs	r3, [fp, -fp, lsl #22]
     424:	11134919 	tstne	r3, r9, lsl r9
     428:	40061201 	andmi	r1, r6, r1, lsl #4
     42c:	19429718 	stmdbne	r2, {r3, r4, r8, r9, sl, ip, pc}^
     430:	00001301 	andeq	r1, r0, r1, lsl #6
     434:	03000518 	movweq	r0, #1304	; 0x518
     438:	3b0b3a0e 	blcc	2cec78 <__DATA_END+0x2cd288>
     43c:	0213490b 	andseq	r4, r3, #180224	; 0x2c000
     440:	19000017 	stmdbne	r0, {r0, r1, r2, r4}
     444:	08030005 	stmdaeq	r3, {r0, r2}
     448:	0b3b0b3a 	bleq	ec3138 <__DATA_END+0xec1748>
     44c:	17021349 	strne	r1, [r2, -r9, asr #6]
     450:	341a0000 	ldrcc	r0, [sl], #-0
     454:	3a0e0300 	bcc	38105c <__DATA_END+0x37f66c>
     458:	490b3b0b 	stmdbmi	fp, {r0, r1, r3, r8, r9, fp, ip, sp}
     45c:	00170213 	andseq	r0, r7, r3, lsl r2
     460:	012e1b00 	teqeq	lr, r0, lsl #22
     464:	0e03193f 	mcreq	9, 0, r1, cr3, cr15, {1}
     468:	0b3b0b3a 	bleq	ec3158 <__DATA_END+0xec1768>
     46c:	193c1349 	ldmdbne	ip!, {r0, r3, r6, r8, r9, ip}
     470:	00001301 	andeq	r1, r0, r1, lsl #6
     474:	0000181c 	andeq	r1, r0, ip, lsl r8
     478:	82891d00 	addhi	r1, r9, #0, 26
     47c:	01110101 	tsteq	r1, r1, lsl #2
     480:	13011331 	movwne	r1, #4913	; 0x1331
     484:	0f1e0000 	svceq	0x001e0000
     488:	490b0b00 	stmdbmi	fp, {r8, r9, fp}
     48c:	1f000013 	svcne	0x00000013
     490:	193f002e 	ldmdbne	pc!, {r1, r2, r3, r5}	; <UNPREDICTABLE>
     494:	0b3a0e03 	bleq	e83ca8 <__DATA_END+0xe822b8>
     498:	19270b3b 	stmdbne	r7!, {r0, r1, r3, r4, r5, r8, r9, fp}
     49c:	06120111 			; <UNDEFINED> instruction: 0x06120111
     4a0:	42971840 	addsmi	r1, r7, #64, 16	; 0x400000
     4a4:	20000019 	andcs	r0, r0, r9, lsl r0
     4a8:	0e030034 	mcreq	0, 0, r0, cr3, cr4, {1}
     4ac:	0b3b0b3a 	bleq	ec319c <__DATA_END+0xec17ac>
     4b0:	193f1349 	ldmdbne	pc!, {r0, r3, r6, r8, r9, ip}	; <UNPREDICTABLE>
     4b4:	0000193c 	andeq	r1, r0, ip, lsr r9
     4b8:	03003421 	movweq	r3, #1057	; 0x421
     4bc:	3b0b3a0e 	blcc	2cecfc <__DATA_END+0x2cd30c>
     4c0:	3f13490b 	svccc	0x0013490b
     4c4:	00180219 	andseq	r0, r8, r9, lsl r2
     4c8:	002e2200 	eoreq	r2, lr, r0, lsl #4
     4cc:	193c193f 	ldmdbne	ip!, {r0, r1, r2, r3, r4, r5, r8, fp, ip}
     4d0:	0e030e6e 	cdpeq	14, 0, cr0, cr3, cr14, {3}
     4d4:	0b3b0b3a 	bleq	ec31c4 <__DATA_END+0xec17d4>
     4d8:	01000000 	mrseq	r0, (UNDEF: 0)
     4dc:	0e250111 	mcreq	1, 1, r0, cr5, cr1, {0}
     4e0:	0e030b13 	vmoveq.32	d3[0], r0
     4e4:	17550e1b 	smmlane	r5, fp, lr, r0
     4e8:	17100111 			; <UNDEFINED> instruction: 0x17100111
     4ec:	24020000 	strcs	r0, [r2], #-0
     4f0:	3e0b0b00 	vmlacc.f64	d0, d11, d0
     4f4:	000e030b 	andeq	r0, lr, fp, lsl #6
     4f8:	00160300 	andseq	r0, r6, r0, lsl #6
     4fc:	0b3a0e03 	bleq	e83d10 <__DATA_END+0xe82320>
     500:	13490b3b 	movtne	r0, #39739	; 0x9b3b
     504:	24040000 	strcs	r0, [r4], #-0
     508:	3e0b0b00 	vmlacc.f64	d0, d11, d0
     50c:	0008030b 	andeq	r0, r8, fp, lsl #6
     510:	00350500 	eorseq	r0, r5, r0, lsl #10
     514:	00001349 	andeq	r1, r0, r9, asr #6
     518:	49002606 	stmdbmi	r0, {r1, r2, r9, sl, sp}
     51c:	07000013 	smladeq	r0, r3, r0, r0
     520:	0b0b0113 	bleq	2c0974 <__DATA_END+0x2bef84>
     524:	053b0b3a 	ldreq	r0, [fp, #-2874]!	; 0xfffff4c6
     528:	00001301 	andeq	r1, r0, r1, lsl #6
     52c:	03000d08 	movweq	r0, #3336	; 0xd08
     530:	3b0b3a0e 	blcc	2ced70 <__DATA_END+0x2cd380>
     534:	38134905 	ldmdacc	r3, {r0, r2, r8, fp, lr}
     538:	0900000b 	stmdbeq	r0, {r0, r1, r3}
     53c:	0e030016 	mcreq	0, 0, r0, cr3, cr6, {0}
     540:	053b0b3a 	ldreq	r0, [fp, #-2874]!	; 0xfffff4c6
     544:	00001349 	andeq	r1, r0, r9, asr #6
     548:	3f012e0a 	svccc	0x00012e0a
     54c:	3a0e0319 	bcc	3811b8 <__DATA_END+0x37f7c8>
     550:	270b3b0b 	strcs	r3, [fp, -fp, lsl #22]
     554:	12011119 	andne	r1, r1, #1073741830	; 0x40000006
     558:	97184006 	ldrls	r4, [r8, -r6]
     55c:	13011942 	movwne	r1, #6466	; 0x1942
     560:	890b0000 	stmdbhi	fp, {}	; <UNPREDICTABLE>
     564:	11000182 	smlabbne	r0, r2, r1, r0
     568:	00133101 	andseq	r3, r3, r1, lsl #2
     56c:	00050c00 	andeq	r0, r5, r0, lsl #24
     570:	0b3a0e03 	bleq	e83d84 <__DATA_END+0xe82394>
     574:	13490b3b 	movtne	r0, #39739	; 0x9b3b
     578:	00001702 	andeq	r1, r0, r2, lsl #14
     57c:	0300340d 	movweq	r3, #1037	; 0x40d
     580:	3b0b3a0e 	blcc	2cedc0 <__DATA_END+0x2cd3d0>
     584:	0013490b 	andseq	r4, r3, fp, lsl #18
     588:	82890e00 	addhi	r0, r9, #0, 28
     58c:	01110101 	tsteq	r1, r1, lsl #2
     590:	13011331 	movwne	r1, #4913	; 0x1331
     594:	8a0f0000 	bhi	3c059c <__DATA_END+0x3bebac>
     598:	02000182 	andeq	r0, r0, #-2147483616	; 0x80000020
     59c:	18429118 	stmdane	r2, {r3, r4, r8, ip, pc}^
     5a0:	2e100000 	cdpcs	0, 1, cr0, cr0, cr0, {0}
     5a4:	03193f01 	tsteq	r9, #1, 30
     5a8:	3b0b3a0e 	blcc	2cede8 <__DATA_END+0x2cd3f8>
     5ac:	4919270b 	ldmdbmi	r9, {r0, r1, r3, r8, r9, sl, sp}
     5b0:	12011113 	andne	r1, r1, #-1073741820	; 0xc0000004
     5b4:	97184006 	ldrls	r4, [r8, -r6]
     5b8:	13011942 	movwne	r1, #6466	; 0x1942
     5bc:	05110000 	ldreq	r0, [r1, #-0]
     5c0:	3a080300 	bcc	2011c8 <__DATA_END+0x1ff7d8>
     5c4:	490b3b0b 	stmdbmi	fp, {r0, r1, r3, r8, r9, fp, ip, sp}
     5c8:	00170213 	andseq	r0, r7, r3, lsl r2
     5cc:	00341200 	eorseq	r1, r4, r0, lsl #4
     5d0:	0b3a0e03 	bleq	e83de4 <__DATA_END+0xe823f4>
     5d4:	13490b3b 	movtne	r0, #39739	; 0x9b3b
     5d8:	00001702 	andeq	r1, r0, r2, lsl #14
     5dc:	01828913 	orreq	r8, r2, r3, lsl r9
     5e0:	31011101 	tstcc	r1, r1, lsl #2
     5e4:	14000013 	strne	r0, [r0], #-19	; 0xffffffed
     5e8:	0b0b000f 	bleq	2c062c <__DATA_END+0x2bec3c>
     5ec:	00001349 	andeq	r1, r0, r9, asr #6
     5f0:	49010115 	stmdbmi	r1, {r0, r2, r4, r8}
     5f4:	00130113 	andseq	r0, r3, r3, lsl r1
     5f8:	00211600 	eoreq	r1, r1, r0, lsl #12
     5fc:	0b2f1349 	bleq	bc5328 <__DATA_END+0xbc3938>
     600:	34170000 	ldrcc	r0, [r7], #-0
     604:	3a0e0300 	bcc	38120c <__DATA_END+0x37f81c>
     608:	490b3b0b 	stmdbmi	fp, {r0, r1, r3, r8, r9, fp, ip, sp}
     60c:	3c193f13 	ldccc	15, cr3, [r9], {19}
     610:	18000019 	stmdane	r0, {r0, r3, r4}
     614:	0e030034 	mcreq	0, 0, r0, cr3, cr4, {1}
     618:	0b3b0b3a 	bleq	ec3308 <__DATA_END+0xec1918>
     61c:	193f1349 	ldmdbne	pc!, {r0, r3, r6, r8, r9, ip}	; <UNPREDICTABLE>
     620:	00001802 	andeq	r1, r0, r2, lsl #16
     624:	3f002e19 	svccc	0x00002e19
     628:	6e193c19 	mrcvs	12, 0, r3, cr9, cr9, {0}
     62c:	3a0e030e 	bcc	38126c <__DATA_END+0x37f87c>
     630:	000b3b0b 	andeq	r3, fp, fp, lsl #22
     634:	11010000 	mrsne	r0, (UNDEF: 1)
     638:	130e2501 	movwne	r2, #58625	; 0xe501
     63c:	1b0e030b 	blne	381270 <__DATA_END+0x37f880>
     640:	1117550e 	tstne	r7, lr, lsl #10
     644:	00171001 	andseq	r1, r7, r1
     648:	00240200 	eoreq	r0, r4, r0, lsl #4
     64c:	0b3e0b0b 	bleq	f83280 <__DATA_END+0xf81890>
     650:	00000e03 	andeq	r0, r0, r3, lsl #28
     654:	03001603 	movweq	r1, #1539	; 0x603
     658:	3b0b3a0e 	blcc	2cee98 <__DATA_END+0x2cd4a8>
     65c:	0013490b 	andseq	r4, r3, fp, lsl #18
     660:	00240400 	eoreq	r0, r4, r0, lsl #8
     664:	0b3e0b0b 	bleq	f83298 <__DATA_END+0xf818a8>
     668:	00000803 	andeq	r0, r0, r3, lsl #16
     66c:	03010405 	movweq	r0, #5125	; 0x1405
     670:	490b0b0e 	stmdbmi	fp, {r1, r2, r3, r8, r9, fp}
     674:	3b0b3a13 	blcc	2ceec8 <__DATA_END+0x2cd4d8>
     678:	0013010b 	andseq	r0, r3, fp, lsl #2
     67c:	00280600 	eoreq	r0, r8, r0, lsl #12
     680:	0d1c0e03 	ldceq	14, cr0, [ip, #-12]
     684:	28070000 	stmdacs	r7, {}	; <UNPREDICTABLE>
     688:	1c0e0300 	stcne	3, cr0, [lr], {-0}
     68c:	0800000b 	stmdaeq	r0, {r0, r1, r3}
     690:	050b0113 	streq	r0, [fp, #-275]	; 0xfffffeed
     694:	053b0b3a 	ldreq	r0, [fp, #-2874]!	; 0xfffff4c6
     698:	00001301 	andeq	r1, r0, r1, lsl #6
     69c:	03000d09 	movweq	r0, #3337	; 0xd09
     6a0:	3b0b3a0e 	blcc	2ceee0 <__DATA_END+0x2cd4f0>
     6a4:	38134905 	ldmdacc	r3, {r0, r2, r8, fp, lr}
     6a8:	0a00000b 	beq	6dc <ax25IntSend+0x34>
     6ac:	0e03000d 	cdpeq	0, 0, cr0, cr3, cr13, {0}
     6b0:	053b0b3a 	ldreq	r0, [fp, #-2874]!	; 0xfffff4c6
     6b4:	05381349 	ldreq	r1, [r8, #-841]!	; 0xfffffcb7
     6b8:	0d0b0000 	stceq	0, cr0, [fp, #-0]
     6bc:	3a080300 	bcc	2012c4 <__DATA_END+0x1ff8d4>
     6c0:	49053b0b 	stmdbmi	r5, {r0, r1, r3, r8, r9, fp, ip, sp}
     6c4:	00053813 	andeq	r3, r5, r3, lsl r8
     6c8:	01010c00 	tsteq	r1, r0, lsl #24
     6cc:	13011349 	movwne	r1, #4937	; 0x1349
     6d0:	210d0000 	mrscs	r0, (UNDEF: 13)
     6d4:	2f134900 	svccs	0x00134900
     6d8:	0e00000b 	cdpeq	0, 0, cr0, cr0, cr11, {0}
     6dc:	13490035 	movtne	r0, #36917	; 0x9035
     6e0:	160f0000 	strne	r0, [pc], -r0
     6e4:	3a0e0300 	bcc	3812ec <__DATA_END+0x37f8fc>
     6e8:	49053b0b 	stmdbmi	r5, {r0, r1, r3, r8, r9, fp, ip, sp}
     6ec:	10000013 	andne	r0, r0, r3, lsl r0
     6f0:	13490026 	movtne	r0, #36902	; 0x9026
     6f4:	13110000 	tstne	r1, #0
     6f8:	3a0b0b01 	bcc	2c3304 <__DATA_END+0x2c1914>
     6fc:	01053b0b 	tsteq	r5, fp, lsl #22
     700:	12000013 	andne	r0, r0, #19
     704:	0803000d 	stmdaeq	r3, {r0, r2, r3}
     708:	053b0b3a 	ldreq	r0, [fp, #-2874]!	; 0xfffff4c6
     70c:	0b381349 	bleq	e05438 <__DATA_END+0xe03a48>
     710:	21130000 	tstcs	r3, r0
     714:	2f134900 	svccs	0x00134900
     718:	14000005 	strne	r0, [r0], #-5
     71c:	0b0b0113 	bleq	2c0b70 <__DATA_END+0x2bf180>
     720:	0b3b0b3a 	bleq	ec3410 <__DATA_END+0xec1a20>
     724:	00001301 	andeq	r1, r0, r1, lsl #6
     728:	03000d15 	movweq	r0, #3349	; 0xd15
     72c:	3b0b3a0e 	blcc	2cef6c <__DATA_END+0x2cd57c>
     730:	3813490b 	ldmdacc	r3, {r0, r1, r3, r8, fp, lr}
     734:	1600000b 	strne	r0, [r0], -fp
     738:	19270015 	stmdbne	r7!, {r0, r2, r4}
     73c:	0f170000 	svceq	0x00170000
     740:	490b0b00 	stmdbmi	fp, {r8, r9, fp}
     744:	18000013 	stmdane	r0, {r0, r1, r4}
     748:	0e03002e 	cdpeq	0, 0, cr0, cr3, cr14, {1}
     74c:	053b0b3a 	ldreq	r0, [fp, #-2874]!	; 0xfffff4c6
     750:	0b201927 	bleq	806bf4 <__DATA_END+0x805204>
     754:	2e190000 	cdpcs	0, 1, cr0, cr9, cr0, {0}
     758:	3a0e0301 	bcc	381364 <__DATA_END+0x37f974>
     75c:	27053b0b 	strcs	r3, [r5, -fp, lsl #22]
     760:	010b2019 	tsteq	fp, r9, lsl r0
     764:	1a000013 	bne	7b8 <ax25ChangeBit+0x60>
     768:	0e030005 	cdpeq	0, 0, cr0, cr3, cr5, {0}
     76c:	053b0b3a 	ldreq	r0, [fp, #-2874]!	; 0xfffff4c6
     770:	00001349 	andeq	r1, r0, r9, asr #6
     774:	3f012e1b 	svccc	0x00012e1b
     778:	3a0e0319 	bcc	3813e4 <__DATA_END+0x37f9f4>
     77c:	270b3b0b 	strcs	r3, [fp, -fp, lsl #22]
     780:	12011119 	andne	r1, r1, #1073741830	; 0x40000006
     784:	97184006 	ldrls	r4, [r8, -r6]
     788:	13011942 	movwne	r1, #6466	; 0x1942
     78c:	051c0000 	ldreq	r0, [ip, #-0]
     790:	3a0e0300 	bcc	381398 <__DATA_END+0x37f9a8>
     794:	490b3b0b 	stmdbmi	fp, {r0, r1, r3, r8, r9, fp, ip, sp}
     798:	00170213 	andseq	r0, r7, r3, lsl r2
     79c:	011d1d00 	tsteq	sp, r0, lsl #26
     7a0:	01111331 	tsteq	r1, r1, lsr r3
     7a4:	0b580612 	bleq	1601ff4 <__DATA_END+0x1600604>
     7a8:	13010b59 	movwne	r0, #7001	; 0x1b59
     7ac:	051e0000 	ldreq	r0, [lr, #-0]
     7b0:	1c133100 	ldfnes	f3, [r3], {-0}
     7b4:	1f00000b 	svcne	0x0000000b
     7b8:	1331001d 	teqne	r1, #29
     7bc:	06120111 			; <UNDEFINED> instruction: 0x06120111
     7c0:	0b590b58 	bleq	1643528 <__DATA_END+0x1641b38>
     7c4:	2e200000 	cdpcs	0, 2, cr0, cr0, cr0, {0}
     7c8:	03193f00 	tsteq	r9, #0, 30
     7cc:	3b0b3a0e 	blcc	2cf00c <__DATA_END+0x2cd61c>
     7d0:	1119270b 	tstne	r9, fp, lsl #14
     7d4:	40061201 	andmi	r1, r6, r1, lsl #4
     7d8:	19429718 	stmdbne	r2, {r3, r4, r8, r9, sl, ip, pc}^
     7dc:	2e210000 	cdpcs	0, 2, cr0, cr1, cr0, {0}
     7e0:	03193f01 	tsteq	r9, #1, 30
     7e4:	3b0b3a0e 	blcc	2cf024 <__DATA_END+0x2cd634>
     7e8:	1119270b 	tstne	r9, fp, lsl #14
     7ec:	40061201 	andmi	r1, r6, r1, lsl #4
     7f0:	19429618 	stmdbne	r2, {r3, r4, r9, sl, ip, pc}^
     7f4:	00001301 	andeq	r1, r0, r1, lsl #6
     7f8:	03003422 	movweq	r3, #1058	; 0x422
     7fc:	3b0b3a0e 	blcc	2cf03c <__DATA_END+0x2cd64c>
     800:	3f13490b 	svccc	0x0013490b
     804:	00180219 	andseq	r0, r8, r9, lsl r2
     808:	11010000 	mrsne	r0, (UNDEF: 1)
     80c:	130e2501 	movwne	r2, #58625	; 0xe501
     810:	1b0e030b 	blne	381444 <__DATA_END+0x37fa54>
     814:	1117550e 	tstne	r7, lr, lsl #10
     818:	00171001 	andseq	r1, r7, r1
     81c:	00240200 	eoreq	r0, r4, r0, lsl #4
     820:	0b3e0b0b 	bleq	f83454 <__DATA_END+0xf81a64>
     824:	00000e03 	andeq	r0, r0, r3, lsl #28
     828:	03001603 	movweq	r1, #1539	; 0x603
     82c:	3b0b3a0e 	blcc	2cf06c <__DATA_END+0x2cd67c>
     830:	0013490b 	andseq	r4, r3, fp, lsl #18
     834:	00240400 	eoreq	r0, r4, r0, lsl #8
     838:	0b3e0b0b 	bleq	f8346c <__DATA_END+0xf81a7c>
     83c:	00000803 	andeq	r0, r0, r3, lsl #16
     840:	03010405 	movweq	r0, #5125	; 0x1405
     844:	490b0b0e 	stmdbmi	fp, {r1, r2, r3, r8, r9, fp}
     848:	3b0b3a13 	blcc	2cf09c <__DATA_END+0x2cd6ac>
     84c:	0013010b 	andseq	r0, r3, fp, lsl #2
     850:	00280600 	eoreq	r0, r8, r0, lsl #12
     854:	0d1c0e03 	ldceq	14, cr0, [ip, #-12]
     858:	28070000 	stmdacs	r7, {}	; <UNPREDICTABLE>
     85c:	1c0e0300 	stcne	3, cr0, [lr], {-0}
     860:	0800000b 	stmdaeq	r0, {r0, r1, r3}
     864:	050b0113 	streq	r0, [fp, #-275]	; 0xfffffeed
     868:	053b0b3a 	ldreq	r0, [fp, #-2874]!	; 0xfffff4c6
     86c:	00001301 	andeq	r1, r0, r1, lsl #6
     870:	03000d09 	movweq	r0, #3337	; 0xd09
     874:	3b0b3a0e 	blcc	2cf0b4 <__DATA_END+0x2cd6c4>
     878:	38134905 	ldmdacc	r3, {r0, r2, r8, fp, lr}
     87c:	0a00000b 	beq	8b0 <cwSend+0x30>
     880:	0e03000d 	cdpeq	0, 0, cr0, cr3, cr13, {0}
     884:	053b0b3a 	ldreq	r0, [fp, #-2874]!	; 0xfffff4c6
     888:	05381349 	ldreq	r1, [r8, #-841]!	; 0xfffffcb7
     88c:	0d0b0000 	stceq	0, cr0, [fp, #-0]
     890:	3a080300 	bcc	201498 <__DATA_END+0x1ffaa8>
     894:	49053b0b 	stmdbmi	r5, {r0, r1, r3, r8, r9, fp, ip, sp}
     898:	00053813 	andeq	r3, r5, r3, lsl r8
     89c:	01010c00 	tsteq	r1, r0, lsl #24
     8a0:	13011349 	movwne	r1, #4937	; 0x1349
     8a4:	210d0000 	mrscs	r0, (UNDEF: 13)
     8a8:	2f134900 	svccs	0x00134900
     8ac:	0e00000b 	cdpeq	0, 0, cr0, cr0, cr11, {0}
     8b0:	13490035 	movtne	r0, #36917	; 0x9035
     8b4:	160f0000 	strne	r0, [pc], -r0
     8b8:	3a0e0300 	bcc	3814c0 <__DATA_END+0x37fad0>
     8bc:	49053b0b 	stmdbmi	r5, {r0, r1, r3, r8, r9, fp, ip, sp}
     8c0:	10000013 	andne	r0, r0, r3, lsl r0
     8c4:	13490026 	movtne	r0, #36902	; 0x9026
     8c8:	13110000 	tstne	r1, #0
     8cc:	3a0b0b01 	bcc	2c34d8 <__DATA_END+0x2c1ae8>
     8d0:	01053b0b 	tsteq	r5, fp, lsl #22
     8d4:	12000013 	andne	r0, r0, #19
     8d8:	0803000d 	stmdaeq	r3, {r0, r2, r3}
     8dc:	053b0b3a 	ldreq	r0, [fp, #-2874]!	; 0xfffff4c6
     8e0:	0b381349 	bleq	e0560c <__DATA_END+0xe03c1c>
     8e4:	21130000 	tstcs	r3, r0
     8e8:	2f134900 	svccs	0x00134900
     8ec:	14000005 	strne	r0, [r0], #-5
     8f0:	0b0b0113 	bleq	2c0d44 <__DATA_END+0x2bf354>
     8f4:	0b3b0b3a 	bleq	ec35e4 <__DATA_END+0xec1bf4>
     8f8:	00001301 	andeq	r1, r0, r1, lsl #6
     8fc:	03000d15 	movweq	r0, #3349	; 0xd15
     900:	3b0b3a0e 	blcc	2cf140 <__DATA_END+0x2cd750>
     904:	3813490b 	ldmdacc	r3, {r0, r1, r3, r8, fp, lr}
     908:	1600000b 	strne	r0, [r0], -fp
     90c:	0803000d 	stmdaeq	r3, {r0, r2, r3}
     910:	0b3b0b3a 	bleq	ec3600 <__DATA_END+0xec1c10>
     914:	0b381349 	bleq	e05640 <__DATA_END+0xe03c50>
     918:	0f170000 	svceq	0x00170000
     91c:	490b0b00 	stmdbmi	fp, {r8, r9, fp}
     920:	18000013 	stmdane	r0, {r0, r1, r4}
     924:	0e03002e 	cdpeq	0, 0, cr0, cr3, cr14, {1}
     928:	053b0b3a 	ldreq	r0, [fp, #-2874]!	; 0xfffff4c6
     92c:	0b201927 	bleq	806dd0 <__DATA_END+0x8053e0>
     930:	2e190000 	cdpcs	0, 1, cr0, cr9, cr0, {0}
     934:	3a0e0301 	bcc	381540 <__DATA_END+0x37fb50>
     938:	27053b0b 	strcs	r3, [r5, -fp, lsl #22]
     93c:	010b2019 	tsteq	fp, r9, lsl r0
     940:	1a000013 	bne	994 <startPIT1+0x40>
     944:	0e030005 	cdpeq	0, 0, cr0, cr3, cr5, {0}
     948:	053b0b3a 	ldreq	r0, [fp, #-2874]!	; 0xfffff4c6
     94c:	00001349 	andeq	r1, r0, r9, asr #6
     950:	3f012e1b 	svccc	0x00012e1b
     954:	3a0e0319 	bcc	3815c0 <__DATA_END+0x37fbd0>
     958:	270b3b0b 	strcs	r3, [fp, -fp, lsl #22]
     95c:	11134919 	tstne	r3, r9, lsl r9
     960:	40061201 	andmi	r1, r6, r1, lsl #4
     964:	19429718 	stmdbne	r2, {r3, r4, r8, r9, sl, ip, pc}^
     968:	00001301 	andeq	r1, r0, r1, lsl #6
     96c:	0300051c 	movweq	r0, #1308	; 0x51c
     970:	3b0b3a0e 	blcc	2cf1b0 <__DATA_END+0x2cd7c0>
     974:	0213490b 	andseq	r4, r3, #180224	; 0x2c000
     978:	1d000018 	stcne	0, cr0, [r0, #-96]	; 0xffffffa0
     97c:	193f012e 	ldmdbne	pc!, {r1, r2, r3, r5, r8}	; <UNPREDICTABLE>
     980:	0b3a0e03 	bleq	e84194 <__DATA_END+0xe827a4>
     984:	19270b3b 	stmdbne	r7!, {r0, r1, r3, r4, r5, r8, r9, fp}
     988:	06120111 			; <UNDEFINED> instruction: 0x06120111
     98c:	42971840 	addsmi	r1, r7, #64, 16	; 0x400000
     990:	00130119 	andseq	r0, r3, r9, lsl r1
     994:	00051e00 	andeq	r1, r5, r0, lsl #28
     998:	0b3a0e03 	bleq	e841ac <__DATA_END+0xe827bc>
     99c:	13490b3b 	movtne	r0, #39739	; 0x9b3b
     9a0:	00001702 	andeq	r1, r0, r2, lsl #14
     9a4:	31001d1f 	tstcc	r0, pc, lsl sp
     9a8:	12011113 	andne	r1, r1, #-1073741820	; 0xc0000004
     9ac:	590b5806 	stmdbpl	fp, {r1, r2, fp, ip, lr}
     9b0:	2000000b 	andcs	r0, r0, fp
     9b4:	01018289 	smlabbeq	r1, r9, r2, r8
     9b8:	13310111 	teqne	r1, #1073741828	; 0x40000004
     9bc:	00001301 	andeq	r1, r0, r1, lsl #6
     9c0:	01828a21 	orreq	r8, r2, r1, lsr #20
     9c4:	91180200 	tstls	r8, r0, lsl #4
     9c8:	00001842 	andeq	r1, r0, r2, asr #16
     9cc:	01828922 	orreq	r8, r2, r2, lsr #18
     9d0:	31011101 	tstcc	r1, r1, lsl #2
     9d4:	23000013 	movwcs	r0, #19
     9d8:	193f012e 	ldmdbne	pc!, {r1, r2, r3, r5, r8}	; <UNPREDICTABLE>
     9dc:	0b3a0e03 	bleq	e841f0 <__DATA_END+0xe82800>
     9e0:	01110b3b 	tsteq	r1, fp, lsr fp
     9e4:	18400612 	stmdane	r0, {r1, r4, r9, sl}^
     9e8:	01194297 			; <UNDEFINED> instruction: 0x01194297
     9ec:	24000013 	strcs	r0, [r0], #-19	; 0xffffffed
     9f0:	1331011d 	teqne	r1, #1073741831	; 0x40000007
     9f4:	06120111 			; <UNDEFINED> instruction: 0x06120111
     9f8:	0b590b58 	bleq	1643760 <__DATA_END+0x1641d70>
     9fc:	05250000 	streq	r0, [r5, #-0]!
     a00:	1c133100 	ldfnes	f3, [r3], {-0}
     a04:	2600000b 	strcs	r0, [r0], -fp
     a08:	1331011d 	teqne	r1, #1073741831	; 0x40000007
     a0c:	17550152 			; <UNDEFINED> instruction: 0x17550152
     a10:	0b590b58 	bleq	1643778 <__DATA_END+0x1641d88>
     a14:	2e270000 	cdpcs	0, 2, cr0, cr7, cr0, {0}
     a18:	03193f00 	tsteq	r9, #0, 30
     a1c:	3b0b3a0e 	blcc	2cf25c <__DATA_END+0x2cd86c>
     a20:	000b200b 	andeq	r2, fp, fp
     a24:	012e2800 	teqeq	lr, r0, lsl #16
     a28:	01111331 	tsteq	r1, r1, lsr r3
     a2c:	18400612 	stmdane	r0, {r1, r4, r9, sl}^
     a30:	01194297 			; <UNDEFINED> instruction: 0x01194297
     a34:	29000013 	stmdbcs	r0, {r0, r1, r4}
     a38:	08030005 	stmdaeq	r3, {r0, r2}
     a3c:	0b3b0b3a 	bleq	ec372c <__DATA_END+0xec1d3c>
     a40:	18021349 	stmdane	r2, {r0, r3, r6, r8, r9, ip}
     a44:	342a0000 	strtcc	r0, [sl], #-0
     a48:	3a080300 	bcc	201650 <__DATA_END+0x1ffc60>
     a4c:	490b3b0b 	stmdbmi	fp, {r0, r1, r3, r8, r9, fp, ip, sp}
     a50:	00170213 	andseq	r0, r7, r3, lsl r2
     a54:	00342b00 	eorseq	r2, r4, r0, lsl #22
     a58:	0b3a0e03 	bleq	e8426c <__DATA_END+0xe8287c>
     a5c:	13490b3b 	movtne	r0, #39739	; 0x9b3b
     a60:	00001702 	andeq	r1, r0, r2, lsl #14
     a64:	0182892c 	orreq	r8, r2, ip, lsr #18
     a68:	31011100 	mrscc	r1, (UNDEF: 17)
     a6c:	2d000013 	stccs	0, cr0, [r0, #-76]	; 0xffffffb4
     a70:	08030005 	stmdaeq	r3, {r0, r2}
     a74:	0b3b0b3a 	bleq	ec3764 <__DATA_END+0xec1d74>
     a78:	17021349 	strne	r1, [r2, -r9, asr #6]
     a7c:	342e0000 	strtcc	r0, [lr], #-0
     a80:	3a0e0300 	bcc	381688 <__DATA_END+0x37fc98>
     a84:	490b3b0b 	stmdbmi	fp, {r0, r1, r3, r8, r9, fp, ip, sp}
     a88:	2f000013 	svccs	0x00000013
     a8c:	08030034 	stmdaeq	r3, {r2, r4, r5}
     a90:	0b3b0b3a 	bleq	ec3780 <__DATA_END+0xec1d90>
     a94:	18021349 	stmdane	r2, {r0, r3, r6, r8, r9, ip}
     a98:	34300000 	ldrtcc	r0, [r0], #-0
     a9c:	3a0e0300 	bcc	3816a4 <__DATA_END+0x37fcb4>
     aa0:	49053b0b 	stmdbmi	r5, {r0, r1, r3, r8, r9, fp, ip, sp}
     aa4:	00170213 	andseq	r0, r7, r3, lsl r2
     aa8:	001d3100 	andseq	r3, sp, r0, lsl #2
     aac:	01111331 	tsteq	r1, r1, lsr r3
     ab0:	0b580612 	bleq	1602300 <__DATA_END+0x1600910>
     ab4:	00000559 	andeq	r0, r0, r9, asr r5
     ab8:	3f012e32 	svccc	0x00012e32
     abc:	3a0e0319 	bcc	381728 <__DATA_END+0x37fd38>
     ac0:	27053b0b 	strcs	r3, [r5, -fp, lsl #22]
     ac4:	12011119 	andne	r1, r1, #1073741830	; 0x40000006
     ac8:	97184006 	ldrls	r4, [r8, -r6]
     acc:	13011942 	movwne	r1, #6466	; 0x1942
     ad0:	34330000 	ldrtcc	r0, [r3], #-0
     ad4:	3a0e0300 	bcc	3816dc <__DATA_END+0x37fcec>
     ad8:	490b3b0b 	stmdbmi	fp, {r0, r1, r3, r8, r9, fp, ip, sp}
     adc:	02193f13 	andseq	r3, r9, #19, 30	; 0x4c
     ae0:	34000018 	strcc	r0, [r0], #-24	; 0xffffffe8
     ae4:	193f002e 	ldmdbne	pc!, {r1, r2, r3, r5}	; <UNPREDICTABLE>
     ae8:	0e6e193c 	mcreq	9, 3, r1, cr14, cr12, {1}
     aec:	0b3a0e03 	bleq	e84300 <__DATA_END+0xe82910>
     af0:	00000b3b 	andeq	r0, r0, fp, lsr fp
     af4:	3f002e35 	svccc	0x00002e35
     af8:	6e193c19 	mrcvs	12, 0, r3, cr9, cr9, {0}
     afc:	000e030e 	andeq	r0, lr, lr, lsl #6
     b00:	11010000 	mrsne	r0, (UNDEF: 1)
     b04:	130e2501 	movwne	r2, #58625	; 0xe501
     b08:	1b0e030b 	blne	38173c <__DATA_END+0x37fd4c>
     b0c:	1117550e 	tstne	r7, lr, lsl #10
     b10:	00171001 	andseq	r1, r7, r1
     b14:	00240200 	eoreq	r0, r4, r0, lsl #4
     b18:	0b3e0b0b 	bleq	f8374c <__DATA_END+0xf81d5c>
     b1c:	00000e03 	andeq	r0, r0, r3, lsl #28
     b20:	03001603 	movweq	r1, #1539	; 0x603
     b24:	3b0b3a0e 	blcc	2cf364 <__DATA_END+0x2cd974>
     b28:	0013490b 	andseq	r4, r3, fp, lsl #18
     b2c:	00240400 	eoreq	r0, r4, r0, lsl #8
     b30:	0b3e0b0b 	bleq	f83764 <__DATA_END+0xf81d74>
     b34:	00000803 	andeq	r0, r0, r3, lsl #16
     b38:	49003505 	stmdbmi	r0, {r0, r2, r8, sl, ip, sp}
     b3c:	06000013 			; <UNDEFINED> instruction: 0x06000013
     b40:	13490026 	movtne	r0, #36902	; 0x9026
     b44:	01070000 	mrseq	r0, (UNDEF: 7)
     b48:	01134901 	tsteq	r3, r1, lsl #18
     b4c:	08000013 	stmdaeq	r0, {r0, r1, r4}
     b50:	13490021 	movtne	r0, #36897	; 0x9021
     b54:	00000b2f 	andeq	r0, r0, pc, lsr #22
     b58:	0b011309 	bleq	45784 <__DATA_END+0x43d94>
     b5c:	3b0b3a0b 	blcc	2cf390 <__DATA_END+0x2cd9a0>
     b60:	00130105 	andseq	r0, r3, r5, lsl #2
     b64:	000d0a00 	andeq	r0, sp, r0, lsl #20
     b68:	0b3a0e03 	bleq	e8437c <__DATA_END+0xe8298c>
     b6c:	1349053b 	movtne	r0, #38203	; 0x953b
     b70:	00000b38 	andeq	r0, r0, r8, lsr fp
     b74:	0300160b 	movweq	r1, #1547	; 0x60b
     b78:	3b0b3a0e 	blcc	2cf3b8 <__DATA_END+0x2cd9c8>
     b7c:	00134905 	andseq	r4, r3, r5, lsl #18
     b80:	000d0c00 	andeq	r0, sp, r0, lsl #24
     b84:	0b3a0803 	bleq	e82b98 <__DATA_END+0xe811a8>
     b88:	1349053b 	movtne	r0, #38203	; 0x953b
     b8c:	00000b38 	andeq	r0, r0, r8, lsr fp
     b90:	0b01130d 	bleq	457cc <__DATA_END+0x43ddc>
     b94:	3b0b3a05 	blcc	2cf3b0 <__DATA_END+0x2cd9c0>
     b98:	00130105 	andseq	r0, r3, r5, lsl #2
     b9c:	000d0e00 	andeq	r0, sp, r0, lsl #28
     ba0:	0b3a0e03 	bleq	e843b4 <__DATA_END+0xe829c4>
     ba4:	1349053b 	movtne	r0, #38203	; 0x953b
     ba8:	00000538 	andeq	r0, r0, r8, lsr r5
     bac:	4900210f 	stmdbmi	r0, {r0, r1, r2, r3, r8, sp}
     bb0:	00052f13 	andeq	r2, r5, r3, lsl pc
     bb4:	01131000 	tsteq	r3, r0
     bb8:	0b3a0b0b 	bleq	e837ec <__DATA_END+0xe81dfc>
     bbc:	13010b3b 	movwne	r0, #6971	; 0x1b3b
     bc0:	0d110000 	ldceq	0, cr0, [r1, #-0]
     bc4:	3a0e0300 	bcc	3817cc <__DATA_END+0x37fddc>
     bc8:	490b3b0b 	stmdbmi	fp, {r0, r1, r3, r8, r9, fp, ip, sp}
     bcc:	000b3813 	andeq	r3, fp, r3, lsl r8
     bd0:	000d1200 	andeq	r1, sp, r0, lsl #4
     bd4:	0b3a0803 	bleq	e82be8 <__DATA_END+0xe811f8>
     bd8:	13490b3b 	movtne	r0, #39739	; 0x9b3b
     bdc:	00000b38 	andeq	r0, r0, r8, lsr fp
     be0:	3f002e13 	svccc	0x00002e13
     be4:	3a0e0319 	bcc	381850 <__DATA_END+0x37fe60>
     be8:	110b3b0b 	tstne	fp, fp, lsl #22
     bec:	40061201 	andmi	r1, r6, r1, lsl #4
     bf0:	19429718 	stmdbne	r2, {r3, r4, r8, r9, sl, ip, pc}^
     bf4:	2e140000 	cdpcs	0, 1, cr0, cr4, cr0, {0}
     bf8:	03193f01 	tsteq	r9, #1, 30
     bfc:	3b0b3a0e 	blcc	2cf43c <__DATA_END+0x2cda4c>
     c00:	1201110b 	andne	r1, r1, #-1073741822	; 0xc0000002
     c04:	97184006 	ldrls	r4, [r8, -r6]
     c08:	13011942 	movwne	r1, #6466	; 0x1942
     c0c:	89150000 	ldmdbhi	r5, {}	; <UNPREDICTABLE>
     c10:	11000182 	smlabbne	r0, r2, r1, r0
     c14:	00133101 	andseq	r3, r3, r1, lsl #2
     c18:	82891600 	addhi	r1, r9, #0, 12
     c1c:	01110101 	tsteq	r1, r1, lsl #2
     c20:	13011331 	movwne	r1, #4913	; 0x1331
     c24:	8a170000 	bhi	5c0c2c <__DATA_END+0x5bf23c>
     c28:	02000182 	andeq	r0, r0, #-2147483616	; 0x80000020
     c2c:	18429118 	stmdane	r2, {r3, r4, r8, ip, pc}^
     c30:	89180000 	ldmdbhi	r8, {}	; <UNPREDICTABLE>
     c34:	11010182 	smlabbne	r1, r2, r1, r0
     c38:	00133101 	andseq	r3, r3, r1, lsl #2
     c3c:	012e1900 	teqeq	lr, r0, lsl #18
     c40:	0e03193f 	mcreq	9, 0, r1, cr3, cr15, {1}
     c44:	0b3b0b3a 	bleq	ec3934 <__DATA_END+0xec1f44>
     c48:	13491927 	movtne	r1, #39207	; 0x9927
     c4c:	11190187 	tstne	r9, r7, lsl #3
     c50:	40061201 	andmi	r1, r6, r1, lsl #4
     c54:	19429718 	stmdbne	r2, {r3, r4, r8, r9, sl, ip, pc}^
     c58:	00001301 	andeq	r1, r0, r1, lsl #6
     c5c:	0300341a 	movweq	r3, #1050	; 0x41a
     c60:	3b0b3a08 	blcc	2cf488 <__DATA_END+0x2cda98>
     c64:	0013490b 	andseq	r4, r3, fp, lsl #18
     c68:	010b1b00 	tsteq	fp, r0, lsl #22
     c6c:	06120111 			; <UNDEFINED> instruction: 0x06120111
     c70:	00001301 	andeq	r1, r0, r1, lsl #6
     c74:	3f012e1c 	svccc	0x00012e1c
     c78:	3a0e0319 	bcc	3818e4 <__DATA_END+0x37fef4>
     c7c:	490b3b0b 	stmdbmi	fp, {r0, r1, r3, r8, r9, fp, ip, sp}
     c80:	01193c13 	tsteq	r9, r3, lsl ip
     c84:	1d000013 	stcne	0, cr0, [r0, #-76]	; 0xffffffb4
     c88:	00000018 	andeq	r0, r0, r8, lsl r0
     c8c:	0300341e 	movweq	r3, #1054	; 0x41e
     c90:	3b0b3a0e 	blcc	2cf4d0 <__DATA_END+0x2cdae0>
     c94:	3f13490b 	svccc	0x0013490b
     c98:	00193c19 	andseq	r3, r9, r9, lsl ip
     c9c:	002e1f00 	eoreq	r1, lr, r0, lsl #30
     ca0:	193c193f 	ldmdbne	ip!, {r0, r1, r2, r3, r4, r5, r8, fp, ip}
     ca4:	0e030e6e 	cdpeq	14, 0, cr0, cr3, cr14, {3}
     ca8:	0b3b0b3a 	bleq	ec3998 <__DATA_END+0xec1fa8>
     cac:	01000000 	mrseq	r0, (UNDEF: 0)
     cb0:	0e250111 	mcreq	1, 1, r0, cr5, cr1, {0}
     cb4:	0e030b13 	vmoveq.32	d3[0], r0
     cb8:	17100e1b 			; <UNDEFINED> instruction: 0x17100e1b
     cbc:	24020000 	strcs	r0, [r2], #-0
     cc0:	3e0b0b00 	vmlacc.f64	d0, d11, d0
     cc4:	000e030b 	andeq	r0, lr, fp, lsl #6
     cc8:	00160300 	andseq	r0, r6, r0, lsl #6
     ccc:	0b3a0e03 	bleq	e844e0 <__DATA_END+0xe82af0>
     cd0:	13490b3b 	movtne	r0, #39739	; 0x9b3b
     cd4:	24040000 	strcs	r0, [r4], #-0
     cd8:	3e0b0b00 	vmlacc.f64	d0, d11, d0
     cdc:	0008030b 	andeq	r0, r8, fp, lsl #6
     ce0:	01010500 	tsteq	r1, r0, lsl #10
     ce4:	13011349 	movwne	r1, #4937	; 0x1349
     ce8:	21060000 	mrscs	r0, (UNDEF: 6)
     cec:	2f134900 	svccs	0x00134900
     cf0:	0700000b 	streq	r0, [r0, -fp]
     cf4:	0e030034 	mcreq	0, 0, r0, cr3, cr4, {1}
     cf8:	0b3b0b3a 	bleq	ec39e8 <__DATA_END+0xec1ff8>
     cfc:	193f1349 	ldmdbne	pc!, {r0, r3, r6, r8, r9, ip}	; <UNPREDICTABLE>
     d00:	00001802 	andeq	r1, r0, r2, lsl #16
     d04:	01110100 	tsteq	r1, r0, lsl #2
     d08:	0b130e25 	bleq	4c45a4 <__DATA_END+0x4c2bb4>
     d0c:	0e1b0e03 	cdpeq	14, 1, cr0, cr11, cr3, {0}
     d10:	01111755 	tsteq	r1, r5, asr r7
     d14:	00001710 	andeq	r1, r0, r0, lsl r7
     d18:	0b002402 	bleq	9d28 <__DATA_END+0x8338>
     d1c:	030b3e0b 	movweq	r3, #48651	; 0xbe0b
     d20:	0300000e 	movweq	r0, #14
     d24:	0e030016 	mcreq	0, 0, r0, cr3, cr6, {0}
     d28:	0b3b0b3a 	bleq	ec3a18 <__DATA_END+0xec2028>
     d2c:	00001349 	andeq	r1, r0, r9, asr #6
     d30:	0b002404 	bleq	9d48 <__DATA_END+0x8358>
     d34:	030b3e0b 	movweq	r3, #48651	; 0xbe0b
     d38:	05000008 	streq	r0, [r0, #-8]
     d3c:	13490035 	movtne	r0, #36917	; 0x9035
     d40:	26060000 	strcs	r0, [r6], -r0
     d44:	00134900 	andseq	r4, r3, r0, lsl #18
     d48:	01010700 	tsteq	r1, r0, lsl #14
     d4c:	13011349 	movwne	r1, #4937	; 0x1349
     d50:	21080000 	mrscs	r0, (UNDEF: 8)
     d54:	2f134900 	svccs	0x00134900
     d58:	0900000b 	stmdbeq	r0, {r0, r1, r3}
     d5c:	0b0b0113 	bleq	2c11b0 <__DATA_END+0x2bf7c0>
     d60:	053b0b3a 	ldreq	r0, [fp, #-2874]!	; 0xfffff4c6
     d64:	00001301 	andeq	r1, r0, r1, lsl #6
     d68:	03000d0a 	movweq	r0, #3338	; 0xd0a
     d6c:	3b0b3a0e 	blcc	2cf5ac <__DATA_END+0x2cdbbc>
     d70:	38134905 	ldmdacc	r3, {r0, r2, r8, fp, lr}
     d74:	0b00000b 	bleq	da8 <main+0x8>
     d78:	0e030016 	mcreq	0, 0, r0, cr3, cr6, {0}
     d7c:	053b0b3a 	ldreq	r0, [fp, #-2874]!	; 0xfffff4c6
     d80:	00001349 	andeq	r1, r0, r9, asr #6
     d84:	03000d0c 	movweq	r0, #3340	; 0xd0c
     d88:	3b0b3a08 	blcc	2cf5b0 <__DATA_END+0x2cdbc0>
     d8c:	38134905 	ldmdacc	r3, {r0, r2, r8, fp, lr}
     d90:	0d00000b 	stceq	0, cr0, [r0, #-44]	; 0xffffffd4
     d94:	050b0113 	streq	r0, [fp, #-275]	; 0xfffffeed
     d98:	053b0b3a 	ldreq	r0, [fp, #-2874]!	; 0xfffff4c6
     d9c:	00001301 	andeq	r1, r0, r1, lsl #6
     da0:	03000d0e 	movweq	r0, #3342	; 0xd0e
     da4:	3b0b3a0e 	blcc	2cf5e4 <__DATA_END+0x2cdbf4>
     da8:	38134905 	ldmdacc	r3, {r0, r2, r8, fp, lr}
     dac:	0f000005 	svceq	0x00000005
     db0:	13490021 	movtne	r0, #36897	; 0x9021
     db4:	0000052f 	andeq	r0, r0, pc, lsr #10
     db8:	0b011310 	bleq	45a00 <__DATA_END+0x44010>
     dbc:	3b0b3a0b 	blcc	2cf5f0 <__DATA_END+0x2cdc00>
     dc0:	0013010b 	andseq	r0, r3, fp, lsl #2
     dc4:	000d1100 	andeq	r1, sp, r0, lsl #2
     dc8:	0b3a0e03 	bleq	e845dc <__DATA_END+0xe82bec>
     dcc:	13490b3b 	movtne	r0, #39739	; 0x9b3b
     dd0:	00000b38 	andeq	r0, r0, r8, lsr fp
     dd4:	03000d12 	movweq	r0, #3346	; 0xd12
     dd8:	3b0b3a08 	blcc	2cf600 <__DATA_END+0x2cdc10>
     ddc:	3813490b 	ldmdacc	r3, {r0, r1, r3, r8, fp, lr}
     de0:	1300000b 	movwne	r0, #11
     de4:	0b0b000f 	bleq	2c0e28 <__DATA_END+0x2bf438>
     de8:	00001349 	andeq	r1, r0, r9, asr #6
     dec:	3f012e14 	svccc	0x00012e14
     df0:	3a0e0319 	bcc	381a5c <__DATA_END+0x38006c>
     df4:	270b3b0b 	strcs	r3, [fp, -fp, lsl #22]
     df8:	11134919 	tstne	r3, r9, lsl r9
     dfc:	40061201 	andmi	r1, r6, r1, lsl #4
     e00:	19429718 	stmdbne	r2, {r3, r4, r8, r9, sl, ip, pc}^
     e04:	00001301 	andeq	r1, r0, r1, lsl #6
     e08:	03000515 	movweq	r0, #1301	; 0x515
     e0c:	3b0b3a08 	blcc	2cf634 <__DATA_END+0x2cdc44>
     e10:	0213490b 	andseq	r4, r3, #180224	; 0x2c000
     e14:	16000017 			; <UNDEFINED> instruction: 0x16000017
     e18:	08030005 	stmdaeq	r3, {r0, r2}
     e1c:	0b3b0b3a 	bleq	ec3b0c <__DATA_END+0xec211c>
     e20:	18021349 	stmdane	r2, {r0, r3, r6, r8, r9, ip}
     e24:	34170000 	ldrcc	r0, [r7], #-0
     e28:	3a080300 	bcc	201a30 <__DATA_END+0x200040>
     e2c:	490b3b0b 	stmdbmi	fp, {r0, r1, r3, r8, r9, fp, ip, sp}
     e30:	00170213 	andseq	r0, r7, r3, lsl r2
     e34:	012e1800 	teqeq	lr, r0, lsl #16
     e38:	0e03193f 	mcreq	9, 0, r1, cr3, cr15, {1}
     e3c:	0b3b0b3a 	bleq	ec3b2c <__DATA_END+0xec213c>
     e40:	193c1349 	ldmdbne	ip!, {r0, r3, r6, r8, r9, ip}
     e44:	00001301 	andeq	r1, r0, r1, lsl #6
     e48:	00001819 	andeq	r1, r0, r9, lsl r8
     e4c:	82891a00 	addhi	r1, r9, #0, 20
     e50:	01110101 	tsteq	r1, r1, lsl #2
     e54:	13011331 	movwne	r1, #4913	; 0x1331
     e58:	8a1b0000 	bhi	6c0e60 <__DATA_END+0x6bf470>
     e5c:	02000182 	andeq	r0, r0, #-2147483616	; 0x80000020
     e60:	18429118 	stmdane	r2, {r3, r4, r8, ip, pc}^
     e64:	891c0000 	ldmdbhi	ip, {}	; <UNPREDICTABLE>
     e68:	11010182 	smlabbne	r1, r2, r1, r0
     e6c:	00133101 	andseq	r3, r3, r1, lsl #2
     e70:	00341d00 	eorseq	r1, r4, r0, lsl #26
     e74:	0b3a0e03 	bleq	e84688 <__DATA_END+0xe82c98>
     e78:	13490b3b 	movtne	r0, #39739	; 0x9b3b
     e7c:	00001702 	andeq	r1, r0, r2, lsl #14
     e80:	0300341e 	movweq	r3, #1054	; 0x41e
     e84:	3b0b3a08 	blcc	2cf6ac <__DATA_END+0x2cdcbc>
     e88:	0013490b 	andseq	r4, r3, fp, lsl #18
     e8c:	010b1f00 	tsteq	fp, r0, lsl #30
     e90:	00001755 	andeq	r1, r0, r5, asr r7
     e94:	01828920 	orreq	r8, r2, r0, lsr #18
     e98:	31011100 	mrscc	r1, (UNDEF: 17)
     e9c:	21000013 	tstcs	r0, r3, lsl r0
     ea0:	0e030005 	cdpeq	0, 0, cr0, cr3, cr5, {0}
     ea4:	0b3b0b3a 	bleq	ec3b94 <__DATA_END+0xec21a4>
     ea8:	17021349 	strne	r1, [r2, -r9, asr #6]
     eac:	2e220000 	cdpcs	0, 2, cr0, cr2, cr0, {0}
     eb0:	03193f00 	tsteq	r9, #0, 30
     eb4:	3b0b3a0e 	blcc	2cf6f4 <__DATA_END+0x2cdd04>
     eb8:	1119270b 	tstne	r9, fp, lsl #14
     ebc:	40061201 	andmi	r1, r6, r1, lsl #4
     ec0:	19429718 	stmdbne	r2, {r3, r4, r8, r9, sl, ip, pc}^
     ec4:	34230000 	strtcc	r0, [r3], #-0
     ec8:	3a0e0300 	bcc	381ad0 <__DATA_END+0x3800e0>
     ecc:	490b3b0b 	stmdbmi	fp, {r0, r1, r3, r8, r9, fp, ip, sp}
     ed0:	3c193f13 	ldccc	15, cr3, [r9], {19}
     ed4:	24000019 	strcs	r0, [r0], #-25	; 0xffffffe7
     ed8:	0e030034 	mcreq	0, 0, r0, cr3, cr4, {1}
     edc:	0b3b0b3a 	bleq	ec3bcc <__DATA_END+0xec21dc>
     ee0:	193f1349 	ldmdbne	pc!, {r0, r3, r6, r8, r9, ip}	; <UNPREDICTABLE>
     ee4:	00001802 	andeq	r1, r0, r2, lsl #16
     ee8:	3f002e25 	svccc	0x00002e25
     eec:	6e193c19 	mrcvs	12, 0, r3, cr9, cr9, {0}
     ef0:	3a0e030e 	bcc	381b30 <__DATA_END+0x380140>
     ef4:	000b3b0b 	andeq	r3, fp, fp, lsl #22
     ef8:	002e2600 	eoreq	r2, lr, r0, lsl #12
     efc:	193c193f 	ldmdbne	ip!, {r0, r1, r2, r3, r4, r5, r8, fp, ip}
     f00:	0e030e6e 	cdpeq	14, 0, cr0, cr3, cr14, {3}
     f04:	01000000 	mrseq	r0, (UNDEF: 0)
     f08:	0e250111 	mcreq	1, 1, r0, cr5, cr1, {0}
     f0c:	0e030b13 	vmoveq.32	d3[0], r0
     f10:	17550e1b 	smmlane	r5, fp, lr, r0
     f14:	17100111 			; <UNDEFINED> instruction: 0x17100111
     f18:	24020000 	strcs	r0, [r2], #-0
     f1c:	3e0b0b00 	vmlacc.f64	d0, d11, d0
     f20:	000e030b 	andeq	r0, lr, fp, lsl #6
     f24:	00160300 	andseq	r0, r6, r0, lsl #6
     f28:	0b3a0e03 	bleq	e8473c <__DATA_END+0xe82d4c>
     f2c:	13490b3b 	movtne	r0, #39739	; 0x9b3b
     f30:	24040000 	strcs	r0, [r4], #-0
     f34:	3e0b0b00 	vmlacc.f64	d0, d11, d0
     f38:	0008030b 	andeq	r0, r8, fp, lsl #6
     f3c:	00350500 	eorseq	r0, r5, r0, lsl #10
     f40:	00001349 	andeq	r1, r0, r9, asr #6
     f44:	49002606 	stmdbmi	r0, {r1, r2, r9, sl, sp}
     f48:	07000013 	smladeq	r0, r3, r0, r0
     f4c:	0b0b0113 	bleq	2c13a0 <__DATA_END+0x2bf9b0>
     f50:	053b0b3a 	ldreq	r0, [fp, #-2874]!	; 0xfffff4c6
     f54:	00001301 	andeq	r1, r0, r1, lsl #6
     f58:	03000d08 	movweq	r0, #3336	; 0xd08
     f5c:	3b0b3a0e 	blcc	2cf79c <__DATA_END+0x2cddac>
     f60:	38134905 	ldmdacc	r3, {r0, r2, r8, fp, lr}
     f64:	0900000b 	stmdbeq	r0, {r0, r1, r3}
     f68:	0e030016 	mcreq	0, 0, r0, cr3, cr6, {0}
     f6c:	053b0b3a 	ldreq	r0, [fp, #-2874]!	; 0xfffff4c6
     f70:	00001349 	andeq	r1, r0, r9, asr #6
     f74:	0b01130a 	bleq	45ba4 <__DATA_END+0x441b4>
     f78:	3b0b3a0b 	blcc	2cf7ac <__DATA_END+0x2cddbc>
     f7c:	0013010b 	andseq	r0, r3, fp, lsl #2
     f80:	000d0b00 	andeq	r0, sp, r0, lsl #22
     f84:	0b3a0e03 	bleq	e84798 <__DATA_END+0xe82da8>
     f88:	13490b3b 	movtne	r0, #39739	; 0x9b3b
     f8c:	00000b38 	andeq	r0, r0, r8, lsr fp
     f90:	03000d0c 	movweq	r0, #3340	; 0xd0c
     f94:	3b0b3a08 	blcc	2cf7bc <__DATA_END+0x2cddcc>
     f98:	3813490b 	ldmdacc	r3, {r0, r1, r3, r8, fp, lr}
     f9c:	0d00000b 	stceq	0, cr0, [r0, #-44]	; 0xffffffd4
     fa0:	13490101 	movtne	r0, #37121	; 0x9101
     fa4:	00001301 	andeq	r1, r0, r1, lsl #6
     fa8:	4900210e 	stmdbmi	r0, {r1, r2, r3, r8, sp}
     fac:	000b2f13 	andeq	r2, fp, r3, lsl pc
     fb0:	002e0f00 	eoreq	r0, lr, r0, lsl #30
     fb4:	0e03193f 	mcreq	9, 0, r1, cr3, cr15, {1}
     fb8:	0b3b0b3a 	bleq	ec3ca8 <__DATA_END+0xec22b8>
     fbc:	13491927 	movtne	r1, #39207	; 0x9927
     fc0:	06120111 			; <UNDEFINED> instruction: 0x06120111
     fc4:	42971840 	addsmi	r1, r7, #64, 16	; 0x400000
     fc8:	10000019 	andne	r0, r0, r9, lsl r0
     fcc:	193f012e 	ldmdbne	pc!, {r1, r2, r3, r5, r8}	; <UNPREDICTABLE>
     fd0:	0b3a0e03 	bleq	e847e4 <__DATA_END+0xe82df4>
     fd4:	19270b3b 	stmdbne	r7!, {r0, r1, r3, r4, r5, r8, r9, fp}
     fd8:	06120111 			; <UNDEFINED> instruction: 0x06120111
     fdc:	42971840 	addsmi	r1, r7, #64, 16	; 0x400000
     fe0:	00130119 	andseq	r0, r3, r9, lsl r1
     fe4:	00051100 	andeq	r1, r5, r0, lsl #2
     fe8:	0b3a0803 	bleq	e82ffc <__DATA_END+0xe8160c>
     fec:	13490b3b 	movtne	r0, #39739	; 0x9b3b
     ff0:	00001702 	andeq	r1, r0, r2, lsl #14
     ff4:	03003412 	movweq	r3, #1042	; 0x412
     ff8:	3b0b3a08 	blcc	2cf820 <__DATA_END+0x2cde30>
     ffc:	0013490b 	andseq	r4, r3, fp, lsl #18
    1000:	012e1300 	teqeq	lr, r0, lsl #6
    1004:	0e03193f 	mcreq	9, 0, r1, cr3, cr15, {1}
    1008:	0b3b0b3a 	bleq	ec3cf8 <__DATA_END+0xec2308>
    100c:	01111349 	tsteq	r1, r9, asr #6
    1010:	18400612 	stmdane	r0, {r1, r4, r9, sl}^
    1014:	01194297 			; <UNDEFINED> instruction: 0x01194297
    1018:	14000013 	strne	r0, [r0], #-19	; 0xffffffed
    101c:	0e030034 	mcreq	0, 0, r0, cr3, cr4, {1}
    1020:	0b3b0b3a 	bleq	ec3d10 <__DATA_END+0xec2320>
    1024:	17021349 	strne	r1, [r2, -r9, asr #6]
    1028:	2e150000 	cdpcs	0, 1, cr0, cr5, cr0, {0}
    102c:	03193f01 	tsteq	r9, #1, 30
    1030:	3b0b3a0e 	blcc	2cf870 <__DATA_END+0x2cde80>
    1034:	3c13490b 	ldccc	9, cr4, [r3], {11}
    1038:	00130119 	andseq	r0, r3, r9, lsl r1
    103c:	00181600 	andseq	r1, r8, r0, lsl #12
    1040:	89170000 	ldmdbhi	r7, {}	; <UNPREDICTABLE>
    1044:	11000182 	smlabbne	r0, r2, r1, r0
    1048:	00133101 	andseq	r3, r3, r1, lsl #2
    104c:	82891800 	addhi	r1, r9, #0, 16
    1050:	01110101 	tsteq	r1, r1, lsl #2
    1054:	13011331 	movwne	r1, #4913	; 0x1331
    1058:	8a190000 	bhi	641060 <__DATA_END+0x63f670>
    105c:	02000182 	andeq	r0, r0, #-2147483616	; 0x80000020
    1060:	18429118 	stmdane	r2, {r3, r4, r8, ip, pc}^
    1064:	2e1a0000 	cdpcs	0, 1, cr0, cr10, cr0, {0}
    1068:	03193f01 	tsteq	r9, #1, 30
    106c:	3b0b3a0e 	blcc	2cf8ac <__DATA_END+0x2cdebc>
    1070:	4919270b 	ldmdbmi	r9, {r0, r1, r3, r8, r9, sl, sp}
    1074:	12011113 	andne	r1, r1, #-1073741820	; 0xc0000004
    1078:	97184006 	ldrls	r4, [r8, -r6]
    107c:	13011942 	movwne	r1, #6466	; 0x1942
    1080:	341b0000 	ldrcc	r0, [fp], #-0
    1084:	3a080300 	bcc	201c8c <__DATA_END+0x20029c>
    1088:	490b3b0b 	stmdbmi	fp, {r0, r1, r3, r8, r9, fp, ip, sp}
    108c:	00170213 	andseq	r0, r7, r3, lsl r2
    1090:	00341c00 	eorseq	r1, r4, r0, lsl #24
    1094:	0b3a0e03 	bleq	e848a8 <__DATA_END+0xe82eb8>
    1098:	13490b3b 	movtne	r0, #39739	; 0x9b3b
    109c:	1802193f 	stmdane	r2, {r0, r1, r2, r3, r4, r5, r8, fp, ip}
    10a0:	341d0000 	ldrcc	r0, [sp], #-0
    10a4:	3a080300 	bcc	201cac <__DATA_END+0x2002bc>
    10a8:	490b3b0b 	stmdbmi	fp, {r0, r1, r3, r8, r9, fp, ip, sp}
    10ac:	02193f13 	andseq	r3, r9, #19, 30	; 0x4c
    10b0:	1e000018 	mcrne	0, 0, r0, cr0, cr8, {0}
    10b4:	0b0b000f 	bleq	2c10f8 <__DATA_END+0x2bf708>
    10b8:	00001349 	andeq	r1, r0, r9, asr #6
    10bc:	3f002e1f 	svccc	0x00002e1f
    10c0:	6e193c19 	mrcvs	12, 0, r3, cr9, cr9, {0}
    10c4:	3a0e030e 	bcc	381d04 <__DATA_END+0x380314>
    10c8:	000b3b0b 	andeq	r3, fp, fp, lsl #22
    10cc:	11010000 	mrsne	r0, (UNDEF: 1)
    10d0:	130e2501 	movwne	r2, #58625	; 0xe501
    10d4:	1b0e030b 	blne	381d08 <__DATA_END+0x380318>
    10d8:	1117550e 	tstne	r7, lr, lsl #10
    10dc:	00171001 	andseq	r1, r7, r1
    10e0:	00240200 	eoreq	r0, r4, r0, lsl #4
    10e4:	0b3e0b0b 	bleq	f83d18 <__DATA_END+0xf82328>
    10e8:	00000e03 	andeq	r0, r0, r3, lsl #28
    10ec:	03001603 	movweq	r1, #1539	; 0x603
    10f0:	3b0b3a0e 	blcc	2cf930 <__DATA_END+0x2cdf40>
    10f4:	0013490b 	andseq	r4, r3, fp, lsl #18
    10f8:	00240400 	eoreq	r0, r4, r0, lsl #8
    10fc:	0b3e0b0b 	bleq	f83d30 <__DATA_END+0xf82340>
    1100:	00000803 	andeq	r0, r0, r3, lsl #16
    1104:	49003505 	stmdbmi	r0, {r0, r2, r8, sl, ip, sp}
    1108:	06000013 			; <UNDEFINED> instruction: 0x06000013
    110c:	13490026 	movtne	r0, #36902	; 0x9026
    1110:	01070000 	mrseq	r0, (UNDEF: 7)
    1114:	01134901 	tsteq	r3, r1, lsl #18
    1118:	08000013 	stmdaeq	r0, {r0, r1, r4}
    111c:	13490021 	movtne	r0, #36897	; 0x9021
    1120:	00000b2f 	andeq	r0, r0, pc, lsr #22
    1124:	0b011309 	bleq	45d50 <__DATA_END+0x44360>
    1128:	3b0b3a0b 	blcc	2cf95c <__DATA_END+0x2cdf6c>
    112c:	00130105 	andseq	r0, r3, r5, lsl #2
    1130:	000d0a00 	andeq	r0, sp, r0, lsl #20
    1134:	0b3a0803 	bleq	e83148 <__DATA_END+0xe81758>
    1138:	1349053b 	movtne	r0, #38203	; 0x953b
    113c:	00000b38 	andeq	r0, r0, r8, lsr fp
    1140:	0300160b 	movweq	r1, #1547	; 0x60b
    1144:	3b0b3a0e 	blcc	2cf984 <__DATA_END+0x2cdf94>
    1148:	00134905 	andseq	r4, r3, r5, lsl #18
    114c:	01130c00 	tsteq	r3, r0, lsl #24
    1150:	0b3a050b 	bleq	e82584 <__DATA_END+0xe80b94>
    1154:	1301053b 	movwne	r0, #5435	; 0x153b
    1158:	0d0d0000 	stceq	0, cr0, [sp, #-0]
    115c:	3a0e0300 	bcc	381d64 <__DATA_END+0x380374>
    1160:	49053b0b 	stmdbmi	r5, {r0, r1, r3, r8, r9, fp, ip, sp}
    1164:	000b3813 	andeq	r3, fp, r3, lsl r8
    1168:	000d0e00 	andeq	r0, sp, r0, lsl #28
    116c:	0b3a0e03 	bleq	e84980 <__DATA_END+0xe82f90>
    1170:	1349053b 	movtne	r0, #38203	; 0x953b
    1174:	00000538 	andeq	r0, r0, r8, lsr r5
    1178:	4900210f 	stmdbmi	r0, {r0, r1, r2, r3, r8, sp}
    117c:	00052f13 	andeq	r2, r5, r3, lsl pc
    1180:	012e1000 	teqeq	lr, r0
    1184:	0e03193f 	mcreq	9, 0, r1, cr3, cr15, {1}
    1188:	0b3b0b3a 	bleq	ec3e78 <__DATA_END+0xec2488>
    118c:	01111927 	tsteq	r1, r7, lsr #18
    1190:	18400612 	stmdane	r0, {r1, r4, r9, sl}^
    1194:	00194297 	mulseq	r9, r7, r2
    1198:	00051100 	andeq	r1, r5, r0, lsl #2
    119c:	0b3a0e03 	bleq	e849b0 <__DATA_END+0xe82fc0>
    11a0:	13490b3b 	movtne	r0, #39739	; 0x9b3b
    11a4:	00001802 	andeq	r1, r0, r2, lsl #16
    11a8:	01110100 	tsteq	r1, r0, lsl #2
    11ac:	0b130e25 	bleq	4c4a48 <__DATA_END+0x4c3058>
    11b0:	0e1b0e03 	cdpeq	14, 1, cr0, cr11, cr3, {0}
    11b4:	01111755 	tsteq	r1, r5, asr r7
    11b8:	00001710 	andeq	r1, r0, r0, lsl r7
    11bc:	0b002402 	bleq	a1cc <__DATA_END+0x87dc>
    11c0:	030b3e0b 	movweq	r3, #48651	; 0xbe0b
    11c4:	0300000e 	movweq	r0, #14
    11c8:	0e030016 	mcreq	0, 0, r0, cr3, cr6, {0}
    11cc:	0b3b0b3a 	bleq	ec3ebc <__DATA_END+0xec24cc>
    11d0:	00001349 	andeq	r1, r0, r9, asr #6
    11d4:	0b002404 	bleq	a1ec <__DATA_END+0x87fc>
    11d8:	030b3e0b 	movweq	r3, #48651	; 0xbe0b
    11dc:	05000008 	streq	r0, [r0, #-8]
    11e0:	13490035 	movtne	r0, #36917	; 0x9035
    11e4:	26060000 	strcs	r0, [r6], -r0
    11e8:	00134900 	andseq	r4, r3, r0, lsl #18
    11ec:	01010700 	tsteq	r1, r0, lsl #14
    11f0:	13011349 	movwne	r1, #4937	; 0x1349
    11f4:	21080000 	mrscs	r0, (UNDEF: 8)
    11f8:	2f134900 	svccs	0x00134900
    11fc:	0900000b 	stmdbeq	r0, {r0, r1, r3}
    1200:	0b0b0113 	bleq	2c1654 <__DATA_END+0x2bfc64>
    1204:	053b0b3a 	ldreq	r0, [fp, #-2874]!	; 0xfffff4c6
    1208:	00001301 	andeq	r1, r0, r1, lsl #6
    120c:	03000d0a 	movweq	r0, #3338	; 0xd0a
    1210:	3b0b3a08 	blcc	2cfa38 <__DATA_END+0x2ce048>
    1214:	38134905 	ldmdacc	r3, {r0, r2, r8, fp, lr}
    1218:	0b00000b 	bleq	124c <i2c_init+0x8>
    121c:	0e03000d 	cdpeq	0, 0, cr0, cr3, cr13, {0}
    1220:	053b0b3a 	ldreq	r0, [fp, #-2874]!	; 0xfffff4c6
    1224:	0b381349 	bleq	e05f50 <__DATA_END+0xe04560>
    1228:	160c0000 	strne	r0, [ip], -r0
    122c:	3a0e0300 	bcc	381e34 <__DATA_END+0x380444>
    1230:	49053b0b 	stmdbmi	r5, {r0, r1, r3, r8, r9, fp, ip, sp}
    1234:	0d000013 	stceq	0, cr0, [r0, #-76]	; 0xffffffb4
    1238:	050b0113 	streq	r0, [fp, #-275]	; 0xfffffeed
    123c:	053b0b3a 	ldreq	r0, [fp, #-2874]!	; 0xfffff4c6
    1240:	00001301 	andeq	r1, r0, r1, lsl #6
    1244:	03000d0e 	movweq	r0, #3342	; 0xd0e
    1248:	3b0b3a0e 	blcc	2cfa88 <__DATA_END+0x2ce098>
    124c:	38134905 	ldmdacc	r3, {r0, r2, r8, fp, lr}
    1250:	0f000005 	svceq	0x00000005
    1254:	13490021 	movtne	r0, #36897	; 0x9021
    1258:	0000052f 	andeq	r0, r0, pc, lsr #10
    125c:	3f012e10 	svccc	0x00012e10
    1260:	3a0e0319 	bcc	381ecc <__DATA_END+0x3804dc>
    1264:	270b3b0b 	strcs	r3, [fp, -fp, lsl #22]
    1268:	010b2019 	tsteq	fp, r9, lsl r0
    126c:	11000013 	tstne	r0, r3, lsl r0
    1270:	08030005 	stmdaeq	r3, {r0, r2}
    1274:	0b3b0b3a 	bleq	ec3f64 <__DATA_END+0xec2574>
    1278:	00001349 	andeq	r1, r0, r9, asr #6
    127c:	0b000f12 	bleq	4ecc <__DATA_END+0x34dc>
    1280:	0013490b 	andseq	r4, r3, fp, lsl #18
    1284:	012e1300 	teqeq	lr, r0, lsl #6
    1288:	0e03193f 	mcreq	9, 0, r1, cr3, cr15, {1}
    128c:	0b3b0b3a 	bleq	ec3f7c <__DATA_END+0xec258c>
    1290:	13491927 	movtne	r1, #39207	; 0x9927
    1294:	13010b20 	movwne	r0, #6944	; 0x1b20
    1298:	05140000 	ldreq	r0, [r4, #-0]
    129c:	3a0e0300 	bcc	381ea4 <__DATA_END+0x3804b4>
    12a0:	490b3b0b 	stmdbmi	fp, {r0, r1, r3, r8, r9, fp, ip, sp}
    12a4:	15000013 	strne	r0, [r0, #-19]	; 0xffffffed
    12a8:	193f012e 	ldmdbne	pc!, {r1, r2, r3, r5, r8}	; <UNPREDICTABLE>
    12ac:	0b3a0e03 	bleq	e84ac0 <__DATA_END+0xe830d0>
    12b0:	19270b3b 	stmdbne	r7!, {r0, r1, r3, r4, r5, r8, r9, fp}
    12b4:	06120111 			; <UNDEFINED> instruction: 0x06120111
    12b8:	42971840 	addsmi	r1, r7, #64, 16	; 0x400000
    12bc:	00130119 	andseq	r0, r3, r9, lsl r1
    12c0:	00051600 	andeq	r1, r5, r0, lsl #12
    12c4:	0b3a0803 	bleq	e832d8 <__DATA_END+0xe818e8>
    12c8:	13490b3b 	movtne	r0, #39739	; 0x9b3b
    12cc:	00001802 	andeq	r1, r0, r2, lsl #16
    12d0:	3f012e17 	svccc	0x00012e17
    12d4:	3a0e0319 	bcc	381f40 <__DATA_END+0x380550>
    12d8:	270b3b0b 	strcs	r3, [fp, -fp, lsl #22]
    12dc:	11134919 	tstne	r3, r9, lsl r9
    12e0:	40061201 	andmi	r1, r6, r1, lsl #4
    12e4:	19429718 	stmdbne	r2, {r3, r4, r8, r9, sl, ip, pc}^
    12e8:	00001301 	andeq	r1, r0, r1, lsl #6
    12ec:	03000518 	movweq	r0, #1304	; 0x518
    12f0:	3b0b3a0e 	blcc	2cfb30 <__DATA_END+0x2ce140>
    12f4:	0213490b 	andseq	r4, r3, #180224	; 0x2c000
    12f8:	19000017 	stmdbne	r0, {r0, r1, r2, r4}
    12fc:	08030034 	stmdaeq	r3, {r2, r4, r5}
    1300:	0b3b0b3a 	bleq	ec3ff0 <__DATA_END+0xec2600>
    1304:	00001349 	andeq	r1, r0, r9, asr #6
    1308:	0300341a 	movweq	r3, #1050	; 0x41a
    130c:	3b0b3a0e 	blcc	2cfb4c <__DATA_END+0x2ce15c>
    1310:	0213490b 	andseq	r4, r3, #180224	; 0x2c000
    1314:	1b000017 	blne	1378 <exit>
    1318:	1331011d 	teqne	r1, #1073741831	; 0x40000007
    131c:	17550152 			; <UNDEFINED> instruction: 0x17550152
    1320:	0b590b58 	bleq	1644088 <__DATA_END+0x1642698>
    1324:	00001301 	andeq	r1, r0, r1, lsl #6
    1328:	3100051c 	tstcc	r0, ip, lsl r5
    132c:	00061c13 	andeq	r1, r6, r3, lsl ip
    1330:	011d1d00 	tsteq	sp, r0, lsl #26
    1334:	01111331 	tsteq	r1, r1, lsr r3
    1338:	0b580612 	bleq	1602b88 <__DATA_END+0x1601198>
    133c:	00000b59 	andeq	r0, r0, r9, asr fp
    1340:	3100051e 	tstcc	r0, lr, lsl r5
    1344:	000d1c13 	andeq	r1, sp, r3, lsl ip
    1348:	011d1f00 	tsteq	sp, r0, lsl #30
    134c:	01521331 	cmpeq	r2, r1, lsr r3
    1350:	0b581755 	bleq	16070ac <__DATA_END+0x16056bc>
    1354:	00000b59 	andeq	r0, r0, r9, asr fp
    1358:	31000520 	tstcc	r0, r0, lsr #10
    135c:	00170213 	andseq	r0, r7, r3, lsl r2
    1360:	011d2100 	tsteq	sp, r0, lsl #2
    1364:	01111331 	tsteq	r1, r1, lsr r3
    1368:	0b580612 	bleq	1602bb8 <__DATA_END+0x16011c8>
    136c:	13010b59 	movwne	r0, #7001	; 0x1b59
    1370:	05220000 	streq	r0, [r2, #-0]!
    1374:	00133100 	andseq	r3, r3, r0, lsl #2
    1378:	82892300 	addhi	r2, r9, #0, 6
    137c:	01110101 	tsteq	r1, r1, lsl #2
    1380:	00001331 	andeq	r1, r0, r1, lsr r3
    1384:	01828a24 	orreq	r8, r2, r4, lsr #20
    1388:	91180200 	tstls	r8, r0, lsl #4
    138c:	00001842 	andeq	r1, r0, r2, asr #16
    1390:	3f002e25 	svccc	0x00002e25
    1394:	6e193c19 	mrcvs	12, 0, r3, cr9, cr9, {0}
    1398:	3a0e030e 	bcc	381fd8 <__DATA_END+0x3805e8>
    139c:	000b3b0b 	andeq	r3, fp, fp, lsl #22
    13a0:	11010000 	mrsne	r0, (UNDEF: 1)
    13a4:	130e2501 	movwne	r2, #58625	; 0xe501
    13a8:	1b0e030b 	blne	381fdc <__DATA_END+0x3805ec>
    13ac:	1117550e 	tstne	r7, lr, lsl #10
    13b0:	00171001 	andseq	r1, r7, r1
    13b4:	00240200 	eoreq	r0, r4, r0, lsl #4
    13b8:	0b3e0b0b 	bleq	f83fec <__DATA_END+0xf825fc>
    13bc:	00000e03 	andeq	r0, r0, r3, lsl #28
    13c0:	03001603 	movweq	r1, #1539	; 0x603
    13c4:	3b0b3a0e 	blcc	2cfc04 <__DATA_END+0x2ce214>
    13c8:	0013490b 	andseq	r4, r3, fp, lsl #18
    13cc:	00240400 	eoreq	r0, r4, r0, lsl #8
    13d0:	0b3e0b0b 	bleq	f84004 <__DATA_END+0xf82614>
    13d4:	00000803 	andeq	r0, r0, r3, lsl #16
    13d8:	49003505 	stmdbmi	r0, {r0, r2, r8, sl, ip, sp}
    13dc:	06000013 			; <UNDEFINED> instruction: 0x06000013
    13e0:	13490026 	movtne	r0, #36902	; 0x9026
    13e4:	01070000 	mrseq	r0, (UNDEF: 7)
    13e8:	01134901 	tsteq	r3, r1, lsl #18
    13ec:	08000013 	stmdaeq	r0, {r0, r1, r4}
    13f0:	13490021 	movtne	r0, #36897	; 0x9021
    13f4:	00000b2f 	andeq	r0, r0, pc, lsr #22
    13f8:	0b011309 	bleq	46024 <__DATA_END+0x44634>
    13fc:	3b0b3a0b 	blcc	2cfc30 <__DATA_END+0x2ce240>
    1400:	00130105 	andseq	r0, r3, r5, lsl #2
    1404:	000d0a00 	andeq	r0, sp, r0, lsl #20
    1408:	0b3a0e03 	bleq	e84c1c <__DATA_END+0xe8322c>
    140c:	1349053b 	movtne	r0, #38203	; 0x953b
    1410:	00000b38 	andeq	r0, r0, r8, lsr fp
    1414:	03000d0b 	movweq	r0, #3339	; 0xd0b
    1418:	3b0b3a08 	blcc	2cfc40 <__DATA_END+0x2ce250>
    141c:	38134905 	ldmdacc	r3, {r0, r2, r8, fp, lr}
    1420:	0c00000b 	stceq	0, cr0, [r0], {11}
    1424:	0e030016 	mcreq	0, 0, r0, cr3, cr6, {0}
    1428:	053b0b3a 	ldreq	r0, [fp, #-2874]!	; 0xfffff4c6
    142c:	00001349 	andeq	r1, r0, r9, asr #6
    1430:	0b01130d 	bleq	4606c <__DATA_END+0x4467c>
    1434:	3b0b3a05 	blcc	2cfc50 <__DATA_END+0x2ce260>
    1438:	00130105 	andseq	r0, r3, r5, lsl #2
    143c:	000d0e00 	andeq	r0, sp, r0, lsl #28
    1440:	0b3a0e03 	bleq	e84c54 <__DATA_END+0xe83264>
    1444:	1349053b 	movtne	r0, #38203	; 0x953b
    1448:	00000538 	andeq	r0, r0, r8, lsr r5
    144c:	4900210f 	stmdbmi	r0, {r0, r1, r2, r3, r8, sp}
    1450:	00052f13 	andeq	r2, r5, r3, lsl pc
    1454:	002e1000 	eoreq	r1, lr, r0
    1458:	0e03193f 	mcreq	9, 0, r1, cr3, cr15, {1}
    145c:	0b3b0b3a 	bleq	ec414c <__DATA_END+0xec275c>
    1460:	01111927 	tsteq	r1, r7, lsr #18
    1464:	18400612 	stmdane	r0, {r1, r4, r9, sl}^
    1468:	00194297 	mulseq	r9, r7, r2
    146c:	012e1100 	teqeq	lr, r0, lsl #2
    1470:	0e03193f 	mcreq	9, 0, r1, cr3, cr15, {1}
    1474:	0b3b0b3a 	bleq	ec4164 <__DATA_END+0xec2774>
    1478:	01111927 	tsteq	r1, r7, lsr #18
    147c:	18400612 	stmdane	r0, {r1, r4, r9, sl}^
    1480:	00194297 	mulseq	r9, r7, r2
    1484:	00051200 	andeq	r1, r5, r0, lsl #4
    1488:	0b3a0803 	bleq	e8349c <__DATA_END+0xe81aac>
    148c:	13490b3b 	movtne	r0, #39739	; 0x9b3b
    1490:	00001702 	andeq	r1, r0, r2, lsl #14
    1494:	01110100 	tsteq	r1, r0, lsl #2
    1498:	0b130e25 	bleq	4c4d34 <__DATA_END+0x4c3344>
    149c:	0e1b0e03 	cdpeq	14, 1, cr0, cr11, cr3, {0}
    14a0:	01111755 	tsteq	r1, r5, asr r7
    14a4:	00001710 	andeq	r1, r0, r0, lsl r7
    14a8:	0b002402 	bleq	a4b8 <__DATA_END+0x8ac8>
    14ac:	030b3e0b 	movweq	r3, #48651	; 0xbe0b
    14b0:	0300000e 	movweq	r0, #14
    14b4:	0b0b0024 	bleq	2c154c <__DATA_END+0x2bfb5c>
    14b8:	08030b3e 	stmdaeq	r3, {r1, r2, r3, r4, r5, r8, r9, fp}
    14bc:	01040000 	mrseq	r0, (UNDEF: 4)
    14c0:	01134901 	tsteq	r3, r1, lsl #18
    14c4:	05000013 	streq	r0, [r0, #-19]	; 0xffffffed
    14c8:	13490021 	movtne	r0, #36897	; 0x9021
    14cc:	00000b2f 	andeq	r0, r0, pc, lsr #22
    14d0:	0b011306 	bleq	460f0 <__DATA_END+0x44700>
    14d4:	3b0b3a0b 	blcc	2cfd08 <__DATA_END+0x2ce318>
    14d8:	0013010b 	andseq	r0, r3, fp, lsl #2
    14dc:	000d0700 	andeq	r0, sp, r0, lsl #14
    14e0:	0b3a0e03 	bleq	e84cf4 <__DATA_END+0xe83304>
    14e4:	13490b3b 	movtne	r0, #39739	; 0x9b3b
    14e8:	00000b38 	andeq	r0, r0, r8, lsr fp
    14ec:	03000d08 	movweq	r0, #3336	; 0xd08
    14f0:	3b0b3a08 	blcc	2cfd18 <__DATA_END+0x2ce328>
    14f4:	3813490b 	ldmdacc	r3, {r0, r1, r3, r8, fp, lr}
    14f8:	0900000b 	stmdbeq	r0, {r0, r1, r3}
    14fc:	0e030016 	mcreq	0, 0, r0, cr3, cr6, {0}
    1500:	0b3b0b3a 	bleq	ec41f0 <__DATA_END+0xec2800>
    1504:	00001349 	andeq	r1, r0, r9, asr #6
    1508:	3f012e0a 	svccc	0x00012e0a
    150c:	3a0e0319 	bcc	382178 <__DATA_END+0x380788>
    1510:	270b3b0b 	strcs	r3, [fp, -fp, lsl #22]
    1514:	11134919 	tstne	r3, r9, lsl r9
    1518:	40061201 	andmi	r1, r6, r1, lsl #4
    151c:	19429718 	stmdbne	r2, {r3, r4, r8, r9, sl, ip, pc}^
    1520:	00001301 	andeq	r1, r0, r1, lsl #6
    1524:	0300050b 	movweq	r0, #1291	; 0x50b
    1528:	3b0b3a08 	blcc	2cfd50 <__DATA_END+0x2ce360>
    152c:	0213490b 	andseq	r4, r3, #180224	; 0x2c000
    1530:	0c000017 	stceq	0, cr0, [r0], {23}
    1534:	08030005 	stmdaeq	r3, {r0, r2}
    1538:	0b3b0b3a 	bleq	ec4228 <__DATA_END+0xec2838>
    153c:	18021349 	stmdane	r2, {r0, r3, r6, r8, r9, ip}
    1540:	340d0000 	strcc	r0, [sp], #-0
    1544:	3a080300 	bcc	20214c <__DATA_END+0x20075c>
    1548:	490b3b0b 	stmdbmi	fp, {r0, r1, r3, r8, r9, fp, ip, sp}
    154c:	00170213 	andseq	r0, r7, r3, lsl r2
    1550:	000f0e00 	andeq	r0, pc, r0, lsl #28
    1554:	13490b0b 	movtne	r0, #39691	; 0x9b0b
    1558:	2e0f0000 	cdpcs	0, 0, cr0, cr15, cr0, {0}
    155c:	03193f01 	tsteq	r9, #1, 30
    1560:	3b0b3a0e 	blcc	2cfda0 <__DATA_END+0x2ce3b0>
    1564:	1113490b 	tstne	r3, fp, lsl #18
    1568:	40061201 	andmi	r1, r6, r1, lsl #4
    156c:	19429718 	stmdbne	r2, {r3, r4, r8, r9, sl, ip, pc}^
    1570:	00001301 	andeq	r1, r0, r1, lsl #6
    1574:	03003410 	movweq	r3, #1040	; 0x410
    1578:	3b0b3a08 	blcc	2cfda0 <__DATA_END+0x2ce3b0>
    157c:	0213490b 	andseq	r4, r3, #180224	; 0x2c000
    1580:	11000018 	tstne	r0, r8, lsl r0
    1584:	0e030034 	mcreq	0, 0, r0, cr3, cr4, {1}
    1588:	0b3b0b3a 	bleq	ec4278 <__DATA_END+0xec2888>
    158c:	00001349 	andeq	r1, r0, r9, asr #6
    1590:	03003412 	movweq	r3, #1042	; 0x412
    1594:	3b0b3a0e 	blcc	2cfdd4 <__DATA_END+0x2ce3e4>
    1598:	0213490b 	andseq	r4, r3, #180224	; 0x2c000
    159c:	13000017 	movwne	r0, #23
    15a0:	193f012e 	ldmdbne	pc!, {r1, r2, r3, r5, r8}	; <UNPREDICTABLE>
    15a4:	0b3a0e03 	bleq	e84db8 <__DATA_END+0xe833c8>
    15a8:	13490b3b 	movtne	r0, #39739	; 0x9b3b
    15ac:	1301193c 	movwne	r1, #6460	; 0x193c
    15b0:	18140000 	ldmdane	r4, {}	; <UNPREDICTABLE>
    15b4:	15000000 	strne	r0, [r0, #-0]
    15b8:	01018289 	smlabbeq	r1, r9, r2, r8
    15bc:	13310111 	teqne	r1, #1073741828	; 0x40000004
    15c0:	00001301 	andeq	r1, r0, r1, lsl #6
    15c4:	01828a16 	orreq	r8, r2, r6, lsl sl
    15c8:	91180200 	tstls	r8, r0, lsl #4
    15cc:	00001842 	andeq	r1, r0, r2, asr #16
    15d0:	01828917 	orreq	r8, r2, r7, lsl r9
    15d4:	31011100 	mrscc	r1, (UNDEF: 17)
    15d8:	18000013 	stmdane	r0, {r0, r1, r4}
    15dc:	01018289 	smlabbeq	r1, r9, r2, r8
    15e0:	13310111 	teqne	r1, #1073741828	; 0x40000004
    15e4:	34190000 	ldrcc	r0, [r9], #-0
    15e8:	3a0e0300 	bcc	3821f0 <__DATA_END+0x380800>
    15ec:	490b3b0b 	stmdbmi	fp, {r0, r1, r3, r8, r9, fp, ip, sp}
    15f0:	3c193f13 	ldccc	15, cr3, [r9], {19}
    15f4:	1a000019 	bne	1660 <__register_exitproc+0xa0>
    15f8:	193f002e 	ldmdbne	pc!, {r1, r2, r3, r5}	; <UNPREDICTABLE>
    15fc:	0e6e193c 	mcreq	9, 3, r1, cr14, cr12, {1}
    1600:	0b3a0e03 	bleq	e84e14 <__DATA_END+0xe83424>
    1604:	00000b3b 	andeq	r0, r0, fp, lsr fp
    1608:	00110100 	andseq	r0, r1, r0, lsl #2
    160c:	01110610 	tsteq	r1, r0, lsl r6
    1610:	08030112 	stmdaeq	r3, {r1, r4, r8}
    1614:	0825081b 	stmdaeq	r5!, {r0, r1, r3, r4, fp}
    1618:	00000513 	andeq	r0, r0, r3, lsl r5
	...

Disassembly of section .debug_loc:

00000000 <.debug_loc>:
	...
       8:	000c0006 	andeq	r0, ip, r6
       c:	9f007a12 	svcls	0x00007a12
	...
      18:	00500001 	subseq	r0, r0, r1
      1c:	00000000 	andeq	r0, r0, r0
      20:	01000000 	mrseq	r0, (UNDEF: 0)
      24:	00005000 	andeq	r5, r0, r0
      28:	00000000 	andeq	r0, r0, r0
      2c:	00010000 	andeq	r0, r1, r0
      30:	00000050 	andeq	r0, r0, r0, asr r0
      34:	00000000 	andeq	r0, r0, r0
      38:	50000100 	andpl	r0, r0, r0, lsl #2
	...
      44:	00500001 	subseq	r0, r0, r1
      48:	00000000 	andeq	r0, r0, r0
      4c:	01000000 	mrseq	r0, (UNDEF: 0)
      50:	00005000 	andeq	r5, r0, r0
      54:	00000000 	andeq	r0, r0, r0
      58:	00010000 	andeq	r0, r1, r0
      5c:	00000050 	andeq	r0, r0, r0, asr r0
      60:	00000000 	andeq	r0, r0, r0
      64:	50000100 	andpl	r0, r0, r0, lsl #2
	...
      70:	00500001 	subseq	r0, r0, r1
	...
      80:	01000000 	mrseq	r0, (UNDEF: 0)
      84:	00005100 	andeq	r5, r0, r0, lsl #2
      88:	00000000 	andeq	r0, r0, r0
      8c:	00010000 	andeq	r0, r1, r0
      90:	00000051 	andeq	r0, r0, r1, asr r0
      94:	00000000 	andeq	r0, r0, r0
      98:	71000a00 	tstvc	r0, r0, lsl #20
      9c:	081a4f00 	ldmdaeq	sl, {r8, r9, sl, fp, lr}
      a0:	01231aff 	strdeq	r1, [r3, -pc]!
      a4:	0000009f 	muleq	r0, pc, r0	; <UNPREDICTABLE>
      a8:	00000000 	andeq	r0, r0, r0
      ac:	73000a00 	movwvc	r0, #2560	; 0xa00
      b0:	081a4f00 	ldmdaeq	sl, {r8, r9, sl, fp, lr}
      b4:	18231aff 	stmdane	r3!, {r0, r1, r2, r3, r4, r5, r6, r7, r9, fp, ip}
      b8:	0000009f 	muleq	r0, pc, r0	; <UNPREDICTABLE>
      bc:	00000000 	andeq	r0, r0, r0
      c0:	31000c00 	tstcc	r0, r0, lsl #24
      c4:	1a3e0073 	bne	f80298 <__DATA_END+0xf7e8a8>
      c8:	311aff08 	tstcc	sl, r8, lsl #30
      cc:	009f2425 	addseq	r2, pc, r5, lsr #8
      d0:	00000000 	andeq	r0, r0, r0
      d4:	50000000 	andpl	r0, r0, r0
      d8:	5a000005 	bpl	f4 <M_VECTOR_RAM_SIZE+0xf4>
      dc:	07000005 	streq	r0, [r0, -r5]
      e0:	20007300 	andcs	r7, r0, r0, lsl #6
      e4:	9f220071 	svcls	0x00220071
      e8:	0000055a 	andeq	r0, r0, sl, asr r5
      ec:	0000055c 	andeq	r0, r0, ip, asr r5
      f0:	00710006 	rsbseq	r0, r1, r6
      f4:	9f1c0073 	svcls	0x001c0073
      f8:	0000055c 	andeq	r0, r0, ip, asr r5
      fc:	0000055e 	andeq	r0, r0, lr, asr r5
     100:	00730007 	rsbseq	r0, r3, r7
     104:	22007120 	andcs	r7, r0, #32, 2
     108:	0005669f 	muleq	r5, pc, r6	; <UNPREDICTABLE>
     10c:	00057000 	andeq	r7, r5, r0
     110:	73000700 	movwvc	r0, #1792	; 0x700
     114:	00712000 	rsbseq	r2, r1, r0
     118:	05709f22 	ldrbeq	r9, [r0, #-3874]!	; 0xfffff0de
     11c:	05720000 	ldrbeq	r0, [r2, #-0]!
     120:	00060000 	andeq	r0, r6, r0
     124:	00730071 	rsbseq	r0, r3, r1, ror r0
     128:	05729f1c 	ldrbeq	r9, [r2, #-3868]!	; 0xfffff0e4
     12c:	05980000 	ldreq	r0, [r8]
     130:	00070000 	andeq	r0, r7, r0
     134:	71200073 	teqvc	r0, r3, ror r0
     138:	009f2200 	addseq	r2, pc, r0, lsl #4
     13c:	00000000 	andeq	r0, r0, r0
     140:	98000000 	stmdals	r0, {}	; <UNPREDICTABLE>
     144:	c2000005 	andgt	r0, r0, #5
     148:	01000005 	tsteq	r0, r5
     14c:	05c25000 	strbeq	r5, [r2]
     150:	05c40000 	strbeq	r0, [r4]
     154:	00040000 	andeq	r0, r4, r0
     158:	9f5001f3 	svcls	0x005001f3
     15c:	000005c4 	andeq	r0, r0, r4, asr #11
     160:	000005c6 	andeq	r0, r0, r6, asr #11
     164:	c6500001 	ldrbgt	r0, [r0], -r1
     168:	ca000005 	bgt	184 <M_VECTOR_RAM_SIZE+0x184>
     16c:	04000005 	streq	r0, [r0], #-5
     170:	5001f300 	andpl	pc, r1, r0, lsl #6
     174:	0000009f 	muleq	r0, pc, r0	; <UNPREDICTABLE>
	...
     184:	50000100 	andpl	r0, r0, r0, lsl #2
	...
     190:	01f30004 	mvnseq	r0, r4
     194:	00009f50 	andeq	r9, r0, r0, asr pc
     198:	00000000 	andeq	r0, r0, r0
     19c:	05ca0000 	strbeq	r0, [sl]
     1a0:	05d00000 	ldrbeq	r0, [r0]
     1a4:	00010000 	andeq	r0, r1, r0
     1a8:	0005d050 	andeq	sp, r5, r0, asr r0
     1ac:	0005f800 	andeq	pc, r5, r0, lsl #16
     1b0:	53000100 	movwpl	r0, #256	; 0x100
	...
     1bc:	000005e0 	andeq	r0, r0, r0, ror #11
     1c0:	000005f6 	strdeq	r0, [r0], -r6
     1c4:	00500001 	subseq	r0, r0, r1
     1c8:	00000000 	andeq	r0, r0, r0
     1cc:	f8000000 			; <UNDEFINED> instruction: 0xf8000000
     1d0:	12000005 	andne	r0, r0, #5
     1d4:	01000006 	tsteq	r0, r6
     1d8:	06125000 	ldreq	r5, [r2], -r0
     1dc:	06140000 	ldreq	r0, [r4], -r0
     1e0:	00040000 	andeq	r0, r4, r0
     1e4:	9f5001f3 	svcls	0x005001f3
	...
     1f8:	00500001 	subseq	r0, r0, r1
     1fc:	00000000 	andeq	r0, r0, r0
     200:	04000000 	streq	r0, [r0], #-0
     204:	5001f300 	andpl	pc, r1, r0, lsl #6
     208:	0000009f 	muleq	r0, pc, r0	; <UNPREDICTABLE>
	...
     218:	50000100 	andpl	r0, r0, r0, lsl #2
	...
     224:	00540001 	subseq	r0, r4, r1
     228:	00000000 	andeq	r0, r0, r0
     22c:	04000000 	streq	r0, [r0], #-0
     230:	5001f300 	andpl	pc, r1, r0, lsl #6
     234:	0000009f 	muleq	r0, pc, r0	; <UNPREDICTABLE>
     238:	00000000 	andeq	r0, r0, r0
     23c:	0006a800 	andeq	sl, r6, r0, lsl #16
     240:	0006e500 	andeq	lr, r6, r0, lsl #10
     244:	50000100 	andpl	r0, r0, r0, lsl #2
     248:	000006e5 	andeq	r0, r0, r5, ror #13
     24c:	00000740 	andeq	r0, r0, r0, asr #14
     250:	01f30004 	mvnseq	r0, r4
     254:	00009f50 	andeq	r9, r0, r0, asr pc
     258:	00000000 	andeq	r0, r0, r0
     25c:	06a80000 	strteq	r0, [r8], r0
     260:	06b20000 	ldrteq	r0, [r2], r0
     264:	00010000 	andeq	r0, r1, r0
     268:	0006b251 	andeq	fp, r6, r1, asr r2
     26c:	0006bc00 	andeq	fp, r6, r0, lsl #24
     270:	03000500 	movweq	r0, #1280	; 0x500
     274:	1ffff224 	svcne	0x00fff224
     278:	000006bc 			; <UNDEFINED> instruction: 0x000006bc
     27c:	00000740 	andeq	r0, r0, r0, asr #14
     280:	01f30004 	mvnseq	r0, r4
     284:	00009f51 	andeq	r9, r0, r1, asr pc
     288:	00000000 	andeq	r0, r0, r0
     28c:	06fe0000 	ldrbteq	r0, [lr], r0
     290:	07000000 	streq	r0, [r0, -r0]
     294:	00010000 	andeq	r0, r1, r0
     298:	00000052 	andeq	r0, r0, r2, asr r0
	...
     2a8:	50000100 	andpl	r0, r0, r0, lsl #2
	...
     2b4:	01f30004 	mvnseq	r0, r4
     2b8:	00009f50 	andeq	r9, r0, r0, asr pc
     2bc:	00000000 	andeq	r0, r0, r0
     2c0:	08480000 	stmdaeq	r8, {}^	; <UNPREDICTABLE>
     2c4:	08540000 	ldmdaeq	r4, {}^	; <UNPREDICTABLE>
     2c8:	00010000 	andeq	r0, r1, r0
     2cc:	00085450 	andeq	r5, r8, r0, asr r4
     2d0:	00088000 	andeq	r8, r8, r0
     2d4:	f3000400 	vshl.u8	d0, d0, d0
     2d8:	009f5001 	addseq	r5, pc, r1
     2dc:	00000000 	andeq	r0, r0, r0
     2e0:	80000000 	andhi	r0, r0, r0
     2e4:	93000008 	movwls	r0, #8
     2e8:	01000008 	tsteq	r0, r8
     2ec:	08935000 	ldmeq	r3, {ip, lr}
     2f0:	09080000 	stmdbeq	r8, {}	; <UNPREDICTABLE>
     2f4:	00040000 	andeq	r0, r4, r0
     2f8:	9f5001f3 	svcls	0x005001f3
	...
     304:	00000880 	andeq	r0, r0, r0, lsl #17
     308:	00000893 	muleq	r0, r3, r8
     30c:	93510001 	cmpls	r1, #1
     310:	08000008 	stmdaeq	r0, {r3}
     314:	04000009 	streq	r0, [r0], #-9
     318:	5101f300 	mrspl	pc, SP_irq	; <UNPREDICTABLE>
     31c:	0000009f 	muleq	r0, pc, r0	; <UNPREDICTABLE>
     320:	00000000 	andeq	r0, r0, r0
     324:	0008c000 	andeq	ip, r8, r0
     328:	0008c800 	andeq	ip, r8, r0, lsl #16
     32c:	77000500 	strvc	r0, [r0, -r0, lsl #10]
     330:	9f253500 	svcls	0x00253500
     334:	000008c8 	andeq	r0, r0, r8, asr #17
     338:	000008e6 	andeq	r0, r0, r6, ror #17
     33c:	0077000a 	rsbseq	r0, r7, sl
     340:	00762535 	rsbseq	r2, r6, r5, lsr r5
     344:	9f03231c 	svcls	0x0003231c
     348:	000008e6 	andeq	r0, r0, r6, ror #17
     34c:	000008e8 	andeq	r0, r0, r8, ror #17
     350:	0077000a 	rsbseq	r0, r7, sl
     354:	00762535 	rsbseq	r2, r6, r5, lsr r5
     358:	9f02231c 	svcls	0x0002231c
     35c:	000008ea 	andeq	r0, r0, sl, ror #17
     360:	000008f6 	strdeq	r0, [r0], -r6
     364:	0077000a 	rsbseq	r0, r7, sl
     368:	00762535 	rsbseq	r2, r6, r5, lsr r5
     36c:	9f03231c 	svcls	0x0003231c
	...
     378:	000008a4 	andeq	r0, r0, r4, lsr #17
     37c:	000008b0 			; <UNDEFINED> instruction: 0x000008b0
     380:	b0530001 	subslt	r0, r3, r1
     384:	b2000008 	andlt	r0, r0, #8
     388:	04000008 	streq	r0, [r0], #-8
     38c:	00c17200 	sbceq	r7, r1, r0, lsl #4
     390:	0008b29f 	muleq	r8, pc, r2	; <UNPREDICTABLE>
     394:	0008b400 	andeq	fp, r8, r0, lsl #8
     398:	53000100 	movwpl	r0, #256	; 0x100
     39c:	000008b4 			; <UNDEFINED> instruction: 0x000008b4
     3a0:	000008be 			; <UNDEFINED> instruction: 0x000008be
     3a4:	30730003 	rsbscc	r0, r3, r3
     3a8:	0008be9f 	muleq	r8, pc, lr	; <UNPREDICTABLE>
     3ac:	0008c000 	andeq	ip, r8, r0
     3b0:	75000200 	strvc	r0, [r0, #-512]	; 0xfffffe00
     3b4:	0008c000 	andeq	ip, r8, r0
     3b8:	0008f600 	andeq	pc, r8, r0, lsl #12
     3bc:	57000100 	strpl	r0, [r0, -r0, lsl #2]
	...
     3c8:	00000894 	muleq	r0, r4, r8
     3cc:	00000898 	muleq	r0, r8, r8
     3d0:	007d0002 	rsbseq	r0, sp, r2
     3d4:	00000898 	muleq	r0, r8, r8
     3d8:	000008f8 	strdeq	r0, [r0], -r8
     3dc:	00550001 	subseq	r0, r5, r1
     3e0:	00000000 	andeq	r0, r0, r0
     3e4:	c0000000 	andgt	r0, r0, r0
     3e8:	c8000008 	stmdagt	r0, {r3}
     3ec:	02000008 	andeq	r0, r0, #8
     3f0:	c89f3000 	ldmgt	pc, {ip, sp}	; <UNPREDICTABLE>
     3f4:	e6000008 	str	r0, [r0], -r8
     3f8:	03000008 	movweq	r0, #8
     3fc:	9f7d7600 	svcls	0x007d7600
     400:	000008e6 	andeq	r0, r0, r6, ror #17
     404:	000008e8 	andeq	r0, r0, r8, ror #17
     408:	7e760003 	cdpvc	0, 7, cr0, cr6, cr3, {0}
     40c:	0008ea9f 	muleq	r8, pc, sl	; <UNPREDICTABLE>
     410:	0008f600 	andeq	pc, r8, r0, lsl #12
     414:	76000300 	strvc	r0, [r0], -r0, lsl #6
     418:	00009f7d 	andeq	r9, r0, sp, ror pc
     41c:	00000000 	andeq	r0, r0, r0
     420:	09080000 	stmdbeq	r8, {}	; <UNPREDICTABLE>
     424:	09140000 	ldmdbeq	r4, {}	; <UNPREDICTABLE>
     428:	00010000 	andeq	r0, r1, r0
     42c:	00091450 	andeq	r1, r9, r0, asr r4
     430:	00091c00 	andeq	r1, r9, r0, lsl #24
     434:	03000500 	movweq	r0, #1280	; 0x500
     438:	1ffff22c 	svcne	0x00fff22c
     43c:	0000091c 	andeq	r0, r0, ip, lsl r9
     440:	00000954 	andeq	r0, r0, r4, asr r9
     444:	01f30004 	mvnseq	r0, r4
     448:	00009f50 	andeq	r9, r0, r0, asr pc
     44c:	00000000 	andeq	r0, r0, r0
     450:	09080000 	stmdbeq	r8, {}	; <UNPREDICTABLE>
     454:	09280000 	stmdbeq	r8!, {}	; <UNPREDICTABLE>
     458:	00010000 	andeq	r0, r1, r0
     45c:	00092851 	andeq	r2, r9, r1, asr r8
     460:	00092c00 	andeq	r2, r9, r0, lsl #24
     464:	73000200 	movwvc	r0, #512	; 0x200
     468:	00092c04 	andeq	r2, r9, r4, lsl #24
     46c:	00095400 	andeq	r5, r9, r0, lsl #8
     470:	f3000400 	vshl.u8	d0, d0, d0
     474:	009f5101 	addseq	r5, pc, r1, lsl #2
     478:	00000000 	andeq	r0, r0, r0
     47c:	54000000 	strpl	r0, [r0], #-0
     480:	60000009 	andvs	r0, r0, r9
     484:	01000009 	tsteq	r0, r9
     488:	09605000 	stmdbeq	r0!, {ip, lr}^
     48c:	09680000 	stmdbeq	r8!, {}^	; <UNPREDICTABLE>
     490:	00050000 	andeq	r0, r5, r0
     494:	fff23003 			; <UNDEFINED> instruction: 0xfff23003
     498:	0009681f 	andeq	r6, r9, pc, lsl r8
     49c:	0009a000 	andeq	sl, r9, r0
     4a0:	f3000400 	vshl.u8	d0, d0, d0
     4a4:	009f5001 	addseq	r5, pc, r1
     4a8:	00000000 	andeq	r0, r0, r0
     4ac:	54000000 	strpl	r0, [r0], #-0
     4b0:	74000009 	strvc	r0, [r0], #-9
     4b4:	01000009 	tsteq	r0, r9
     4b8:	09745100 	ldmdbeq	r4!, {r8, ip, lr}^
     4bc:	09780000 	ldmdbeq	r8!, {}^	; <UNPREDICTABLE>
     4c0:	00020000 	andeq	r0, r2, r0
     4c4:	09781473 	ldmdbeq	r8!, {r0, r1, r4, r5, r6, sl, ip}^
     4c8:	09a00000 	stmibeq	r0!, {}	; <UNPREDICTABLE>
     4cc:	00040000 	andeq	r0, r4, r0
     4d0:	9f5101f3 	svcls	0x005101f3
	...
     4dc:	00000a00 	andeq	r0, r0, r0, lsl #20
     4e0:	00000a0c 	andeq	r0, r0, ip, lsl #20
     4e4:	0c500001 	mrrceq	0, 0, r0, r0, cr1	; <UNPREDICTABLE>
     4e8:	5200000a 	andpl	r0, r0, #10
     4ec:	0100000a 	tsteq	r0, sl
     4f0:	0a525400 	beq	14954f8 <__DATA_END+0x1493b08>
     4f4:	0a5a0000 	beq	16804fc <__DATA_END+0x167eb0c>
     4f8:	00010000 	andeq	r0, r1, r0
     4fc:	000a5a50 	andeq	r5, sl, r0, asr sl
     500:	000a8000 	andeq	r8, sl, r0
     504:	54000100 	strpl	r0, [r0], #-256	; 0xffffff00
     508:	00000a80 	andeq	r0, r0, r0, lsl #21
     50c:	00000a88 	andeq	r0, r0, r8, lsl #21
     510:	88500001 	ldmdahi	r0, {r0}^
     514:	ba00000a 	blt	544 <init_data_bss+0x28>
     518:	0100000a 	tsteq	r0, sl
     51c:	0aba5400 	beq	fee95524 <__StackTop+0xdee92524>
     520:	0b000000 	bleq	528 <init_data_bss+0xc>
     524:	00040000 	andeq	r0, r4, r0
     528:	9f5001f3 	svcls	0x005001f3
	...
     534:	00000a00 	andeq	r0, r0, r0, lsl #20
     538:	00000a10 	andeq	r0, r0, r0, lsl sl
     53c:	10510001 	subsne	r0, r1, r1
     540:	5200000a 	andpl	r0, r0, #10
     544:	0400000a 	streq	r0, [r0], #-10
     548:	5101f300 	mrspl	pc, SP_irq	; <UNPREDICTABLE>
     54c:	000a529f 	muleq	sl, pc, r2	; <UNPREDICTABLE>
     550:	000a6200 	andeq	r6, sl, r0, lsl #4
     554:	51000100 	mrspl	r0, (UNDEF: 16)
     558:	00000a62 	andeq	r0, r0, r2, ror #20
     55c:	00000a80 	andeq	r0, r0, r0, lsl #21
     560:	01f30004 	mvnseq	r0, r4
     564:	0a809f51 	beq	fe0282b0 <__StackTop+0xde0252b0>
     568:	0a900000 	beq	fe400570 <__StackTop+0xde3fd570>
     56c:	00010000 	andeq	r0, r1, r0
     570:	000a9051 	andeq	r9, sl, r1, asr r0
     574:	000b0000 	andeq	r0, fp, r0
     578:	f3000400 	vshl.u8	d0, d0, d0
     57c:	009f5101 	addseq	r5, pc, r1, lsl #2
	...
     58c:	08000000 	stmdaeq	r0, {}	; <UNPREDICTABLE>
     590:	91007400 	tstls	r0, r0, lsl #8
     594:	1c060194 	stfnes	f0, [r6], {148}	; 0x94
     598:	0000009f 	muleq	r0, pc, r0	; <UNPREDICTABLE>
     59c:	00000000 	andeq	r0, r0, r0
     5a0:	91000900 	tstls	r0, r0, lsl #18
     5a4:	20060194 	mulcs	r6, r4, r1
     5a8:	9f220074 	svcls	0x00220074
	...
     5bc:	00530001 	subseq	r0, r3, r1
     5c0:	00000000 	andeq	r0, r0, r0
     5c4:	01000000 	mrseq	r0, (UNDEF: 0)
     5c8:	00005300 	andeq	r5, r0, r0, lsl #6
     5cc:	00000000 	andeq	r0, r0, r0
     5d0:	0b560000 	bleq	15805d8 <__DATA_END+0x157ebe8>
     5d4:	0b5a0000 	bleq	16805dc <__DATA_END+0x167ebec>
     5d8:	00080000 	andeq	r0, r8, r0
     5dc:	94910074 	ldrls	r0, [r1], #116	; 0x74
     5e0:	9f1c0601 	svcls	0x001c0601
     5e4:	00000b5a 	andeq	r0, r0, sl, asr fp
     5e8:	00000b7a 	andeq	r0, r0, sl, ror fp
     5ec:	94910009 	ldrls	r0, [r1], #9
     5f0:	74200601 	strtvc	r0, [r0], #-1537	; 0xfffff9ff
     5f4:	009f2200 	addseq	r2, pc, r0, lsl #4
     5f8:	00000000 	andeq	r0, r0, r0
     5fc:	58000000 	stmdapl	r0, {}	; <UNPREDICTABLE>
     600:	6900000b 	stmdbvs	r0, {r0, r1, r3}
     604:	0100000b 	tsteq	r0, fp
     608:	0b785300 	bleq	1e15210 <__DATA_END+0x1e13820>
     60c:	0b820000 	bleq	fe080614 <__StackTop+0xde07d614>
     610:	00010000 	andeq	r0, r1, r0
     614:	00000053 	andeq	r0, r0, r3, asr r0
	...
     624:	50000100 	andpl	r0, r0, r0, lsl #2
	...
     638:	9f300002 	svcls	0x00300002
	...
     644:	a20c0009 	andge	r0, ip, #9
     648:	74000186 	strvc	r0, [r0], #-390	; 0xfffffe7a
     64c:	009f1c00 	addseq	r1, pc, r0, lsl #24
     650:	00000000 	andeq	r0, r0, r0
     654:	09000000 	stmdbeq	r0, {}	; <UNPREDICTABLE>
     658:	86a10c00 	strthi	r0, [r1], r0, lsl #24
     65c:	00740001 	rsbseq	r0, r4, r1
     660:	00009f1c 	andeq	r9, r0, ip, lsl pc
     664:	00000000 	andeq	r0, r0, r0
     668:	00090000 	andeq	r0, r9, r0
     66c:	0186a20c 	orreq	sl, r6, ip, lsl #4
     670:	1c007400 	cfstrsne	mvf7, [r0], {-0}
     674:	0000009f 	muleq	r0, pc, r0	; <UNPREDICTABLE>
     678:	00000000 	andeq	r0, r0, r0
     67c:	0c000900 	stceq	9, cr0, [r0], {-0}
     680:	000186a1 	andeq	r8, r1, r1, lsr #13
     684:	9f1c0074 	svcls	0x001c0074
	...
     698:	b8910003 	ldmlt	r1, {r0, r1}
     69c:	00000001 	andeq	r0, r0, r1
     6a0:	00000000 	andeq	r0, r0, r0
     6a4:	56000100 	strpl	r0, [r0], -r0, lsl #2
	...
     6b0:	98910007 	ldmls	r1, {r0, r1, r2}
     6b4:	1c310601 	ldcne	6, cr0, [r1], #-4
     6b8:	0000009f 	muleq	r0, pc, r0	; <UNPREDICTABLE>
	...
     6c8:	50000100 	andpl	r0, r0, r0, lsl #2
	...
     6d4:	00500001 	subseq	r0, r0, r1
     6d8:	00000000 	andeq	r0, r0, r0
     6dc:	01000000 	mrseq	r0, (UNDEF: 0)
     6e0:	00005000 	andeq	r5, r0, r0
	...
     6f0:	00010000 	andeq	r0, r1, r0
     6f4:	00000054 	andeq	r0, r0, r4, asr r0
     6f8:	00000000 	andeq	r0, r0, r0
     6fc:	52000100 	andpl	r0, r0, #0, 2
	...
     710:	00500001 	subseq	r0, r0, r1
     714:	00000000 	andeq	r0, r0, r0
     718:	05000000 	streq	r0, [r0, #-0]
     71c:	74007300 	strvc	r7, [r0], #-768	; 0xfffffd00
     720:	00002200 	andeq	r2, r0, r0, lsl #4
     724:	00000000 	andeq	r0, r0, r0
     728:	00010000 	andeq	r0, r1, r0
     72c:	00000050 	andeq	r0, r0, r0, asr r0
	...
     73c:	30000200 	andcc	r0, r0, r0, lsl #4
     740:	0000009f 	muleq	r0, pc, r0	; <UNPREDICTABLE>
     744:	00000000 	andeq	r0, r0, r0
     748:	54000100 	strpl	r0, [r0], #-256	; 0xffffff00
	...
     754:	01740003 	cmneq	r4, r3
     758:	0000009f 	muleq	r0, pc, r0	; <UNPREDICTABLE>
     75c:	00000000 	andeq	r0, r0, r0
     760:	54000100 	strpl	r0, [r0], #-256	; 0xffffff00
	...
     76c:	00500001 	subseq	r0, r0, r1
	...
     77c:	01000000 	mrseq	r0, (UNDEF: 0)
     780:	00005500 	andeq	r5, r0, r0, lsl #10
	...
     790:	00020000 	andeq	r0, r2, r0
     794:	00009f30 	andeq	r9, r0, r0, lsr pc
     798:	00000000 	andeq	r0, r0, r0
     79c:	00030000 	andeq	r0, r3, r0
     7a0:	009f0173 	addseq	r0, pc, r3, ror r1	; <UNPREDICTABLE>
     7a4:	00000000 	andeq	r0, r0, r0
     7a8:	01000000 	mrseq	r0, (UNDEF: 0)
     7ac:	00005300 	andeq	r5, r0, r0, lsl #6
	...
     7bc:	00030000 	andeq	r0, r3, r0
     7c0:	0001b891 	muleq	r1, r1, r8
     7c4:	00000000 	andeq	r0, r0, r0
     7c8:	01000000 	mrseq	r0, (UNDEF: 0)
     7cc:	00005500 	andeq	r5, r0, r0, lsl #10
     7d0:	00000000 	andeq	r0, r0, r0
     7d4:	00070000 	andeq	r0, r7, r0
     7d8:	06019891 			; <UNDEFINED> instruction: 0x06019891
     7dc:	009f1c31 	addseq	r1, pc, r1, lsr ip	; <UNPREDICTABLE>
	...
     7ec:	01000000 	mrseq	r0, (UNDEF: 0)
     7f0:	00005000 	andeq	r5, r0, r0
     7f4:	00000000 	andeq	r0, r0, r0
     7f8:	00010000 	andeq	r0, r1, r0
     7fc:	00000050 	andeq	r0, r0, r0, asr r0
	...
     80c:	54000100 	strpl	r0, [r0], #-256	; 0xffffff00
	...
     818:	01740003 	cmneq	r4, r3
     81c:	0000009f 	muleq	r0, pc, r0	; <UNPREDICTABLE>
     820:	00000000 	andeq	r0, r0, r0
     824:	57000100 	strpl	r0, [r0, -r0, lsl #2]
	...
     830:	00540001 	subseq	r0, r4, r1
     834:	00000000 	andeq	r0, r0, r0
     838:	01000000 	mrseq	r0, (UNDEF: 0)
     83c:	00005700 	andeq	r5, r0, r0, lsl #14
	...
     84c:	00020000 	andeq	r0, r2, r0
     850:	00009f30 	andeq	r9, r0, r0, lsr pc
     854:	00000000 	andeq	r0, r0, r0
     858:	00030000 	andeq	r0, r3, r0
     85c:	009f0174 	addseq	r0, pc, r4, ror r1	; <UNPREDICTABLE>
     860:	00000000 	andeq	r0, r0, r0
     864:	01000000 	mrseq	r0, (UNDEF: 0)
     868:	00005700 	andeq	r5, r0, r0, lsl #14
     86c:	00000000 	andeq	r0, r0, r0
     870:	00030000 	andeq	r0, r3, r0
     874:	009f0174 	addseq	r0, pc, r4, ror r1	; <UNPREDICTABLE>
     878:	00000000 	andeq	r0, r0, r0
     87c:	d0000000 	andle	r0, r0, r0
     880:	e500000b 	str	r0, [r0, #-11]
     884:	0100000b 	tsteq	r0, fp
     888:	00005100 	andeq	r5, r0, r0, lsl #2
     88c:	00000000 	andeq	r0, r0, r0
     890:	0b940000 	bleq	fe500898 <__StackTop+0xde4fd898>
     894:	0b9c0000 	bleq	fe70089c <__StackTop+0xde6fd89c>
     898:	00010000 	andeq	r0, r1, r0
     89c:	000bbe53 	andeq	fp, fp, r3, asr lr
     8a0:	000bc800 	andeq	ip, fp, r0, lsl #16
     8a4:	52000100 	andpl	r0, r0, #0, 2
	...
     8b0:	00000c06 	andeq	r0, r0, r6, lsl #24
     8b4:	00000c34 	andeq	r0, r0, r4, lsr ip
     8b8:	00550001 	subseq	r0, r5, r1
     8bc:	00000000 	andeq	r0, r0, r0
     8c0:	4e000000 	cdpmi	0, 0, cr0, cr0, cr0, {0}
     8c4:	7e00000c 	cdpvc	0, 0, cr0, cr0, cr12, {0}
     8c8:	0100000c 	tsteq	r0, ip
     8cc:	00005500 	andeq	r5, r0, r0, lsl #10
     8d0:	00000000 	andeq	r0, r0, r0
     8d4:	0e940000 	cdpeq	0, 9, cr0, cr4, cr0, {0}
     8d8:	0ea60000 	cdpeq	0, 10, cr0, cr6, cr0, {0}
     8dc:	00010000 	andeq	r0, r1, r0
     8e0:	000ea650 	andeq	sl, lr, r0, asr r6
     8e4:	000ea800 	andeq	sl, lr, r0, lsl #16
     8e8:	f3000400 	vshl.u8	d0, d0, d0
     8ec:	009f5001 	addseq	r5, pc, r1
     8f0:	00000000 	andeq	r0, r0, r0
     8f4:	94000000 	strls	r0, [r0], #-0
     8f8:	9600000e 	strls	r0, [r0], -lr
     8fc:	0200000e 	andeq	r0, r0, #14
     900:	969f3000 	ldrls	r3, [pc], r0
     904:	a800000e 	stmdage	r0, {r1, r2, r3}
     908:	0100000e 	tsteq	r0, lr
     90c:	00005300 	andeq	r5, r0, r0, lsl #6
     910:	00000000 	andeq	r0, r0, r0
     914:	0f500000 	svceq	0x00500000
     918:	0f5a0000 	svceq	0x005a0000
     91c:	00020000 	andeq	r0, r2, r0
     920:	0f5a9f34 	svceq	0x005a9f34
     924:	0f5c0000 	svceq	0x005c0000
     928:	00030000 	andeq	r0, r3, r0
     92c:	5c9f7e75 	ldcpl	14, cr7, [pc], {117}	; 0x75
     930:	6000000f 	andvs	r0, r0, pc
     934:	0300000f 	movweq	r0, #15
     938:	9f7f7500 	svcls	0x007f7500
     93c:	00000f60 	andeq	r0, r0, r0, ror #30
     940:	00000fb0 			; <UNDEFINED> instruction: 0x00000fb0
     944:	7e750003 	cdpvc	0, 7, cr0, cr5, cr3, {0}
     948:	000fb09f 	muleq	pc, pc, r0	; <UNPREDICTABLE>
     94c:	000fb400 	andeq	fp, pc, r0, lsl #8
     950:	75000300 	strvc	r0, [r0, #-768]	; 0xfffffd00
     954:	00009f7f 	andeq	r9, r0, pc, ror pc
     958:	00000000 	andeq	r0, r0, r0
     95c:	0fd60000 	svceq	0x00d60000
     960:	0ff60000 	svceq	0x00f60000
     964:	00010000 	andeq	r0, r1, r0
     968:	000ff655 	andeq	pc, pc, r5, asr r6	; <UNPREDICTABLE>
     96c:	000ffc00 	andeq	pc, pc, r0, lsl #24
     970:	75000300 	strvc	r0, [r0, #-768]	; 0xfffffd00
     974:	0ffc9f7f 	svceq	0x00fc9f7f
     978:	10040000 	andne	r0, r4, r0
     97c:	00010000 	andeq	r0, r1, r0
     980:	00000055 	andeq	r0, r0, r5, asr r0
	...
     990:	50000100 	andpl	r0, r0, r0, lsl #2
	...
     99c:	01f30004 	mvnseq	r0, r4
     9a0:	00009f50 	andeq	r9, r0, r0, asr pc
	...
     9b0:	00020000 	andeq	r0, r2, r0
     9b4:	00009f30 	andeq	r9, r0, r0, lsr pc
     9b8:	00000000 	andeq	r0, r0, r0
     9bc:	00010000 	andeq	r0, r1, r0
     9c0:	00000053 	andeq	r0, r0, r3, asr r0
	...
     9d0:	50000100 	andpl	r0, r0, r0, lsl #2
	...
     9dc:	01f30004 	mvnseq	r0, r4
     9e0:	00009f50 	andeq	r9, r0, r0, asr pc
	...
     9f0:	00020000 	andeq	r0, r2, r0
     9f4:	00009f30 	andeq	r9, r0, r0, lsr pc
     9f8:	00000000 	andeq	r0, r0, r0
     9fc:	00010000 	andeq	r0, r1, r0
     a00:	00000053 	andeq	r0, r0, r3, asr r0
     a04:	00000000 	andeq	r0, r0, r0
     a08:	00106800 	andseq	r6, r0, r0, lsl #16
     a0c:	0010c400 	andseq	ip, r0, r0, lsl #8
     a10:	50000100 	andpl	r0, r0, r0, lsl #2
     a14:	000010c4 	andeq	r1, r0, r4, asr #1
     a18:	00001142 	andeq	r1, r0, r2, asr #2
     a1c:	01f30004 	mvnseq	r0, r4
     a20:	11429f50 	cmpne	r2, r0, asr pc
     a24:	11540000 	cmpne	r4, r0
     a28:	00010000 	andeq	r0, r1, r0
     a2c:	00115450 	andseq	r5, r1, r0, asr r4
     a30:	00119400 	andseq	r9, r1, r0, lsl #8
     a34:	f3000400 	vshl.u8	d0, d0, d0
     a38:	009f5001 	addseq	r5, pc, r1
     a3c:	00000000 	andeq	r0, r0, r0
     a40:	ba000000 	blt	a48 <uartInit+0x48>
     a44:	e2000011 	and	r0, r0, #17
     a48:	01000011 	tsteq	r0, r1, lsl r0
     a4c:	00005500 	andeq	r5, r0, r0, lsl #10
     a50:	00000000 	andeq	r0, r0, r0
     a54:	11f00000 	mvnsne	r0, r0
     a58:	11f40000 	mvnsne	r0, r0
     a5c:	00020000 	andeq	r0, r2, r0
     a60:	11f49f30 	mvnsne	r9, r0, lsr pc
     a64:	12040000 	andne	r0, r4, #0
     a68:	00010000 	andeq	r0, r1, r0
     a6c:	00000054 	andeq	r0, r0, r4, asr r0
	...
     a7c:	50000100 	andpl	r0, r0, r0, lsl #2
	...
     a88:	01f30004 	mvnseq	r0, r4
     a8c:	00009f50 	andeq	r9, r0, r0, asr pc
	...
     a9c:	00010000 	andeq	r0, r1, r0
     aa0:	00000051 	andeq	r0, r0, r1, asr r0
     aa4:	00000000 	andeq	r0, r0, r0
     aa8:	57000100 	strpl	r0, [r0, -r0, lsl #2]
	...
     ab4:	7f700003 	svcvc	0x00700003
     ab8:	0000009f 	muleq	r0, pc, r0	; <UNPREDICTABLE>
     abc:	00000000 	andeq	r0, r0, r0
     ac0:	50000100 	andpl	r0, r0, r0, lsl #2
	...
     ad4:	00520001 	subseq	r0, r2, r1
     ad8:	00000000 	andeq	r0, r0, r0
     adc:	04000000 	streq	r0, [r0], #-0
     ae0:	5201f300 	andpl	pc, r1, #0, 6
     ae4:	0000009f 	muleq	r0, pc, r0	; <UNPREDICTABLE>
	...
     af4:	30000200 	andcc	r0, r0, r0, lsl #4
     af8:	0000009f 	muleq	r0, pc, r0	; <UNPREDICTABLE>
     afc:	00000000 	andeq	r0, r0, r0
     b00:	75000600 	strvc	r0, [r0, #-1536]	; 0xfffffa00
     b04:	1c007200 	sfmne	f7, 4, [r0], {-0}
     b08:	0000009f 	muleq	r0, pc, r0	; <UNPREDICTABLE>
     b0c:	00000000 	andeq	r0, r0, r0
     b10:	75000800 	strvc	r0, [r0, #-2048]	; 0xfffff800
     b14:	1c007200 	sfmne	f7, 4, [r0], {-0}
     b18:	009f0123 	addseq	r0, pc, r3, lsr #2
     b1c:	00000000 	andeq	r0, r0, r0
     b20:	06000000 	streq	r0, [r0], -r0
     b24:	72007500 	andvc	r7, r0, #0, 10
     b28:	009f1c00 	addseq	r1, pc, r0, lsl #24
     b2c:	00000000 	andeq	r0, r0, r0
     b30:	02000000 	andeq	r0, r0, #0
     b34:	00649100 	rsbeq	r9, r4, r0, lsl #2
	...
     b44:	01000000 	mrseq	r0, (UNDEF: 0)
     b48:	00005600 	andeq	r5, r0, r0, lsl #12
     b4c:	00000000 	andeq	r0, r0, r0
     b50:	00020000 	andeq	r0, r2, r0
     b54:	00000473 	andeq	r0, r0, r3, ror r4
	...
     b64:	00010000 	andeq	r0, r1, r0
     b68:	00000050 	andeq	r0, r0, r0, asr r0
     b6c:	00000000 	andeq	r0, r0, r0
     b70:	73000200 	movwvc	r0, #512	; 0x200
     b74:	00000004 	andeq	r0, r0, r4
	...
     b84:	0c000600 	stceq	6, cr0, [r0], {-0}
     b88:	40066000 	andmi	r6, r6, r0
     b8c:	0000009f 	muleq	r0, pc, r0	; <UNPREDICTABLE>
	...
     b9c:	0c000600 	stceq	6, cr0, [r0], {-0}
     ba0:	40066000 	andmi	r6, r6, r0
     ba4:	0000009f 	muleq	r0, pc, r0	; <UNPREDICTABLE>
	...
     bb4:	50000100 	andpl	r0, r0, r0, lsl #2
	...
     bc0:	01f30004 	mvnseq	r0, r4
     bc4:	00009f50 	andeq	r9, r0, r0, asr pc
     bc8:	00000000 	andeq	r0, r0, r0
     bcc:	00010000 	andeq	r0, r1, r0
     bd0:	00000056 	andeq	r0, r0, r6, asr r0
     bd4:	00000000 	andeq	r0, r0, r0
     bd8:	56000100 	strpl	r0, [r0], -r0, lsl #2
	...
     bec:	00510001 	subseq	r0, r1, r1
     bf0:	00000000 	andeq	r0, r0, r0
     bf4:	0c000000 	stceq	0, cr0, [r0], {-0}
     bf8:	20007700 	andcs	r7, r0, r0, lsl #14
     bfc:	225101f3 	subscs	r0, r1, #-1073741764	; 0xc000003c
     c00:	225201f3 	subscs	r0, r2, #-1073741764	; 0xc000003c
     c04:	0000009f 	muleq	r0, pc, r0	; <UNPREDICTABLE>
     c08:	00000000 	andeq	r0, r0, r0
     c0c:	f3000b00 	vqrdmulh.s<illegal width 8>	d0, d0, d0
     c10:	01f35201 	mvnseq	r5, r1, lsl #4
     c14:	00772251 	rsbseq	r2, r7, r1, asr r2
     c18:	00009f1c 	andeq	r9, r0, ip, lsl pc
     c1c:	00000000 	andeq	r0, r0, r0
     c20:	000c0000 	andeq	r0, ip, r0
     c24:	f3200077 	vqadd.u32	q0, q0, <illegal reg q11.5>
     c28:	f3225101 	vrhadd.u32	d5, d2, d1
     c2c:	9f225201 	svcls	0x00225201
	...
     c40:	00520001 	subseq	r0, r2, r1
     c44:	00000000 	andeq	r0, r0, r0
     c48:	04000000 	streq	r0, [r0], #-0
     c4c:	5201f300 	andpl	pc, r1, #0, 6
     c50:	0000009f 	muleq	r0, pc, r0	; <UNPREDICTABLE>
	...
     c60:	30000200 	andcc	r0, r0, r0, lsl #4
     c64:	0000009f 	muleq	r0, pc, r0	; <UNPREDICTABLE>
     c68:	00000000 	andeq	r0, r0, r0
     c6c:	77000700 	strvc	r0, [r0, -r0, lsl #14]
     c70:	5201f300 	andpl	pc, r1, #0, 6
     c74:	00009f1c 	andeq	r9, r0, ip, lsl pc
     c78:	00000000 	andeq	r0, r0, r0
     c7c:	00090000 	andeq	r0, r9, r0
     c80:	01f30077 	mvnseq	r0, r7, ror r0
     c84:	01231c52 	teqeq	r3, r2, asr ip
     c88:	0000009f 	muleq	r0, pc, r0	; <UNPREDICTABLE>
     c8c:	00000000 	andeq	r0, r0, r0
     c90:	77000700 	strvc	r0, [r0, -r0, lsl #14]
     c94:	5201f300 	andpl	pc, r1, #0, 6
     c98:	00009f1c 	andeq	r9, r0, ip, lsl pc
	...
     ca8:	00010000 	andeq	r0, r1, r0
     cac:	00000055 	andeq	r0, r0, r5, asr r0
     cb0:	00000000 	andeq	r0, r0, r0
     cb4:	70000200 	andvc	r0, r0, r0, lsl #4
     cb8:	00000004 	andeq	r0, r0, r4
     cbc:	00000000 	andeq	r0, r0, r0
     cc0:	76000500 	strvc	r0, [r0], -r0, lsl #10
     cc4:	9f253800 	svcls	0x00253800
	...
     cd8:	00550001 	subseq	r0, r5, r1
     cdc:	00000000 	andeq	r0, r0, r0
     ce0:	02000000 	andeq	r0, r0, #0
     ce4:	00047000 	andeq	r7, r4, r0
     ce8:	00000000 	andeq	r0, r0, r0
     cec:	01000000 	mrseq	r0, (UNDEF: 0)
     cf0:	00005600 	andeq	r5, r0, r0, lsl #12
	...
     d00:	00010000 	andeq	r0, r1, r0
     d04:	00000053 	andeq	r0, r0, r3, asr r0
     d08:	00000000 	andeq	r0, r0, r0
     d0c:	74000200 	strvc	r0, [r0], #-512	; 0xfffffe00
     d10:	00000004 	andeq	r0, r0, r4
	...
     d20:	0c000600 	stceq	6, cr0, [r0], {-0}
     d24:	40066000 	andmi	r6, r6, r0
     d28:	0000009f 	muleq	r0, pc, r0	; <UNPREDICTABLE>
	...
     d38:	0c000600 	stceq	6, cr0, [r0], {-0}
     d3c:	40066000 	andmi	r6, r6, r0
     d40:	0000009f 	muleq	r0, pc, r0	; <UNPREDICTABLE>
	...
     d50:	0c000600 	stceq	6, cr0, [r0], {-0}
     d54:	40066000 	andmi	r6, r6, r0
     d58:	0000009f 	muleq	r0, pc, r0	; <UNPREDICTABLE>
	...
     d68:	0c000600 	stceq	6, cr0, [r0], {-0}
     d6c:	40066000 	andmi	r6, r6, r0
     d70:	0000009f 	muleq	r0, pc, r0	; <UNPREDICTABLE>
	...
     d80:	0c000600 	stceq	6, cr0, [r0], {-0}
     d84:	40066000 	andmi	r6, r6, r0
     d88:	0000009f 	muleq	r0, pc, r0	; <UNPREDICTABLE>
	...
     d98:	0c000600 	stceq	6, cr0, [r0], {-0}
     d9c:	40066000 	andmi	r6, r6, r0
     da0:	0000009f 	muleq	r0, pc, r0	; <UNPREDICTABLE>
	...
     db0:	09000300 	stmdbeq	r0, {r8, r9}
     db4:	00009fa0 	andeq	r9, r0, r0, lsr #31
	...
     dc4:	00060000 	andeq	r0, r6, r0
     dc8:	0660000c 	strbteq	r0, [r0], -ip
     dcc:	00009f40 	andeq	r9, r0, r0, asr #30
	...
     ddc:	00060000 	andeq	r0, r6, r0
     de0:	0660000c 	strbteq	r0, [r0], -ip
     de4:	00009f40 	andeq	r9, r0, r0, asr #30
	...
     df4:	00010000 	andeq	r0, r1, r0
     df8:	00000052 	andeq	r0, r0, r2, asr r0
     dfc:	00000000 	andeq	r0, r0, r0
     e00:	74000200 	strvc	r0, [r0], #-512	; 0xfffffe00
     e04:	00000004 	andeq	r0, r0, r4
     e08:	00000000 	andeq	r0, r0, r0
     e0c:	76000500 	strvc	r0, [r0], -r0, lsl #10
     e10:	9f253800 	svcls	0x00253800
	...
     e24:	000c0006 	andeq	r0, ip, r6
     e28:	9f400660 	svcls	0x00400660
	...
     e3c:	000c0006 	andeq	r0, ip, r6
     e40:	9f400660 	svcls	0x00400660
	...
     e54:	00520001 	subseq	r0, r2, r1
     e58:	00000000 	andeq	r0, r0, r0
     e5c:	02000000 	andeq	r0, r0, #0
     e60:	00047400 	andeq	r7, r4, r0, lsl #8
     e64:	00000000 	andeq	r0, r0, r0
     e68:	01000000 	mrseq	r0, (UNDEF: 0)
     e6c:	00005600 	andeq	r5, r0, r0, lsl #12
	...
     e7c:	00060000 	andeq	r0, r6, r0
     e80:	0660000c 	strbteq	r0, [r0], -ip
     e84:	00009f40 	andeq	r9, r0, r0, asr #30
	...
     e94:	00060000 	andeq	r0, r6, r0
     e98:	0660000c 	strbteq	r0, [r0], -ip
     e9c:	00009f40 	andeq	r9, r0, r0, asr #30
     ea0:	00000000 	andeq	r0, r0, r0
     ea4:	12c80000 	sbcne	r0, r8, #0
     ea8:	12ce0000 	sbcne	r0, lr, #0
     eac:	00010000 	andeq	r0, r1, r0
     eb0:	0012ce50 	andseq	ip, r2, r0, asr lr
     eb4:	0012dc00 	andseq	sp, r2, r0, lsl #24
     eb8:	f3000400 	vshl.u8	d0, d0, d0
     ebc:	009f5001 	addseq	r5, pc, r1
     ec0:	00000000 	andeq	r0, r0, r0
     ec4:	dc000000 	stcle	0, cr0, [r0], {-0}
     ec8:	ee000012 	mcr	0, 0, r0, cr0, cr2, {0}
     ecc:	01000012 	tsteq	r0, r2, lsl r0
     ed0:	12ee5000 	rscne	r5, lr, #0
     ed4:	12f00000 	rscsne	r0, r0, #0
     ed8:	00040000 	andeq	r0, r4, r0
     edc:	9f5001f3 	svcls	0x005001f3
	...
     ee8:	000012dc 	ldrdeq	r1, [r0], -ip
     eec:	000012de 	ldrdeq	r1, [r0], -lr
     ef0:	9f300002 	svcls	0x00300002
     ef4:	000012de 	ldrdeq	r1, [r0], -lr
     ef8:	000012f0 	strdeq	r1, [r0], -r0
     efc:	00530001 	subseq	r0, r3, r1
     f00:	00000000 	andeq	r0, r0, r0
     f04:	fe000000 	cdp2	0, 0, cr0, cr0, cr0, {0}
     f08:	00000012 	andeq	r0, r0, r2, lsl r0
     f0c:	01000013 	tsteq	r0, r3, lsl r0
     f10:	13005000 	movwne	r5, #0
     f14:	13080000 	movwne	r0, #32768	; 0x8000
     f18:	00010000 	andeq	r0, r1, r0
     f1c:	00130855 	andseq	r0, r3, r5, asr r8
     f20:	00131000 	andseq	r1, r3, r0
     f24:	50000100 	andpl	r0, r0, r0, lsl #2
     f28:	0000131a 	andeq	r1, r0, sl, lsl r3
     f2c:	0000131e 	andeq	r1, r0, lr, lsl r3
     f30:	1e500001 	cdpne	0, 5, cr0, cr0, cr1, {0}
     f34:	2d000013 	stccs	0, cr0, [r0, #-76]	; 0xffffffb4
     f38:	01000013 	tsteq	r0, r3, lsl r0
     f3c:	132e5300 	teqne	lr, #0, 6
     f40:	13360000 	teqne	r6, #0
     f44:	00010000 	andeq	r0, r1, r0
     f48:	00133650 	andseq	r3, r3, r0, asr r6
     f4c:	00133a00 	andseq	r3, r3, r0, lsl #20
     f50:	91000c00 	tstls	r0, r0, lsl #24
     f54:	1c007600 	stcne	6, cr7, [r0], {-0}
     f58:	08220070 	stmdaeq	r2!, {r4, r5, r6}
     f5c:	009f1c73 	addseq	r1, pc, r3, ror ip	; <UNPREDICTABLE>
	...
     f68:	24000013 	strcs	r0, [r0], #-19	; 0xffffffed
     f6c:	01000013 	tsteq	r0, r3, lsl r0
     f70:	13245500 	teqne	r4, #0, 10
     f74:	13340000 	teqne	r4, #0
     f78:	00010000 	andeq	r0, r1, r0
     f7c:	00133454 	andseq	r3, r3, r4, asr r4
     f80:	00133600 	andseq	r3, r3, r0, lsl #12
     f84:	51000100 	mrspl	r0, (UNDEF: 16)
     f88:	00001336 	andeq	r1, r0, r6, lsr r3
     f8c:	00001338 	andeq	r1, r0, r8, lsr r3
     f90:	03710003 	cmneq	r1, #3
     f94:	0013389f 	mulseq	r3, pc, r8	; <UNPREDICTABLE>
     f98:	00133d00 	andseq	r3, r3, r0, lsl #26
     f9c:	51000100 	mrspl	r0, (UNDEF: 16)
	...
     fa8:	00001302 	andeq	r1, r0, r2, lsl #6
     fac:	00001307 	andeq	r1, r0, r7, lsl #6
     fb0:	07500001 	ldrbeq	r0, [r0, -r1]
     fb4:	0e000013 	mcreq	0, 0, r0, cr0, cr3, {0}
     fb8:	06000013 			; <UNDEFINED> instruction: 0x06000013
     fbc:	75007600 	strvc	r7, [r0, #-1536]	; 0xfffffa00
     fc0:	109f2200 	addsne	r2, pc, r0, lsl #4
     fc4:	12000013 	andne	r0, r0, #19
     fc8:	01000013 	tsteq	r0, r3, lsl r0
     fcc:	13125000 	tstne	r2, #0
     fd0:	13160000 	tstne	r6, #0
     fd4:	00030000 	andeq	r0, r3, r0
     fd8:	169f0170 			; <UNDEFINED> instruction: 0x169f0170
     fdc:	19000013 	stmdbne	r0, {r0, r1, r4}
     fe0:	01000013 	tsteq	r0, r3, lsl r0
     fe4:	13245000 	teqne	r4, #0
     fe8:	13280000 	teqne	r8, #0
     fec:	00030000 	andeq	r0, r3, r0
     ff0:	289f0170 	ldmcs	pc, {r4, r5, r6, r8}	; <UNPREDICTABLE>
     ff4:	2d000013 	stccs	0, cr0, [r0, #-76]	; 0xffffffb4
     ff8:	01000013 	tsteq	r0, r3, lsl r0
     ffc:	13345000 	teqne	r4, #0
    1000:	13360000 	teqne	r6, #0
    1004:	00090000 	andeq	r0, r9, r0
    1008:	00700091 			; <UNDEFINED> instruction: 0x00700091
    100c:	1c740822 	ldclne	8, cr0, [r4], #-136	; 0xffffff78
    1010:	0013369f 	mulseq	r3, pc, r6	; <UNPREDICTABLE>
    1014:	00133a00 	andseq	r3, r3, r0, lsl #20
    1018:	91000900 	tstls	r0, r0, lsl #18
    101c:	22007000 	andcs	r7, r0, #0
    1020:	9f1c7308 	svcls	0x001c7308
	...

Disassembly of section .debug_aranges:

00000000 <.debug_aranges>:
   0:	00000024 	andeq	r0, r0, r4, lsr #32
   4:	00000002 	andeq	r0, r0, r2
   8:	00040000 	andeq	r0, r4, r0
   c:	00000000 	andeq	r0, r0, r0
  10:	000004f8 	strdeq	r0, [r0], -r8
  14:	00000024 	andeq	r0, r0, r4, lsr #32
  18:	00000000 	andeq	r0, r0, r0
  1c:	00000134 	andeq	r0, r0, r4, lsr r1
	...
  28:	0000001c 	andeq	r0, r0, ip, lsl r0
  2c:	04290002 	strteq	r0, [r9], #-2
  30:	00040000 	andeq	r0, r4, r0
  34:	00000000 	andeq	r0, r0, r0
  38:	0000051c 	andeq	r0, r0, ip, lsl r5
  3c:	0000007c 	andeq	r0, r0, ip, ror r0
	...
  48:	00000044 	andeq	r0, r0, r4, asr #32
  4c:	06aa0002 	strteq	r0, [sl], r2
  50:	00040000 	andeq	r0, r4, r0
  54:	00000000 	andeq	r0, r0, r0
  58:	00000598 	muleq	r0, r8, r5
  5c:	00000032 	andeq	r0, r0, r2, lsr r0
  60:	00000000 	andeq	r0, r0, r0
  64:	00000014 	andeq	r0, r0, r4, lsl r0
  68:	000005ca 	andeq	r0, r0, sl, asr #11
  6c:	0000002e 	andeq	r0, r0, lr, lsr #32
  70:	000005f8 	strdeq	r0, [r0], -r8
  74:	0000001c 	andeq	r0, r0, ip, lsl r0
  78:	00000000 	andeq	r0, r0, r0
  7c:	00000004 	andeq	r0, r0, r4
  80:	00000000 	andeq	r0, r0, r0
  84:	00000014 	andeq	r0, r0, r4, lsl r0
	...
  90:	0000005c 	andeq	r0, r0, ip, asr r0
  94:	08cb0002 	stmiaeq	fp, {r1}^
  98:	00040000 	andeq	r0, r4, r0
  9c:	00000000 	andeq	r0, r0, r0
  a0:	00000614 	andeq	r0, r0, r4, lsl r6
  a4:	00000044 	andeq	r0, r0, r4, asr #32
  a8:	00000000 	andeq	r0, r0, r0
  ac:	0000000c 	andeq	r0, r0, ip
  b0:	00000658 	andeq	r0, r0, r8, asr r6
  b4:	00000018 	andeq	r0, r0, r8, lsl r0
  b8:	00000670 	andeq	r0, r0, r0, ror r6
  bc:	00000014 	andeq	r0, r0, r4, lsl r0
  c0:	00000684 	andeq	r0, r0, r4, lsl #13
  c4:	00000024 	andeq	r0, r0, r4, lsr #32
  c8:	000006a8 	andeq	r0, r0, r8, lsr #13
  cc:	00000098 	muleq	r0, r8, r0
  d0:	00000740 	andeq	r0, r0, r0, asr #14
  d4:	00000018 	andeq	r0, r0, r8, lsl r0
  d8:	00000758 	andeq	r0, r0, r8, asr r7
  dc:	000000c8 	andeq	r0, r0, r8, asr #1
  e0:	00000000 	andeq	r0, r0, r0
  e4:	00000028 	andeq	r0, r0, r8, lsr #32
	...
  f0:	0000002c 	andeq	r0, r0, ip, lsr #32
  f4:	0f360002 	svceq	0x00360002
  f8:	00040000 	andeq	r0, r4, r0
  fc:	00000000 	andeq	r0, r0, r0
 100:	00000820 	andeq	r0, r0, r0, lsr #16
 104:	00000028 	andeq	r0, r0, r8, lsr #32
 108:	00000848 	andeq	r0, r0, r8, asr #16
 10c:	00000038 	andeq	r0, r0, r8, lsr r0
 110:	00000880 	andeq	r0, r0, r0, lsl #17
 114:	00000088 	andeq	r0, r0, r8, lsl #1
	...
 120:	0000003c 	andeq	r0, r0, ip, lsr r0
 124:	123a0002 	eorsne	r0, sl, #2
 128:	00040000 	andeq	r0, r4, r0
 12c:	00000000 	andeq	r0, r0, r0
 130:	00000908 	andeq	r0, r0, r8, lsl #18
 134:	0000004c 	andeq	r0, r0, ip, asr #32
 138:	00000954 	andeq	r0, r0, r4, asr r9
 13c:	0000004c 	andeq	r0, r0, ip, asr #32
 140:	000009a0 	andeq	r0, r0, r0, lsr #19
 144:	0000000c 	andeq	r0, r0, ip
 148:	000009ac 	andeq	r0, r0, ip, lsr #19
 14c:	0000000c 	andeq	r0, r0, ip
 150:	000009b8 			; <UNDEFINED> instruction: 0x000009b8
 154:	00000034 	andeq	r0, r0, r4, lsr r0
	...
 160:	000000ac 	andeq	r0, r0, ip, lsr #1
 164:	190e0002 	stmdbne	lr, {r1}
 168:	00040000 	andeq	r0, r4, r0
	...
 174:	00000010 	andeq	r0, r0, r0, lsl r0
 178:	000009ec 	andeq	r0, r0, ip, ror #19
 17c:	00000012 	andeq	r0, r0, r2, lsl r0
 180:	00000a00 	andeq	r0, r0, r0, lsl #20
 184:	00000100 	andeq	r0, r0, r0, lsl #2
 188:	00000b00 	andeq	r0, r0, r0, lsl #22
 18c:	00000010 	andeq	r0, r0, r0, lsl r0
 190:	00000000 	andeq	r0, r0, r0
 194:	0000001c 	andeq	r0, r0, ip, lsl r0
 198:	00000000 	andeq	r0, r0, r0
 19c:	00000010 	andeq	r0, r0, r0, lsl r0
 1a0:	00000000 	andeq	r0, r0, r0
 1a4:	0000003e 	andeq	r0, r0, lr, lsr r0
 1a8:	00000000 	andeq	r0, r0, r0
 1ac:	0000003c 	andeq	r0, r0, ip, lsr r0
 1b0:	00000b20 	andeq	r0, r0, r0, lsr #22
 1b4:	00000026 	andeq	r0, r0, r6, lsr #32
 1b8:	00000b46 	andeq	r0, r0, r6, asr #22
 1bc:	0000003c 	andeq	r0, r0, ip, lsr r0
 1c0:	00000000 	andeq	r0, r0, r0
 1c4:	00000038 	andeq	r0, r0, r8, lsr r0
 1c8:	00000000 	andeq	r0, r0, r0
 1cc:	00000086 	andeq	r0, r0, r6, lsl #1
 1d0:	00000000 	andeq	r0, r0, r0
 1d4:	0000006c 	andeq	r0, r0, ip, rrx
 1d8:	00000000 	andeq	r0, r0, r0
 1dc:	00000044 	andeq	r0, r0, r4, asr #32
 1e0:	00000000 	andeq	r0, r0, r0
 1e4:	0000007e 	andeq	r0, r0, lr, ror r0
 1e8:	00000000 	andeq	r0, r0, r0
 1ec:	0000001e 	andeq	r0, r0, lr, lsl r0
 1f0:	00000b84 	andeq	r0, r0, r4, lsl #23
 1f4:	00000078 	andeq	r0, r0, r8, ror r0
 1f8:	00000bfc 	strdeq	r0, [r0], -ip
 1fc:	00000048 	andeq	r0, r0, r8, asr #32
 200:	00000c44 	andeq	r0, r0, r4, asr #24
 204:	00000048 	andeq	r0, r0, r8, asr #32
	...
 210:	0000002c 	andeq	r0, r0, ip, lsr #32
 214:	28800002 	stmcs	r0, {r1}
 218:	00040000 	andeq	r0, r4, r0
 21c:	00000000 	andeq	r0, r0, r0
 220:	00000c8c 	andeq	r0, r0, ip, lsl #25
 224:	00000084 	andeq	r0, r0, r4, lsl #1
 228:	00000d10 	andeq	r0, r0, r0, lsl sp
 22c:	00000090 	muleq	r0, r0, r0
 230:	00000da0 	andeq	r0, r0, r0, lsr #27
 234:	000000f4 	strdeq	r0, [r0], -r4
	...
 240:	00000014 	andeq	r0, r0, r4, lsl r0
 244:	323e0002 	eorscc	r0, lr, #2
 248:	00040000 	andeq	r0, r4, r0
	...
 258:	00000064 	andeq	r0, r0, r4, rrx
 25c:	32e00002 	rsccc	r0, r0, #2
 260:	00040000 	andeq	r0, r4, r0
 264:	00000000 	andeq	r0, r0, r0
 268:	00000e94 	muleq	r0, r4, lr
 26c:	00000014 	andeq	r0, r0, r4, lsl r0
 270:	00000ea8 	andeq	r0, r0, r8, lsr #29
 274:	000000a8 	andeq	r0, r0, r8, lsr #1
 278:	00000f50 	andeq	r0, r0, r0, asr pc
 27c:	00000078 	andeq	r0, r0, r8, ror r0
 280:	00000fc8 	andeq	r0, r0, r8, asr #31
 284:	0000004c 	andeq	r0, r0, ip, asr #32
 288:	00000000 	andeq	r0, r0, r0
 28c:	0000001c 	andeq	r0, r0, ip, lsl r0
 290:	00000000 	andeq	r0, r0, r0
 294:	0000001c 	andeq	r0, r0, ip, lsl r0
 298:	00001014 	andeq	r1, r0, r4, lsl r0
 29c:	0000001c 	andeq	r0, r0, ip, lsl r0
 2a0:	00001030 	andeq	r1, r0, r0, lsr r0
 2a4:	0000001c 	andeq	r0, r0, ip, lsl r0
 2a8:	00000000 	andeq	r0, r0, r0
 2ac:	00000018 	andeq	r0, r0, r8, lsl r0
 2b0:	00000000 	andeq	r0, r0, r0
 2b4:	00000018 	andeq	r0, r0, r8, lsl r0
	...
 2c0:	00000034 	andeq	r0, r0, r4, lsr r0
 2c4:	3c000002 	stccc	0, cr0, [r0], {2}
 2c8:	00040000 	andeq	r0, r4, r0
 2cc:	00000000 	andeq	r0, r0, r0
 2d0:	0000104c 	andeq	r1, r0, ip, asr #32
 2d4:	0000001c 	andeq	r0, r0, ip, lsl r0
 2d8:	00001068 	andeq	r1, r0, r8, rrx
 2dc:	0000012c 	andeq	r0, r0, ip, lsr #2
 2e0:	00001194 	muleq	r0, r4, r1
 2e4:	0000005c 	andeq	r0, r0, ip, asr r0
 2e8:	000011f0 	strdeq	r1, [r0], -r0
 2ec:	0000001c 	andeq	r0, r0, ip, lsl r0
	...
 2f8:	0000001c 	andeq	r0, r0, ip, lsl r0
 2fc:	3f610002 	svccc	0x00610002
 300:	00040000 	andeq	r0, r4, r0
 304:	00000000 	andeq	r0, r0, r0
 308:	0000120c 	andeq	r1, r0, ip, lsl #4
 30c:	00000038 	andeq	r0, r0, r8, lsr r0
	...
 318:	0000002c 	andeq	r0, r0, ip, lsr #32
 31c:	42520002 	subsmi	r0, r2, #2
 320:	00040000 	andeq	r0, r4, r0
 324:	00000000 	andeq	r0, r0, r0
 328:	00001244 	andeq	r1, r0, r4, asr #4
 32c:	00000040 	andeq	r0, r0, r0, asr #32
 330:	00000000 	andeq	r0, r0, r0
 334:	000000f4 	strdeq	r0, [r0], -r4
 338:	00000000 	andeq	r0, r0, r0
 33c:	00000120 	andeq	r0, r0, r0, lsr #2
	...
 348:	0000002c 	andeq	r0, r0, ip, lsr #32
 34c:	4dd60002 	ldclmi	0, cr0, [r6, #8]
 350:	00040000 	andeq	r0, r4, r0
 354:	00000000 	andeq	r0, r0, r0
 358:	00001284 	andeq	r1, r0, r4, lsl #5
 35c:	00000044 	andeq	r0, r0, r4, asr #32
 360:	00000000 	andeq	r0, r0, r0
 364:	00000002 	andeq	r0, r0, r2
 368:	000012c8 	andeq	r1, r0, r8, asr #5
 36c:	00000014 	andeq	r0, r0, r4, lsl r0
	...
 378:	00000024 	andeq	r0, r0, r4, lsr #32
 37c:	51dc0002 	bicspl	r0, ip, r2
 380:	00040000 	andeq	r0, r4, r0
 384:	00000000 	andeq	r0, r0, r0
 388:	000012dc 	ldrdeq	r1, [r0], -ip
 38c:	00000014 	andeq	r0, r0, r4, lsl r0
 390:	000012f0 	strdeq	r1, [r0], -r0
 394:	00000078 	andeq	r0, r0, r8, ror r0
	...
 3a0:	0000001c 	andeq	r0, r0, ip, lsl r0
 3a4:	54860002 	strpl	r0, [r6], #2
 3a8:	00040000 	andeq	r0, r4, r0
 3ac:	00000000 	andeq	r0, r0, r0
 3b0:	0000047c 	andeq	r0, r0, ip, ror r4
 3b4:	00000018 	andeq	r0, r0, r8, lsl r0
	...

Disassembly of section .debug_ranges:

00000000 <.debug_ranges>:
   0:	000004f8 	strdeq	r0, [r0], -r8
   4:	0000051c 	andeq	r0, r0, ip, lsl r5
   8:	00000001 	andeq	r0, r0, r1
   c:	00000001 	andeq	r0, r0, r1
	...
  18:	0000051c 	andeq	r0, r0, ip, lsl r5
  1c:	00000598 	muleq	r0, r8, r5
	...
  28:	00000598 	muleq	r0, r8, r5
  2c:	000005ca 	andeq	r0, r0, sl, asr #11
  30:	00000001 	andeq	r0, r0, r1
  34:	00000001 	andeq	r0, r0, r1
  38:	000005ca 	andeq	r0, r0, sl, asr #11
  3c:	000005f8 	strdeq	r0, [r0], -r8
  40:	000005f8 	strdeq	r0, [r0], -r8
  44:	00000614 	andeq	r0, r0, r4, lsl r6
  48:	00000001 	andeq	r0, r0, r1
  4c:	00000001 	andeq	r0, r0, r1
  50:	00000001 	andeq	r0, r0, r1
  54:	00000001 	andeq	r0, r0, r1
	...
  60:	00000614 	andeq	r0, r0, r4, lsl r6
  64:	00000658 	andeq	r0, r0, r8, asr r6
  68:	00000001 	andeq	r0, r0, r1
  6c:	00000001 	andeq	r0, r0, r1
  70:	00000658 	andeq	r0, r0, r8, asr r6
  74:	00000670 	andeq	r0, r0, r0, ror r6
  78:	00000670 	andeq	r0, r0, r0, ror r6
  7c:	00000684 	andeq	r0, r0, r4, lsl #13
  80:	00000684 	andeq	r0, r0, r4, lsl #13
  84:	000006a8 	andeq	r0, r0, r8, lsr #13
  88:	000006a8 	andeq	r0, r0, r8, lsr #13
  8c:	00000740 	andeq	r0, r0, r0, asr #14
  90:	00000740 	andeq	r0, r0, r0, asr #14
  94:	00000758 	andeq	r0, r0, r8, asr r7
  98:	00000758 	andeq	r0, r0, r8, asr r7
  9c:	00000820 	andeq	r0, r0, r0, lsr #16
  a0:	00000001 	andeq	r0, r0, r1
  a4:	00000001 	andeq	r0, r0, r1
	...
  b0:	00000820 	andeq	r0, r0, r0, lsr #16
  b4:	00000848 	andeq	r0, r0, r8, asr #16
  b8:	00000848 	andeq	r0, r0, r8, asr #16
  bc:	00000880 	andeq	r0, r0, r0, lsl #17
  c0:	00000880 	andeq	r0, r0, r0, lsl #17
  c4:	00000908 	andeq	r0, r0, r8, lsl #18
	...
  d0:	00000908 	andeq	r0, r0, r8, lsl #18
  d4:	00000954 	andeq	r0, r0, r4, asr r9
  d8:	00000954 	andeq	r0, r0, r4, asr r9
  dc:	000009a0 	andeq	r0, r0, r0, lsr #19
  e0:	000009a0 	andeq	r0, r0, r0, lsr #19
  e4:	000009ac 	andeq	r0, r0, ip, lsr #19
  e8:	000009ac 	andeq	r0, r0, ip, lsr #19
  ec:	000009b8 			; <UNDEFINED> instruction: 0x000009b8
  f0:	000009b8 			; <UNDEFINED> instruction: 0x000009b8
  f4:	000009ec 	andeq	r0, r0, ip, ror #19
	...
 100:	00000001 	andeq	r0, r0, r1
 104:	00000001 	andeq	r0, r0, r1
 108:	00000001 	andeq	r0, r0, r1
 10c:	00000001 	andeq	r0, r0, r1
	...
 118:	00000001 	andeq	r0, r0, r1
 11c:	00000001 	andeq	r0, r0, r1
 120:	000009ec 	andeq	r0, r0, ip, ror #19
 124:	000009fe 	strdeq	r0, [r0], -lr
 128:	00000a00 	andeq	r0, r0, r0, lsl #20
 12c:	00000b00 	andeq	r0, r0, r0, lsl #22
 130:	00000b00 	andeq	r0, r0, r0, lsl #22
 134:	00000b10 	andeq	r0, r0, r0, lsl fp
 138:	00000001 	andeq	r0, r0, r1
 13c:	00000001 	andeq	r0, r0, r1
 140:	00000001 	andeq	r0, r0, r1
 144:	00000001 	andeq	r0, r0, r1
 148:	00000001 	andeq	r0, r0, r1
 14c:	00000001 	andeq	r0, r0, r1
 150:	00000001 	andeq	r0, r0, r1
 154:	00000001 	andeq	r0, r0, r1
 158:	00000b20 	andeq	r0, r0, r0, lsr #22
 15c:	00000b46 	andeq	r0, r0, r6, asr #22
 160:	00000b46 	andeq	r0, r0, r6, asr #22
 164:	00000b82 	andeq	r0, r0, r2, lsl #23
 168:	00000001 	andeq	r0, r0, r1
 16c:	00000001 	andeq	r0, r0, r1
 170:	00000001 	andeq	r0, r0, r1
 174:	00000001 	andeq	r0, r0, r1
 178:	00000001 	andeq	r0, r0, r1
 17c:	00000001 	andeq	r0, r0, r1
 180:	00000001 	andeq	r0, r0, r1
 184:	00000001 	andeq	r0, r0, r1
 188:	00000001 	andeq	r0, r0, r1
 18c:	00000001 	andeq	r0, r0, r1
 190:	00000001 	andeq	r0, r0, r1
 194:	00000001 	andeq	r0, r0, r1
 198:	00000b84 	andeq	r0, r0, r4, lsl #23
 19c:	00000bfc 	strdeq	r0, [r0], -ip
 1a0:	00000bfc 	strdeq	r0, [r0], -ip
 1a4:	00000c44 	andeq	r0, r0, r4, asr #24
 1a8:	00000c44 	andeq	r0, r0, r4, asr #24
 1ac:	00000c8c 	andeq	r0, r0, ip, lsl #25
	...
 1b8:	00000c8c 	andeq	r0, r0, ip, lsl #25
 1bc:	00000d10 	andeq	r0, r0, r0, lsl sp
 1c0:	00000d10 	andeq	r0, r0, r0, lsl sp
 1c4:	00000da0 	andeq	r0, r0, r0, lsr #27
 1c8:	00000da0 	andeq	r0, r0, r0, lsr #27
 1cc:	00000e94 	muleq	r0, r4, lr
	...
 1d8:	00000f52 	andeq	r0, r0, r2, asr pc
 1dc:	00000f54 	andeq	r0, r0, r4, asr pc
 1e0:	00000f58 	andeq	r0, r0, r8, asr pc
 1e4:	00000f5c 	andeq	r0, r0, ip, asr pc
 1e8:	00000f60 	andeq	r0, r0, r0, ror #30
 1ec:	00000fb0 			; <UNDEFINED> instruction: 0x00000fb0
	...
 1f8:	00000fd6 	ldrdeq	r0, [r0], -r6
 1fc:	00000ff4 	strdeq	r0, [r0], -r4
 200:	00000ff6 	strdeq	r0, [r0], -r6
 204:	00000ffe 	strdeq	r0, [r0], -lr
	...
 210:	00000e94 	muleq	r0, r4, lr
 214:	00000ea8 	andeq	r0, r0, r8, lsr #29
 218:	00000ea8 	andeq	r0, r0, r8, lsr #29
 21c:	00000f50 	andeq	r0, r0, r0, asr pc
 220:	00000f50 	andeq	r0, r0, r0, asr pc
 224:	00000fc8 	andeq	r0, r0, r8, asr #31
 228:	00000fc8 	andeq	r0, r0, r8, asr #31
 22c:	00001014 	andeq	r1, r0, r4, lsl r0
 230:	00000001 	andeq	r0, r0, r1
 234:	00000001 	andeq	r0, r0, r1
 238:	00000001 	andeq	r0, r0, r1
 23c:	00000001 	andeq	r0, r0, r1
 240:	00001014 	andeq	r1, r0, r4, lsl r0
 244:	00001030 	andeq	r1, r0, r0, lsr r0
 248:	00001030 	andeq	r1, r0, r0, lsr r0
 24c:	0000104c 	andeq	r1, r0, ip, asr #32
 250:	00000001 	andeq	r0, r0, r1
 254:	00000001 	andeq	r0, r0, r1
 258:	00000001 	andeq	r0, r0, r1
 25c:	00000001 	andeq	r0, r0, r1
	...
 268:	0000104c 	andeq	r1, r0, ip, asr #32
 26c:	00001068 	andeq	r1, r0, r8, rrx
 270:	00001068 	andeq	r1, r0, r8, rrx
 274:	00001194 	muleq	r0, r4, r1
 278:	00001194 	muleq	r0, r4, r1
 27c:	000011f0 	strdeq	r1, [r0], -r0
 280:	000011f0 	strdeq	r1, [r0], -r0
 284:	0000120c 	andeq	r1, r0, ip, lsl #4
	...
 290:	0000120c 	andeq	r1, r0, ip, lsl #4
 294:	00001244 	andeq	r1, r0, r4, asr #4
	...
 2a0:	00000001 	andeq	r0, r0, r1
 2a4:	00000001 	andeq	r0, r0, r1
 2a8:	00000001 	andeq	r0, r0, r1
 2ac:	00000001 	andeq	r0, r0, r1
 2b0:	00000001 	andeq	r0, r0, r1
 2b4:	00000001 	andeq	r0, r0, r1
	...
 2c0:	00000001 	andeq	r0, r0, r1
 2c4:	00000001 	andeq	r0, r0, r1
 2c8:	00000001 	andeq	r0, r0, r1
 2cc:	00000001 	andeq	r0, r0, r1
 2d0:	00000001 	andeq	r0, r0, r1
 2d4:	00000001 	andeq	r0, r0, r1
	...
 2e0:	00000001 	andeq	r0, r0, r1
 2e4:	00000001 	andeq	r0, r0, r1
 2e8:	00000001 	andeq	r0, r0, r1
 2ec:	00000001 	andeq	r0, r0, r1
 2f0:	00000001 	andeq	r0, r0, r1
 2f4:	00000001 	andeq	r0, r0, r1
	...
 300:	00000001 	andeq	r0, r0, r1
 304:	00000001 	andeq	r0, r0, r1
 308:	00000001 	andeq	r0, r0, r1
 30c:	00000001 	andeq	r0, r0, r1
	...
 318:	00000001 	andeq	r0, r0, r1
 31c:	00000001 	andeq	r0, r0, r1
 320:	00000001 	andeq	r0, r0, r1
 324:	00000001 	andeq	r0, r0, r1
	...
 330:	00000001 	andeq	r0, r0, r1
 334:	00000001 	andeq	r0, r0, r1
 338:	00000001 	andeq	r0, r0, r1
 33c:	00000001 	andeq	r0, r0, r1
	...
 348:	00000001 	andeq	r0, r0, r1
 34c:	00000001 	andeq	r0, r0, r1
 350:	00000001 	andeq	r0, r0, r1
 354:	00000001 	andeq	r0, r0, r1
	...
 360:	00000001 	andeq	r0, r0, r1
 364:	00000001 	andeq	r0, r0, r1
 368:	00000001 	andeq	r0, r0, r1
 36c:	00000001 	andeq	r0, r0, r1
	...
 378:	00000001 	andeq	r0, r0, r1
 37c:	00000001 	andeq	r0, r0, r1
 380:	00000001 	andeq	r0, r0, r1
 384:	00000001 	andeq	r0, r0, r1
	...
 390:	00000001 	andeq	r0, r0, r1
 394:	00000001 	andeq	r0, r0, r1
 398:	00000001 	andeq	r0, r0, r1
 39c:	00000001 	andeq	r0, r0, r1
	...
 3a8:	00000001 	andeq	r0, r0, r1
 3ac:	00000001 	andeq	r0, r0, r1
 3b0:	00000001 	andeq	r0, r0, r1
 3b4:	00000001 	andeq	r0, r0, r1
	...
 3c0:	00000001 	andeq	r0, r0, r1
 3c4:	00000001 	andeq	r0, r0, r1
 3c8:	00000001 	andeq	r0, r0, r1
 3cc:	00000001 	andeq	r0, r0, r1
	...
 3d8:	00000001 	andeq	r0, r0, r1
 3dc:	00000001 	andeq	r0, r0, r1
 3e0:	00000001 	andeq	r0, r0, r1
 3e4:	00000001 	andeq	r0, r0, r1
	...
 3f0:	00000001 	andeq	r0, r0, r1
 3f4:	00000001 	andeq	r0, r0, r1
 3f8:	00000001 	andeq	r0, r0, r1
 3fc:	00000001 	andeq	r0, r0, r1
	...
 408:	00000001 	andeq	r0, r0, r1
 40c:	00000001 	andeq	r0, r0, r1
 410:	00000001 	andeq	r0, r0, r1
 414:	00000001 	andeq	r0, r0, r1
	...
 420:	00000001 	andeq	r0, r0, r1
 424:	00000001 	andeq	r0, r0, r1
 428:	00000001 	andeq	r0, r0, r1
 42c:	00000001 	andeq	r0, r0, r1
	...
 438:	00000001 	andeq	r0, r0, r1
 43c:	00000001 	andeq	r0, r0, r1
 440:	00000001 	andeq	r0, r0, r1
 444:	00000001 	andeq	r0, r0, r1
	...
 450:	00000001 	andeq	r0, r0, r1
 454:	00000001 	andeq	r0, r0, r1
 458:	00000001 	andeq	r0, r0, r1
 45c:	00000001 	andeq	r0, r0, r1
	...
 468:	00000001 	andeq	r0, r0, r1
 46c:	00000001 	andeq	r0, r0, r1
 470:	00000001 	andeq	r0, r0, r1
 474:	00000001 	andeq	r0, r0, r1
	...
 480:	00000001 	andeq	r0, r0, r1
 484:	00000001 	andeq	r0, r0, r1
 488:	00000001 	andeq	r0, r0, r1
 48c:	00000001 	andeq	r0, r0, r1
	...
 498:	00000001 	andeq	r0, r0, r1
 49c:	00000001 	andeq	r0, r0, r1
 4a0:	00000001 	andeq	r0, r0, r1
 4a4:	00000001 	andeq	r0, r0, r1
	...
 4b0:	00001244 	andeq	r1, r0, r4, asr #4
 4b4:	00001284 	andeq	r1, r0, r4, lsl #5
 4b8:	00000001 	andeq	r0, r0, r1
 4bc:	00000001 	andeq	r0, r0, r1
 4c0:	00000001 	andeq	r0, r0, r1
 4c4:	00000001 	andeq	r0, r0, r1
	...
 4d0:	00001284 	andeq	r1, r0, r4, lsl #5
 4d4:	000012c8 	andeq	r1, r0, r8, asr #5
 4d8:	00000001 	andeq	r0, r0, r1
 4dc:	00000001 	andeq	r0, r0, r1
 4e0:	000012c8 	andeq	r1, r0, r8, asr #5
 4e4:	000012dc 	ldrdeq	r1, [r0], -ip
	...
 4f0:	000012dc 	ldrdeq	r1, [r0], -ip
 4f4:	000012f0 	strdeq	r1, [r0], -r0
 4f8:	000012f0 	strdeq	r1, [r0], -r0
 4fc:	00001368 	andeq	r1, r0, r8, ror #6
	...

Disassembly of section .debug_line:

00000000 <.debug_line>:
       0:	0000010e 	andeq	r0, r0, lr, lsl #2
       4:	00a80002 	adceq	r0, r8, r2
       8:	01020000 	mrseq	r0, (UNDEF: 2)
       c:	000d0efb 	strdeq	r0, [sp], -fp
      10:	01010101 	tsteq	r1, r1, lsl #2
      14:	01000000 	mrseq	r0, (UNDEF: 0)
      18:	2e010000 	cdpcs	0, 0, cr0, cr1, cr0, {0}
      1c:	6d632f2e 	stclvs	15, cr2, [r3, #-184]!	; 0xffffff48
      20:	2f736973 	svccs	0x00736973
      24:	324c4b4d 	subcc	r4, ip, #78848	; 0x13400
      28:	00345a36 	eorseq	r5, r4, r6, lsr sl
      2c:	7273752f 	rsbsvc	r7, r3, #197132288	; 0xbc00000
      30:	6d72612f 	ldfvse	f6, [r2, #-188]!	; 0xffffff44
      34:	6e6f6e2d 	cdpvs	14, 6, cr6, cr15, cr13, {1}
      38:	61652d65 	cmnvs	r5, r5, ror #26
      3c:	692f6962 	stmdbvs	pc!, {r1, r5, r6, r8, fp, sp, lr}	; <UNPREDICTABLE>
      40:	756c636e 	strbvc	r6, [ip, #-878]!	; 0xfffffc92
      44:	6d2f6564 	cfstr32vs	mvfx6, [pc, #-400]!	; fffffebc <__StackTop+0xdfffcebc>
      48:	69686361 	stmdbvs	r8!, {r0, r5, r6, r8, r9, sp, lr}^
      4c:	2f00656e 	svccs	0x0000656e
      50:	2f727375 	svccs	0x00727375
      54:	2d6d7261 	sfmcs	f7, 2, [sp, #-388]!	; 0xfffffe7c
      58:	656e6f6e 	strbvs	r6, [lr, #-3950]!	; 0xfffff092
      5c:	6261652d 	rsbvs	r6, r1, #188743680	; 0xb400000
      60:	6e692f69 	cdpvs	15, 6, cr2, cr9, cr9, {3}
      64:	64756c63 	ldrbtvs	r6, [r5], #-3171	; 0xfffff39d
      68:	79732f65 	ldmdbvc	r3!, {r0, r2, r5, r6, r8, r9, sl, fp, sp}^
      6c:	73000073 	movwvc	r0, #115	; 0x73
      70:	65747379 	ldrbvs	r7, [r4, #-889]!	; 0xfffffc87
      74:	4b4d5f6d 	blmi	1357e30 <__DATA_END+0x1356440>
      78:	5a36324c 	bpl	d8c9b0 <__DATA_END+0xd8afc0>
      7c:	00632e34 	rsbeq	r2, r3, r4, lsr lr
      80:	5f000001 	svcpl	0x00000001
      84:	61666564 	cmnvs	r6, r4, ror #10
      88:	5f746c75 	svcpl	0x00746c75
      8c:	65707974 	ldrbvs	r7, [r0, #-2420]!	; 0xfffff68c
      90:	00682e73 	rsbeq	r2, r8, r3, ror lr
      94:	5f000002 	svcpl	0x00000002
      98:	69647473 	stmdbvs	r4!, {r0, r1, r4, r5, r6, sl, ip, sp, lr}^
      9c:	682e746e 	stmdavs	lr!, {r1, r2, r3, r5, r6, sl, ip, sp, lr}
      a0:	00000300 	andeq	r0, r0, r0, lsl #6
      a4:	324c4b4d 	subcc	r4, ip, #78848	; 0x13400
      a8:	2e345a36 	mrccs	10, 1, r5, cr4, cr6, {1}
      ac:	00010068 	andeq	r0, r1, r8, rrx
      b0:	05000000 	streq	r0, [r0, #-0]
      b4:	0004f802 	andeq	pc, r4, r2, lsl #16
      b8:	00f80300 	rscseq	r0, r8, r0, lsl #6
      bc:	43591501 	cmpmi	r9, #4194304	; 0x400000
      c0:	5801b803 	stmdapl	r1, {r0, r1, fp, ip, sp, pc}
      c4:	01000502 	tsteq	r0, r2, lsl #10
      c8:	02050001 	andeq	r0, r5, #1
      cc:	00000000 	andeq	r0, r0, r0
      d0:	0102c103 	tsteq	r2, r3, lsl #2
      d4:	5a251b17 	bpl	946d38 <__DATA_END+0x945348>
      d8:	6e593f3e 	mrcvs	15, 2, r3, cr9, cr14, {1}
      dc:	76033555 			; <UNDEFINED> instruction: 0x76033555
      e0:	2e0c0374 	mcrcs	3, 0, r0, cr12, cr4, {3}
      e4:	3abc314c 	bcc	fef0c61c <__StackTop+0xdef0961c>
      e8:	03580e03 	cmpeq	r8, #3, 28	; 0x30
      ec:	17033c72 	smlsdxne	r3, r2, ip, r3
      f0:	2e6e034a 	cdpcs	3, 6, cr0, cr14, cr10, {2}
      f4:	223d223d 	eorscs	r2, sp, #-805306365	; 0xd0000003
      f8:	21233f42 	teqcs	r3, r2, asr #30
      fc:	59211f27 	stmdbpl	r1!, {r0, r1, r2, r5, r8, r9, sl, fp, ip}
     100:	4d4c4c21 	stclmi	12, cr4, [ip, #-132]	; 0xffffff7c
     104:	034c7621 	movteq	r7, #50721	; 0xc621
     108:	0c032e79 	stceq	14, cr2, [r3], {121}	; 0x79
     10c:	0008922e 	andeq	r9, r8, lr, lsr #4
     110:	00ee0101 	rsceq	r0, lr, r1, lsl #2
     114:	00020000 	andeq	r0, r2, r0
     118:	000000af 	andeq	r0, r0, pc, lsr #1
     11c:	0efb0102 	cdpeq	1, 15, cr0, cr11, cr2, {0}
     120:	0101000d 	tsteq	r1, sp
     124:	00000101 	andeq	r0, r0, r1, lsl #2
     128:	00000100 	andeq	r0, r0, r0, lsl #2
     12c:	2f2e2e01 	svccs	0x002e2e01
     130:	69736d63 	ldmdbvs	r3!, {r0, r1, r5, r6, r8, sl, fp, sp, lr}^
     134:	4b4d2f73 	blmi	134bf08 <__DATA_END+0x134a518>
     138:	5a36324c 	bpl	d8ca70 <__DATA_END+0xd8b080>
     13c:	752f0034 	strvc	r0, [pc, #-52]!	; 110 <M_VECTOR_RAM_SIZE+0x110>
     140:	612f7273 	teqvs	pc, r3, ror r2	; <UNPREDICTABLE>
     144:	6e2d6d72 	mcrvs	13, 1, r6, cr13, cr2, {3}
     148:	2d656e6f 	stclcs	14, cr6, [r5, #-444]!	; 0xfffffe44
     14c:	69626165 	stmdbvs	r2!, {r0, r2, r5, r6, r8, sp, lr}^
     150:	636e692f 	cmnvs	lr, #770048	; 0xbc000
     154:	6564756c 	strbvs	r7, [r4, #-1388]!	; 0xfffffa94
     158:	63616d2f 	cmnvs	r1, #3008	; 0xbc0
     15c:	656e6968 	strbvs	r6, [lr, #-2408]!	; 0xfffff698
     160:	73752f00 	cmnvc	r5, #0, 30
     164:	72612f72 	rsbvc	r2, r1, #456	; 0x1c8
     168:	6f6e2d6d 	svcvs	0x006e2d6d
     16c:	652d656e 	strvs	r6, [sp, #-1390]!	; 0xfffffa92
     170:	2f696261 	svccs	0x00696261
     174:	6c636e69 	stclvs	14, cr6, [r3], #-420	; 0xfffffe5c
     178:	2f656475 	svccs	0x00656475
     17c:	00737973 	rsbseq	r7, r3, r3, ror r9
     180:	632f2e2e 	teqvs	pc, #736	; 0x2e0
     184:	7369736d 	cmnvc	r9, #-1275068415	; 0xb4000001
     188:	74730000 	ldrbtvc	r0, [r3], #-0
     18c:	75747261 	ldrbvc	r7, [r4, #-609]!	; 0xfffffd9f
     190:	00632e70 	rsbeq	r2, r3, r0, ror lr
     194:	5f000001 	svcpl	0x00000001
     198:	61666564 	cmnvs	r6, r4, ror #10
     19c:	5f746c75 	svcpl	0x00746c75
     1a0:	65707974 	ldrbvs	r7, [r0, #-2420]!	; 0xfffff68c
     1a4:	00682e73 	rsbeq	r2, r8, r3, ror lr
     1a8:	5f000002 	svcpl	0x00000002
     1ac:	69647473 	stmdbvs	r4!, {r0, r1, r4, r5, r6, sl, ip, sp, lr}^
     1b0:	682e746e 	stmdavs	lr!, {r1, r2, r3, r5, r6, sl, ip, sp, lr}
     1b4:	00000300 	andeq	r0, r0, r0, lsl #6
     1b8:	65726f63 	ldrbvs	r6, [r2, #-3939]!	; 0xfffff09d
     1bc:	306d635f 	rsbcc	r6, sp, pc, asr r3
     1c0:	73756c70 	cmnvc	r5, #112, 24	; 0x7000
     1c4:	0400682e 	streq	r6, [r0], #-2094	; 0xfffff7d2
     1c8:	00000000 	andeq	r0, r0, r0
     1cc:	051c0205 	ldreq	r0, [ip, #-517]	; 0xfffffdfb
     1d0:	3a030000 	bcc	c01d8 <__DATA_END+0xbe7e8>
     1d4:	01170301 	tsteq	r7, r1, lsl #6
     1d8:	032e6903 	teqeq	lr, #49152	; 0xc000
     1dc:	00312e17 	eorseq	r2, r1, r7, lsl lr
     1e0:	06010402 	streq	r0, [r1], -r2, lsl #8
     1e4:	0402004a 	streq	r0, [r2], #-74	; 0xffffffb6
     1e8:	4d300603 	ldcmi	6, cr0, [r0, #-12]!
     1ec:	2e160341 	cdpcs	3, 1, cr0, cr6, cr1, {2}
     1f0:	7a03341c 	bvc	cd268 <__DATA_END+0xcb878>
     1f4:	03302420 	teqeq	r0, #32, 8	; 0x20000000
     1f8:	1d224a0d 	vstmdbne	r2!, {s8-s20}
     1fc:	024d303d 	subeq	r3, sp, #61	; 0x3d
     200:	01010013 	tsteq	r1, r3, lsl r0
     204:	000000eb 	andeq	r0, r0, fp, ror #1
     208:	00500002 	subseq	r0, r0, r2
     20c:	01020000 	mrseq	r0, (UNDEF: 2)
     210:	000d0efb 	strdeq	r0, [sp], -fp
     214:	01010101 	tsteq	r1, r1, lsl #2
     218:	01000000 	mrseq	r0, (UNDEF: 0)
     21c:	2f010000 	svccs	0x00010000
     220:	2f727375 	svccs	0x00727375
     224:	2d6d7261 	sfmcs	f7, 2, [sp, #-388]!	; 0xfffffe7c
     228:	656e6f6e 	strbvs	r6, [lr, #-3950]!	; 0xfffff092
     22c:	6261652d 	rsbvs	r6, r1, #188743680	; 0xb400000
     230:	6e692f69 	cdpvs	15, 6, cr2, cr9, cr9, {3}
     234:	64756c63 	ldrbtvs	r6, [r5], #-3171	; 0xfffff39d
     238:	71000065 	tstvc	r0, r5, rrx
     23c:	65756575 	ldrbvs	r6, [r5, #-1397]!	; 0xfffffa8b
     240:	0000632e 	andeq	r6, r0, lr, lsr #6
     244:	75710000 	ldrbvc	r0, [r1, #-0]!
     248:	2e657565 	cdpcs	5, 6, cr7, cr5, cr5, {3}
     24c:	00000068 	andeq	r0, r0, r8, rrx
     250:	64747300 	ldrbtvs	r7, [r4], #-768	; 0xfffffd00
     254:	2e62696c 	cdpcs	9, 6, cr6, cr2, cr12, {3}
     258:	00010068 	andeq	r0, r1, r8, rrx
     25c:	05000000 	streq	r0, [r0, #-0]
     260:	00059802 	andeq	r9, r5, r2, lsl #16
     264:	4b131600 	blmi	4c5a6c <__DATA_END+0x4c407c>
     268:	3e30593d 	mrccc	9, 1, r5, cr0, cr13, {1}
     26c:	0230303d 	eorseq	r3, r0, #61	; 0x3d
     270:	01010001 	tsteq	r1, r1
     274:	00020500 	andeq	r0, r2, r0, lsl #10
     278:	03000000 	movweq	r0, #0
     27c:	21130112 	tstcs	r3, r2, lsl r1
     280:	024c311f 	subeq	r3, ip, #-1073741817	; 0xc0000007
     284:	01010002 	tsteq	r1, r2
     288:	ca020500 	bgt	81690 <__DATA_END+0x7fca0>
     28c:	03000005 	movweq	r0, #5
     290:	1e14011a 	mrcne	1, 0, r0, cr4, cr10, {0}
     294:	3d311f23 	ldccc	15, cr1, [r1, #-140]!	; 0xffffff74
     298:	303d212d 	eorscc	r2, sp, sp, lsr #2
     29c:	01023f3e 	tsteq	r2, lr, lsr pc
     2a0:	00010100 	andeq	r0, r1, r0, lsl #2
     2a4:	05f80205 	ldrbeq	r0, [r8, #517]!	; 0x205
     2a8:	29030000 	stmdbcs	r3, {}	; <UNPREDICTABLE>
     2ac:	242f1401 	strtcs	r1, [pc], #-1025	; 2b4 <M_VECTOR_RAM_SIZE+0x2b4>
     2b0:	0021211c 	eoreq	r2, r1, ip, lsl r1
     2b4:	22030402 	andcs	r0, r3, #33554432	; 0x2000000
     2b8:	03040200 	movweq	r0, #16896	; 0x4200
     2bc:	0402001f 	streq	r0, [r2], #-31	; 0xffffffe1
     2c0:	02002103 	andeq	r2, r0, #-1073741824	; 0xc0000000
     2c4:	321f0304 	andscc	r0, pc, #4, 6	; 0x10000000
     2c8:	01000202 	tsteq	r0, r2, lsl #4
     2cc:	02050001 	andeq	r0, r5, #1
     2d0:	00000000 	andeq	r0, r0, r0
     2d4:	0100c003 	tsteq	r0, r3
     2d8:	01022113 	tsteq	r2, r3, lsl r1
     2dc:	00010100 	andeq	r0, r1, r0, lsl #2
     2e0:	00000205 	andeq	r0, r0, r5, lsl #4
     2e4:	c4030000 	strgt	r0, [r3], #-0
     2e8:	21200100 	teqcs	r0, r0, lsl #2
     2ec:	02023e3d 	andeq	r3, r2, #976	; 0x3d0
     2f0:	a6010100 	strge	r0, [r1], -r0, lsl #2
     2f4:	02000001 	andeq	r0, r0, #1
     2f8:	0000a900 	andeq	sl, r0, r0, lsl #18
     2fc:	fb010200 	blx	40b06 <__DATA_END+0x3f116>
     300:	01000d0e 	tsteq	r0, lr, lsl #26
     304:	00010101 	andeq	r0, r1, r1, lsl #2
     308:	00010000 	andeq	r0, r1, r0
     30c:	752f0100 	strvc	r0, [pc, #-256]!	; 214 <M_VECTOR_RAM_SIZE+0x214>
     310:	612f7273 	teqvs	pc, r3, ror r2	; <UNPREDICTABLE>
     314:	6e2d6d72 	mcrvs	13, 1, r6, cr13, cr2, {3}
     318:	2d656e6f 	stclcs	14, cr6, [r5, #-444]!	; 0xfffffe44
     31c:	69626165 	stmdbvs	r2!, {r0, r2, r5, r6, r8, sp, lr}^
     320:	636e692f 	cmnvs	lr, #770048	; 0xbc000
     324:	6564756c 	strbvs	r7, [r4, #-1388]!	; 0xfffffa94
     328:	63616d2f 	cmnvs	r1, #3008	; 0xbc0
     32c:	656e6968 	strbvs	r6, [lr, #-2408]!	; 0xfffff698
     330:	73752f00 	cmnvc	r5, #0, 30
     334:	72612f72 	rsbvc	r2, r1, #456	; 0x1c8
     338:	6f6e2d6d 	svcvs	0x006e2d6d
     33c:	652d656e 	strvs	r6, [sp, #-1390]!	; 0xfffffa92
     340:	2f696261 	svccs	0x00696261
     344:	6c636e69 	stclvs	14, cr6, [r3], #-420	; 0xfffffe5c
     348:	2f656475 	svccs	0x00656475
     34c:	00737973 	rsbseq	r7, r3, r3, ror r9
     350:	32786100 	rsbscc	r6, r8, #0, 2
     354:	00632e35 	rsbeq	r2, r3, r5, lsr lr
     358:	5f000000 	svcpl	0x00000000
     35c:	61666564 	cmnvs	r6, r4, ror #10
     360:	5f746c75 	svcpl	0x00746c75
     364:	65707974 	ldrbvs	r7, [r0, #-2420]!	; 0xfffff68c
     368:	00682e73 	rsbeq	r2, r8, r3, ror lr
     36c:	5f000001 	svcpl	0x00000001
     370:	69647473 	stmdbvs	r4!, {r0, r1, r4, r5, r6, sl, ip, sp, lr}^
     374:	682e746e 	stmdavs	lr!, {r1, r2, r3, r5, r6, sl, ip, sp, lr}
     378:	00000200 	andeq	r0, r0, r0, lsl #4
     37c:	324c4b4d 	subcc	r4, ip, #78848	; 0x13400
     380:	2e345a36 	mrccs	10, 1, r5, cr4, cr6, {1}
     384:	00000068 	andeq	r0, r0, r8, rrx
     388:	32786100 	rsbscc	r6, r8, #0, 2
     38c:	00682e35 	rsbeq	r2, r8, r5, lsr lr
     390:	64000000 	strvs	r0, [r0], #-0
     394:	682e6361 	stmdavs	lr!, {r0, r5, r6, r8, r9, sp, lr}
     398:	00000000 	andeq	r0, r0, r0
     39c:	2e544950 	mrccs	9, 2, r4, cr4, cr0, {2}
     3a0:	00000068 	andeq	r0, r0, r8, rrx
     3a4:	05000000 	streq	r0, [r0, #-0]
     3a8:	00061402 	andeq	r1, r6, r2, lsl #8
     3ac:	01830300 	orreq	r0, r3, r0, lsl #6
     3b0:	914b2401 	cmpls	fp, r1, lsl #8
     3b4:	024c303d 	subeq	r3, ip, #61	; 0x3d
     3b8:	0101000b 	tsteq	r1, fp
     3bc:	00020500 	andeq	r0, r2, r0, lsl #10
     3c0:	03000000 	movweq	r0, #0
     3c4:	2113011e 	tstcs	r3, lr, lsl r1
     3c8:	03022f11 	movweq	r2, #12049	; 0x2f11
     3cc:	00010100 	andeq	r0, r1, r0, lsl #2
     3d0:	06580205 	ldrbeq	r0, [r8], -r5, lsl #4
     3d4:	c4030000 	strgt	r0, [r3], #-0
     3d8:	59230100 	stmdbpl	r3!, {r8}
     3dc:	01000602 	tsteq	r0, r2, lsl #12
     3e0:	02050001 	andeq	r0, r5, #1
     3e4:	00000670 	andeq	r0, r0, r0, ror r6
     3e8:	0100c903 	tsteq	r0, r3, lsl #18
     3ec:	05024b23 	streq	r4, [r2, #-2851]	; 0xfffff4dd
     3f0:	00010100 	andeq	r0, r1, r0, lsl #2
     3f4:	06840205 	streq	r0, [r4], r5, lsl #4
     3f8:	ce030000 	cdpgt	0, 0, cr0, cr3, cr0, {0}
     3fc:	2f210100 	svccs	0x00210100
     400:	2f114b2f 	svccs	0x00114b2f
     404:	01000702 	tsteq	r0, r2, lsl #14
     408:	02050001 	andeq	r0, r5, #1
     40c:	000006a8 	andeq	r0, r0, r8, lsr #13
     410:	15012303 	strne	r2, [r1, #-771]	; 0xfffffcfd
     414:	2321231d 	teqcs	r1, #1946157056	; 0x74000000
     418:	1b33221d 	blne	cc8c94 <__DATA_END+0xcc72a4>
     41c:	211e2221 	tstcs	lr, r1, lsr #4
     420:	21211e22 	teqcs	r1, r2, lsr #28
     424:	2121211f 	teqcs	r1, pc, lsl r1
     428:	303e3d2f 	eorscc	r3, lr, pc, lsr #26
     42c:	02003d2f 	andeq	r3, r0, #3008	; 0xbc0
     430:	3d3e0104 	ldfccs	f0, [lr, #-16]!
     434:	02002f21 	andeq	r2, r0, #33, 30	; 0x84
     438:	3f2f0104 	svccc	0x002f0104
     43c:	00180230 	andseq	r0, r8, r0, lsr r2
     440:	05000101 	streq	r0, [r0, #-257]	; 0xfffffeff
     444:	00074002 	andeq	r4, r7, r2
     448:	00d40300 	sbcseq	r0, r4, r0, lsl #6
     44c:	22671301 	rsbcs	r1, r7, #67108864	; 0x4000000
     450:	00040222 	andeq	r0, r4, r2, lsr #4
     454:	05000101 	streq	r0, [r0, #-257]	; 0xfffffeff
     458:	00075802 	andeq	r5, r7, r2, lsl #16
     45c:	00dc0300 	sbcseq	r0, ip, r0, lsl #6
     460:	ae592201 	cdpge	2, 5, cr2, cr9, cr1, {0}
     464:	01040200 	mrseq	r0, R12_usr
     468:	59064a06 	stmdbpl	r6, {r1, r2, r9, fp, lr}
     46c:	322f3d59 	eorcc	r3, pc, #5696	; 0x1640
     470:	5b4d302f 	blpl	134c534 <__DATA_END+0x134ab44>
     474:	3d1e221f 	lfmcc	f2, 4, [lr, #-124]	; 0xffffff84
     478:	3e1f2f2f 	cdpcc	15, 1, cr2, cr15, cr15, {1}
     47c:	402f211f 	eormi	r2, pc, pc, lsl r1	; <UNPREDICTABLE>
     480:	024d304c 	subeq	r3, sp, #76	; 0x4c
     484:	01010012 	tsteq	r1, r2, lsl r0
     488:	00020500 	andeq	r0, r2, r0, lsl #10
     48c:	03000000 	movweq	r0, #0
     490:	1301018f 	movwne	r0, #4495	; 0x118f
     494:	3e5a3d4b 	cdpcc	13, 5, cr3, cr10, cr11, {2}
     498:	01000502 	tsteq	r0, r2, lsl #10
     49c:	00011f01 	andeq	r1, r1, r1, lsl #30
     4a0:	b0000200 	andlt	r0, r0, r0, lsl #4
     4a4:	02000000 	andeq	r0, r0, #0
     4a8:	0d0efb01 	vstreq	d15, [lr, #-4]
     4ac:	01010100 	mrseq	r0, (UNDEF: 17)
     4b0:	00000001 	andeq	r0, r0, r1
     4b4:	01000001 	tsteq	r0, r1
     4b8:	7273752f 	rsbsvc	r7, r3, #197132288	; 0xbc00000
     4bc:	6d72612f 	ldfvse	f6, [r2, #-188]!	; 0xffffff44
     4c0:	6e6f6e2d 	cdpvs	14, 6, cr6, cr15, cr13, {1}
     4c4:	61652d65 	cmnvs	r5, r5, ror #26
     4c8:	692f6962 	stmdbvs	pc!, {r1, r5, r6, r8, fp, sp, lr}	; <UNPREDICTABLE>
     4cc:	756c636e 	strbvc	r6, [ip, #-878]!	; 0xfffffc92
     4d0:	6d2f6564 	cfstr32vs	mvfx6, [pc, #-400]!	; 348 <M_VECTOR_RAM_SIZE+0x348>
     4d4:	69686361 	stmdbvs	r8!, {r0, r5, r6, r8, r9, sp, lr}^
     4d8:	2f00656e 	svccs	0x0000656e
     4dc:	2f727375 	svccs	0x00727375
     4e0:	2d6d7261 	sfmcs	f7, 2, [sp, #-388]!	; 0xfffffe7c
     4e4:	656e6f6e 	strbvs	r6, [lr, #-3950]!	; 0xfffff092
     4e8:	6261652d 	rsbvs	r6, r1, #188743680	; 0xb400000
     4ec:	6e692f69 	cdpvs	15, 6, cr2, cr9, cr9, {3}
     4f0:	64756c63 	ldrbtvs	r6, [r5], #-3171	; 0xfffff39d
     4f4:	79732f65 	ldmdbvc	r3!, {r0, r2, r5, r6, r8, r9, sl, fp, sp}^
     4f8:	63000073 	movwvs	r0, #115	; 0x73
     4fc:	00632e77 	rsbeq	r2, r3, r7, ror lr
     500:	5f000000 	svcpl	0x00000000
     504:	61666564 	cmnvs	r6, r4, ror #10
     508:	5f746c75 	svcpl	0x00746c75
     50c:	65707974 	ldrbvs	r7, [r0, #-2420]!	; 0xfffff68c
     510:	00682e73 	rsbeq	r2, r8, r3, ror lr
     514:	5f000001 	svcpl	0x00000001
     518:	69647473 	stmdbvs	r4!, {r0, r1, r4, r5, r6, sl, ip, sp, lr}^
     51c:	682e746e 	stmdavs	lr!, {r1, r2, r3, r5, r6, sl, ip, sp, lr}
     520:	00000200 	andeq	r0, r0, r0, lsl #4
     524:	324c4b4d 	subcc	r4, ip, #78848	; 0x13400
     528:	2e345a36 	mrccs	10, 1, r5, cr4, cr6, {1}
     52c:	00000068 	andeq	r0, r0, r8, rrx
     530:	2e776300 	cdpcs	3, 7, cr6, cr7, cr0, {0}
     534:	00000068 	andeq	r0, r0, r8, rrx
     538:	63616400 	cmnvs	r1, #0, 8
     53c:	0000682e 	andeq	r6, r0, lr, lsr #16
     540:	49500000 	ldmdbmi	r0, {}^	; <UNPREDICTABLE>
     544:	00682e54 	rsbeq	r2, r8, r4, asr lr
     548:	64000000 	strvs	r0, [r0], #-0
     54c:	79616c65 	stmdbvc	r1!, {r0, r2, r5, r6, sl, fp, sp, lr}^
     550:	0000682e 	andeq	r6, r0, lr, lsr #16
     554:	00000000 	andeq	r0, r0, r0
     558:	08200205 	stmdaeq	r0!, {r0, r2, r9}
     55c:	20030000 	andcs	r0, r3, r0
     560:	3d912101 	ldfccs	f2, [r1, #4]
     564:	00050230 	andeq	r0, r5, r0, lsr r2
     568:	05000101 	streq	r0, [r0, #-257]	; 0xfffffeff
     56c:	00084802 	andeq	r4, r8, r2, lsl #16
     570:	01260300 	teqeq	r6, r0, lsl #6
     574:	1e221e14 	mcrne	14, 1, r1, cr2, cr4, {0}
     578:	33212d23 	teqcc	r1, #2240	; 0x8c0
     57c:	3030301c 	eorscc	r3, r0, ip, lsl r0
     580:	2111212f 	tstcs	r1, pc, lsr #2
     584:	01000802 	tsteq	r0, r2, lsl #16
     588:	02050001 	andeq	r0, r5, #1
     58c:	00000880 	andeq	r0, r0, r0, lsl #17
     590:	26013303 	strcs	r3, [r1], -r3, lsl #6
     594:	262e7a03 	strtcs	r7, [lr], -r3, lsl #20
     598:	34207a03 	strtcc	r7, [r0], #-2563	; 0xfffff5fd
     59c:	0e032f21 	cdpeq	15, 0, cr2, cr3, cr1, {1}
     5a0:	20730320 	rsbscs	r0, r3, r0, lsr #6
     5a4:	2f592159 	svccs	0x00592159
     5a8:	352f1d31 	strcc	r1, [pc, #-3377]!	; fffff87f <__StackTop+0xdfffc87f>
     5ac:	1f212d76 	svcne	0x00212d76
     5b0:	1e222f21 	cdpne	15, 2, cr2, cr2, cr1, {1}
     5b4:	212d4f22 	teqcs	sp, r2, lsr #30
     5b8:	023c0e03 	eorseq	r0, ip, #3, 28	; 0x30
     5bc:	01010009 	tsteq	r1, r9
     5c0:	00000171 	andeq	r0, r0, r1, ror r1
     5c4:	00c10002 	sbceq	r0, r1, r2
     5c8:	01020000 	mrseq	r0, (UNDEF: 2)
     5cc:	000d0efb 	strdeq	r0, [sp], -fp
     5d0:	01010101 	tsteq	r1, r1, lsl #2
     5d4:	01000000 	mrseq	r0, (UNDEF: 0)
     5d8:	2e010000 	cdpcs	0, 0, cr0, cr1, cr0, {0}
     5dc:	6d632f2e 	stclvs	15, cr2, [r3, #-184]!	; 0xffffff48
     5e0:	00736973 	rsbseq	r6, r3, r3, ror r9
     5e4:	7273752f 	rsbsvc	r7, r3, #197132288	; 0xbc00000
     5e8:	6d72612f 	ldfvse	f6, [r2, #-188]!	; 0xffffff44
     5ec:	6e6f6e2d 	cdpvs	14, 6, cr6, cr15, cr13, {1}
     5f0:	61652d65 	cmnvs	r5, r5, ror #26
     5f4:	692f6962 	stmdbvs	pc!, {r1, r5, r6, r8, fp, sp, lr}	; <UNPREDICTABLE>
     5f8:	756c636e 	strbvc	r6, [ip, #-878]!	; 0xfffffc92
     5fc:	6d2f6564 	cfstr32vs	mvfx6, [pc, #-400]!	; 474 <_mainCRTStartup+0x64>
     600:	69686361 	stmdbvs	r8!, {r0, r5, r6, r8, r9, sp, lr}^
     604:	2f00656e 	svccs	0x0000656e
     608:	2f727375 	svccs	0x00727375
     60c:	2d6d7261 	sfmcs	f7, 2, [sp, #-388]!	; 0xfffffe7c
     610:	656e6f6e 	strbvs	r6, [lr, #-3950]!	; 0xfffff092
     614:	6261652d 	rsbvs	r6, r1, #188743680	; 0xb400000
     618:	6e692f69 	cdpvs	15, 6, cr2, cr9, cr9, {3}
     61c:	64756c63 	ldrbtvs	r6, [r5], #-3171	; 0xfffff39d
     620:	79732f65 	ldmdbvc	r3!, {r0, r2, r5, r6, r8, r9, sl, fp, sp}^
     624:	50000073 	andpl	r0, r0, r3, ror r0
     628:	632e5449 	teqvs	lr, #1224736768	; 0x49000000
     62c:	00000000 	andeq	r0, r0, r0
     630:	65726f63 	ldrbvs	r6, [r2, #-3939]!	; 0xfffff09d
     634:	306d635f 	rsbcc	r6, sp, pc, asr r3
     638:	73756c70 	cmnvc	r5, #112, 24	; 0x7000
     63c:	0100682e 	tsteq	r0, lr, lsr #16
     640:	6f630000 	svcvs	0x00630000
     644:	635f6572 	cmpvs	pc, #478150656	; 0x1c800000
     648:	6e75466d 	cdpvs	6, 7, cr4, cr5, cr13, {3}
     64c:	00682e63 	rsbeq	r2, r8, r3, ror #28
     650:	5f000001 	svcpl	0x00000001
     654:	61666564 	cmnvs	r6, r4, ror #10
     658:	5f746c75 	svcpl	0x00746c75
     65c:	65707974 	ldrbvs	r7, [r0, #-2420]!	; 0xfffff68c
     660:	00682e73 	rsbeq	r2, r8, r3, ror lr
     664:	5f000002 	svcpl	0x00000002
     668:	69647473 	stmdbvs	r4!, {r0, r1, r4, r5, r6, sl, ip, sp, lr}^
     66c:	682e746e 	stmdavs	lr!, {r1, r2, r3, r5, r6, sl, ip, sp, lr}
     670:	00000300 	andeq	r0, r0, r0, lsl #6
     674:	324c4b4d 	subcc	r4, ip, #78848	; 0x13400
     678:	2e345a36 	mrccs	10, 1, r5, cr4, cr6, {1}
     67c:	00000068 	andeq	r0, r0, r8, rrx
     680:	54495000 	strbpl	r5, [r9], #-0
     684:	0000682e 	andeq	r6, r0, lr, lsr #16
     688:	00000000 	andeq	r0, r0, r0
     68c:	09080205 	stmdbeq	r8, {r0, r2, r9}
     690:	22180000 	andscs	r0, r8, #0
     694:	211f211f 	tstcs	pc, pc, lsl r1	; <UNPREDICTABLE>
     698:	212f3d59 	teqcs	pc, r9, asr sp	; <UNPREDICTABLE>
     69c:	0421211f 	strteq	r2, [r1], #-287	; 0xfffffee1
     6a0:	04e60302 	strbteq	r0, [r6], #770	; 0x302
     6a4:	0303043c 	movweq	r0, #13372	; 0x343c
     6a8:	044a7dd7 	strbeq	r7, [sl], #-3543	; 0xfffff229
     6ac:	7dc90301 	stclvc	3, cr0, [r9, #4]
     6b0:	000b0220 	andeq	r0, fp, r0, lsr #4
     6b4:	05000101 	streq	r0, [r0, #-257]	; 0xfffffeff
     6b8:	00095402 	andeq	r5, r9, r2, lsl #8
     6bc:	01140300 	tsteq	r4, r0, lsl #6
     6c0:	1f211f22 	svcne	0x00211f22
     6c4:	2f3d5921 	svccs	0x003d5921
     6c8:	21211f21 	teqcs	r1, r1, lsr #30
     6cc:	d8030204 	stmdale	r3, {r2, r9}
     6d0:	03043c04 	movweq	r3, #19460	; 0x4c04
     6d4:	4a7dd703 	bmi	1f762e8 <__DATA_END+0x1f748f8>
     6d8:	d8030104 	stmdale	r3, {r2, r8}
     6dc:	0b02207d 	bleq	888d8 <__DATA_END+0x86ee8>
     6e0:	00010100 	andeq	r0, r1, r0, lsl #2
     6e4:	09a00205 	stmibeq	r0!, {r0, r2, r9}
     6e8:	24030000 	strcs	r0, [r3], #-0
     6ec:	10301301 	eorsne	r1, r0, r1, lsl #6
     6f0:	00030222 	andeq	r0, r3, r2, lsr #4
     6f4:	05000101 	streq	r0, [r0, #-257]	; 0xfffffeff
     6f8:	0009ac02 	andeq	sl, r9, r2, lsl #24
     6fc:	01280300 	teqeq	r8, r0, lsl #6
     700:	22103013 	andscs	r3, r0, #19
     704:	01000302 	tsteq	r0, r2, lsl #6
     708:	02050001 	andeq	r0, r5, #1
     70c:	000009b8 			; <UNDEFINED> instruction: 0x000009b8
     710:	04012c03 	streq	r2, [r1], #-3075	; 0xfffff3fd
     714:	02a90303 	adceq	r0, r9, #201326592	; 0xc000000
     718:	03010420 	movweq	r0, #5152	; 0x1420
     71c:	4b207dda 	blmi	81fe8c <__DATA_END+0x81e49c>
     720:	3d3d3e2f 	ldccc	14, cr3, [sp, #-188]!	; 0xffffff44
     724:	95030304 	strls	r0, [r3, #-772]	; 0xfffffcfc
     728:	01043c02 	tsteq	r4, r2, lsl #24
     72c:	207dee03 	rsbscs	lr, sp, r3, lsl #28
     730:	01000502 	tsteq	r0, r2, lsl #10
     734:	00039601 	andeq	r9, r3, r1, lsl #12
     738:	d7000200 	strle	r0, [r0, -r0, lsl #4]
     73c:	02000000 	andeq	r0, r0, #0
     740:	0d0efb01 	vstreq	d15, [lr, #-4]
     744:	01010100 	mrseq	r0, (UNDEF: 17)
     748:	00000001 	andeq	r0, r0, r1
     74c:	01000001 	tsteq	r0, r1
     750:	632f2e2e 	teqvs	pc, #736	; 0x2e0
     754:	7369736d 	cmnvc	r9, #-1275068415	; 0xb4000001
     758:	73752f00 	cmnvc	r5, #0, 30
     75c:	72612f72 	rsbvc	r2, r1, #456	; 0x1c8
     760:	6f6e2d6d 	svcvs	0x006e2d6d
     764:	652d656e 	strvs	r6, [sp, #-1390]!	; 0xfffffa92
     768:	2f696261 	svccs	0x00696261
     76c:	6c636e69 	stclvs	14, cr6, [r3], #-420	; 0xfffffe5c
     770:	2f656475 	svccs	0x00656475
     774:	6863616d 	stmdavs	r3!, {r0, r2, r3, r5, r6, r8, sp, lr}^
     778:	00656e69 	rsbeq	r6, r5, r9, ror #28
     77c:	7273752f 	rsbsvc	r7, r3, #197132288	; 0xbc00000
     780:	6d72612f 	ldfvse	f6, [r2, #-188]!	; 0xffffff44
     784:	6e6f6e2d 	cdpvs	14, 6, cr6, cr15, cr13, {1}
     788:	61652d65 	cmnvs	r5, r5, ror #26
     78c:	692f6962 	stmdbvs	pc!, {r1, r5, r6, r8, fp, sp, lr}	; <UNPREDICTABLE>
     790:	756c636e 	strbvc	r6, [ip, #-878]!	; 0xfffffc92
     794:	732f6564 	teqvc	pc, #100, 10	; 0x19000000
     798:	00007379 	andeq	r7, r0, r9, ror r3
     79c:	74726175 	ldrbtvc	r6, [r2], #-373	; 0xfffffe8b
     7a0:	0000632e 	andeq	r6, r0, lr, lsr #6
     7a4:	6f630000 	svcvs	0x00630000
     7a8:	635f6572 	cmpvs	pc, #478150656	; 0x1c800000
     7ac:	6e75466d 	cdpvs	6, 7, cr4, cr5, cr13, {3}
     7b0:	00682e63 	rsbeq	r2, r8, r3, ror #28
     7b4:	63000001 	movwvs	r0, #1
     7b8:	5f65726f 	svcpl	0x0065726f
     7bc:	70306d63 	eorsvc	r6, r0, r3, ror #26
     7c0:	2e73756c 	cdpcs	5, 7, cr7, cr3, cr12, {3}
     7c4:	00010068 	andeq	r0, r1, r8, rrx
     7c8:	65645f00 	strbvs	r5, [r4, #-3840]!	; 0xfffff100
     7cc:	6c756166 	ldfvse	f6, [r5], #-408	; 0xfffffe68
     7d0:	79745f74 	ldmdbvc	r4!, {r2, r4, r5, r6, r8, r9, sl, fp, ip, lr}^
     7d4:	2e736570 	mrccs	5, 3, r6, cr3, cr0, {3}
     7d8:	00020068 	andeq	r0, r2, r8, rrx
     7dc:	74735f00 	ldrbtvc	r5, [r3], #-3840	; 0xfffff100
     7e0:	746e6964 	strbtvc	r6, [lr], #-2404	; 0xfffff69c
     7e4:	0300682e 	movweq	r6, #2094	; 0x82e
     7e8:	4b4d0000 	blmi	13407f0 <__DATA_END+0x133ee00>
     7ec:	5a36324c 	bpl	d8d124 <__DATA_END+0xd8b734>
     7f0:	00682e34 	rsbeq	r2, r8, r4, lsr lr
     7f4:	71000000 	mrsvc	r0, (UNDEF: 0)
     7f8:	65756575 	ldrbvs	r6, [r5, #-1397]!	; 0xfffffa8b
     7fc:	0000682e 	andeq	r6, r0, lr, lsr #16
     800:	61750000 	cmnvs	r5, r0
     804:	682e7472 	stmdavs	lr!, {r1, r4, r5, r6, sl, ip, sp, lr}
     808:	00000000 	andeq	r0, r0, r0
     80c:	2e737067 	cdpcs	0, 7, cr7, cr3, cr7, {3}
     810:	00000068 	andeq	r0, r0, r8, rrx
     814:	05000000 	streq	r0, [r0, #-0]
     818:	00000002 	andeq	r0, r0, r2
     81c:	010c0300 	mrseq	r0, LR_mon
     820:	301f2f20 	andscc	r2, pc, r0, lsr #30
     824:	01000202 	tsteq	r0, r2, lsl #4
     828:	02050001 	andeq	r0, r5, #1
     82c:	000009ec 	andeq	r0, r0, ip, ror #19
     830:	20010f03 	andcs	r0, r1, r3, lsl #30
     834:	23211f21 	teqcs	r1, #33, 30	; 0x84
     838:	02212110 	eoreq	r2, r1, #16, 2
     83c:	01010002 	tsteq	r1, r2
     840:	00020500 	andeq	r0, r2, r0, lsl #10
     844:	0300000a 	movweq	r0, #10
     848:	1b170114 	blne	5c0ca0 <__DATA_END+0x5bf2b0>
     84c:	752f2520 	strvc	r2, [pc, #-1312]!	; 334 <M_VECTOR_RAM_SIZE+0x334>
     850:	241c4059 	ldrcs	r4, [ip], #-89	; 0xffffffa7
     854:	213d1e5b 	teqcs	sp, fp, asr lr
     858:	3d4e2f3e 	stclcc	15, cr2, [lr, #-248]	; 0xffffff08
     85c:	3e4c4b76 	vmovcc.8	d12[3], r4
     860:	4b773d2f 	blmi	1dcfd24 <__DATA_END+0x1dce334>
     864:	353e214b 	ldrcc	r2, [lr, #-331]!	; 0xfffffeb5
     868:	0302042f 	movweq	r0, #9263	; 0x242f
     86c:	042e0286 	strteq	r0, [lr], #-646	; 0xfffffd7a
     870:	7dfe0301 	ldclvc	3, cr0, [lr, #4]!
     874:	00230220 	eoreq	r0, r3, r0, lsr #4
     878:	05000101 	streq	r0, [r0, #-257]	; 0xfffffeff
     87c:	000b0002 	andeq	r0, fp, r2
     880:	00c90300 	sbceq	r0, r9, r0, lsl #6
     884:	03030401 	movweq	r0, #13313	; 0x3401
     888:	040104aa 	streq	r0, [r1], #-1194	; 0xfffffb56
     88c:	7bd80301 	blvc	ff601498 <__StackTop+0xdf5fe498>
     890:	0004024a 	andeq	r0, r4, sl, asr #4
     894:	05000101 	streq	r0, [r0, #-257]	; 0xfffffeff
     898:	00000002 	andeq	r0, r0, r2
     89c:	00d00300 	sbcseq	r0, r0, r0, lsl #6
     8a0:	03030401 	movweq	r0, #13313	; 0x3401
     8a4:	040104a3 	streq	r0, [r1], #-1187	; 0xfffffb5d
     8a8:	7bdf0301 	blvc	ff7c14b4 <__StackTop+0xdf7be4b4>
     8ac:	03030420 	movweq	r0, #13344	; 0x3420
     8b0:	042004a1 	strteq	r0, [r0], #-1185	; 0xfffffb5f
     8b4:	7bdf0301 	blvc	ff7c14c0 <__StackTop+0xdf7be4c0>
     8b8:	3e10223c 	mrccc	2, 0, r2, cr0, cr12, {1}
     8bc:	01000502 	tsteq	r0, r2, lsl #10
     8c0:	02050001 	andeq	r0, r5, #1
     8c4:	00000000 	andeq	r0, r0, r0
     8c8:	0100d503 	tsteq	r0, r3, lsl #10
     8cc:	aa030304 	bge	c14e4 <__DATA_END+0xbfaf4>
     8d0:	01040104 	tsteq	r4, r4, lsl #2
     8d4:	4a7bd803 	bmi	1ef68e8 <__DATA_END+0x1ef4ef8>
     8d8:	01000402 	tsteq	r0, r2, lsl #8
     8dc:	02050001 	andeq	r0, r5, #1
     8e0:	00000000 	andeq	r0, r0, r0
     8e4:	0101b003 	tsteq	r1, r3
     8e8:	211f212e 	tstcs	pc, lr, lsr #2
     8ec:	02004b1f 	andeq	r4, r0, #31744	; 0x7c00
     8f0:	043d0104 	ldrteq	r0, [sp], #-260	; 0xfffffefc
     8f4:	01a30302 			; <UNDEFINED> instruction: 0x01a30302
     8f8:	0301044a 	movweq	r0, #5194	; 0x144a
     8fc:	04207edf 	strteq	r7, [r0], #-3807	; 0xfffff121
     900:	01960302 	orrseq	r0, r6, r2, lsl #6
     904:	0301043c 	movweq	r0, #5180	; 0x143c
     908:	2f207eec 	svccs	0x00207eec
     90c:	04023d11 	streq	r3, [r2], #-3345	; 0xfffff2ef
     910:	00010100 	andeq	r0, r1, r0, lsl #2
     914:	00000205 	andeq	r0, r0, r5, lsl #4
     918:	9a030000 	bls	c0920 <__DATA_END+0xbef30>
     91c:	2c890101 	stfcss	f0, [r9], {1}
     920:	0502cc2f 	streq	ip, [r2, #-3119]	; 0xfffff3d1
     924:	00010100 	andeq	r0, r1, r0, lsl #2
     928:	0b200205 	bleq	801144 <__DATA_END+0x7ff754>
     92c:	b9030000 	stmdblt	r3, {}	; <UNPREDICTABLE>
     930:	21200101 	teqcs	r0, r1, lsl #2
     934:	211f4b1f 	tstcs	pc, pc, lsl fp	; <UNPREDICTABLE>
     938:	01040200 	mrseq	r0, R12_usr
     93c:	02214b3d 	eoreq	r4, r1, #62464	; 0xf400
     940:	01010002 	tsteq	r1, r2
     944:	46020500 	strmi	r0, [r2], -r0, lsl #10
     948:	0300000b 	movweq	r0, #11
     94c:	890101a5 	stmdbhi	r1, {r0, r2, r5, r7, r8}
     950:	02cc2f2c 	sbceq	r2, ip, #44, 30	; 0xb0
     954:	01010005 	tsteq	r1, r5
     958:	00020500 	andeq	r0, r2, r0, lsl #10
     95c:	03000000 	movweq	r0, #0
     960:	320101be 	andcc	r0, r1, #-2147483601	; 0x8000002f
     964:	042f5c1c 	strteq	r5, [pc], #-3100	; 96c <startPIT1+0x18>
     968:	01920302 	orrseq	r0, r2, r2, lsl #6
     96c:	03010458 	movweq	r0, #5208	; 0x1458
     970:	04207ef0 	strteq	r7, [r0], #-3824	; 0xfffff110
     974:	01850302 	orreq	r0, r5, r2, lsl #6
     978:	0301043c 	movweq	r0, #5180	; 0x143c
     97c:	23207efd 	teqcs	r0, #4048	; 0xfd0
     980:	00060221 	andeq	r0, r6, r1, lsr #4
     984:	05000101 	streq	r0, [r0, #-257]	; 0xfffffeff
     988:	00000002 	andeq	r0, r0, r2
     98c:	00d80300 	sbcseq	r0, r8, r0, lsl #6
     990:	7a033401 	bvc	cd99c <__DATA_END+0xcbfac>
     994:	1b252020 	blne	948a1c <__DATA_END+0x94702c>
     998:	31ad234f 			; <UNDEFINED> instruction: 0x31ad234f
     99c:	3d833d92 	stccc	13, cr3, [r3, #584]	; 0x248
     9a0:	2421232f 	strtcs	r2, [r1], #-815	; 0xfffffcd1
     9a4:	50213030 	eorpl	r3, r1, r0, lsr r0
     9a8:	01000602 	tsteq	r0, r2, lsl #12
     9ac:	02050001 	andeq	r0, r5, #1
     9b0:	00000000 	andeq	r0, r0, r0
     9b4:	0101cd03 	tsteq	r1, r3, lsl #26
     9b8:	7a03423c 	bvc	d12b0 <__DATA_END+0xcf8c0>
     9bc:	3392263c 	orrscc	r2, r2, #60, 12	; 0x3c00000
     9c0:	253a241c 	ldrcs	r2, [sl, #-1052]!	; 0xfffffbe4
     9c4:	211f213f 	tstcs	pc, pc, lsr r1	; <UNPREDICTABLE>
     9c8:	090228ad 	stmdbeq	r2, {r0, r2, r3, r5, r7, fp, sp}
     9cc:	00010100 	andeq	r0, r1, r0, lsl #2
     9d0:	00000205 	andeq	r0, r0, r5, lsl #4
     9d4:	ec030000 	stc	0, cr0, [r3], {-0}
     9d8:	262e0101 	strtcs	r0, [lr], -r1, lsl #2
     9dc:	26207a03 	strtcs	r7, [r0], -r3, lsl #20
     9e0:	34207a03 	strtcc	r7, [r0], #-2563	; 0xfffff5fd
     9e4:	002f1f21 	eoreq	r1, pc, r1, lsr #30
     9e8:	06010402 	streq	r0, [r1], -r2, lsl #8
     9ec:	259f063c 	ldrcs	r0, [pc, #1596]	; 1030 <draRx>
     9f0:	0702250d 	streq	r2, [r2, -sp, lsl #10]
     9f4:	00010100 	andeq	r0, r1, r0, lsl #2
     9f8:	00000205 	andeq	r0, r0, r5, lsl #4
     9fc:	fe030000 	cdp2	0, 0, cr0, cr3, cr0, {0}
     a00:	03350100 	teqeq	r5, #0, 2
     a04:	25202079 	strcs	r2, [r0, #-121]!	; 0xffffff87
     a08:	2f304f1b 	svccs	0x00304f1b
     a0c:	2fad92ad 	svccs	0x00ad92ad
     a10:	21302231 	teqcs	r0, r1, lsr r2
     a14:	06023032 			; <UNDEFINED> instruction: 0x06023032
     a18:	00010100 	andeq	r0, r1, r0, lsl #2
     a1c:	00000205 	andeq	r0, r0, r5, lsl #4
     a20:	fa030000 	blx	c0a28 <__DATA_END+0xbf038>
     a24:	02000101 	andeq	r0, r0, #1073741824	; 0x40000000
     a28:	3d590104 	ldfcce	f0, [r9, #-16]
     a2c:	01040200 	mrseq	r0, R12_usr
     a30:	4b062006 	blmi	188a50 <__DATA_END+0x187060>
     a34:	01000202 	tsteq	r0, r2, lsl #4
     a38:	02050001 	andeq	r0, r5, #1
     a3c:	00000b84 	andeq	r0, r0, r4, lsl #23
     a40:	0101fe03 	tsteq	r1, r3, lsl #28
     a44:	04231d15 	strteq	r1, [r3], #-3349	; 0xfffff2eb
     a48:	00d40302 	sbcseq	r0, r4, r2, lsl #6
     a4c:	0301043c 	movweq	r0, #5180	; 0x143c
     a50:	2f207fae 	svccs	0x00207fae
     a54:	1e3e3d3d 	mrcne	13, 1, r3, cr14, cr13, {1}
     a58:	1f4e4c22 	svcne	0x004e4c22
     a5c:	21211f21 	teqcs	r1, r1, lsr #30
     a60:	1f211f30 	svcne	0x00211f30
     a64:	2f4b3021 	svccs	0x004b3021
     a68:	35030204 	strcc	r0, [r3, #-516]	; 0xfffffdfc
     a6c:	0301043c 	movweq	r0, #5180	; 0x143c
     a70:	0a02204f 	beq	88bb4 <__DATA_END+0x871c4>
     a74:	00010100 	andeq	r0, r1, r0, lsl #2
     a78:	0bfc0205 	bleq	fff01294 <__StackTop+0xdfefe294>
     a7c:	9a030000 	bls	c0a84 <__DATA_END+0xbf094>
     a80:	02040102 	andeq	r0, r4, #-2147483648	; 0x80000000
     a84:	04203b03 	strteq	r3, [r0], #-2819	; 0xfffff4fd
     a88:	20490301 	subcs	r0, r9, r1, lsl #6
     a8c:	1e3e3d3d 	mrcne	13, 1, r3, cr14, cr13, {1}
     a90:	304d4c22 	subcc	r4, sp, r2, lsr #24
     a94:	21030204 	tstcs	r3, r4, lsl #4
     a98:	0301044a 	movweq	r0, #5194	; 0x144a
     a9c:	08022062 	stmdaeq	r2, {r1, r5, r6, sp}
     aa0:	00010100 	andeq	r0, r1, r0, lsl #2
     aa4:	0c440205 	sfmeq	f0, 2, [r4], {5}
     aa8:	ad030000 	stcge	0, cr0, [r3, #-0]
     aac:	02040102 	andeq	r0, r4, #-2147483648	; 0x80000000
     ab0:	04202803 	strteq	r2, [r0], #-2051	; 0xfffff7fd
     ab4:	205c0301 	subscs	r0, ip, r1, lsl #6
     ab8:	1e3e3d3d 	mrcne	13, 1, r3, cr14, cr13, {1}
     abc:	2f4d4c22 	svccs	0x004d4c22
     ac0:	0f030204 	svceq	0x00030204
     ac4:	03010458 	movweq	r0, #5208	; 0x1458
     ac8:	07022074 	smlsdxeq	r2, r4, r0, r2
     acc:	dc010100 	stfles	f0, [r1], {-0}
     ad0:	02000001 	andeq	r0, r0, #1
     ad4:	0000cf00 	andeq	ip, r0, r0, lsl #30
     ad8:	fb010200 	blx	412e2 <__DATA_END+0x3f8f2>
     adc:	01000d0e 	tsteq	r0, lr, lsl #26
     ae0:	00010101 	andeq	r0, r1, r1, lsl #2
     ae4:	00010000 	andeq	r0, r1, r0
     ae8:	752f0100 	strvc	r0, [pc, #-256]!	; 9f0 <uartClearRxQueue+0x4>
     aec:	612f7273 	teqvs	pc, r3, ror r2	; <UNPREDICTABLE>
     af0:	6e2d6d72 	mcrvs	13, 1, r6, cr13, cr2, {3}
     af4:	2d656e6f 	stclcs	14, cr6, [r5, #-444]!	; 0xfffffe44
     af8:	69626165 	stmdbvs	r2!, {r0, r2, r5, r6, r8, sp, lr}^
     afc:	636e692f 	cmnvs	lr, #770048	; 0xbc000
     b00:	6564756c 	strbvs	r7, [r4, #-1388]!	; 0xfffffa94
     b04:	63616d2f 	cmnvs	r1, #3008	; 0xbc0
     b08:	656e6968 	strbvs	r6, [lr, #-2408]!	; 0xfffff698
     b0c:	73752f00 	cmnvc	r5, #0, 30
     b10:	72612f72 	rsbvc	r2, r1, #456	; 0x1c8
     b14:	6f6e2d6d 	svcvs	0x006e2d6d
     b18:	652d656e 	strvs	r6, [sp, #-1390]!	; 0xfffffa92
     b1c:	2f696261 	svccs	0x00696261
     b20:	6c636e69 	stclvs	14, cr6, [r3], #-420	; 0xfffffe5c
     b24:	2f656475 	svccs	0x00656475
     b28:	00737973 	rsbseq	r7, r3, r3, ror r9
     b2c:	69616d00 	stmdbvs	r1!, {r8, sl, fp, sp, lr}^
     b30:	00632e6e 	rsbeq	r2, r3, lr, ror #28
     b34:	5f000000 	svcpl	0x00000000
     b38:	61666564 	cmnvs	r6, r4, ror #10
     b3c:	5f746c75 	svcpl	0x00746c75
     b40:	65707974 	ldrbvs	r7, [r0, #-2420]!	; 0xfffff68c
     b44:	00682e73 	rsbeq	r2, r8, r3, ror lr
     b48:	5f000001 	svcpl	0x00000001
     b4c:	69647473 	stmdbvs	r4!, {r0, r1, r4, r5, r6, sl, ip, sp, lr}^
     b50:	682e746e 	stmdavs	lr!, {r1, r2, r3, r5, r6, sl, ip, sp, lr}
     b54:	00000200 	andeq	r0, r0, r0, lsl #4
     b58:	324c4b4d 	subcc	r4, ip, #78848	; 0x13400
     b5c:	2e345a36 	mrccs	10, 1, r5, cr4, cr6, {1}
     b60:	00000068 	andeq	r0, r0, r8, rrx
     b64:	73706700 	cmnvc	r0, #0, 14
     b68:	0000682e 	andeq	r6, r0, lr, lsr #16
     b6c:	61750000 	cmnvs	r5, r0
     b70:	682e7472 	stmdavs	lr!, {r1, r4, r5, r6, sl, ip, sp, lr}
     b74:	00000000 	andeq	r0, r0, r0
     b78:	2e633269 	cdpcs	2, 6, cr3, cr3, cr9, {3}
     b7c:	00000068 	andeq	r0, r0, r8, rrx
     b80:	61726400 	cmnvs	r2, r0, lsl #8
     b84:	0000682e 	andeq	r6, r0, lr, lsr #16
     b88:	65640000 	strbvs	r0, [r4, #-0]!
     b8c:	2e79616c 	rpwcsez	f6, f1, #4.0
     b90:	00000068 	andeq	r0, r0, r8, rrx
     b94:	2e776300 	cdpcs	3, 7, cr6, cr7, cr0, {0}
     b98:	00000068 	andeq	r0, r0, r8, rrx
     b9c:	72706100 	rsbsvc	r6, r0, #0, 2
     ba0:	00682e73 	rsbeq	r2, r8, r3, ror lr
     ba4:	00000000 	andeq	r0, r0, r0
     ba8:	8c020500 	cfstr32hi	mvfx0, [r2], {-0}
     bac:	0300000c 	movweq	r0, #12
     bb0:	2117011a 	tstcs	r7, sl, lsl r1
     bb4:	21251b1f 	teqcs	r5, pc, lsl fp
     bb8:	20780328 	rsbscs	r0, r8, r8, lsr #6
     bbc:	02004021 	andeq	r4, r0, #33	; 0x21
     bc0:	593f0104 	ldmdbpl	pc!, {r2, r8}	; <UNPREDICTABLE>
     bc4:	01040200 	mrseq	r0, R12_usr
     bc8:	3d062006 	stccc	0, cr2, [r6, #-24]	; 0xffffffe8
     bcc:	01040200 	mrseq	r0, R12_usr
     bd0:	68062006 	stmdavs	r6, {r1, r2, sp}
     bd4:	02003031 	andeq	r3, r0, #49	; 0x31
     bd8:	20060104 	andcs	r0, r6, r4, lsl #2
     bdc:	02004b06 	andeq	r4, r0, #6144	; 0x1800
     be0:	20060104 	andcs	r0, r6, r4, lsl #2
     be4:	003e4b06 	eorseq	r4, lr, r6, lsl #22
     be8:	06010402 	streq	r0, [r1], -r2, lsl #8
     bec:	4c4b0620 	mcrrmi	6, 2, r0, fp, cr0
     bf0:	01000a02 	tsteq	r0, r2, lsl #20
     bf4:	02050001 	andeq	r0, r5, #1
     bf8:	00000d10 	andeq	r0, r0, r0, lsl sp
     bfc:	23013903 	movwcs	r3, #6403	; 0x1903
     c00:	303d1e30 	eorscc	r1, sp, r0, lsr lr
     c04:	2f1f3d1f 	svccs	0x001f3d1f
     c08:	4b2f1e22 	blmi	bc8498 <__DATA_END+0xbc6aa8>
     c0c:	033c0c03 	teqeq	ip, #768	; 0x300
     c10:	592f0174 	stmdbpl	pc!, {r2, r4, r5, r6, r8}	; <UNPREDICTABLE>
     c14:	5a2f2fbb 	bpl	bccb08 <__DATA_END+0xbcb118>
     c18:	000e0241 	andeq	r0, lr, r1, asr #4
     c1c:	05000101 	streq	r0, [r0, #-257]	; 0xfffffeff
     c20:	000da002 	andeq	sl, sp, r2
     c24:	00ce0300 	sbceq	r0, lr, r0, lsl #6
     c28:	2f2f2601 	svccs	0x002f2601
     c2c:	2f2f4b2f 	svccs	0x002f4b2f
     c30:	02003d3d 	andeq	r3, r0, #3904	; 0xf40
     c34:	00400104 	subeq	r0, r0, r4, lsl #2
     c38:	2f010402 	svccs	0x00010402
     c3c:	01040200 	mrseq	r0, R12_usr
     c40:	0402004b 	streq	r0, [r2], #-75	; 0xffffffb5
     c44:	02005a01 	andeq	r5, r0, #4096	; 0x1000
     c48:	003d0104 	eorseq	r0, sp, r4, lsl #2
     c4c:	4b010402 	blmi	41c5c <__DATA_END+0x4026c>
     c50:	01040200 	mrseq	r0, R12_usr
     c54:	0402003d 	streq	r0, [r2], #-61	; 0xffffffc3
     c58:	02004b01 	andeq	r4, r0, #1024	; 0x400
     c5c:	004b0104 	subeq	r0, fp, r4, lsl #2
     c60:	4b010402 	blmi	41c70 <__DATA_END+0x40280>
     c64:	01040200 	mrseq	r0, R12_usr
     c68:	0402003d 	streq	r0, [r2], #-61	; 0xffffffc3
     c6c:	02004b01 	andeq	r4, r0, #1024	; 0x400
     c70:	003d0104 	eorseq	r0, sp, r4, lsl #2
     c74:	30010402 	andcc	r0, r1, r2, lsl #8
     c78:	01040200 	mrseq	r0, R12_usr
     c7c:	0402003d 	streq	r0, [r2], #-61	; 0xffffffc3
     c80:	02002f01 	andeq	r2, r0, #1, 30
     c84:	00300104 	eorseq	r0, r0, r4, lsl #2
     c88:	59010402 	stmdbpl	r1, {r1, sl}
     c8c:	01040200 	mrseq	r0, R12_usr
     c90:	0402004b 	streq	r0, [r2], #-75	; 0xffffffb5
     c94:	02004c01 	andeq	r4, r0, #256	; 0x100
     c98:	003d0104 	eorseq	r0, sp, r4, lsl #2
     c9c:	30010402 	andcc	r0, r1, r2, lsl #8
     ca0:	01040200 	mrseq	r0, R12_usr
     ca4:	0402003d 	streq	r0, [r2], #-61	; 0xffffffc3
     ca8:	17022f01 	strne	r2, [r2, -r1, lsl #30]
     cac:	85010100 	strhi	r0, [r1, #-256]	; 0xffffff00
     cb0:	02000000 	andeq	r0, r0, #0
     cb4:	00007f00 	andeq	r7, r0, r0, lsl #30
     cb8:	fb010200 	blx	414c2 <__DATA_END+0x3fad2>
     cbc:	01000d0e 	tsteq	r0, lr, lsl #26
     cc0:	00010101 	andeq	r0, r1, r1, lsl #2
     cc4:	00010000 	andeq	r0, r1, r0
     cc8:	752f0100 	strvc	r0, [pc, #-256]!	; bd0 <UART0_IRQHandler+0x4c>
     ccc:	612f7273 	teqvs	pc, r3, ror r2	; <UNPREDICTABLE>
     cd0:	6e2d6d72 	mcrvs	13, 1, r6, cr13, cr2, {3}
     cd4:	2d656e6f 	stclcs	14, cr6, [r5, #-444]!	; 0xfffffe44
     cd8:	69626165 	stmdbvs	r2!, {r0, r2, r5, r6, r8, sp, lr}^
     cdc:	636e692f 	cmnvs	lr, #770048	; 0xbc000
     ce0:	6564756c 	strbvs	r7, [r4, #-1388]!	; 0xfffffa94
     ce4:	63616d2f 	cmnvs	r1, #3008	; 0xbc0
     ce8:	656e6968 	strbvs	r6, [lr, #-2408]!	; 0xfffff698
     cec:	73752f00 	cmnvc	r5, #0, 30
     cf0:	72612f72 	rsbvc	r2, r1, #456	; 0x1c8
     cf4:	6f6e2d6d 	svcvs	0x006e2d6d
     cf8:	652d656e 	strvs	r6, [sp, #-1390]!	; 0xfffffa92
     cfc:	2f696261 	svccs	0x00696261
     d00:	6c636e69 	stclvs	14, cr6, [r3], #-420	; 0xfffffe5c
     d04:	2f656475 	svccs	0x00656475
     d08:	00737973 	rsbseq	r7, r3, r3, ror r9
     d0c:	65645f00 	strbvs	r5, [r4, #-3840]!	; 0xfffff100
     d10:	6c756166 	ldfvse	f6, [r5], #-408	; 0xfffffe68
     d14:	79745f74 	ldmdbvc	r4!, {r2, r4, r5, r6, r8, r9, sl, fp, ip, lr}^
     d18:	2e736570 	mrccs	5, 3, r6, cr3, cr0, {3}
     d1c:	00010068 	andeq	r0, r1, r8, rrx
     d20:	74735f00 	ldrbtvc	r5, [r3], #-3840	; 0xfffff100
     d24:	746e6964 	strbtvc	r6, [lr], #-2404	; 0xfffff69c
     d28:	0200682e 	andeq	r6, r0, #3014656	; 0x2e0000
     d2c:	69730000 	ldmdbvs	r3!, {}^	; <UNPREDICTABLE>
     d30:	00632e6e 	rsbeq	r2, r3, lr, ror #28
     d34:	00000000 	andeq	r0, r0, r0
     d38:	000001ed 	andeq	r0, r0, sp, ror #3
     d3c:	00aa0002 	adceq	r0, sl, r2
     d40:	01020000 	mrseq	r0, (UNDEF: 2)
     d44:	000d0efb 	strdeq	r0, [sp], -fp
     d48:	01010101 	tsteq	r1, r1, lsl #2
     d4c:	01000000 	mrseq	r0, (UNDEF: 0)
     d50:	2f010000 	svccs	0x00010000
     d54:	2f727375 	svccs	0x00727375
     d58:	2d6d7261 	sfmcs	f7, 2, [sp, #-388]!	; 0xfffffe7c
     d5c:	656e6f6e 	strbvs	r6, [lr, #-3950]!	; 0xfffff092
     d60:	6261652d 	rsbvs	r6, r1, #188743680	; 0xb400000
     d64:	6e692f69 	cdpvs	15, 6, cr2, cr9, cr9, {3}
     d68:	64756c63 	ldrbtvs	r6, [r5], #-3171	; 0xfffff39d
     d6c:	616d2f65 	cmnvs	sp, r5, ror #30
     d70:	6e696863 	cdpvs	8, 6, cr6, cr9, cr3, {3}
     d74:	752f0065 	strvc	r0, [pc, #-101]!	; d17 <start+0x7>
     d78:	612f7273 	teqvs	pc, r3, ror r2	; <UNPREDICTABLE>
     d7c:	6e2d6d72 	mcrvs	13, 1, r6, cr13, cr2, {3}
     d80:	2d656e6f 	stclcs	14, cr6, [r5, #-444]!	; 0xfffffe44
     d84:	69626165 	stmdbvs	r2!, {r0, r2, r5, r6, r8, sp, lr}^
     d88:	636e692f 	cmnvs	lr, #770048	; 0xbc000
     d8c:	6564756c 	strbvs	r7, [r4, #-1388]!	; 0xfffffa94
     d90:	7379732f 	cmnvc	r9, #-1140850688	; 0xbc000000
     d94:	72640000 	rsbvc	r0, r4, #0
     d98:	00632e61 	rsbeq	r2, r3, r1, ror #28
     d9c:	5f000000 	svcpl	0x00000000
     da0:	61666564 	cmnvs	r6, r4, ror #10
     da4:	5f746c75 	svcpl	0x00746c75
     da8:	65707974 	ldrbvs	r7, [r0, #-2420]!	; 0xfffff68c
     dac:	00682e73 	rsbeq	r2, r8, r3, ror lr
     db0:	5f000001 	svcpl	0x00000001
     db4:	69647473 	stmdbvs	r4!, {r0, r1, r4, r5, r6, sl, ip, sp, lr}^
     db8:	682e746e 	stmdavs	lr!, {r1, r2, r3, r5, r6, sl, ip, sp, lr}
     dbc:	00000200 	andeq	r0, r0, r0, lsl #4
     dc0:	324c4b4d 	subcc	r4, ip, #78848	; 0x13400
     dc4:	2e345a36 	mrccs	10, 1, r5, cr4, cr6, {1}
     dc8:	00000068 	andeq	r0, r0, r8, rrx
     dcc:	65757100 	ldrbvs	r7, [r5, #-256]!	; 0xffffff00
     dd0:	682e6575 	stmdavs	lr!, {r0, r2, r4, r5, r6, r8, sl, sp, lr}
     dd4:	00000000 	andeq	r0, r0, r0
     dd8:	74726175 	ldrbtvc	r6, [r2], #-373	; 0xfffffe8b
     ddc:	0000682e 	andeq	r6, r0, lr, lsr #16
     de0:	72640000 	rsbvc	r0, r4, #0
     de4:	00682e61 	rsbeq	r2, r8, r1, ror #28
     de8:	00000000 	andeq	r0, r0, r0
     dec:	94020500 	strls	r0, [r2], #-1280	; 0xfffffb00
     df0:	1900000e 	stmdbne	r0, {r1, r2, r3}
     df4:	04020014 	streq	r0, [r2], #-20	; 0xffffffec
     df8:	02002201 	andeq	r2, r0, #268435456	; 0x10000000
     dfc:	5a2f0104 	bpl	bc1214 <__DATA_END+0xbbf824>
     e00:	01000202 	tsteq	r0, r2, lsl #4
     e04:	02050001 	andeq	r0, r5, #1
     e08:	00000ea8 	andeq	r0, r0, r8, lsr #29
     e0c:	22011203 	andcs	r1, r1, #805306368	; 0x30000000
     e10:	5b594b59 	blpl	1653b7c <__DATA_END+0x165218c>
     e14:	0a03311d 	beq	cd290 <__DATA_END+0xcb8a0>
     e18:	2076032e 	rsbscs	r0, r6, lr, lsr #6
     e1c:	28214b2f 	stmdacs	r1!, {r0, r1, r2, r3, r5, r8, r9, fp, lr}
     e20:	21207803 	teqcs	r0, r3, lsl #16
     e24:	033c0c03 	teqeq	ip, #768	; 0x300
     e28:	1f210174 	svcne	0x00210174
     e2c:	233d5921 	teqcs	sp, #540672	; 0x84000
     e30:	02242f21 	eoreq	r2, r4, #33, 30	; 0x84
     e34:	0101001d 	tsteq	r1, sp, lsl r0
     e38:	50020500 	andpl	r0, r2, r0, lsl #10
     e3c:	0300000f 	movweq	r0, #15
     e40:	0f03012c 	svceq	0x0003012c
     e44:	20750320 	rsbscs	r0, r5, r0, lsr #6
     e48:	200f031c 	andcs	r0, pc, ip, lsl r3	; <UNPREDICTABLE>
     e4c:	302e7503 	eorcc	r7, lr, r3, lsl #10
     e50:	4ecad93e 	mcrmi	9, 6, sp, cr10, cr14, {1}
     e54:	0242301e 	subeq	r3, r2, #30
     e58:	0101000c 	tsteq	r1, ip
     e5c:	c8020500 	stmdagt	r2, {r8, sl}
     e60:	0300000f 	movweq	r0, #15
     e64:	240100d7 	strcs	r0, [r1], #-215	; 0xffffff29
     e68:	0f03241c 	svceq	0x0003241c
     e6c:	20710320 	rsbscs	r0, r1, r0, lsr #6
     e70:	01040200 	mrseq	r0, R12_usr
     e74:	04020031 	streq	r0, [r2], #-49	; 0xffffffcf
     e78:	e4090301 	str	r0, [r9], #-769	; 0xfffffcff
     e7c:	01040200 	mrseq	r0, R12_usr
     e80:	0402001f 	streq	r0, [r2], #-31	; 0xffffffe1
     e84:	242f4b01 	strtcs	r4, [pc], #-2817	; e8c <main+0xec>
     e88:	01000802 	tsteq	r0, r2, lsl #16
     e8c:	02050001 	andeq	r0, r5, #1
     e90:	00000000 	andeq	r0, r0, r0
     e94:	0100c503 	tsteq	r0, r3, lsl #10
     e98:	00241d15 	eoreq	r1, r4, r5, lsl sp
     e9c:	06030402 	streq	r0, [r3], -r2, lsl #8
     ea0:	04020020 	streq	r0, [r2], #-32	; 0xffffffe0
     ea4:	3f2d0603 	svccc	0x002d0603
     ea8:	0004022f 	andeq	r0, r4, pc, lsr #4
     eac:	05000101 	streq	r0, [r0, #-257]	; 0xfffffeff
     eb0:	00000002 	andeq	r0, r0, r2
     eb4:	00ce0300 	sbceq	r0, lr, r0, lsl #6
     eb8:	241d1501 	ldrcs	r1, [sp], #-1281	; 0xfffffaff
     ebc:	03040200 	movweq	r0, #16896	; 0x4200
     ec0:	02002006 	andeq	r2, r0, #6
     ec4:	2d060304 	stccs	3, cr0, [r6, #-16]
     ec8:	03040200 	movweq	r0, #16896	; 0x4200
     ecc:	04020021 	streq	r0, [r2], #-33	; 0xffffffdf
     ed0:	2f311f03 	svccs	0x00311f03
     ed4:	01000302 	tsteq	r0, r2, lsl #6
     ed8:	02050001 	andeq	r0, r5, #1
     edc:	00001014 	andeq	r1, r0, r4, lsl r0
     ee0:	0100ee03 	tsteq	r0, r3, lsl #28
     ee4:	024b4b14 	subeq	r4, fp, #20, 22	; 0x5000
     ee8:	01010006 	tsteq	r1, r6
     eec:	30020500 	andcc	r0, r2, r0, lsl #10
     ef0:	03000010 	movweq	r0, #16
     ef4:	130100f3 	movwne	r0, #4339	; 0x10f3
     ef8:	06024c4b 	streq	r4, [r2], -fp, asr #24
     efc:	00010100 	andeq	r0, r1, r0, lsl #2
     f00:	00000205 	andeq	r0, r0, r5, lsl #4
     f04:	f9030000 			; <UNDEFINED> instruction: 0xf9030000
     f08:	30130100 	andscc	r0, r3, r0, lsl #2
     f0c:	024b2110 	subeq	r2, fp, #16, 2
     f10:	01010005 	tsteq	r1, r5
     f14:	00020500 	andeq	r0, r2, r0, lsl #10
     f18:	03000000 	movweq	r0, #0
     f1c:	130100fe 	movwne	r0, #4350	; 0x10fe
     f20:	4b211030 	blmi	844fe8 <__DATA_END+0x8435f8>
     f24:	01000502 	tsteq	r0, r2, lsl #10
     f28:	00014f01 	andeq	r4, r1, r1, lsl #30
     f2c:	9f000200 	svcls	0x00000200
     f30:	02000000 	andeq	r0, r0, #0
     f34:	0d0efb01 	vstreq	d15, [lr, #-4]
     f38:	01010100 	mrseq	r0, (UNDEF: 17)
     f3c:	00000001 	andeq	r0, r0, r1
     f40:	01000001 	tsteq	r0, r1
     f44:	7273752f 	rsbsvc	r7, r3, #197132288	; 0xbc00000
     f48:	6d72612f 	ldfvse	f6, [r2, #-188]!	; 0xffffff44
     f4c:	6e6f6e2d 	cdpvs	14, 6, cr6, cr15, cr13, {1}
     f50:	61652d65 	cmnvs	r5, r5, ror #26
     f54:	692f6962 	stmdbvs	pc!, {r1, r5, r6, r8, fp, sp, lr}	; <UNPREDICTABLE>
     f58:	756c636e 	strbvc	r6, [ip, #-878]!	; 0xfffffc92
     f5c:	6d2f6564 	cfstr32vs	mvfx6, [pc, #-400]!	; dd4 <main+0x34>
     f60:	69686361 	stmdbvs	r8!, {r0, r5, r6, r8, r9, sp, lr}^
     f64:	2f00656e 	svccs	0x0000656e
     f68:	2f727375 	svccs	0x00727375
     f6c:	2d6d7261 	sfmcs	f7, 2, [sp, #-388]!	; 0xfffffe7c
     f70:	656e6f6e 	strbvs	r6, [lr, #-3950]!	; 0xfffff092
     f74:	6261652d 	rsbvs	r6, r1, #188743680	; 0xb400000
     f78:	6e692f69 	cdpvs	15, 6, cr2, cr9, cr9, {3}
     f7c:	64756c63 	ldrbtvs	r6, [r5], #-3171	; 0xfffff39d
     f80:	79732f65 	ldmdbvc	r3!, {r0, r2, r5, r6, r8, r9, sl, fp, sp}^
     f84:	67000073 	smlsdxvs	r0, r3, r0, r0
     f88:	632e7370 	teqvs	lr, #112, 6	; 0xc0000001
     f8c:	00000000 	andeq	r0, r0, r0
     f90:	6665645f 			; <UNDEFINED> instruction: 0x6665645f
     f94:	746c7561 	strbtvc	r7, [ip], #-1377	; 0xfffffa9f
     f98:	7079745f 	rsbsvc	r7, r9, pc, asr r4
     f9c:	682e7365 	stmdavs	lr!, {r0, r2, r5, r6, r8, r9, ip, sp, lr}
     fa0:	00000100 	andeq	r0, r0, r0, lsl #2
     fa4:	6474735f 	ldrbtvs	r7, [r4], #-863	; 0xfffffca1
     fa8:	2e746e69 	cdpcs	14, 7, cr6, cr4, cr9, {3}
     fac:	00020068 	andeq	r0, r2, r8, rrx
     fb0:	4c4b4d00 	mcrrmi	13, 0, r4, fp, cr0
     fb4:	345a3632 	ldrbcc	r3, [sl], #-1586	; 0xfffff9ce
     fb8:	0000682e 	andeq	r6, r0, lr, lsr #16
     fbc:	70670000 	rsbvc	r0, r7, r0
     fc0:	00682e73 	rsbeq	r2, r8, r3, ror lr
     fc4:	75000000 	strvc	r0, [r0, #-0]
     fc8:	2e747261 	cdpcs	2, 7, cr7, cr4, cr1, {3}
     fcc:	00000068 	andeq	r0, r0, r8, rrx
     fd0:	05000000 	streq	r0, [r0, #-0]
     fd4:	00104c02 	andseq	r4, r0, r2, lsl #24
     fd8:	010b0300 	mrseq	r0, (UNDEF: 59)
     fdc:	210e3215 	tstcs	lr, r5, lsl r2
     fe0:	0702302f 	streq	r3, [r2, -pc, lsr #32]
     fe4:	00010100 	andeq	r0, r1, r0, lsl #2
     fe8:	10680205 	rsbne	r0, r8, r5, lsl #4
     fec:	18030000 	stmdane	r3, {}	; <UNPREDICTABLE>
     ff0:	02002201 	andeq	r2, r0, #268435456	; 0x10000000
     ff4:	58060104 	stmdapl	r6, {r2, r8}
     ff8:	1f214b06 	svcne	0x00214b06
     ffc:	002f2f32 	eoreq	r2, pc, r2, lsr pc	; <UNPREDICTABLE>
    1000:	21010402 	tstcs	r1, r2, lsl #8
    1004:	1e302f2f 	cdpne	15, 3, cr2, cr0, cr15, {1}
    1008:	222f2f22 	eorcs	r2, pc, #34, 30	; 0x88
    100c:	4b211f32 	blmi	848cdc <__DATA_END+0x8472ec>
    1010:	2f4c672f 	svccs	0x004c672f
    1014:	039e0e03 	orrseq	r0, lr, #3, 28	; 0x30
    1018:	0a032e72 	beq	cc9e8 <__DATA_END+0xcaff8>
    101c:	2e76034a 	cdpcs	3, 7, cr0, cr6, cr10, {2}
    1020:	03741a03 	cmneq	r4, #12288	; 0x3000
    1024:	324c2e66 	subcc	r2, ip, #1632	; 0x660
    1028:	322e0c03 	eorcc	r0, lr, #768	; 0x300
    102c:	3226212f 	eorcc	r2, r6, #-1073741813	; 0xc000000b
    1030:	3e22342f 	cdpcc	4, 2, cr3, cr2, cr15, {1}
    1034:	0903212f 	stmdbeq	r3, {r0, r1, r2, r3, r5, r8, sp}
    1038:	025b4b20 	subseq	r4, fp, #32, 22	; 0x8000
    103c:	01010020 	tsteq	r1, r0, lsr #32
    1040:	94020500 	strls	r0, [r2], #-1280	; 0xfffffb00
    1044:	03000011 	movweq	r0, #17
    1048:	230100f2 	movwcs	r0, #4338	; 0x10f2
    104c:	1f2f1f21 	svcne	0x002f1f21
    1050:	4b2f2121 	blmi	bc94dc <__DATA_END+0xbc7aec>
    1054:	01040200 	mrseq	r0, R12_usr
    1058:	9f065806 	svcls	0x00065806
    105c:	2f311f21 	svccs	0x00311f21
    1060:	02301f21 	eorseq	r1, r0, #33, 30	; 0x84
    1064:	01010007 	tsteq	r1, r7
    1068:	f0020500 			; <UNDEFINED> instruction: 0xf0020500
    106c:	03000011 	movweq	r0, #17
    1070:	22010182 	andcs	r0, r1, #-2147483616	; 0x80000020
    1074:	024c4b21 	subeq	r4, ip, #33792	; 0x8400
    1078:	01010004 	tsteq	r1, r4
    107c:	000000b7 	strheq	r0, [r0], -r7
    1080:	008e0002 	addeq	r0, lr, r2
    1084:	01020000 	mrseq	r0, (UNDEF: 2)
    1088:	000d0efb 	strdeq	r0, [sp], -fp
    108c:	01010101 	tsteq	r1, r1, lsl #2
    1090:	01000000 	mrseq	r0, (UNDEF: 0)
    1094:	2f010000 	svccs	0x00010000
    1098:	2f727375 	svccs	0x00727375
    109c:	2d6d7261 	sfmcs	f7, 2, [sp, #-388]!	; 0xfffffe7c
    10a0:	656e6f6e 	strbvs	r6, [lr, #-3950]!	; 0xfffff092
    10a4:	6261652d 	rsbvs	r6, r1, #188743680	; 0xb400000
    10a8:	6e692f69 	cdpvs	15, 6, cr2, cr9, cr9, {3}
    10ac:	64756c63 	ldrbtvs	r6, [r5], #-3171	; 0xfffff39d
    10b0:	616d2f65 	cmnvs	sp, r5, ror #30
    10b4:	6e696863 	cdpvs	8, 6, cr6, cr9, cr3, {3}
    10b8:	752f0065 	strvc	r0, [pc, #-101]!	; 105b <initGps+0xf>
    10bc:	612f7273 	teqvs	pc, r3, ror r2	; <UNPREDICTABLE>
    10c0:	6e2d6d72 	mcrvs	13, 1, r6, cr13, cr2, {3}
    10c4:	2d656e6f 	stclcs	14, cr6, [r5, #-444]!	; 0xfffffe44
    10c8:	69626165 	stmdbvs	r2!, {r0, r2, r5, r6, r8, sp, lr}^
    10cc:	636e692f 	cmnvs	lr, #770048	; 0xbc000
    10d0:	6564756c 	strbvs	r7, [r4, #-1388]!	; 0xfffffa94
    10d4:	7379732f 	cmnvc	r9, #-1140850688	; 0xbc000000
    10d8:	65640000 	strbvs	r0, [r4, #-0]!
    10dc:	2e79616c 	rpwcsez	f6, f1, #4.0
    10e0:	00000063 	andeq	r0, r0, r3, rrx
    10e4:	65645f00 	strbvs	r5, [r4, #-3840]!	; 0xfffff100
    10e8:	6c756166 	ldfvse	f6, [r5], #-408	; 0xfffffe68
    10ec:	79745f74 	ldmdbvc	r4!, {r2, r4, r5, r6, r8, r9, sl, fp, ip, lr}^
    10f0:	2e736570 	mrccs	5, 3, r6, cr3, cr0, {3}
    10f4:	00010068 	andeq	r0, r1, r8, rrx
    10f8:	74735f00 	ldrbtvc	r5, [r3], #-3840	; 0xfffff100
    10fc:	746e6964 	strbtvc	r6, [lr], #-2404	; 0xfffff69c
    1100:	0200682e 	andeq	r6, r0, #3014656	; 0x2e0000
    1104:	4b4d0000 	blmi	134110c <__DATA_END+0x133f71c>
    1108:	5a36324c 	bpl	d8da40 <__DATA_END+0xd8c050>
    110c:	00682e34 	rsbeq	r2, r8, r4, lsr lr
    1110:	00000000 	andeq	r0, r0, r0
    1114:	0c020500 	cfstr32eq	mvfx0, [r2], {-0}
    1118:	03000012 	movweq	r0, #18
    111c:	1f13010b 	svcne	0x0013010b
    1120:	1d405921 	stclne	9, cr5, [r0, #-132]	; 0xffffff7c
    1124:	00212323 	eoreq	r2, r1, r3, lsr #6
    1128:	06010402 	streq	r0, [r1], -r2, lsl #8
    112c:	303f0620 	eorscc	r0, pc, r0, lsr #12
    1130:	07022210 	smladeq	r2, r0, r2, r2
    1134:	ce010100 	adfgts	f0, f1, f0
    1138:	02000001 	andeq	r0, r0, #1
    113c:	00009700 	andeq	r9, r0, r0, lsl #14
    1140:	fb010200 	blx	4194a <__DATA_END+0x3ff5a>
    1144:	01000d0e 	tsteq	r0, lr, lsl #26
    1148:	00010101 	andeq	r0, r1, r1, lsl #2
    114c:	00010000 	andeq	r0, r1, r0
    1150:	752f0100 	strvc	r0, [pc, #-256]!	; 1058 <initGps+0xc>
    1154:	612f7273 	teqvs	pc, r3, ror r2	; <UNPREDICTABLE>
    1158:	6e2d6d72 	mcrvs	13, 1, r6, cr13, cr2, {3}
    115c:	2d656e6f 	stclcs	14, cr6, [r5, #-444]!	; 0xfffffe44
    1160:	69626165 	stmdbvs	r2!, {r0, r2, r5, r6, r8, sp, lr}^
    1164:	636e692f 	cmnvs	lr, #770048	; 0xbc000
    1168:	6564756c 	strbvs	r7, [r4, #-1388]!	; 0xfffffa94
    116c:	63616d2f 	cmnvs	r1, #3008	; 0xbc0
    1170:	656e6968 	strbvs	r6, [lr, #-2408]!	; 0xfffff698
    1174:	73752f00 	cmnvc	r5, #0, 30
    1178:	72612f72 	rsbvc	r2, r1, #456	; 0x1c8
    117c:	6f6e2d6d 	svcvs	0x006e2d6d
    1180:	652d656e 	strvs	r6, [sp, #-1390]!	; 0xfffffa92
    1184:	2f696261 	svccs	0x00696261
    1188:	6c636e69 	stclvs	14, cr6, [r3], #-420	; 0xfffffe5c
    118c:	2f656475 	svccs	0x00656475
    1190:	00737973 	rsbseq	r7, r3, r3, ror r9
    1194:	63326900 	teqvs	r2, #0, 18
    1198:	0000632e 	andeq	r6, r0, lr, lsr #6
    119c:	645f0000 	ldrbvs	r0, [pc], #-0	; 11a4 <getPos+0x10>
    11a0:	75616665 	strbvc	r6, [r1, #-1637]!	; 0xfffff99b
    11a4:	745f746c 	ldrbvc	r7, [pc], #-1132	; 11ac <getPos+0x18>
    11a8:	73657079 	cmnvc	r5, #121	; 0x79
    11ac:	0100682e 	tsteq	r0, lr, lsr #16
    11b0:	735f0000 	cmpvc	pc, #0
    11b4:	6e696474 	mcrvs	4, 3, r6, cr9, cr4, {3}
    11b8:	00682e74 	rsbeq	r2, r8, r4, ror lr
    11bc:	4d000002 	stcmi	0, cr0, [r0, #-8]
    11c0:	36324c4b 	ldrtcc	r4, [r2], -fp, asr #24
    11c4:	682e345a 	stmdavs	lr!, {r1, r3, r4, r6, sl, ip, sp}
    11c8:	00000000 	andeq	r0, r0, r0
    11cc:	616c6564 	cmnvs	ip, r4, ror #10
    11d0:	00682e79 	rsbeq	r2, r8, r9, ror lr
    11d4:	00000000 	andeq	r0, r0, r0
    11d8:	44020500 	strmi	r0, [r2], #-1280	; 0xfffffb00
    11dc:	03000012 	movweq	r0, #18
    11e0:	03220111 	teqeq	r2, #1073741828	; 0x40000004
    11e4:	77035809 	strvc	r5, [r3, -r9, lsl #16]
    11e8:	211f2101 	tstcs	pc, r1, lsl #2
    11ec:	2f224b4d 	svccs	0x00224b4d
    11f0:	000a022f 	andeq	r0, sl, pc, lsr #4
    11f4:	05000101 	streq	r0, [r0, #-257]	; 0xfffffeff
    11f8:	00000002 	andeq	r0, r0, r2
    11fc:	00c50300 	sbceq	r0, r5, r0, lsl #6
    1200:	205d0301 	subscs	r0, sp, r1, lsl #6
    1204:	032e2303 	teqeq	lr, #201326592	; 0xc000000
    1208:	1503205d 	strne	r2, [r3, #-93]	; 0xffffffa3
    120c:	206b0320 	rsbcs	r0, fp, r0, lsr #6
    1210:	4a21032b 	bmi	841ec4 <__DATA_END+0x8404d4>
    1214:	03200903 	teqeq	r0, #49152	; 0xc000
    1218:	77032077 	smlsdxvc	r3, r7, r0, r2
    121c:	03447720 	movteq	r7, #18208	; 0x4720
    1220:	7303200b 	movwvc	r2, #12299	; 0x300b
    1224:	20770320 	rsbscs	r0, r7, r0, lsr #6
    1228:	20150369 	andscs	r0, r5, r9, ror #6
    122c:	36206b03 	strtcc	r6, [r0], -r3, lsl #22
    1230:	2077031e 	rsbscs	r0, r7, lr, lsl r3
    1234:	03666e03 	cmneq	r6, #3, 28	; 0x30
    1238:	03442015 	movteq	r2, #16405	; 0x4015
    123c:	1b032063 	blne	c93d0 <__DATA_END+0xc79e0>
    1240:	2e77033c 	mrccs	3, 3, r0, cr7, cr12, {1}
    1244:	03666903 	cmneq	r6, #49152	; 0xc000
    1248:	0344201a 	movteq	r2, #16410	; 0x401a
    124c:	0342205e 	movteq	r2, #8286	; 0x205e
    1250:	6303202e 	movwvs	r2, #12334	; 0x302e
    1254:	0f036920 	svceq	0x00036920
    1258:	200d034a 	andcs	r0, sp, sl, asr #6
    125c:	222e4e03 	eorcs	r4, lr, #3, 28	; 0x30
    1260:	03203203 	teqeq	r0, #805306368	; 0x30000000
    1264:	1303204c 	movwne	r2, #12364	; 0x304c
    1268:	6c035b3c 	stcvs	11, cr5, [r3], {60}	; 0x3c
    126c:	203a0374 	eorscs	r0, sl, r4, ror r3
    1270:	2047030e 	subcs	r0, r7, lr, lsl #6
    1274:	3f034948 	svccc	0x00034948
    1278:	03022f4a 	movweq	r2, #12106	; 0x2f4a
    127c:	00010100 	andeq	r0, r1, r0, lsl #2
    1280:	00000205 	andeq	r0, r0, r5, lsl #4
    1284:	e1030000 	mrs	r0, (UNDEF: 3)
    1288:	03200100 	teqeq	r0, #0, 2
    128c:	15032041 	strne	r2, [r3, #-65]	; 0xffffffbf
    1290:	206b032e 	rsbcs	r0, fp, lr, lsr #6
    1294:	4a210339 	bmi	841f80 <__DATA_END+0x840590>
    1298:	5b2e7703 	blpl	b9eeac <__DATA_END+0xb9d4bc>
    129c:	20250344 	eorcs	r0, r5, r4, asr #6
    12a0:	03205903 	teqeq	r0, #49152	; 0xc000
    12a4:	44692077 	strbtmi	r2, [r9], #-119	; 0xffffff89
    12a8:	03202703 	teqeq	r0, #786432	; 0xc0000
    12ac:	77032057 	smlsdvc	r3, r7, r0, r2
    12b0:	03446920 	movteq	r6, #18720	; 0x4920
    12b4:	34033c75 	strcc	r3, [r3], #-3189	; 0xfffff38b
    12b8:	54033d20 	strpl	r3, [r3], #-3360	; 0xfffff2e0
    12bc:	20770320 	rsbscs	r0, r7, r0, lsr #6
    12c0:	2b03525b 	blcs	d5c34 <__DATA_END+0xd4244>
    12c4:	2f1f3e20 	svccs	0x001f3e20
    12c8:	2e7fb203 	cdpcs	2, 7, cr11, cr15, cr3, {0}
    12cc:	00d20349 	sbcseq	r0, r2, r9, asr #6
    12d0:	7fb0034a 	svcvc	0x00b0034a
    12d4:	2103473c 	tstcs	r3, ip, lsr r7
    12d8:	2e77034a 	cdpcs	3, 7, cr0, cr7, cr10, {2}
    12dc:	3503525b 	strcc	r5, [r3, #-603]	; 0xfffffda5
    12e0:	20490320 	subcs	r0, r9, r0, lsr #6
    12e4:	5b207703 	blpl	81eef8 <__DATA_END+0x81d508>
    12e8:	20370352 	eorscs	r0, r7, r2, asr r3
    12ec:	03204703 	teqeq	r0, #786432	; 0xc0000
    12f0:	525b2077 	subspl	r2, fp, #119	; 0x77
    12f4:	033c5f03 	teqeq	ip, #3, 30
    12f8:	032e00de 	teqeq	lr, #222	; 0xde
    12fc:	2d207fa2 	stccs	15, cr7, [r0, #-648]!	; 0xfffffd78
    1300:	4a00df03 	bmi	38f14 <__DATA_END+0x37524>
    1304:	01000502 	tsteq	r0, r2, lsl #10
    1308:	0000d101 	andeq	sp, r0, r1, lsl #2
    130c:	8c000200 	sfmhi	f0, 4, [r0], {-0}
    1310:	02000000 	andeq	r0, r0, #0
    1314:	0d0efb01 	vstreq	d15, [lr, #-4]
    1318:	01010100 	mrseq	r0, (UNDEF: 17)
    131c:	00000001 	andeq	r0, r0, r1
    1320:	01000001 	tsteq	r0, r1
    1324:	7273752f 	rsbsvc	r7, r3, #197132288	; 0xbc00000
    1328:	6d72612f 	ldfvse	f6, [r2, #-188]!	; 0xffffff44
    132c:	6e6f6e2d 	cdpvs	14, 6, cr6, cr15, cr13, {1}
    1330:	61652d65 	cmnvs	r5, r5, ror #26
    1334:	692f6962 	stmdbvs	pc!, {r1, r5, r6, r8, fp, sp, lr}	; <UNPREDICTABLE>
    1338:	756c636e 	strbvc	r6, [ip, #-878]!	; 0xfffffc92
    133c:	6d2f6564 	cfstr32vs	mvfx6, [pc, #-400]!	; 11b4 <getPos+0x20>
    1340:	69686361 	stmdbvs	r8!, {r0, r5, r6, r8, r9, sp, lr}^
    1344:	2f00656e 	svccs	0x0000656e
    1348:	2f727375 	svccs	0x00727375
    134c:	2d6d7261 	sfmcs	f7, 2, [sp, #-388]!	; 0xfffffe7c
    1350:	656e6f6e 	strbvs	r6, [lr, #-3950]!	; 0xfffff092
    1354:	6261652d 	rsbvs	r6, r1, #188743680	; 0xb400000
    1358:	6e692f69 	cdpvs	15, 6, cr2, cr9, cr9, {3}
    135c:	64756c63 	ldrbtvs	r6, [r5], #-3171	; 0xfffff39d
    1360:	79732f65 	ldmdbvc	r3!, {r0, r2, r5, r6, r8, r9, sl, fp, sp}^
    1364:	64000073 	strvs	r0, [r0], #-115	; 0xffffff8d
    1368:	632e6361 	teqvs	lr, #-2080374783	; 0x84000001
    136c:	00000000 	andeq	r0, r0, r0
    1370:	6665645f 			; <UNDEFINED> instruction: 0x6665645f
    1374:	746c7561 	strbtvc	r7, [ip], #-1377	; 0xfffffa9f
    1378:	7079745f 	rsbsvc	r7, r9, pc, asr r4
    137c:	682e7365 	stmdavs	lr!, {r0, r2, r5, r6, r8, r9, ip, sp, lr}
    1380:	00000100 	andeq	r0, r0, r0, lsl #2
    1384:	6474735f 	ldrbtvs	r7, [r4], #-863	; 0xfffffca1
    1388:	2e746e69 	cdpcs	14, 7, cr6, cr4, cr9, {3}
    138c:	00020068 	andeq	r0, r2, r8, rrx
    1390:	4c4b4d00 	mcrrmi	13, 0, r4, fp, cr0
    1394:	345a3632 	ldrbcc	r3, [sl], #-1586	; 0xfffff9ce
    1398:	0000682e 	andeq	r6, r0, lr, lsr #16
    139c:	00000000 	andeq	r0, r0, r0
    13a0:	12840205 	addne	r0, r4, #1342177280	; 0x50000000
    13a4:	13140000 	tstne	r4, #0
    13a8:	017a035e 	cmneq	sl, lr, asr r3
    13ac:	59211f21 	stmdbpl	r1!, {r0, r5, r8, r9, sl, fp, ip}
    13b0:	3d212f3d 	stccc	15, cr2, [r1, #-244]!	; 0xffffff0c
    13b4:	01000c02 	tsteq	r0, r2, lsl #24
    13b8:	02050001 	andeq	r0, r5, #1
    13bc:	00000000 	andeq	r0, r0, r0
    13c0:	14010b03 	strne	r0, [r1], #-2819	; 0xfffff4fd
    13c4:	01000102 	tsteq	r0, r2, lsl #2
    13c8:	02050001 	andeq	r0, r5, #1
    13cc:	000012c8 	andeq	r1, r0, r8, asr #5
    13d0:	13010e03 	movwne	r0, #7683	; 0x1e03
    13d4:	11222d2f 	teqne	r2, pc, lsr #26
    13d8:	00040221 	andeq	r0, r4, r1, lsr #4
    13dc:	007a0101 	rsbseq	r0, sl, r1, lsl #2
    13e0:	00020000 	andeq	r0, r2, r0
    13e4:	00000030 	andeq	r0, r0, r0, lsr r0
    13e8:	0efb0102 	cdpeq	1, 15, cr0, cr11, cr2, {0}
    13ec:	0101000d 	tsteq	r1, sp
    13f0:	00000101 	andeq	r0, r0, r1, lsl #2
    13f4:	00000100 	andeq	r0, r0, r0, lsl #2
    13f8:	70610001 	rsbvc	r0, r1, r1
    13fc:	632e7372 	teqvs	lr, #-939524095	; 0xc8000001
    1400:	00000000 	andeq	r0, r0, r0
    1404:	2e737067 	cdpcs	0, 7, cr7, cr3, cr7, {3}
    1408:	00000068 	andeq	r0, r0, r8, rrx
    140c:	32786100 	rsbscc	r6, r8, #0, 2
    1410:	00682e35 	rsbeq	r2, r8, r5, lsr lr
    1414:	00000000 	andeq	r0, r0, r0
    1418:	dc020500 	cfstr32le	mvfx0, [r2], {-0}
    141c:	16000012 			; <UNDEFINED> instruction: 0x16000012
    1420:	04020014 	streq	r0, [r2], #-20	; 0xffffffec
    1424:	02002201 	andeq	r2, r0, #268435456	; 0x10000000
    1428:	5a2f0104 	bpl	bc1840 <__DATA_END+0xbbfe50>
    142c:	01000202 	tsteq	r0, r2, lsl #4
    1430:	02050001 	andeq	r0, r5, #1
    1434:	000012f0 	strdeq	r1, [r0], -r0
    1438:	03010c03 	movweq	r0, #7171	; 0x1c03
    143c:	22592e0c 	subscs	r2, r9, #12, 28	; 0xc0
    1440:	211d4021 	tstcs	sp, r1, lsr #32
    1444:	4e222121 	sufmisp	f2, f2, f1
    1448:	1e21221d 	mcrne	2, 1, r2, cr1, cr13, {0}
    144c:	32212d25 	eorcc	r2, r1, #2368	; 0x940
    1450:	2622211d 			; <UNDEFINED> instruction: 0x2622211d
    1454:	024c4b4b 	subeq	r4, ip, #76800	; 0x12c00
    1458:	0101000d 	tsteq	r1, sp
    145c:	00000058 	andeq	r0, r0, r8, asr r0
    1460:	00390002 	eorseq	r0, r9, r2
    1464:	01020000 	mrseq	r0, (UNDEF: 2)
    1468:	000d0efb 	strdeq	r0, [sp], -fp
    146c:	01010101 	tsteq	r1, r1, lsl #2
    1470:	01000000 	mrseq	r0, (UNDEF: 0)
    1474:	2e010000 	cdpcs	0, 0, cr0, cr1, cr0, {0}
    1478:	6d632f2e 	stclvs	15, cr2, [r3, #-184]!	; 0xffffff48
    147c:	2f736973 	svccs	0x00736973
    1480:	324c4b4d 	subcc	r4, ip, #78848	; 0x13400
    1484:	00345a36 	eorseq	r5, r4, r6, lsr sl
    1488:	61747300 	cmnvs	r4, r0, lsl #6
    148c:	70757472 	rsbsvc	r7, r5, r2, ror r4
    1490:	4c4b4d5f 	mcrrmi	13, 5, r4, fp, cr15
    1494:	345a3632 	ldrbcc	r3, [sl], #-1586	; 0xfffff9ce
    1498:	0100532e 	tsteq	r0, lr, lsr #6
    149c:	00000000 	andeq	r0, r0, r0
    14a0:	047c0205 	ldrbteq	r0, [ip], #-517	; 0xfffffdfb
    14a4:	f5030000 			; <UNDEFINED> instruction: 0xf5030000
    14a8:	30220100 	eorcc	r0, r2, r0, lsl #2
    14ac:	0d03252f 	cfstr32eq	mvfx2, [r3, #-188]	; 0xffffff44
    14b0:	021f212e 	andseq	r2, pc, #-2147483637	; 0x8000000b
    14b4:	01010002 	tsteq	r1, r2

Disassembly of section .debug_str:

00000000 <.debug_str>:
   0:	54504f53 	ldrbpl	r4, [r0], #-3923	; 0xfffff0ad
   4:	43460035 	movtmi	r0, #24629	; 0x6035
   8:	00314746 	eorseq	r4, r1, r6, asr #14
   c:	47464346 	strbmi	r4, [r6, -r6, asr #6]
  10:	44530032 	ldrbmi	r0, [r3], #-50	; 0xffffffce
  14:	47004449 	strmi	r4, [r0, -r9, asr #8]
  18:	4320554e 	teqmi	r0, #327155712	; 0x13800000
  1c:	35203939 	strcc	r3, [r0, #-2361]!	; 0xfffff6c7
  20:	302e322e 	eorcc	r3, lr, lr, lsr #4
  24:	746d2d20 	strbtvc	r2, [sp], #-3360	; 0xfffff2e0
  28:	626d7568 	rsbvs	r7, sp, #104, 10	; 0x1a000000
  2c:	636d2d20 	cmnvs	sp, #32, 26	; 0x800
  30:	633d7570 	teqvs	sp, #112, 10	; 0x1c000000
  34:	6574726f 	ldrbvs	r7, [r4, #-623]!	; 0xfffffd91
  38:	306d2d78 	rsbcc	r2, sp, r8, ror sp
  3c:	73756c70 	cmnvc	r5, #112, 24	; 0x7000
  40:	20672d20 	rsbcs	r2, r7, r0, lsr #26
  44:	6467672d 	strbtvs	r6, [r7], #-1837	; 0xfffff8d3
  48:	4f2d2062 	svcmi	0x002d2062
  4c:	732d2073 	teqvc	sp, #115	; 0x73
  50:	673d6474 			; <UNDEFINED> instruction: 0x673d6474
  54:	3939756e 	ldmdbcc	r9!, {r1, r2, r3, r5, r6, r8, sl, ip, sp, lr}
  58:	6e662d20 	cdpvs	13, 6, cr2, cr6, cr0, {1}
  5c:	74732d6f 	ldrbtvc	r2, [r3], #-3439	; 0xfffff291
  60:	74636972 	strbtvc	r6, [r3], #-2418	; 0xfffff68e
  64:	696c612d 	stmdbvs	ip!, {r0, r2, r3, r5, r8, sp, lr}^
  68:	6e697361 	cdpvs	3, 6, cr7, cr9, cr1, {3}
  6c:	662d2067 	strtvs	r2, [sp], -r7, rrx
  70:	636e7566 	cmnvs	lr, #427819008	; 0x19800000
  74:	6e6f6974 	mcrvs	9, 3, r6, cr15, cr4, {3}
  78:	6365732d 	cmnvs	r5, #-1275068416	; 0xb4000000
  7c:	6e6f6974 	mcrvs	9, 3, r6, cr15, cr4, {3}
  80:	662d2073 			; <UNDEFINED> instruction: 0x662d2073
  84:	61746164 	cmnvs	r4, r4, ror #2
  88:	6365732d 	cmnvs	r5, #-1275068416	; 0xb4000000
  8c:	6e6f6974 	mcrvs	9, 3, r6, cr15, cr4, {3}
  90:	662d2073 			; <UNDEFINED> instruction: 0x662d2073
  94:	652d6f6e 	strvs	r6, [sp, #-3950]!	; 0xfffff092
  98:	70656378 	rsbvc	r6, r5, r8, ror r3
  9c:	6e6f6974 	mcrvs	9, 3, r6, cr15, cr4, {3}
  a0:	662d2073 			; <UNDEFINED> instruction: 0x662d2073
  a4:	642d6f6e 	strtvs	r6, [sp], #-3950	; 0xfffff092
  a8:	74656c65 	strbtvc	r6, [r5], #-3173	; 0xfffff39b
  ac:	756e2d65 	strbvc	r2, [lr, #-3429]!	; 0xfffff29b
  b0:	702d6c6c 	eorvc	r6, sp, ip, ror #24
  b4:	746e696f 	strbtvc	r6, [lr], #-2415	; 0xfffff691
  b8:	632d7265 	teqvs	sp, #1342177286	; 0x50000006
  bc:	6b636568 	blvs	18d9664 <__DATA_END+0x18d7c74>
  c0:	662d2073 			; <UNDEFINED> instruction: 0x662d2073
  c4:	7373656d 	cmnvc	r3, #457179136	; 0x1b400000
  c8:	2d656761 	stclcs	7, cr6, [r5, #-388]!	; 0xfffffe7c
  cc:	676e656c 	strbvs	r6, [lr, -ip, ror #10]!
  d0:	303d6874 	eorscc	r6, sp, r4, ror r8
  d4:	6e662d20 	cdpvs	13, 6, cr2, cr6, cr0, {1}
  d8:	75622d6f 	strbvc	r2, [r2, #-3439]!	; 0xfffff291
  dc:	69746c69 	ldmdbvs	r4!, {r0, r3, r5, r6, sl, fp, sp, lr}^
  e0:	5441006e 	strbpl	r0, [r1], #-110	; 0xffffff92
  e4:	00485643 	subeq	r5, r8, r3, asr #12
  e8:	56435441 	strbpl	r5, [r3], -r1, asr #8
  ec:	5f5f004c 	svcpl	0x005f004c
  f0:	746e6975 	strbtvc	r6, [lr], #-2421	; 0xfffff68b
  f4:	00745f38 	rsbseq	r5, r4, r8, lsr pc
  f8:	69755f5f 	ldmdbvs	r5!, {r0, r1, r2, r3, r4, r6, r8, r9, sl, fp, ip, lr}^
  fc:	3233746e 	eorscc	r7, r3, #1845493760	; 0x6e000000
 100:	5300745f 	movwpl	r7, #1119	; 0x45f
 104:	545f4d49 	ldrbpl	r4, [pc], #-3401	; 10c <M_VECTOR_RAM_SIZE+0x10c>
 108:	00657079 	rsbeq	r7, r5, r9, ror r0
 10c:	69755f5f 	ldmdbvs	r5!, {r0, r1, r2, r3, r4, r6, r8, r9, sl, fp, ip, lr}^
 110:	3631746e 	ldrtcc	r7, [r1], -lr, ror #8
 114:	7300745f 	movwvc	r7, #1119	; 0x45f
 118:	74726f68 	ldrbtvc	r6, [r2], #-3944	; 0xfffff098
 11c:	746e6920 	strbtvc	r6, [lr], #-2336	; 0xfffff6e0
 120:	6e6f6c00 	cdpvs	12, 6, cr6, cr15, cr0, {0}
 124:	6f6c2067 	svcvs	0x006c2067
 128:	6920676e 	stmdbvs	r0!, {r1, r2, r3, r5, r6, r8, r9, sl, sp, lr}
 12c:	5300746e 	movwpl	r7, #1134	; 0x46e
 130:	3154504f 	cmpcc	r4, pc, asr #32
 134:	00474643 	subeq	r4, r7, r3, asr #12
 138:	43474353 	movtmi	r4, #29523	; 0x7353
 13c:	43530034 	cmpmi	r3, #52	; 0x34
 140:	00354347 	eorseq	r4, r5, r7, asr #6
 144:	43474353 	movtmi	r4, #29523	; 0x7353
 148:	43530036 	cmpmi	r3, #54	; 0x36
 14c:	00374347 	eorseq	r4, r7, r7, asr #6
 150:	54504f53 	ldrbpl	r4, [r0], #-3923	; 0xfffff0ad
 154:	52530032 	subspl	r0, r3, #50	; 0x32
 158:	504f4356 	subpl	r4, pc, r6, asr r3	; <UNPREDICTABLE>
 15c:	504f5300 	subpl	r5, pc, r0, lsl #6
 160:	43003754 	movwmi	r3, #1876	; 0x754
 164:	49444b4c 	stmdbmi	r4, {r2, r3, r6, r8, r9, fp, lr}^
 168:	75003156 	strvc	r3, [r0, #-342]	; 0xfffffeaa
 16c:	6769736e 	strbvs	r7, [r9, -lr, ror #6]!
 170:	2064656e 	rsbcs	r6, r4, lr, ror #10
 174:	72616863 	rsbvc	r6, r1, #6488064	; 0x630000
 178:	504f4300 	subpl	r4, pc, r0, lsl #6
 17c:	6f6c0043 	svcvs	0x006c0043
 180:	6c20676e 	stcvs	7, cr6, [r0], #-440	; 0xfffffe48
 184:	20676e6f 	rsbcs	r6, r7, pc, ror #28
 188:	69736e75 	ldmdbvs	r3!, {r0, r2, r4, r5, r6, r9, sl, fp, sp, lr}^
 18c:	64656e67 	strbtvs	r6, [r5], #-3687	; 0xfffff199
 190:	746e6920 	strbtvc	r6, [lr], #-2336	; 0xfffff6e0
 194:	44564c00 	ldrbmi	r4, [r6], #-3072	; 0xfffff400
 198:	00314353 	eorseq	r4, r1, r3, asr r3
 19c:	5344564c 	movtpl	r5, #17996	; 0x464c
 1a0:	2f003243 	svccs	0x00003243
 1a4:	656d6f68 	strbvs	r6, [sp, #-3944]!	; 0xfffff098
 1a8:	7268632f 	rsbvc	r6, r8, #-1140850688	; 0xbc000000
 1ac:	432f7369 	teqmi	pc, #-1543503871	; 0xa4000001
 1b0:	2f65646f 	svccs	0x0065646f
 1b4:	53525041 	cmppl	r2, #65	; 0x41
 1b8:	676e6f44 	strbvs	r6, [lr, -r4, asr #30]!
 1bc:	732f656c 	teqvc	pc, #108, 10	; 0x1b000000
 1c0:	7774666f 	ldrbvc	r6, [r4, -pc, ror #12]!
 1c4:	2f657261 	svccs	0x00657261
 1c8:	6e69616d 	powvsez	f6, f1, #5.0
 1cc:	72616f42 	rsbvc	r6, r1, #264	; 0x108
 1d0:	79530064 	ldmdbvc	r3, {r2, r5, r6}^
 1d4:	6d657473 	cfstrdvs	mvd7, [r5, #-460]!	; 0xfffffe34
 1d8:	74696e49 	strbtvc	r6, [r9], #-3657	; 0xfffff1b7
 1dc:	6f687300 	svcvs	0x00687300
 1e0:	75207472 	strvc	r7, [r0, #-1138]!	; 0xfffffb8e
 1e4:	6769736e 	strbvs	r7, [r9, -lr, ror #6]!
 1e8:	2064656e 	rsbcs	r6, r4, lr, ror #10
 1ec:	00746e69 	rsbseq	r6, r4, r9, ror #28
 1f0:	69766944 	ldmdbvs	r6!, {r2, r6, r8, fp, sp, lr}^
 1f4:	00726564 	rsbseq	r6, r2, r4, ror #10
 1f8:	74737953 	ldrbtvc	r7, [r3], #-2387	; 0xfffff6ad
 1fc:	6f436d65 	svcvs	0x00436d65
 200:	6c436572 	cfstr64vs	mvdx6, [r3], {114}	; 0x72
 204:	556b636f 	strbpl	r6, [fp, #-879]!	; 0xfffffc91
 208:	74616470 	strbtvc	r6, [r1], #-1136	; 0xfffffb90
 20c:	434d0065 	movtmi	r0, #53349	; 0xd065
 210:	79545f47 	ldmdbvc	r4, {r0, r1, r2, r6, r8, r9, sl, fp, ip, lr}^
 214:	53006570 	movwpl	r6, #1392	; 0x570
 218:	3154504f 	cmpcc	r4, pc, asr #32
 21c:	73795300 	cmnvc	r9, #0, 6
 220:	436d6574 	cmnmi	sp, #116, 10	; 0x1d000000
 224:	4365726f 	cmnmi	r5, #-268435450	; 0xf0000006
 228:	6b636f6c 	blvs	18dbfe0 <__DATA_END+0x18da5f0>
 22c:	44495500 	strbmi	r5, [r9], #-1280	; 0xfffffb00
 230:	4955004c 	ldmdbmi	r5, {r2, r3, r6}^
 234:	00484d44 	subeq	r4, r8, r4, asr #26
 238:	4d444955 	stclmi	9, cr4, [r4, #-340]	; 0xfffffeac
 23c:	4552004c 	ldrbmi	r0, [r2, #-76]	; 0xffffffb4
 240:	56524553 			; <UNDEFINED> instruction: 0x56524553
 244:	305f4445 	subscc	r4, pc, r5, asr #8
 248:	53455200 	movtpl	r5, #20992	; 0x5200
 24c:	45565245 	ldrbmi	r5, [r6, #-581]	; 0xfffffdbb
 250:	00315f44 	eorseq	r5, r1, r4, asr #30
 254:	45534552 	ldrbmi	r4, [r3, #-1362]	; 0xfffffaae
 258:	44455652 	strbmi	r5, [r5], #-1618	; 0xfffff9ae
 25c:	5200325f 	andpl	r3, r0, #-268435451	; 0xf0000005
 260:	52455345 	subpl	r5, r5, #335544321	; 0x14000001
 264:	5f444556 	svcpl	0x00444556
 268:	45520033 	ldrbmi	r0, [r2, #-51]	; 0xffffffcd
 26c:	56524553 			; <UNDEFINED> instruction: 0x56524553
 270:	345f4445 	ldrbcc	r4, [pc], #-1093	; 278 <M_VECTOR_RAM_SIZE+0x278>
 274:	53455200 	movtpl	r5, #20992	; 0x5200
 278:	45565245 	ldrbmi	r5, [r6, #-581]	; 0xfffffdbb
 27c:	00355f44 	eorseq	r5, r5, r4, asr #30
 280:	45534552 	ldrbmi	r4, [r3, #-1362]	; 0xfffffaae
 284:	44455652 	strbmi	r5, [r5], #-1618	; 0xfffff9ae
 288:	5200365f 	andpl	r3, r0, #99614720	; 0x5f00000
 28c:	52455345 	subpl	r5, r5, #335544321	; 0x14000001
 290:	5f444556 	svcpl	0x00444556
 294:	434d0037 	movtmi	r0, #53303	; 0xd037
 298:	54554f47 	ldrbpl	r4, [r5], #-3911	; 0xfffff0b9
 29c:	636f6c43 	cmnvs	pc, #17152	; 0x4300
 2a0:	6973006b 	ldmdbvs	r3!, {r0, r1, r3, r5, r6}^
 2a4:	7974657a 	ldmdbvc	r4!, {r1, r3, r4, r5, r6, r8, sl, sp, lr}^
 2a8:	50006570 	andpl	r6, r0, r0, ror r5
 2ac:	545f434d 	ldrbpl	r4, [pc], #-845	; 2b4 <M_VECTOR_RAM_SIZE+0x2b4>
 2b0:	00657079 	rsbeq	r7, r5, r9, ror r0
 2b4:	53474552 	movtpl	r4, #30034	; 0x7552
 2b8:	2e2e0043 	cdpcs	0, 2, cr0, cr14, cr3, {2}
 2bc:	736d632f 	cmnvc	sp, #-1140850688	; 0xbc000000
 2c0:	4d2f7369 	stcmi	3, cr7, [pc, #-420]!	; 124 <M_VECTOR_RAM_SIZE+0x124>
 2c4:	36324c4b 	ldrtcc	r4, [r2], -fp, asr #24
 2c8:	732f345a 	teqvc	pc, #1509949440	; 0x5a000000
 2cc:	65747379 	ldrbvs	r7, [r4, #-889]!	; 0xfffffc87
 2d0:	4b4d5f6d 	blmi	135808c <__DATA_END+0x135669c>
 2d4:	5a36324c 	bpl	d8cc0c <__DATA_END+0xd8b21c>
 2d8:	00632e34 	rsbeq	r2, r3, r4, lsr lr
 2dc:	54504f53 	ldrbpl	r4, [r0], #-3923	; 0xfffff0ad
 2e0:	2e2e0034 	mcrcs	0, 1, r0, cr14, cr4, {1}
 2e4:	736d632f 	cmnvc	sp, #-1140850688	; 0xbc000000
 2e8:	4d2f7369 	stcmi	3, cr7, [pc, #-420]!	; 14c <M_VECTOR_RAM_SIZE+0x14c>
 2ec:	36324c4b 	ldrtcc	r4, [r2], -fp, asr #24
 2f0:	732f345a 	teqvc	pc, #1509949440	; 0x5a000000
 2f4:	74726174 	ldrbtvc	r6, [r2], #-372	; 0xfffffe8c
 2f8:	632e7075 	teqvs	lr, #117	; 0x75
 2fc:	565f5f00 	ldrbpl	r5, [pc], -r0, lsl #30
 300:	4f544345 	svcmi	0x00544345
 304:	41525f52 	cmpmi	r2, r2, asr pc
 308:	5456004d 	ldrbpl	r0, [r6], #-77	; 0xffffffb3
 30c:	6400524f 	strvs	r5, [r0], #-591	; 0xfffffdb1
 310:	5f617461 	svcpl	0x00617461
 314:	006d6172 	rsbeq	r6, sp, r2, ror r1
 318:	45534552 	ldrbmi	r4, [r3, #-1362]	; 0xfffffaae
 31c:	44455652 	strbmi	r5, [r5], #-1618	; 0xfffff9ae
 320:	73620031 	cmnvc	r2, #49	; 0x31
 324:	6e655f73 	mcrvs	15, 3, r5, cr5, cr3, {3}
 328:	5f5f0064 	svcpl	0x005f0064
 32c:	41544144 	cmpmi	r4, r4, asr #2
 330:	444e455f 	strbmi	r4, [lr], #-1375	; 0xfffffaa1
 334:	525f5f00 	subspl	r5, pc, #0, 30
 338:	565f4d41 	ldrbpl	r4, [pc], -r1, asr #26
 33c:	4f544345 	svcmi	0x00544345
 340:	41545f52 	cmpmi	r4, r2, asr pc
 344:	5f454c42 	svcpl	0x00454c42
 348:	455a4953 	ldrbmi	r4, [sl, #-2387]	; 0xfffff6ad
 34c:	445f5f00 	ldrbmi	r5, [pc], #-3840	; 354 <M_VECTOR_RAM_SIZE+0x354>
 350:	5f415441 	svcpl	0x00415441
 354:	004d4f52 	subeq	r4, sp, r2, asr pc
 358:	45565f5f 	ldrbmi	r5, [r6, #-3935]	; 0xfffff0a1
 35c:	524f5443 	subpl	r5, pc, #1124073472	; 0x43000000
 360:	4241545f 	submi	r5, r1, #1593835520	; 0x5f000000
 364:	6900454c 	stmdbvs	r0, {r2, r3, r6, r8, sl, lr}
 368:	5f74696e 	svcpl	0x0074696e
 36c:	61746164 	cmnvs	r4, r4, ror #2
 370:	7373625f 	cmnvc	r3, #-268435451	; 0xf0000005
 374:	455f5f00 	ldrbmi	r5, [pc, #-3840]	; fffff47c <__StackTop+0xdfffc47c>
 378:	425f444e 	subsmi	r4, pc, #1308622848	; 0x4e000000
 37c:	53005353 	movwpl	r5, #851	; 0x353
 380:	545f4243 	ldrbpl	r4, [pc], #-579	; 388 <M_VECTOR_RAM_SIZE+0x388>
 384:	00657079 	rsbeq	r7, r5, r9, ror r0
 388:	61746164 	cmnvs	r4, r4, ror #2
 38c:	6d6f725f 	sfmvs	f7, 2, [pc, #-380]!	; 218 <M_VECTOR_RAM_SIZE+0x218>
 390:	53434900 	movtpl	r4, #14592	; 0x3900
 394:	49410052 	stmdbmi	r1, {r1, r4, r6}^
 398:	00524352 	subseq	r4, r2, r2, asr r3
 39c:	49555043 	ldmdbmi	r5, {r0, r1, r6, ip, lr}^
 3a0:	5f5f0044 	svcpl	0x005f0044
 3a4:	52415453 	subpl	r5, r1, #1392508928	; 0x53000000
 3a8:	53425f54 	movtpl	r5, #12116	; 0x2f54
 3ac:	61640053 	qdsubvs	r0, r3, r4
 3b0:	725f6174 	subsvc	r6, pc, #116, 2
 3b4:	655f6d6f 	ldrbvs	r6, [pc, #-3439]	; fffff64d <__StackTop+0xdfffc64d>
 3b8:	5300646e 	movwpl	r6, #1134	; 0x46e
 3bc:	52534348 	subspl	r4, r3, #72, 6	; 0x20000001
 3c0:	525f5f00 	subspl	r5, pc, #0, 30
 3c4:	565f4d41 	ldrbpl	r4, [pc], -r1, asr #26
 3c8:	4f544345 	svcmi	0x00544345
 3cc:	41545f52 	cmpmi	r4, r2, asr pc
 3d0:	5f454c42 	svcpl	0x00454c42
 3d4:	455a4953 	ldrbmi	r4, [sl, #-2387]	; 0xfffff6ad
 3d8:	5459425f 	ldrbpl	r4, [r9], #-607	; 0xfffffda1
 3dc:	62005345 	andvs	r5, r0, #335544321	; 0x14000001
 3e0:	735f7373 	cmpvc	pc, #-872415231	; 0xcc000001
 3e4:	74726174 	ldrbtvc	r6, [r2], #-372	; 0xfffffe8c
 3e8:	445f5f00 	ldrbmi	r5, [pc], #-3840	; 3f0 <M_VECTOR_RAM_SIZE+0x3f0>
 3ec:	5f415441 	svcpl	0x00415441
 3f0:	004d4152 	subeq	r4, sp, r2, asr r1
 3f4:	61706163 	cmnvs	r0, r3, ror #2
 3f8:	79746963 	ldmdbvc	r4!, {r0, r1, r5, r6, r8, fp, sp, lr}^
 3fc:	49656400 	stmdbmi	r5!, {sl, sp, lr}^
 400:	5174696e 	cmnpl	r4, lr, ror #18
 404:	65756575 	ldrbvs	r6, [r5, #-1397]!	; 0xfffffa8b
 408:	74756f00 	ldrbtvc	r6, [r5], #-3840	; 0xfffff100
 40c:	00727450 	rsbseq	r7, r2, r0, asr r4
 410:	456d756e 	strbmi	r7, [sp, #-1390]!	; 0xfffffa92
 414:	6575716e 	ldrbvs	r7, [r5, #-366]!	; 0xfffffe92
 418:	00646575 	rsbeq	r6, r4, r5, ror r5
 41c:	61746164 	cmnvs	r4, r4, ror #2
 420:	65525100 	ldrbvs	r5, [r2, #-256]	; 0xffffff00
 424:	72745363 	rsbsvc	r5, r4, #-1946157055	; 0x8c000001
 428:	00746375 	rsbseq	r6, r4, r5, ror r3
 42c:	6b656570 	blvs	19599f4 <__DATA_END+0x1958004>
 430:	65757100 	ldrbvs	r7, [r5, #-256]!	; 0xffffff00
 434:	632e6575 	teqvs	lr, #490733568	; 0x1d400000
 438:	506e6900 	rsbpl	r6, lr, r0, lsl #18
 43c:	69007274 	stmdbvs	r0, {r2, r4, r5, r6, r9, ip, sp, lr}
 440:	5174696e 	cmnpl	r4, lr, ror #18
 444:	65756575 	ldrbvs	r6, [r5, #-1397]!	; 0xfffffa8b
 448:	65726600 	ldrbvs	r6, [r2, #-1536]!	; 0xfffffa00
 44c:	6e650065 	cdpvs	0, 6, cr0, cr5, cr5, {3}
 450:	75657571 	strbvc	r7, [r5, #-1393]!	; 0xfffffa8f
 454:	65640065 	strbvs	r0, [r4, #-101]!	; 0xffffff9b
 458:	75657571 	strbvc	r7, [r5, #-1393]!	; 0xfffffa8f
 45c:	74730065 	ldrbtvc	r0, [r3], #-101	; 0xffffff9b
 460:	6465726f 	strbtvs	r7, [r5], #-623	; 0xfffffd91
 464:	63616400 	cmnvs	r1, #0, 8
 468:	74696e49 	strbtvc	r6, [r9], #-3657	; 0xfffff1b7
 46c:	56444c00 	strbpl	r4, [r4], -r0, lsl #24
 470:	6c004c41 	stcvs	12, cr4, [r0], {65}	; 0x41
 474:	5243636f 	subpl	r6, r3, #-1140850687	; 0xbc000001
 478:	48430043 	stmdami	r3, {r0, r1, r6}^
 47c:	454e4e41 	strbmi	r4, [lr, #-3649]	; 0xfffff1bf
 480:	6164004c 	cmnvs	r4, ip, asr #32
 484:	74655363 	strbtvc	r5, [r5], #-867	; 0xfffffc9d
 488:	32786100 	rsbscc	r6, r8, #0, 2
 48c:	61745335 	cmnvs	r4, r5, lsr r3
 490:	69537472 	ldmdbvs	r3, {r1, r4, r5, r6, sl, ip, sp, lr}^
 494:	6d69546e 	cfstrdvs	mvd5, [r9, #-440]!	; 0xfffffe48
 498:	61007265 	tstvs	r0, r5, ror #4
 49c:	55353278 	ldrpl	r3, [r5, #-632]!	; 0xfffffd88
 4a0:	74616470 	strbtvc	r6, [r1], #-1136	; 0xfffffb90
 4a4:	63724365 	cmnvs	r2, #-1811939327	; 0x94000001
 4a8:	6c656400 	cfstrdvs	mvd6, [r5], #-0
 4ac:	61007961 	tstvs	r0, r1, ror #18
 4b0:	44353278 	ldrtmi	r3, [r5], #-632	; 0xfffffd88
 4b4:	50617461 	rsbpl	r7, r1, r1, ror #8
 4b8:	61007274 	tstvs	r0, r4, ror r2
 4bc:	53353278 	teqpl	r5, #120, 4	; 0x80000007
 4c0:	6e496e69 	cdpvs	14, 4, cr6, cr9, cr9, {3}
 4c4:	00786564 	rsbseq	r6, r8, r4, ror #10
 4c8:	35327861 	ldrcc	r7, [r2, #-2145]!	; 0xfffff79f
 4cc:	6100632e 	tstvs	r0, lr, lsr #6
 4d0:	43353278 	teqmi	r5, #120, 4	; 0x80000007
 4d4:	676e6168 	strbvs	r6, [lr, -r8, ror #2]!
 4d8:	74694265 	strbtvc	r4, [r9], #-613	; 0xfffffd9b
 4dc:	32786100 	rsbscc	r6, r8, #0, 2
 4e0:	74654735 	strbtvc	r4, [r5], #-1845	; 0xfffff8cb
 4e4:	646e6553 	strbtvs	r6, [lr], #-1363	; 0xfffffaad
 4e8:	00676e69 	rsbeq	r6, r7, r9, ror #28
 4ec:	52544354 	subspl	r4, r4, #84, 6	; 0x50000001
 4f0:	544c004c 	strbpl	r0, [ip], #-76	; 0xffffffb4
 4f4:	3436524d 	ldrtcc	r5, [r6], #-589	; 0xfffffdb3
 4f8:	544c0048 	strbpl	r0, [ip], #-72	; 0xffffffb8
 4fc:	3436524d 	ldrtcc	r5, [r6], #-589	; 0xfffffdb3
 500:	7861004c 	stmdavc	r1!, {r2, r3, r6}^
 504:	65533532 	ldrbvs	r3, [r3, #-1330]	; 0xffffface
 508:	6e69646e 	cdpvs	4, 6, cr6, cr9, cr14, {3}
 50c:	4e470067 	cdpmi	0, 4, cr0, cr7, cr7, {3}
 510:	39432055 	stmdbcc	r3, {r0, r2, r4, r6, sp}^
 514:	2e352039 	mrccs	0, 1, r2, cr5, cr9, {1}
 518:	20302e33 	eorscs	r2, r0, r3, lsr lr
 51c:	68746d2d 	ldmdavs	r4!, {r0, r2, r3, r5, r8, sl, fp, sp, lr}^
 520:	20626d75 	rsbcs	r6, r2, r5, ror sp
 524:	70636d2d 	rsbvc	r6, r3, sp, lsr #26
 528:	6f633d75 	svcvs	0x00633d75
 52c:	78657472 	stmdavc	r5!, {r1, r4, r5, r6, sl, ip, sp, lr}^
 530:	70306d2d 	eorsvc	r6, r0, sp, lsr #26
 534:	2073756c 	rsbscs	r7, r3, ip, ror #10
 538:	6467672d 	strbtvs	r6, [r7], #-1837	; 0xfffff8d3
 53c:	4f2d2062 	svcmi	0x002d2062
 540:	732d2073 	teqvc	sp, #115	; 0x73
 544:	673d6474 			; <UNDEFINED> instruction: 0x673d6474
 548:	3939756e 	ldmdbcc	r9!, {r1, r2, r3, r5, r6, r8, sl, ip, sp, lr}
 54c:	6e662d20 	cdpvs	13, 6, cr2, cr6, cr0, {1}
 550:	74732d6f 	ldrbtvc	r2, [r3], #-3439	; 0xfffff291
 554:	74636972 	strbtvc	r6, [r3], #-2418	; 0xfffff68e
 558:	696c612d 	stmdbvs	ip!, {r0, r2, r3, r5, r8, sp, lr}^
 55c:	6e697361 	cdpvs	3, 6, cr7, cr9, cr1, {3}
 560:	662d2067 	strtvs	r2, [sp], -r7, rrx
 564:	636e7566 	cmnvs	lr, #427819008	; 0x19800000
 568:	6e6f6974 	mcrvs	9, 3, r6, cr15, cr4, {3}
 56c:	6365732d 	cmnvs	r5, #-1275068416	; 0xb4000000
 570:	6e6f6974 	mcrvs	9, 3, r6, cr15, cr4, {3}
 574:	662d2073 			; <UNDEFINED> instruction: 0x662d2073
 578:	61746164 	cmnvs	r4, r4, ror #2
 57c:	6365732d 	cmnvs	r5, #-1275068416	; 0xb4000000
 580:	6e6f6974 	mcrvs	9, 3, r6, cr15, cr4, {3}
 584:	662d2073 			; <UNDEFINED> instruction: 0x662d2073
 588:	652d6f6e 	strvs	r6, [sp, #-3950]!	; 0xfffff092
 58c:	70656378 	rsbvc	r6, r5, r8, ror r3
 590:	6e6f6974 	mcrvs	9, 3, r6, cr15, cr4, {3}
 594:	662d2073 			; <UNDEFINED> instruction: 0x662d2073
 598:	642d6f6e 	strtvs	r6, [sp], #-3950	; 0xfffff092
 59c:	74656c65 	strbtvc	r6, [r5], #-3173	; 0xfffff39b
 5a0:	756e2d65 	strbvc	r2, [lr, #-3429]!	; 0xfffff29b
 5a4:	702d6c6c 	eorvc	r6, sp, ip, ror #24
 5a8:	746e696f 	strbtvc	r6, [lr], #-2415	; 0xfffff691
 5ac:	632d7265 	teqvs	sp, #1342177286	; 0x50000006
 5b0:	6b636568 	blvs	18d9b58 <__DATA_END+0x18d8168>
 5b4:	662d2073 			; <UNDEFINED> instruction: 0x662d2073
 5b8:	7373656d 	cmnvc	r3, #457179136	; 0x1b400000
 5bc:	2d656761 	stclcs	7, cr6, [r5, #-388]!	; 0xfffffe7c
 5c0:	676e656c 	strbvs	r6, [lr, -ip, ror #10]!
 5c4:	303d6874 	eorscc	r6, sp, r4, ror r8
 5c8:	6e662d20 	cdpvs	13, 6, cr2, cr6, cr0, {1}
 5cc:	75622d6f 	strbvc	r2, [r2, #-3439]!	; 0xfffff291
 5d0:	69746c69 	ldmdbvs	r4!, {r0, r3, r5, r6, sl, fp, sp, lr}^
 5d4:	7473006e 	ldrbtvc	r0, [r3], #-110	; 0xffffff92
 5d8:	50747261 	rsbspl	r7, r4, r1, ror #4
 5dc:	00305449 	eorseq	r5, r0, r9, asr #8
 5e0:	446e6973 	strbtmi	r6, [lr], #-2419	; 0xfffff68d
 5e4:	36617461 	strbtcc	r7, [r1], -r1, ror #8
 5e8:	74730034 	ldrbtvc	r0, [r3], #-52	; 0xffffffcc
 5ec:	50747261 	rsbspl	r7, r4, r1, ror #4
 5f0:	00315449 	eorseq	r5, r1, r9, asr #8
 5f4:	706f7473 	rsbvc	r7, pc, r3, ror r4	; <UNPREDICTABLE>
 5f8:	30544950 	subscc	r4, r4, r0, asr r9
 5fc:	74616400 	strbtvc	r6, [r1], #-1024	; 0xfffffc00
 600:	72745061 	rsbsvc	r5, r4, #97	; 0x61
 604:	54495000 	strbpl	r5, [r9], #-0
 608:	7079545f 	rsbsvc	r5, r9, pc, asr r4
 60c:	78610065 	stmdavc	r1!, {r0, r2, r5, r6}^
 610:	6e493532 	mcrvs	5, 2, r3, cr9, cr2, {1}
 614:	6e655374 	mcrvs	3, 3, r5, cr5, cr4, {3}
 618:	78610064 	stmdavc	r1!, {r2, r5, r6}^
 61c:	74533532 	ldrbvc	r3, [r3], #-1330	; 0xffffface
 620:	54747261 	ldrbtpl	r7, [r4], #-609	; 0xfffffd9f
 624:	54656e6f 	strbtpl	r6, [r5], #-3695	; 0xfffff191
 628:	72656d69 	rsbvc	r6, r5, #6720	; 0x1a40
 62c:	32786100 	rsbscc	r6, r8, #0, 2
 630:	6f745335 	svcvs	0x00745335
 634:	6d695470 	cfstrdvs	mvd5, [r9, #-448]!	; 0xfffffe40
 638:	00737265 	rsbseq	r7, r3, r5, ror #4
 63c:	35327861 	ldrcc	r7, [r2, #-2145]!	; 0xfffff79f
 640:	72727543 	rsbsvc	r7, r2, #281018368	; 0x10c00000
 644:	616c6544 	cmnvs	ip, r4, asr #10
 648:	78610079 	stmdavc	r1!, {r0, r3, r4, r5, r6}^
 64c:	75433532 	strbvc	r3, [r3, #-1330]	; 0xffffface
 650:	79427272 	stmdbvc	r2, {r1, r4, r5, r6, r9, ip, sp, lr}^
 654:	43006574 	movwmi	r6, #1396	; 0x574
 658:	004c4156 	subeq	r4, ip, r6, asr r1
 65c:	35327861 	ldrcc	r7, [r2, #-2145]!	; 0xfffff79f
 660:	73656e4f 	cmnvc	r5, #1264	; 0x4f0
 664:	6e756f43 	cdpvs	15, 7, cr6, cr5, cr3, {2}
 668:	78610074 	stmdavc	r1!, {r2, r4, r5, r6}^
 66c:	79423532 	stmdbvc	r2, {r1, r4, r5, r8, sl, ip, sp}^
 670:	4c736574 	cfldr64mi	mvdx6, [r3], #-464	; 0xfffffe30
 674:	00746665 	rsbseq	r6, r4, r5, ror #12
 678:	35327861 	ldrcc	r7, [r2, #-2145]!	; 0xfffff79f
 67c:	6e616843 	cdpvs	8, 6, cr6, cr1, cr3, {2}
 680:	61446567 	cmpvs	r4, r7, ror #10
 684:	78610063 	stmdavc	r1!, {r0, r1, r5, r6}^
 688:	72503532 	subsvc	r3, r0, #209715200	; 0xc800000
 68c:	626d6165 	rsbvs	r6, sp, #1073741849	; 0x40000019
 690:	7300656c 	movwvc	r6, #1388	; 0x56c
 694:	50706f74 	rsbspl	r6, r0, r4, ror pc
 698:	00315449 	eorseq	r5, r1, r9, asr #8
 69c:	35327861 	ldrcc	r7, [r2, #-2145]!	; 0xfffff79f
 6a0:	64646150 	strbtvs	r6, [r4], #-336	; 0xfffffeb0
 6a4:	00676e69 	rsbeq	r6, r7, r9, ror #28
 6a8:	35327861 	ldrcc	r7, [r2, #-2145]!	; 0xfffff79f
 6ac:	74697753 	strbtvc	r7, [r9], #-1875	; 0xfffff8ad
 6b0:	72466863 	subvc	r6, r6, #6488064	; 0x630000
 6b4:	61007165 	tstvs	r0, r5, ror #2
 6b8:	43353278 	teqmi	r5, #120, 4	; 0x80000007
 6bc:	42727275 	rsbsmi	r7, r2, #1342177287	; 0x50000007
 6c0:	54007469 	strpl	r7, [r0], #-1129	; 0xfffffb97
 6c4:	00474c46 	subeq	r4, r7, r6, asr #24
 6c8:	35327861 	ldrcc	r7, [r2, #-2145]!	; 0xfffff79f
 6cc:	00435243 	subeq	r5, r3, r3, asr #4
 6d0:	72727563 	rsbsvc	r7, r2, #415236096	; 0x18c00000
 6d4:	00746942 	rsbseq	r6, r4, r2, asr #18
 6d8:	72616863 	rsbvc	r6, r1, #6488064	; 0x630000
 6dc:	006e654c 	rsbeq	r6, lr, ip, asr #10
 6e0:	61447763 	cmpvs	r4, r3, ror #14
 6e4:	74506174 	ldrbvc	r6, [r0], #-372	; 0xfffffe8c
 6e8:	44500072 	ldrbmi	r0, [r0], #-114	; 0xffffff8e
 6ec:	63005249 	movwvs	r5, #585	; 0x249
 6f0:	43727275 	cmnmi	r2, #1342177287	; 0x50000007
 6f4:	00726168 	rsbseq	r6, r2, r8, ror #2
 6f8:	524f4450 	subpl	r4, pc, #80, 8	; 0x50000000
 6fc:	4e774300 	cdpmi	3, 7, cr4, cr7, cr0, {0}
 700:	65626d75 	strbvs	r6, [r2, #-3445]!	; 0xfffff28b
 704:	74614472 	strbtvc	r4, [r1], #-1138	; 0xfffffb8e
 708:	44500061 	ldrbmi	r0, [r0], #-97	; 0xffffff9f
 70c:	47005244 	strmi	r5, [r0, -r4, asr #4]
 710:	5f4f4950 	svcpl	0x004f4950
 714:	65707954 	ldrbvs	r7, [r0, #-2388]!	; 0xfffff6ac
 718:	63794300 	cmnvs	r9, #0, 6
 71c:	4c73656c 	cfldr64mi	mvdx6, [r3], #-432	; 0xfffffe50
 720:	00746665 	rsbseq	r6, r4, r5, ror #12
 724:	524f5350 	subpl	r5, pc, #80, 6	; 0x40000001
 728:	74694400 	strbtvc	r4, [r9], #-1024	; 0xfffffc00
 72c:	6144724f 	cmpvs	r4, pc, asr #4
 730:	77630068 	strbvc	r0, [r3, -r8, rrx]!
 734:	49746950 	ldmdbmi	r4!, {r4, r6, r8, fp, sp, lr}^
 738:	63007273 	movwvs	r7, #627	; 0x273
 73c:	6e6f5477 	mcrvs	4, 3, r5, cr15, cr7, {3}
 740:	77630065 	strbvc	r0, [r3, -r5, rrx]!
 744:	4300632e 	movwmi	r6, #814	; 0x32e
 748:	74654c77 	strbtvc	r4, [r5], #-3191	; 0xfffff389
 74c:	44726574 	ldrbtmi	r6, [r2], #-1396	; 0xfffffa8c
 750:	00617461 	rsbeq	r7, r1, r1, ror #8
 754:	524f5450 	subpl	r5, pc, #80, 8	; 0x50000000
 758:	6e697300 	cdpvs	3, 6, cr7, cr9, cr0, {0}
 75c:	65646e49 	strbvs	r6, [r4, #-3657]!	; 0xfffff1b7
 760:	77630078 			; <UNDEFINED> instruction: 0x77630078
 764:	646e6553 	strbtvs	r6, [lr], #-1363	; 0xfffffaad
 768:	4f435000 	svcmi	0x00435000
 76c:	49500052 	ldmdbmi	r0, {r1, r4, r6}^
 770:	52495f54 	subpl	r5, r9, #84, 30	; 0x150
 774:	53006e51 	movwpl	r6, #3665	; 0xe51
 778:	69547379 	ldmdbvs	r4, {r0, r3, r4, r5, r6, r8, r9, ip, sp, lr}^
 77c:	495f6b63 	ldmdbmi	pc, {r0, r1, r5, r6, r8, r9, fp, sp, lr}^	; <UNPREDICTABLE>
 780:	006e5152 	rsbeq	r5, lr, r2, asr r1
 784:	31495053 	qdaddcc	r5, r3, r9
 788:	5152495f 	cmppl	r2, pc, asr r9
 78c:	646c006e 	strbtvs	r0, [ip], #-110	; 0xffffff92
 790:	006c6156 	rsbeq	r6, ip, r6, asr r1
 794:	45534552 	ldrbmi	r4, [r3, #-1362]	; 0xfffffaae
 798:	44455652 	strbmi	r5, [r5], #-1618	; 0xfffff9ae
 79c:	4d440030 	stclmi	0, cr0, [r4, #-192]	; 0xffffff40
 7a0:	495f3341 	ldmdbmi	pc, {r0, r6, r8, r9, ip, sp}^	; <UNPREDICTABLE>
 7a4:	006e5152 	rsbeq	r5, lr, r2, asr r1
 7a8:	30434144 	subcc	r4, r3, r4, asr #2
 7ac:	5152495f 	cmppl	r2, pc, asr r9
 7b0:	4552006e 	ldrbmi	r0, [r2, #-110]	; 0xffffff92
 7b4:	56524553 			; <UNDEFINED> instruction: 0x56524553
 7b8:	00334445 	eorseq	r4, r3, r5, asr #8
 7bc:	53493154 	movtpl	r3, #37204	; 0x9154
 7c0:	32490052 	subcc	r0, r9, #82	; 0x52
 7c4:	495f3143 	ldmdbmi	pc, {r0, r1, r6, r8, ip, sp}^	; <UNPREDICTABLE>
 7c8:	006e5152 	rsbeq	r5, lr, r2, asr r1
 7cc:	32414d44 	subcc	r4, r1, #68, 26	; 0x1100
 7d0:	5152495f 	cmppl	r2, pc, asr r9
 7d4:	6f4e006e 	svcvs	0x004e006e
 7d8:	61764174 	cmnvs	r6, r4, ror r1
 7dc:	495f6c69 	ldmdbmi	pc, {r0, r3, r5, r6, sl, fp, sp, lr}^	; <UNPREDICTABLE>
 7e0:	006e5152 	rsbeq	r5, lr, r2, asr r1
 7e4:	30414d44 	subcc	r4, r1, r4, asr #26
 7e8:	5152495f 	cmppl	r2, pc, asr r9
 7ec:	5352006e 	cmppl	r2, #110	; 0x6e
 7f0:	45565245 	ldrbmi	r5, [r6, #-581]	; 0xfffffdbb
 7f4:	52003144 	andpl	r3, r0, #68, 2
 7f8:	72657365 	rsbvc	r7, r5, #-1811939327	; 0x94000001
 7fc:	32646576 	rsbcc	r6, r4, #494927872	; 0x1d800000
 800:	52495f30 	subpl	r5, r9, #48, 30	; 0xc0
 804:	50006e51 	andpl	r6, r0, r1, asr lr
 808:	53646e65 	cmnpl	r4, #1616	; 0x650
 80c:	52495f56 	subpl	r5, r9, #344	; 0x158
 810:	54006e51 	strpl	r6, [r0], #-3665	; 0xfffff1af
 814:	5f314d50 	svcpl	0x00314d50
 818:	6e515249 	cdpvs	2, 5, cr5, cr1, cr9, {2}
 81c:	54504c00 	ldrbpl	r4, [r0], #-3072	; 0xfffff400
 820:	5f30524d 	svcpl	0x0030524d
 824:	6e515249 	cdpvs	2, 5, cr5, cr1, cr9, {2}
 828:	655f5f00 	ldrbvs	r5, [pc, #-3840]	; fffff930 <__StackTop+0xdfffc930>
 82c:	6c62616e 	stfvse	f6, [r2], #-440	; 0xfffffe48
 830:	72695f65 	rsbvc	r5, r9, #404	; 0x194
 834:	564e0071 			; <UNDEFINED> instruction: 0x564e0071
 838:	455f4349 	ldrbmi	r4, [pc, #-841]	; 4f7 <frame_dummy+0x37>
 83c:	6c62616e 	stfvse	f6, [r2], #-440	; 0xfffffe48
 840:	51524965 	cmppl	r2, r5, ror #18
 844:	645f5f00 	ldrbvs	r5, [pc], #-3840	; 84c <cwTone+0x4>
 848:	62617369 	rsbvs	r7, r1, #-1543503871	; 0xa4000001
 84c:	695f656c 	ldmdbvs	pc, {r2, r3, r5, r6, r8, sl, sp, lr}^	; <UNPREDICTABLE>
 850:	55007172 	strpl	r7, [r0, #-370]	; 0xfffffe8e
 854:	31545241 	cmpcc	r4, r1, asr #4
 858:	5152495f 	cmppl	r2, pc, asr r9
 85c:	4950006e 	ldmdbmi	r0, {r1, r2, r3, r5, r6}^
 860:	74614454 	strbtvc	r4, [r1], #-1108	; 0xfffffbac
 864:	72745361 	rsbsvc	r5, r4, #-2080374783	; 0x84000001
 868:	00746375 	rsbseq	r6, r4, r5, ror r3
 86c:	4349564e 	movtmi	r5, #38478	; 0x964e
 870:	7079545f 	rsbsvc	r5, r9, pc, asr r4
 874:	52490065 	subpl	r0, r9, #101	; 0x65
 878:	545f6e51 	ldrbpl	r6, [pc], #-3665	; 880 <cwSend>
 87c:	00657079 	rsbeq	r7, r5, r9, ror r0
 880:	52504349 	subspl	r4, r0, #603979777	; 0x24000001
 884:	54495000 	strbpl	r5, [r9], #-0
 888:	5152495f 	cmppl	r2, pc, asr r9
 88c:	646e6148 	strbtvs	r6, [lr], #-328	; 0xfffffeb8
 890:	0072656c 	rsbseq	r6, r2, ip, ror #10
 894:	30495053 	subcc	r5, r9, r3, asr r0
 898:	5152495f 	cmppl	r2, pc, asr r9
 89c:	4349006e 	movtmi	r0, #36974	; 0x906e
 8a0:	53005245 	movwpl	r5, #581	; 0x245
 8a4:	6c614356 	stclvs	3, cr4, [r1], #-344	; 0xfffffea8
 8a8:	52495f6c 	subpl	r5, r9, #108, 30	; 0x1b0
 8ac:	48006e51 	stmdami	r0, {r0, r4, r6, r9, sl, fp, sp, lr}
 8b0:	46647261 	strbtmi	r7, [r4], -r1, ror #4
 8b4:	746c7561 	strbtvc	r7, [ip], #-1377	; 0xfffffa9f
 8b8:	5152495f 	cmppl	r2, pc, asr r9
 8bc:	4f50006e 	svcmi	0x0050006e
 8c0:	5f435452 	svcpl	0x00435452
 8c4:	54524f50 	ldrbpl	r4, [r2], #-3920	; 0xfffff0b0
 8c8:	52495f44 	subpl	r5, r9, #68, 30	; 0x110
 8cc:	50006e51 	andpl	r6, r0, r1, asr lr
 8d0:	61445449 	cmpvs	r4, r9, asr #8
 8d4:	52006174 	andpl	r6, r0, #116, 2
 8d8:	535f4354 	cmppl	pc, #84, 6	; 0x50000001
 8dc:	6e6f6365 	cdpvs	3, 6, cr6, cr15, cr5, {3}
 8e0:	495f7364 	ldmdbmi	pc, {r2, r5, r6, r8, r9, ip, sp, lr}^	; <UNPREDICTABLE>
 8e4:	006e5152 	rsbeq	r5, lr, r2, asr r1
 8e8:	65736552 	ldrbvs	r6, [r3, #-1362]!	; 0xfffffaae
 8ec:	64657672 	strbtvs	r7, [r5], #-1650	; 0xfffff98e
 8f0:	495f3534 	ldmdbmi	pc, {r2, r4, r5, r8, sl, ip, sp}^	; <UNPREDICTABLE>
 8f4:	006e5152 	rsbeq	r5, lr, r2, asr r1
 8f8:	30434441 	subcc	r4, r3, r1, asr #8
 8fc:	5152495f 	cmppl	r2, pc, asr r9
 900:	5349006e 	movtpl	r0, #36974	; 0x906e
 904:	49005250 	stmdbmi	r0, {r4, r6, r9, ip, lr}
 908:	00524553 	subseq	r4, r2, r3, asr r5
 90c:	45534552 	ldrbmi	r4, [r3, #-1362]	; 0xfffffaae
 910:	44455652 	strbmi	r5, [r5], #-1618	; 0xfffff9ae
 914:	45520034 	ldrbmi	r0, [r2, #-52]	; 0xffffffcc
 918:	56524553 			; <UNDEFINED> instruction: 0x56524553
 91c:	00324445 	eorseq	r4, r2, r5, asr #8
 920:	30495354 	subcc	r5, r9, r4, asr r3
 924:	5152495f 	cmppl	r2, pc, asr r9
 928:	3249006e 	subcc	r0, r9, #110	; 0x6e
 92c:	495f3043 	ldmdbmi	pc, {r0, r1, r6, ip, sp}^	; <UNPREDICTABLE>
 930:	006e5152 	rsbeq	r5, lr, r2, asr r1
 934:	31414d44 	cmpcc	r1, r4, asr #26
 938:	5152495f 	cmppl	r2, pc, asr r9
 93c:	5452006e 	ldrbpl	r0, [r2], #-110	; 0xffffff92
 940:	52495f43 	subpl	r5, r9, #268	; 0x10c
 944:	4e006e51 	mcrmi	14, 0, r6, cr0, cr1, {2}
 948:	614d6e6f 	cmpvs	sp, pc, ror #28
 94c:	62616b73 	rsbvs	r6, r1, #117760	; 0x1cc00
 950:	6e49656c 	cdpvs	5, 4, cr6, cr9, cr12, {3}
 954:	52495f74 	subpl	r5, r9, #116, 30	; 0x1d0
 958:	4c006e51 	stcmi	14, cr6, [r0], {81}	; 0x51
 95c:	4c5f4456 	cfldrdmi	mvd4, [pc], {86}	; 0x56
 960:	495f5756 	ldmdbmi	pc, {r1, r2, r4, r6, r8, r9, sl, ip, lr}^	; <UNPREDICTABLE>
 964:	006e5152 	rsbeq	r5, lr, r2, asr r1
 968:	5f47434d 	svcpl	0x0047434d
 96c:	6e515249 	cdpvs	2, 5, cr5, cr1, cr9, {2}
 970:	524f5000 	subpl	r5, pc, #0
 974:	495f4154 	ldmdbmi	pc, {r2, r4, r6, r8, lr}^	; <UNPREDICTABLE>
 978:	006e5152 	rsbeq	r5, lr, r2, asr r1
 97c:	41465446 	cmpmi	r6, r6, asr #8
 980:	5152495f 	cmppl	r2, pc, asr r9
 984:	5054006e 	subspl	r0, r4, lr, rrx
 988:	495f324d 	ldmdbmi	pc, {r0, r2, r3, r6, r9, ip, sp}^	; <UNPREDICTABLE>
 98c:	006e5152 	rsbeq	r5, lr, r2, asr r1
 990:	30504d43 	subscc	r4, r0, r3, asr #26
 994:	5152495f 	cmppl	r2, pc, asr r9
 998:	5054006e 	subspl	r0, r4, lr, rrx
 99c:	495f304d 	ldmdbmi	pc, {r0, r2, r3, r6, ip, sp}^	; <UNPREDICTABLE>
 9a0:	006e5152 	rsbeq	r5, lr, r2, asr r1
 9a4:	55574c4c 	ldrbpl	r4, [r7, #-3148]	; 0xfffff3b4
 9a8:	5152495f 	cmppl	r2, pc, asr r9
 9ac:	3249006e 	subcc	r0, r9, #110	; 0x6e
 9b0:	495f3053 	ldmdbmi	pc, {r0, r1, r4, r6, ip, sp}^	; <UNPREDICTABLE>
 9b4:	006e5152 	rsbeq	r5, lr, r2, asr r1
 9b8:	54524155 	ldrbpl	r4, [r2], #-341	; 0xfffffeab
 9bc:	52495f30 	subpl	r5, r9, #48, 30	; 0xc0
 9c0:	55006e51 	strpl	r6, [r0, #-3665]	; 0xfffff1af
 9c4:	32545241 	subscc	r5, r4, #268435460	; 0x10000004
 9c8:	5152495f 	cmppl	r2, pc, asr r9
 9cc:	4950006e 	ldmdbmi	r0, {r1, r2, r3, r5, r6}^
 9d0:	00632e54 	rsbeq	r2, r3, r4, asr lr
 9d4:	53493054 	movtpl	r3, #36948	; 0x9054
 9d8:	53550052 	cmppl	r5, #82	; 0x52
 9dc:	495f3042 	ldmdbmi	pc, {r1, r6, ip, sp}^	; <UNPREDICTABLE>
 9e0:	006e5152 	rsbeq	r5, lr, r2, asr r1
 9e4:	4c435047 	mcrrmi	0, 4, r5, r3, cr7
 9e8:	61750052 	cmnvs	r5, r2, asr r0
 9ec:	61447472 	hvcvs	18242	; 0x4742
 9f0:	74536174 	ldrbvc	r6, [r3], #-372	; 0xfffffe8c
 9f4:	74637572 	strbtvc	r7, [r3], #-1394	; 0xfffffa8e
 9f8:	72617500 	rsbvc	r7, r1, #0, 10
 9fc:	74614474 	strbtvc	r4, [r1], #-1140	; 0xfffffb8c
 a00:	61750061 	cmnvs	r5, r1, rrx
 a04:	65477472 	strbvs	r7, [r7, #-1138]	; 0xfffffb8e
 a08:	61684374 	smcvs	33844	; 0x8434
 a0c:	61750072 	cmnvs	r5, r2, ror r0
 a10:	45307472 	ldrmi	r7, [r0, #-1138]!	; 0xfffffb8e
 a14:	6c62616e 	stfvse	f6, [r2], #-440	; 0xfffffe48
 a18:	746e4965 	strbtvc	r4, [lr], #-2405	; 0xfffff69b
 a1c:	75727265 	ldrbvc	r7, [r2, #-613]!	; 0xfffffd9b
 a20:	00737470 	rsbseq	r7, r3, r0, ror r4
 a24:	54524f50 	ldrbpl	r4, [r2], #-3920	; 0xfffff0b0
 a28:	7079545f 	rsbsvc	r5, r9, pc, asr r4
 a2c:	61750065 	cmnvs	r5, r5, rrx
 a30:	65477472 	strbvs	r7, [r7, #-1138]	; 0xfffffb8e
 a34:	72745374 	rsbsvc	r5, r4, #116, 6	; 0xd0000001
 a38:	00676e69 	rsbeq	r6, r7, r9, ror #28
 a3c:	74726175 	ldrbtvc	r6, [r2], #-373	; 0xfffffe8b
 a40:	53747550 	cmnpl	r4, #80, 10	; 0x14000000
 a44:	6e697274 	mcrvs	2, 3, r7, cr9, cr4, {3}
 a48:	6f6c4267 	svcvs	0x006c4267
 a4c:	49006b63 	stmdbmi	r0, {r0, r1, r5, r6, r8, r9, fp, sp, lr}
 a50:	00524653 	subseq	r4, r2, r3, asr r6
 a54:	73726150 	cmnvc	r2, #80, 2
 a58:	53504765 	cmppl	r0, #26476544	; 0x1940000
 a5c:	72617500 	rsbvc	r7, r1, #0, 10
 a60:	69615774 	stmdbvs	r1!, {r2, r4, r5, r6, r8, r9, sl, ip, lr}^
 a64:	61620074 	smcvs	8196	; 0x2004
 a68:	75006475 	strvc	r6, [r0, #-1141]	; 0xfffffb8b
 a6c:	30747261 	rsbscc	r7, r4, r1, ror #4
 a70:	61746144 	cmnvs	r4, r4, asr #2
 a74:	72617500 	rsbvc	r7, r1, #0, 10
 a78:	00632e74 	rsbeq	r2, r3, r4, ror lr
 a7c:	74726175 	ldrbtvc	r6, [r2], #-373	; 0xfffffe8b
 a80:	74696e49 	strbtvc	r6, [r9], #-3657	; 0xfffff1b7
 a84:	49564e00 	ldmdbmi	r6, {r9, sl, fp, lr}^
 a88:	69445f43 	stmdbvs	r4, {r0, r1, r6, r8, r9, sl, fp, ip, lr}^
 a8c:	6c626173 	stfvse	f6, [r2], #-460	; 0xfffffe34
 a90:	51524965 	cmppl	r2, r5, ror #18
 a94:	52415500 	subpl	r5, r1, #0, 10
 a98:	79545f54 	ldmdbvc	r4, {r2, r4, r6, r8, r9, sl, fp, ip, lr}^
 a9c:	75006570 	strvc	r6, [r0, #-1392]	; 0xfffffa90
 aa0:	31747261 	cmncc	r4, r1, ror #4
 aa4:	62616e45 	rsbvs	r6, r1, #1104	; 0x450
 aa8:	6e49656c 	cdpvs	5, 4, cr6, cr9, cr12, {3}
 aac:	72726574 	rsbsvc	r6, r2, #116, 10	; 0x1d000000
 ab0:	73747075 	cmnvc	r4, #117	; 0x75
 ab4:	61747300 	cmnvs	r4, r0, lsl #6
 ab8:	00737574 	rsbseq	r7, r3, r4, ror r5
 abc:	74726175 	ldrbtvc	r6, [r2], #-373	; 0xfffffe8b
 ac0:	43746547 	cmnmi	r4, #297795584	; 0x11c00000
 ac4:	42726168 	rsbsmi	r6, r2, #104, 2
 ac8:	6b636f6c 	blvs	18dc880 <__DATA_END+0x18dae90>
 acc:	52415500 	subpl	r5, r1, #0, 10
 ad0:	495f3254 	ldmdbmi	pc, {r2, r4, r6, r9, ip, sp}^	; <UNPREDICTABLE>
 ad4:	61485152 	cmpvs	r8, r2, asr r1
 ad8:	656c646e 	strbvs	r6, [ip, #-1134]!	; 0xfffffb92
 adc:	61750072 	cmnvs	r5, r2, ror r0
 ae0:	65477472 	strbvs	r7, [r7, #-1138]	; 0xfffffb8e
 ae4:	72745374 	rsbsvc	r5, r4, #116, 6	; 0xd0000001
 ae8:	42676e69 	rsbmi	r6, r7, #1680	; 0x690
 aec:	6b636f6c 	blvs	18dc8a4 <__DATA_END+0x18daeb4>
 af0:	72617500 	rsbvc	r7, r1, #0, 10
 af4:	74755074 	ldrbtvc	r5, [r5], #-116	; 0xffffff8c
 af8:	69727453 	ldmdbvs	r2!, {r0, r1, r4, r6, sl, ip, sp, lr}^
 afc:	5500676e 	strpl	r6, [r0, #-1902]	; 0xfffff892
 b00:	30545241 	subscc	r5, r4, r1, asr #4
 b04:	7079545f 	rsbsvc	r5, r9, pc, asr r4
 b08:	61750065 	cmnvs	r5, r5, rrx
 b0c:	44317472 	ldrtmi	r7, [r1], #-1138	; 0xfffffb8e
 b10:	00617461 	rsbeq	r7, r1, r1, ror #8
 b14:	54524155 	ldrbpl	r4, [r2], #-341	; 0xfffffeab
 b18:	52495f31 	subpl	r5, r9, #49, 30	; 0xc4
 b1c:	6e614851 	mcrvs	8, 3, r4, cr1, cr1, {2}
 b20:	72656c64 	rsbvc	r6, r5, #100, 24	; 0x6400
 b24:	72617500 	rsbvc	r7, r1, #0, 10
 b28:	74654774 	strbtvc	r4, [r5], #-1908	; 0xfffff88c
 b2c:	656e694c 	strbvs	r6, [lr, #-2380]!	; 0xfffff6b4
 b30:	72617500 	rsbvc	r7, r1, #0, 10
 b34:	69443074 	stmdbvs	r4, {r2, r4, r5, r6, ip, sp}^
 b38:	6c626173 	stfvse	f6, [r2], #-460	; 0xfffffe34
 b3c:	746e4965 	strbtvc	r4, [lr], #-2405	; 0xfffff69b
 b40:	75727265 	ldrbvc	r7, [r2, #-613]!	; 0xfffffd9b
 b44:	00737470 	rsbseq	r7, r3, r0, ror r4
 b48:	72746572 	rsbsvc	r6, r4, #478150656	; 0x1c800000
 b4c:	756f4379 	strbvc	r4, [pc, #-889]!	; 7db <ax25ChangeBit+0x83>
 b50:	7500746e 	strvc	r7, [r0, #-1134]	; 0xfffffb92
 b54:	32747261 	rsbscc	r7, r4, #268435462	; 0x10000006
 b58:	61746144 	cmnvs	r4, r4, asr #2
 b5c:	72756300 	rsbsvc	r6, r5, #0, 6
 b60:	65740072 	ldrbvs	r0, [r4, #-114]!	; 0xffffff8e
 b64:	7500706d 	strvc	r7, [r0, #-109]	; 0xffffff93
 b68:	50747261 	rsbspl	r7, r4, r1, ror #4
 b6c:	68437475 	stmdavs	r3, {r0, r2, r4, r5, r6, sl, ip, sp, lr}^
 b70:	47007261 	strmi	r7, [r0, -r1, ror #4]
 b74:	52484350 	subpl	r4, r8, #80, 6	; 0x40000001
 b78:	52415500 	subpl	r5, r1, #0, 10
 b7c:	495f3054 	ldmdbmi	pc, {r2, r4, r6, ip, sp}^	; <UNPREDICTABLE>
 b80:	61485152 	cmpvs	r8, r2, asr r1
 b84:	656c646e 	strbvs	r6, [ip, #-1134]!	; 0xfffffb92
 b88:	41550072 	cmpmi	r5, r2, ror r0
 b8c:	55005452 	strpl	r5, [r0, #-1106]	; 0xfffffbae
 b90:	5f545241 	svcpl	0x00545241
 b94:	695f6f74 	ldmdbvs	pc, {r2, r4, r5, r6, r8, r9, sl, fp, sp, lr}^	; <UNPREDICTABLE>
 b98:	0074696e 	rsbseq	r6, r4, lr, ror #18
 b9c:	74726175 	ldrbtvc	r6, [r2], #-373	; 0xfffffe8b
 ba0:	43747550 	cmnmi	r4, #80, 10	; 0x14000000
 ba4:	42726168 	rsbsmi	r6, r2, #104, 2
 ba8:	6b636f6c 	blvs	18dc960 <__DATA_END+0x18daf70>
 bac:	74657200 	strbtvc	r7, [r5], #-512	; 0xfffffe00
 bb0:	73656972 	cmnvc	r5, #1867776	; 0x1c8000
 bb4:	6d656d00 	stclvs	13, cr6, [r5, #-0]
 bb8:	00797063 	rsbseq	r7, r9, r3, rrx
 bbc:	74726175 	ldrbtvc	r6, [r2], #-373	; 0xfffffe8b
 bc0:	61656c43 	cmnvs	r5, r3, asr #24
 bc4:	51785272 	cmnpl	r8, r2, ror r2
 bc8:	65756575 	ldrbvs	r6, [r5, #-1397]!	; 0xfffffa8b
 bcc:	72617500 	rsbvc	r7, r1, #0, 10
 bd0:	49785474 	ldmdbmi	r8!, {r2, r4, r5, r6, sl, ip, lr}^
 bd4:	6575516e 	ldrbvs	r5, [r5, #-366]!	; 0xfffffe92
 bd8:	64006575 	strvs	r6, [r0], #-1397	; 0xfffffa8b
 bdc:	78526172 	ldmdavc	r2, {r1, r4, r5, r6, r8, sp, lr}^
 be0:	63326900 	teqvs	r2, #0, 18
 be4:	696e695f 	stmdbvs	lr!, {r0, r1, r2, r3, r4, r6, r8, fp, sp, lr}^
 be8:	65730074 	ldrbvs	r0, [r3, #-116]!	; 0xffffff8c
 bec:	6f50646e 	svcvs	0x0050646e
 bf0:	6e690073 	mcrvs	0, 3, r0, cr9, cr3, {3}
 bf4:	70477469 	subvc	r7, r7, r9, ror #8
 bf8:	4c530073 	mrrcmi	0, 7, r0, r3, cr3
 bfc:	53004854 	movwpl	r4, #2132	; 0x854
 c00:	004c544c 	subeq	r5, ip, ip, asr #8
 c04:	63656863 	cmnvs	r5, #6488064	; 0x630000
 c08:	4152446b 	cmpmi	r2, fp, ror #8
 c0c:	69616d00 	stmdbvs	r1!, {r8, sl, fp, sp, lr}^
 c10:	7067006e 	rsbvc	r0, r7, lr, rrx
 c14:	74614473 	strbtvc	r4, [r1], #-1139	; 0xfffffb8d
 c18:	32490061 	subcc	r0, r9, #97	; 0x61
 c1c:	79545f43 	ldmdbvc	r4, {r0, r1, r6, r8, r9, sl, fp, ip, lr}^
 c20:	70006570 	andvc	r6, r0, r0, ror r5
 c24:	72676f72 	rsbvc	r6, r7, #456	; 0x1c8
 c28:	72446d61 	subvc	r6, r4, #6208	; 0x1840
 c2c:	6f630061 	svcvs	0x00630061
 c30:	65737275 	ldrbvs	r7, [r3, #-629]!	; 0xfffffd8b
 c34:	6f6c6300 	svcvs	0x006c6300
 c38:	6e496b63 	vmlsvs.f64	d22, d9, d19
 c3c:	64007469 	strvs	r7, [r0], #-1129	; 0xfffffb97
 c40:	78546172 	ldmdavc	r4, {r1, r4, r5, r6, r8, sp, lr}^
 c44:	53504700 	cmppl	r0, #0, 14
 c48:	61746144 	cmnvs	r4, r4, asr #2
 c4c:	6e6f6c00 	cdpvs	12, 6, cr6, cr15, cr0, {0}
 c50:	696d6548 	stmdbvs	sp!, {r3, r6, r8, sl, sp, lr}^
 c54:	74616c00 	strbtvc	r6, [r1], #-3072	; 0xfffff400
 c58:	696d6548 	stmdbvs	sp!, {r3, r6, r8, sl, sp, lr}^
 c5c:	65707300 	ldrbvs	r7, [r0, #-768]!	; 0xfffffd00
 c60:	74006465 	strvc	r6, [r0], #-1125	; 0xfffffb9b
 c64:	00656d69 	rsbeq	r6, r5, r9, ror #26
 c68:	74736574 	ldrbtvc	r6, [r3], #-1396	; 0xfffffa8c
 c6c:	73726150 	cmnvc	r2, #80, 2
 c70:	616d0065 	cmnvs	sp, r5, rrx
 c74:	632e6e69 	teqvs	lr, #1680	; 0x690
 c78:	43534f00 	cmpmi	r3, #0, 30
 c7c:	7079545f 	rsbsvc	r5, r9, pc, asr r4
 c80:	6e690065 	cdpvs	0, 6, cr0, cr9, cr5, {3}
 c84:	52447469 	subpl	r7, r4, #1761607680	; 0x69000000
 c88:	74730041 	ldrbtvc	r0, [r3], #-65	; 0xffffffbf
 c8c:	67007461 	strvs	r7, [r0, -r1, ror #8]
 c90:	6f507465 	svcvs	0x00507465
 c94:	69730073 	ldmdbvs	r3!, {r0, r1, r4, r5, r6}^
 c98:	00632e6e 	rsbeq	r2, r3, lr, ror #28
 c9c:	50617264 	rsbpl	r7, r1, r4, ror #4
 ca0:	7264004c 	rsbvc	r0, r4, #76	; 0x4c
 ca4:	00632e61 	rsbeq	r2, r3, r1, ror #28
 ca8:	44617264 	strbtmi	r7, [r1], #-612	; 0xfffffd9c
 cac:	53617461 	cmnpl	r1, #1627389952	; 0x61000000
 cb0:	63757274 	cmnvs	r5, #116, 4	; 0x40000007
 cb4:	70750074 	rsbsvc	r0, r5, r4, ror r0
 cb8:	65746164 	ldrbvs	r6, [r4, #-356]!	; 0xfffffe9c
 cbc:	72467852 	subvc	r7, r6, #5373952	; 0x520000
 cc0:	64007165 	strvs	r7, [r0], #-357	; 0xfffffe9b
 cc4:	664f6172 			; <UNDEFINED> instruction: 0x664f6172
 cc8:	72640066 	rsbvc	r0, r4, #102	; 0x66
 ccc:	74614461 	strbtvc	r4, [r1], #-1121	; 0xfffffb9f
 cd0:	72660061 	rsbvc	r0, r6, #97	; 0x61
 cd4:	64007165 	strvs	r7, [r0], #-357	; 0xfffffe9b
 cd8:	78526172 	ldmdavc	r2, {r1, r4, r5, r6, r8, sp, lr}^
 cdc:	71657246 	cmnvc	r5, r6, asr #4
 ce0:	61726400 	cmnvs	r2, r0, lsl #8
 ce4:	65757153 	ldrbvs	r7, [r5, #-339]!	; 0xfffffead
 ce8:	0068636c 	rsbeq	r6, r8, ip, ror #6
 cec:	61647075 	smcvs	18181	; 0x4705
 cf0:	78546574 	ldmdavc	r4, {r2, r4, r5, r6, r8, sl, sp, lr}^
 cf4:	71657246 	cmnvc	r5, r6, asr #4
 cf8:	61726400 	cmnvs	r2, r0, lsl #8
 cfc:	74696e49 	strbtvc	r6, [r9], #-3657	; 0xfffff1b7
 d00:	63006465 	movwvs	r6, #1125	; 0x465
 d04:	746e756f 	strbtvc	r7, [lr], #-1391	; 0xfffffa91
 d08:	61726400 	cmnvs	r2, r0, lsl #8
 d0c:	72467854 	subvc	r7, r6, #84, 16	; 0x540000
 d10:	64007165 	strvs	r7, [r0], #-357	; 0xfffffe9b
 d14:	6e4f6172 	mcrvs	1, 2, r6, cr15, cr2, {3}
 d18:	61747300 	cmnvs	r4, r0, lsl #6
 d1c:	75006574 	strvc	r6, [r0, #-1396]	; 0xfffffa8c
 d20:	31747261 	cmncc	r4, r1, ror #4
 d24:	61736944 	cmnvs	r3, r4, asr #18
 d28:	49656c62 	stmdbmi	r5!, {r1, r5, r6, sl, fp, sp, lr}^
 d2c:	7265746e 	rsbvc	r7, r5, #1845493760	; 0x6e000000
 d30:	74707572 	ldrbtvc	r7, [r0], #-1394	; 0xfffffa8e
 d34:	70670073 	rsbvc	r0, r7, r3, ror r0
 d38:	00632e73 	rsbeq	r2, r3, r3, ror lr
 d3c:	6c637963 	stclvs	9, cr7, [r3], #-396	; 0xfffffe74
 d40:	6e007365 	cdpvs	3, 0, cr7, cr0, cr5, {3}
 d44:	5f61656d 	svcpl	0x0061656d
 d48:	74736574 	ldrbtvc	r6, [r3], #-1396	; 0xfffffa8c
 d4c:	73706700 	cmnvc	r0, #0, 14
 d50:	46727543 	ldrbtmi	r7, [r2], -r3, asr #10
 d54:	646c6569 	strbtvs	r6, [ip], #-1385	; 0xfffffa97
 d58:	73706700 	cmnvc	r0, #0, 14
 d5c:	6d726554 	cfldr64vs	mvdx6, [r2, #-336]!	; 0xfffffeb0
 d60:	6e656c00 	cdpvs	12, 6, cr6, cr5, cr0, {0}
 d64:	5f687467 	svcpl	0x00687467
 d68:	4c00736d 	stcmi	3, cr7, [r0], {109}	; 0x6d
 d6c:	524d5450 	subpl	r5, sp, #80, 8	; 0x50000000
 d70:	7079545f 	rsbsvc	r5, r9, pc, asr r4
 d74:	65640065 	strbvs	r0, [r4, #-101]!	; 0xffffff9b
 d78:	2e79616c 	rpwcsez	f6, f1, #4.0
 d7c:	32690063 	rsbcc	r0, r9, #99	; 0x63
 d80:	00632e63 	rsbeq	r2, r3, r3, ror #28
 d84:	5f633269 	svcpl	0x00633269
 d88:	5f746573 	svcpl	0x00746573
 d8c:	76616c73 			; <UNDEFINED> instruction: 0x76616c73
 d90:	32690065 	rsbcc	r0, r9, #101	; 0x65
 d94:	616c4663 	cmnvs	ip, r3, ror #12
 d98:	65526873 	ldrbvs	r6, [r2, #-2163]	; 0xfffff78d
 d9c:	69006461 	stmdbvs	r0, {r0, r5, r6, sl, sp, lr}
 da0:	775f6332 	smmlarvc	pc, r2, r3, r6	; <UNPREDICTABLE>
 da4:	00746961 	rsbseq	r6, r4, r1, ror #18
 da8:	5f633269 	svcpl	0x00633269
 dac:	64616572 	strbtvs	r6, [r1], #-1394	; 0xfffffa8e
 db0:	6d756e00 	ldclvs	14, cr6, [r5, #-0]
 db4:	65747942 	ldrbvs	r7, [r4, #-2370]!	; 0xfffff6be
 db8:	6e690073 	mcrvs	0, 3, r0, cr9, cr3, {3}
 dbc:	00786564 	rsbseq	r6, r8, r4, ror #10
 dc0:	5f633269 	svcpl	0x00633269
 dc4:	65706572 	ldrbvs	r6, [r0, #-1394]!	; 0xfffffa8e
 dc8:	64657461 	strbtvs	r7, [r5], #-1121	; 0xfffffb9f
 dcc:	6174735f 	cmnvs	r4, pc, asr r3
 dd0:	61007472 	tstvs	r0, r2, ror r4
 dd4:	00726464 	rsbseq	r6, r2, r4, ror #8
 dd8:	5f633269 	svcpl	0x00633269
 ddc:	65766967 	ldrbvs	r6, [r6, #-2407]!	; 0xfffff699
 de0:	63616e5f 	cmnvs	r1, #1520	; 0x5f0
 de4:	3269006b 	rsbcc	r0, r9, #107	; 0x6b
 de8:	65735f63 	ldrbvs	r5, [r3, #-3939]!	; 0xfffff09d
 dec:	78745f74 	ldmdavc	r4!, {r2, r4, r5, r6, r8, r9, sl, fp, ip, lr}^
 df0:	63326900 	teqvs	r2, #0, 18
 df4:	6f74735f 	svcvs	0x0074735f
 df8:	32690070 	rsbcc	r0, r9, #112	; 0x70
 dfc:	72775f63 	rsbsvc	r5, r7, #396	; 0x18c
 e00:	00657469 	rsbeq	r7, r5, r9, ror #8
 e04:	46633269 	strbtmi	r3, [r3], -r9, ror #4
 e08:	6873616c 	ldmdavs	r3!, {r2, r3, r5, r6, r8, sp, lr}^
 e0c:	74697257 	strbtvc	r7, [r9], #-599	; 0xfffffda9
 e10:	32690065 	rsbcc	r0, r9, #101	; 0x65
 e14:	65735f63 	ldrbvs	r5, [r3, #-3939]!	; 0xfffff09d
 e18:	616d5f74 	smcvs	54772	; 0xd5f4
 e1c:	72657473 	rsbvc	r7, r5, #1929379840	; 0x73000000
 e20:	63326900 	teqvs	r2, #0, 18
 e24:	6174735f 	cmnvs	r4, pc, asr r3
 e28:	69007472 	stmdbvs	r0, {r1, r4, r5, r6, sl, ip, sp, lr}
 e2c:	735f6332 	cmpvc	pc, #-939524096	; 0xc8000000
 e30:	725f7465 	subsvc	r7, pc, #1694498816	; 0x65000000
 e34:	32690078 	rsbcc	r0, r9, #120	; 0x78
 e38:	69675f63 	stmdbvs	r7!, {r0, r1, r5, r6, r8, r9, sl, fp, ip, lr}^
 e3c:	615f6576 	cmpvs	pc, r6, ror r5	; <UNPREDICTABLE>
 e40:	44006b63 	strmi	r6, [r0], #-2915	; 0xfffff49d
 e44:	545f4341 	ldrbpl	r4, [pc], #-833	; e4c <main+0xac>
 e48:	00657079 	rsbeq	r7, r5, r9, ror r0
 e4c:	2e636164 	powcssz	f6, f3, f4
 e50:	41440063 	cmpmi	r4, r3, rrx
 e54:	44004854 	strmi	r4, [r0], #-2132	; 0xfffff7ac
 e58:	004c5441 	subeq	r5, ip, r1, asr #8
 e5c:	44636164 	strbtmi	r6, [r3], #-356	; 0xfffffe9c
 e60:	696e4965 	stmdbvs	lr!, {r0, r2, r5, r6, r8, fp, lr}^
 e64:	70610074 	rsbvc	r0, r1, r4, ror r0
 e68:	632e7372 	teqvs	lr, #-939524095	; 0xc8000001
 e6c:	74736100 	ldrbtvc	r6, [r3], #-256	; 0xffffff00
 e70:	676e6972 			; <UNDEFINED> instruction: 0x676e6972
 e74:	00797043 	rsbseq	r7, r9, r3, asr #32
 e78:	50727473 	rsbspl	r7, r2, r3, ror r4
 e7c:	Address 0x0000000000000e7c is out of bounds.


Disassembly of section .comment:

00000000 <.comment>:
   0:	3a434347 	bcc	10d0d24 <__DATA_END+0x10cf334>
   4:	72412820 	subvc	r2, r1, #32, 16	; 0x200000
   8:	52206863 	eorpl	r6, r0, #6488064	; 0x630000
   c:	736f7065 	cmnvc	pc, #101	; 0x65
  10:	726f7469 	rsbvc	r7, pc, #1761607680	; 0x69000000
  14:	35202979 	strcc	r2, [r0, #-2425]!	; 0xfffff687
  18:	302e322e 	eorcc	r3, lr, lr, lsr #4
  1c:	43434700 	movtmi	r4, #14080	; 0x3700
  20:	4128203a 	teqmi	r8, sl, lsr r0
  24:	20686372 	rsbcs	r6, r8, r2, ror r3
  28:	6f706552 	svcvs	0x00706552
  2c:	6f746973 	svcvs	0x00746973
  30:	20297972 	eorcs	r7, r9, r2, ror r9
  34:	2e332e35 	mrccs	14, 1, r2, cr3, cr5, {1}
  38:	Address 0x0000000000000038 is out of bounds.


Disassembly of section .debug_frame:

00000000 <.debug_frame>:
   0:	0000000c 	andeq	r0, r0, ip
   4:	ffffffff 			; <UNDEFINED> instruction: 0xffffffff
   8:	7c020001 	stcvc	0, cr0, [r2], {1}
   c:	000d0c0e 	andeq	r0, sp, lr, lsl #24
  10:	0000000c 	andeq	r0, r0, ip
  14:	00000000 	andeq	r0, r0, r0
  18:	000004f8 	strdeq	r0, [r0], -r8
  1c:	00000024 	andeq	r0, r0, r4, lsr #32
  20:	00000018 	andeq	r0, r0, r8, lsl r0
	...
  2c:	00000134 	andeq	r0, r0, r4, lsr r1
  30:	84100e42 	ldrhi	r0, [r0], #-3650	; 0xfffff1be
  34:	86038504 	strhi	r8, [r3], -r4, lsl #10
  38:	00018e02 	andeq	r8, r1, r2, lsl #28
  3c:	0000000c 	andeq	r0, r0, ip
  40:	ffffffff 			; <UNDEFINED> instruction: 0xffffffff
  44:	7c020001 	stcvc	0, cr0, [r2], {1}
  48:	000d0c0e 	andeq	r0, sp, lr, lsl #24
  4c:	00000014 	andeq	r0, r0, r4, lsl r0
  50:	0000003c 	andeq	r0, r0, ip, lsr r0
  54:	0000051c 	andeq	r0, r0, ip, lsl r5
  58:	0000007c 	andeq	r0, r0, ip, ror r0
  5c:	84080e43 	strhi	r0, [r8], #-3651	; 0xfffff1bd
  60:	00018e02 	andeq	r8, r1, r2, lsl #28
  64:	0000000c 	andeq	r0, r0, ip
  68:	ffffffff 			; <UNDEFINED> instruction: 0xffffffff
  6c:	7c020001 	stcvc	0, cr0, [r2], {1}
  70:	000d0c0e 	andeq	r0, sp, lr, lsl #24
  74:	0000000c 	andeq	r0, r0, ip
  78:	00000064 	andeq	r0, r0, r4, rrx
  7c:	00000598 	muleq	r0, r8, r5
  80:	00000032 	andeq	r0, r0, r2, lsr r0
  84:	0000000c 	andeq	r0, r0, ip
  88:	00000064 	andeq	r0, r0, r4, rrx
  8c:	00000000 	andeq	r0, r0, r0
  90:	00000014 	andeq	r0, r0, r4, lsl r0
  94:	0000000c 	andeq	r0, r0, ip
  98:	00000064 	andeq	r0, r0, r4, rrx
  9c:	000005ca 	andeq	r0, r0, sl, asr #11
  a0:	0000002e 	andeq	r0, r0, lr, lsr #32
  a4:	0000000c 	andeq	r0, r0, ip
  a8:	00000064 	andeq	r0, r0, r4, rrx
  ac:	000005f8 	strdeq	r0, [r0], -r8
  b0:	0000001c 	andeq	r0, r0, ip, lsl r0
  b4:	0000000c 	andeq	r0, r0, ip
  b8:	00000064 	andeq	r0, r0, r4, rrx
  bc:	00000000 	andeq	r0, r0, r0
  c0:	00000004 	andeq	r0, r0, r4
  c4:	00000014 	andeq	r0, r0, r4, lsl r0
  c8:	00000064 	andeq	r0, r0, r4, rrx
  cc:	00000000 	andeq	r0, r0, r0
  d0:	00000014 	andeq	r0, r0, r4, lsl r0
  d4:	84080e41 	strhi	r0, [r8], #-3649	; 0xfffff1bf
  d8:	00018e02 	andeq	r8, r1, r2, lsl #28
  dc:	0000000c 	andeq	r0, r0, ip
  e0:	ffffffff 			; <UNDEFINED> instruction: 0xffffffff
  e4:	7c020001 	stcvc	0, cr0, [r2], {1}
  e8:	000d0c0e 	andeq	r0, sp, lr, lsl #24
  ec:	00000014 	andeq	r0, r0, r4, lsl r0
  f0:	000000dc 	ldrdeq	r0, [r0], -ip
  f4:	00000614 	andeq	r0, r0, r4, lsl r6
  f8:	00000044 	andeq	r0, r0, r4, asr #32
  fc:	84080e41 	strhi	r0, [r8], #-3649	; 0xfffff1bf
 100:	00018e02 	andeq	r8, r1, r2, lsl #28
 104:	0000000c 	andeq	r0, r0, ip
 108:	000000dc 	ldrdeq	r0, [r0], -ip
 10c:	00000000 	andeq	r0, r0, r0
 110:	0000000c 	andeq	r0, r0, ip
 114:	00000014 	andeq	r0, r0, r4, lsl r0
 118:	000000dc 	ldrdeq	r0, [r0], -ip
 11c:	00000658 	andeq	r0, r0, r8, asr r6
 120:	00000018 	andeq	r0, r0, r8, lsl r0
 124:	84080e41 	strhi	r0, [r8], #-3649	; 0xfffff1bf
 128:	00018e02 	andeq	r8, r1, r2, lsl #28
 12c:	00000014 	andeq	r0, r0, r4, lsl r0
 130:	000000dc 	ldrdeq	r0, [r0], -ip
 134:	00000670 	andeq	r0, r0, r0, ror r6
 138:	00000014 	andeq	r0, r0, r4, lsl r0
 13c:	84080e41 	strhi	r0, [r8], #-3649	; 0xfffff1bf
 140:	00018e02 	andeq	r8, r1, r2, lsl #28
 144:	00000014 	andeq	r0, r0, r4, lsl r0
 148:	000000dc 	ldrdeq	r0, [r0], -ip
 14c:	00000684 	andeq	r0, r0, r4, lsl #13
 150:	00000024 	andeq	r0, r0, r4, lsr #32
 154:	84080e41 	strhi	r0, [r8], #-3649	; 0xfffff1bf
 158:	00018e02 	andeq	r8, r1, r2, lsl #28
 15c:	00000018 	andeq	r0, r0, r8, lsl r0
 160:	000000dc 	ldrdeq	r0, [r0], -ip
 164:	000006a8 	andeq	r0, r0, r8, lsr #13
 168:	00000098 	muleq	r0, r8, r0
 16c:	84100e42 	ldrhi	r0, [r0], #-3650	; 0xfffff1be
 170:	86038504 	strhi	r8, [r3], -r4, lsl #10
 174:	00018e02 	andeq	r8, r1, r2, lsl #28
 178:	0000000c 	andeq	r0, r0, ip
 17c:	000000dc 	ldrdeq	r0, [r0], -ip
 180:	00000740 	andeq	r0, r0, r0, asr #14
 184:	00000018 	andeq	r0, r0, r8, lsl r0
 188:	00000020 	andeq	r0, r0, r0, lsr #32
 18c:	000000dc 	ldrdeq	r0, [r0], -ip
 190:	00000758 	andeq	r0, r0, r8, asr r7
 194:	000000c8 	andeq	r0, r0, r8, asr #1
 198:	80200e41 	eorhi	r0, r0, r1, asr #28
 19c:	82078108 	andhi	r8, r7, #8, 2
 1a0:	85058406 	strhi	r8, [r5, #-1030]	; 0xfffffbfa
 1a4:	87038604 	strhi	r8, [r3, -r4, lsl #12]
 1a8:	00018e02 	andeq	r8, r1, r2, lsl #28
 1ac:	0000000c 	andeq	r0, r0, ip
 1b0:	000000dc 	ldrdeq	r0, [r0], -ip
 1b4:	00000000 	andeq	r0, r0, r0
 1b8:	00000028 	andeq	r0, r0, r8, lsr #32
 1bc:	0000000c 	andeq	r0, r0, ip
 1c0:	ffffffff 			; <UNDEFINED> instruction: 0xffffffff
 1c4:	7c020001 	stcvc	0, cr0, [r2], {1}
 1c8:	000d0c0e 	andeq	r0, sp, lr, lsl #24
 1cc:	00000014 	andeq	r0, r0, r4, lsl r0
 1d0:	000001bc 			; <UNDEFINED> instruction: 0x000001bc
 1d4:	00000820 	andeq	r0, r0, r0, lsr #16
 1d8:	00000028 	andeq	r0, r0, r8, lsr #32
 1dc:	84080e41 	strhi	r0, [r8], #-3649	; 0xfffff1bf
 1e0:	00018e02 	andeq	r8, r1, r2, lsl #28
 1e4:	00000018 	andeq	r0, r0, r8, lsl r0
 1e8:	000001bc 			; <UNDEFINED> instruction: 0x000001bc
 1ec:	00000848 	andeq	r0, r0, r8, asr #16
 1f0:	00000038 	andeq	r0, r0, r8, lsr r0
 1f4:	84100e42 	ldrhi	r0, [r0], #-3650	; 0xfffff1be
 1f8:	86038504 	strhi	r8, [r3], -r4, lsl #10
 1fc:	00018e02 	andeq	r8, r1, r2, lsl #28
 200:	0000001c 	andeq	r0, r0, ip, lsl r0
 204:	000001bc 			; <UNDEFINED> instruction: 0x000001bc
 208:	00000880 	andeq	r0, r0, r0, lsl #17
 20c:	00000088 	andeq	r0, r0, r8, lsl #1
 210:	84140e41 	ldrhi	r0, [r4], #-3649	; 0xfffff1bf
 214:	86048505 	strhi	r8, [r4], -r5, lsl #10
 218:	8e028703 	cdphi	7, 0, cr8, cr2, cr3, {0}
 21c:	280e4301 	stmdacs	lr, {r0, r8, r9, lr}
 220:	0000000c 	andeq	r0, r0, ip
 224:	ffffffff 			; <UNDEFINED> instruction: 0xffffffff
 228:	7c020001 	stcvc	0, cr0, [r2], {1}
 22c:	000d0c0e 	andeq	r0, sp, lr, lsl #24
 230:	00000014 	andeq	r0, r0, r4, lsl r0
 234:	00000220 	andeq	r0, r0, r0, lsr #4
 238:	00000908 	andeq	r0, r0, r8, lsl #18
 23c:	0000004c 	andeq	r0, r0, ip, asr #32
 240:	84080e41 	strhi	r0, [r8], #-3649	; 0xfffff1bf
 244:	00018e02 	andeq	r8, r1, r2, lsl #28
 248:	00000014 	andeq	r0, r0, r4, lsl r0
 24c:	00000220 	andeq	r0, r0, r0, lsr #4
 250:	00000954 	andeq	r0, r0, r4, asr r9
 254:	0000004c 	andeq	r0, r0, ip, asr #32
 258:	84080e41 	strhi	r0, [r8], #-3649	; 0xfffff1bf
 25c:	00018e02 	andeq	r8, r1, r2, lsl #28
 260:	0000000c 	andeq	r0, r0, ip
 264:	00000220 	andeq	r0, r0, r0, lsr #4
 268:	000009a0 	andeq	r0, r0, r0, lsr #19
 26c:	0000000c 	andeq	r0, r0, ip
 270:	0000000c 	andeq	r0, r0, ip
 274:	00000220 	andeq	r0, r0, r0, lsr #4
 278:	000009ac 	andeq	r0, r0, ip, lsr #19
 27c:	0000000c 	andeq	r0, r0, ip
 280:	00000014 	andeq	r0, r0, r4, lsl r0
 284:	00000220 	andeq	r0, r0, r0, lsr #4
 288:	000009b8 			; <UNDEFINED> instruction: 0x000009b8
 28c:	00000034 	andeq	r0, r0, r4, lsr r0
 290:	84080e41 	strhi	r0, [r8], #-3649	; 0xfffff1bf
 294:	00018e02 	andeq	r8, r1, r2, lsl #28
 298:	0000000c 	andeq	r0, r0, ip
 29c:	ffffffff 			; <UNDEFINED> instruction: 0xffffffff
 2a0:	7c020001 	stcvc	0, cr0, [r2], {1}
 2a4:	000d0c0e 	andeq	r0, sp, lr, lsl #24
 2a8:	00000010 	andeq	r0, r0, r0, lsl r0
 2ac:	00000298 	muleq	r0, r8, r2
 2b0:	00000000 	andeq	r0, r0, r0
 2b4:	00000010 	andeq	r0, r0, r0, lsl r0
 2b8:	00100e41 	andseq	r0, r0, r1, asr #28
 2bc:	00000010 	andeq	r0, r0, r0, lsl r0
 2c0:	00000298 	muleq	r0, r8, r2
 2c4:	000009ec 	andeq	r0, r0, ip, ror #19
 2c8:	00000012 	andeq	r0, r0, r2, lsl r0
 2cc:	00100e41 	andseq	r0, r0, r1, asr #28
 2d0:	00000014 	andeq	r0, r0, r4, lsl r0
 2d4:	00000298 	muleq	r0, r8, r2
 2d8:	00000a00 	andeq	r0, r0, r0, lsl #20
 2dc:	00000100 	andeq	r0, r0, r0, lsl #2
 2e0:	84080e42 	strhi	r0, [r8], #-3650	; 0xfffff1be
 2e4:	00018e02 	andeq	r8, r1, r2, lsl #28
 2e8:	0000000c 	andeq	r0, r0, ip
 2ec:	00000298 	muleq	r0, r8, r2
 2f0:	00000b00 	andeq	r0, r0, r0, lsl #22
 2f4:	00000010 	andeq	r0, r0, r0, lsl r0
 2f8:	0000000c 	andeq	r0, r0, ip
 2fc:	00000298 	muleq	r0, r8, r2
 300:	00000b10 	andeq	r0, r0, r0, lsl fp
 304:	00000010 	andeq	r0, r0, r0, lsl r0
 308:	0000000c 	andeq	r0, r0, ip
 30c:	00000298 	muleq	r0, r8, r2
 310:	00000000 	andeq	r0, r0, r0
 314:	0000001c 	andeq	r0, r0, ip, lsl r0
 318:	0000000c 	andeq	r0, r0, ip
 31c:	00000298 	muleq	r0, r8, r2
 320:	00000000 	andeq	r0, r0, r0
 324:	00000010 	andeq	r0, r0, r0, lsl r0
 328:	00000018 	andeq	r0, r0, r8, lsl r0
 32c:	00000298 	muleq	r0, r8, r2
 330:	00000000 	andeq	r0, r0, r0
 334:	0000003e 	andeq	r0, r0, lr, lsr r0
 338:	41100e41 	tstmi	r0, r1, asr #28
 33c:	0684180e 	streq	r1, [r4], lr, lsl #16
 340:	0000058e 	andeq	r0, r0, lr, lsl #11
 344:	0000001c 	andeq	r0, r0, ip, lsl r0
 348:	00000298 	muleq	r0, r8, r2
 34c:	00000000 	andeq	r0, r0, r0
 350:	0000003c 	andeq	r0, r0, ip, lsr r0
 354:	41100e41 	tstmi	r0, r1, asr #28
 358:	0684180e 	streq	r1, [r4], lr, lsl #16
 35c:	0e41058e 	cdpeq	5, 4, cr0, cr1, cr14, {4}
 360:	000001d0 	ldrdeq	r0, [r0], -r0	; <UNPREDICTABLE>
 364:	00000010 	andeq	r0, r0, r0, lsl r0
 368:	00000298 	muleq	r0, r8, r2
 36c:	00000b20 	andeq	r0, r0, r0, lsr #22
 370:	00000026 	andeq	r0, r0, r6, lsr #32
 374:	00100e41 	andseq	r0, r0, r1, asr #28
 378:	0000001c 	andeq	r0, r0, ip, lsl r0
 37c:	00000298 	muleq	r0, r8, r2
 380:	00000b46 	andeq	r0, r0, r6, asr #22
 384:	0000003c 	andeq	r0, r0, ip, lsr r0
 388:	41100e41 	tstmi	r0, r1, asr #28
 38c:	0684180e 	streq	r1, [r4], lr, lsl #16
 390:	0e41058e 	cdpeq	5, 4, cr0, cr1, cr14, {4}
 394:	000001d0 	ldrdeq	r0, [r0], -r0	; <UNPREDICTABLE>
 398:	00000018 	andeq	r0, r0, r8, lsl r0
 39c:	00000298 	muleq	r0, r8, r2
 3a0:	00000000 	andeq	r0, r0, r0
 3a4:	00000038 	andeq	r0, r0, r8, lsr r0
 3a8:	41100e41 	tstmi	r0, r1, asr #28
 3ac:	0684180e 	streq	r1, [r4], lr, lsl #16
 3b0:	0000058e 	andeq	r0, r0, lr, lsl #11
 3b4:	00000020 	andeq	r0, r0, r0, lsr #32
 3b8:	00000298 	muleq	r0, r8, r2
 3bc:	00000000 	andeq	r0, r0, r0
 3c0:	00000086 	andeq	r0, r0, r6, lsl #1
 3c4:	41100e41 	tstmi	r0, r1, asr #28
 3c8:	0884200e 	stmeq	r4, {r1, r2, r3, sp}
 3cc:	06860785 	streq	r0, [r6], r5, lsl #15
 3d0:	0e42058e 	cdpeq	5, 4, cr0, cr2, cr14, {4}
 3d4:	000001d8 	ldrdeq	r0, [r0], -r8
 3d8:	0000001c 	andeq	r0, r0, ip, lsl r0
 3dc:	00000298 	muleq	r0, r8, r2
 3e0:	00000000 	andeq	r0, r0, r0
 3e4:	0000006c 	andeq	r0, r0, ip, rrx
 3e8:	41100e41 	tstmi	r0, r1, asr #28
 3ec:	07841c0e 	streq	r1, [r4, lr, lsl #24]
 3f0:	058e0685 	streq	r0, [lr, #1669]	; 0x685
 3f4:	01d80e41 	bicseq	r0, r8, r1, asr #28
 3f8:	0000001c 	andeq	r0, r0, ip, lsl r0
 3fc:	00000298 	muleq	r0, r8, r2
 400:	00000000 	andeq	r0, r0, r0
 404:	00000044 	andeq	r0, r0, r4, asr #32
 408:	41100e41 	tstmi	r0, r1, asr #28
 40c:	0884200e 	stmeq	r4, {r1, r2, r3, sp}
 410:	06860785 	streq	r0, [r6], r5, lsl #15
 414:	0000058e 	andeq	r0, r0, lr, lsl #11
 418:	00000020 	andeq	r0, r0, r0, lsr #32
 41c:	00000298 	muleq	r0, r8, r2
 420:	00000000 	andeq	r0, r0, r0
 424:	0000007e 	andeq	r0, r0, lr, ror r0
 428:	41100e41 	tstmi	r0, r1, asr #28
 42c:	0984240e 	stmibeq	r4, {r1, r2, r3, sl, sp}
 430:	07860885 	streq	r0, [r6, r5, lsl #17]
 434:	058e0687 	streq	r0, [lr, #1671]	; 0x687
 438:	01e00e42 	mvneq	r0, r2, asr #28
 43c:	00000010 	andeq	r0, r0, r0, lsl r0
 440:	00000298 	muleq	r0, r8, r2
 444:	00000000 	andeq	r0, r0, r0
 448:	0000001e 	andeq	r0, r0, lr, lsl r0
 44c:	00100e41 	andseq	r0, r0, r1, asr #28
 450:	00000018 	andeq	r0, r0, r8, lsl r0
 454:	00000298 	muleq	r0, r8, r2
 458:	00000b84 	andeq	r0, r0, r4, lsl #23
 45c:	00000078 	andeq	r0, r0, r8, ror r0
 460:	84100e42 	ldrhi	r0, [r0], #-3650	; 0xfffff1be
 464:	86038504 	strhi	r8, [r3], -r4, lsl #10
 468:	00018e02 	andeq	r8, r1, r2, lsl #28
 46c:	00000018 	andeq	r0, r0, r8, lsl r0
 470:	00000298 	muleq	r0, r8, r2
 474:	00000bfc 	strdeq	r0, [r0], -ip
 478:	00000048 	andeq	r0, r0, r8, asr #32
 47c:	84100e41 	ldrhi	r0, [r0], #-3649	; 0xfffff1bf
 480:	86038504 	strhi	r8, [r3], -r4, lsl #10
 484:	00018e02 	andeq	r8, r1, r2, lsl #28
 488:	00000018 	andeq	r0, r0, r8, lsl r0
 48c:	00000298 	muleq	r0, r8, r2
 490:	00000c44 	andeq	r0, r0, r4, asr #24
 494:	00000048 	andeq	r0, r0, r8, asr #32
 498:	84100e41 	ldrhi	r0, [r0], #-3649	; 0xfffff1bf
 49c:	86038504 	strhi	r8, [r3], -r4, lsl #10
 4a0:	00018e02 	andeq	r8, r1, r2, lsl #28
 4a4:	0000000c 	andeq	r0, r0, ip
 4a8:	ffffffff 			; <UNDEFINED> instruction: 0xffffffff
 4ac:	7c020001 	stcvc	0, cr0, [r2], {1}
 4b0:	000d0c0e 	andeq	r0, sp, lr, lsl #24
 4b4:	00000018 	andeq	r0, r0, r8, lsl r0
 4b8:	000004a4 	andeq	r0, r0, r4, lsr #9
 4bc:	00000c8c 	andeq	r0, r0, ip, lsl #25
 4c0:	00000084 	andeq	r0, r0, r4, lsl #1
 4c4:	840c0e44 	strhi	r0, [ip], #-3652	; 0xfffff1bc
 4c8:	8e028503 	cfsh32hi	mvfx8, mvfx2, #3
 4cc:	00000001 	andeq	r0, r0, r1
 4d0:	0000001c 	andeq	r0, r0, ip, lsl r0
 4d4:	000004a4 	andeq	r0, r0, r4, lsr #9
 4d8:	00000d10 	andeq	r0, r0, r0, lsl sp
 4dc:	00000090 	muleq	r0, r0, r0
 4e0:	83180e41 	tsthi	r8, #1040	; 0x410
 4e4:	85058406 	strhi	r8, [r5, #-1030]	; 0xfffffbfa
 4e8:	87038604 	strhi	r8, [r3, -r4, lsl #12]
 4ec:	00018e02 	andeq	r8, r1, r2, lsl #28
 4f0:	00000014 	andeq	r0, r0, r4, lsl r0
 4f4:	000004a4 	andeq	r0, r0, r4, lsr #9
 4f8:	00000da0 	andeq	r0, r0, r0, lsr #27
 4fc:	000000f4 	strdeq	r0, [r0], -r4
 500:	84080e41 	strhi	r0, [r8], #-3649	; 0xfffff1bf
 504:	00018e02 	andeq	r8, r1, r2, lsl #28
 508:	0000000c 	andeq	r0, r0, ip
 50c:	ffffffff 			; <UNDEFINED> instruction: 0xffffffff
 510:	7c020001 	stcvc	0, cr0, [r2], {1}
 514:	000d0c0e 	andeq	r0, sp, lr, lsl #24
 518:	0000000c 	andeq	r0, r0, ip
 51c:	00000508 	andeq	r0, r0, r8, lsl #10
 520:	00000e94 	muleq	r0, r4, lr
 524:	00000014 	andeq	r0, r0, r4, lsl r0
 528:	00000018 	andeq	r0, r0, r8, lsl r0
 52c:	00000508 	andeq	r0, r0, r8, lsl #10
 530:	00000ea8 	andeq	r0, r0, r8, lsr #29
 534:	000000a8 	andeq	r0, r0, r8, lsr #1
 538:	84100e41 	ldrhi	r0, [r0], #-3649	; 0xfffff1bf
 53c:	86038504 	strhi	r8, [r3], -r4, lsl #10
 540:	00018e02 	andeq	r8, r1, r2, lsl #28
 544:	00000020 	andeq	r0, r0, r0, lsr #32
 548:	00000508 	andeq	r0, r0, r8, lsl #10
 54c:	00000f50 	andeq	r0, r0, r0, asr pc
 550:	00000078 	andeq	r0, r0, r8, ror r0
 554:	84140e41 	ldrhi	r0, [r4], #-3649	; 0xfffff1bf
 558:	86048505 	strhi	r8, [r4], -r5, lsl #10
 55c:	8e028703 	cdphi	7, 0, cr8, cr2, cr3, {0}
 560:	d00e4301 	andle	r4, lr, r1, lsl #6
 564:	00000001 	andeq	r0, r0, r1
 568:	0000001c 	andeq	r0, r0, ip, lsl r0
 56c:	00000508 	andeq	r0, r0, r8, lsl #10
 570:	00000fc8 	andeq	r0, r0, r8, asr #31
 574:	0000004c 	andeq	r0, r0, ip, asr #32
 578:	840c0e41 	strhi	r0, [ip], #-3649	; 0xfffff1bf
 57c:	8e028503 	cfsh32hi	mvfx8, mvfx2, #3
 580:	c80e4201 	stmdagt	lr, {r0, r9, lr}
 584:	00000001 	andeq	r0, r0, r1
 588:	00000014 	andeq	r0, r0, r4, lsl r0
 58c:	00000508 	andeq	r0, r0, r8, lsl #10
 590:	00000000 	andeq	r0, r0, r0
 594:	0000001c 	andeq	r0, r0, ip, lsl r0
 598:	84080e42 	strhi	r0, [r8], #-3650	; 0xfffff1be
 59c:	00018e02 	andeq	r8, r1, r2, lsl #28
 5a0:	00000014 	andeq	r0, r0, r4, lsl r0
 5a4:	00000508 	andeq	r0, r0, r8, lsl #10
 5a8:	00000000 	andeq	r0, r0, r0
 5ac:	0000001c 	andeq	r0, r0, ip, lsl r0
 5b0:	84080e42 	strhi	r0, [r8], #-3650	; 0xfffff1be
 5b4:	00018e02 	andeq	r8, r1, r2, lsl #28
 5b8:	0000000c 	andeq	r0, r0, ip
 5bc:	00000508 	andeq	r0, r0, r8, lsl #10
 5c0:	00001014 	andeq	r1, r0, r4, lsl r0
 5c4:	0000001c 	andeq	r0, r0, ip, lsl r0
 5c8:	0000000c 	andeq	r0, r0, ip
 5cc:	00000508 	andeq	r0, r0, r8, lsl #10
 5d0:	00001030 	andeq	r1, r0, r0, lsr r0
 5d4:	0000001c 	andeq	r0, r0, ip, lsl r0
 5d8:	0000000c 	andeq	r0, r0, ip
 5dc:	00000508 	andeq	r0, r0, r8, lsl #10
 5e0:	00000000 	andeq	r0, r0, r0
 5e4:	00000018 	andeq	r0, r0, r8, lsl r0
 5e8:	0000000c 	andeq	r0, r0, ip
 5ec:	00000508 	andeq	r0, r0, r8, lsl #10
 5f0:	00000000 	andeq	r0, r0, r0
 5f4:	00000018 	andeq	r0, r0, r8, lsl r0
 5f8:	0000000c 	andeq	r0, r0, ip
 5fc:	ffffffff 			; <UNDEFINED> instruction: 0xffffffff
 600:	7c020001 	stcvc	0, cr0, [r2], {1}
 604:	000d0c0e 	andeq	r0, sp, lr, lsl #24
 608:	0000000c 	andeq	r0, r0, ip
 60c:	000005f8 	strdeq	r0, [r0], -r8
 610:	0000104c 	andeq	r1, r0, ip, asr #32
 614:	0000001c 	andeq	r0, r0, ip, lsl r0
 618:	0000001c 	andeq	r0, r0, ip, lsl r0
 61c:	000005f8 	strdeq	r0, [r0], -r8
 620:	00001068 	andeq	r1, r0, r8, rrx
 624:	0000012c 	andeq	r0, r0, ip, lsr #2
 628:	84140e41 	ldrhi	r0, [r4], #-3649	; 0xfffff1bf
 62c:	86048505 	strhi	r8, [r4], -r5, lsl #10
 630:	8e028703 	cdphi	7, 0, cr8, cr2, cr3, {0}
 634:	00000001 	andeq	r0, r0, r1
 638:	0000001c 	andeq	r0, r0, ip, lsl r0
 63c:	000005f8 	strdeq	r0, [r0], -r8
 640:	00001194 	muleq	r0, r4, r1
 644:	0000005c 	andeq	r0, r0, ip, asr r0
 648:	83180e41 	tsthi	r8, #1040	; 0x410
 64c:	85058406 	strhi	r8, [r5, #-1030]	; 0xfffffbfa
 650:	87038604 	strhi	r8, [r3, -r4, lsl #12]
 654:	00018e02 	andeq	r8, r1, r2, lsl #28
 658:	00000014 	andeq	r0, r0, r4, lsl r0
 65c:	000005f8 	strdeq	r0, [r0], -r8
 660:	000011f0 	strdeq	r1, [r0], -r0
 664:	0000001c 	andeq	r0, r0, ip, lsl r0
 668:	84080e41 	strhi	r0, [r8], #-3649	; 0xfffff1bf
 66c:	00018e02 	andeq	r8, r1, r2, lsl #28
 670:	0000000c 	andeq	r0, r0, ip
 674:	ffffffff 			; <UNDEFINED> instruction: 0xffffffff
 678:	7c020001 	stcvc	0, cr0, [r2], {1}
 67c:	000d0c0e 	andeq	r0, sp, lr, lsl #24
 680:	00000014 	andeq	r0, r0, r4, lsl r0
 684:	00000670 	andeq	r0, r0, r0, ror r6
 688:	0000120c 	andeq	r1, r0, ip, lsl #4
 68c:	00000038 	andeq	r0, r0, r8, lsr r0
 690:	84080e42 	strhi	r0, [r8], #-3650	; 0xfffff1be
 694:	00018e02 	andeq	r8, r1, r2, lsl #28
 698:	0000000c 	andeq	r0, r0, ip
 69c:	ffffffff 			; <UNDEFINED> instruction: 0xffffffff
 6a0:	7c020001 	stcvc	0, cr0, [r2], {1}
 6a4:	000d0c0e 	andeq	r0, sp, lr, lsl #24
 6a8:	00000014 	andeq	r0, r0, r4, lsl r0
 6ac:	00000698 	muleq	r0, r8, r6
 6b0:	00001244 	andeq	r1, r0, r4, asr #4
 6b4:	00000040 	andeq	r0, r0, r0, asr #32
 6b8:	84080e41 	strhi	r0, [r8], #-3649	; 0xfffff1bf
 6bc:	00018e02 	andeq	r8, r1, r2, lsl #28
 6c0:	00000020 	andeq	r0, r0, r0, lsr #32
 6c4:	00000698 	muleq	r0, r8, r6
 6c8:	00000000 	andeq	r0, r0, r0
 6cc:	000000f4 	strdeq	r0, [r0], -r4
 6d0:	80200e41 	eorhi	r0, r0, r1, asr #28
 6d4:	82078108 	andhi	r8, r7, #8, 2
 6d8:	85058406 	strhi	r8, [r5, #-1030]	; 0xfffffbfa
 6dc:	87038604 	strhi	r8, [r3, -r4, lsl #12]
 6e0:	00018e02 	andeq	r8, r1, r2, lsl #28
 6e4:	00000020 	andeq	r0, r0, r0, lsr #32
 6e8:	00000698 	muleq	r0, r8, r6
 6ec:	00000000 	andeq	r0, r0, r0
 6f0:	00000120 	andeq	r0, r0, r0, lsr #2
 6f4:	80200e41 	eorhi	r0, r0, r1, asr #28
 6f8:	82078108 	andhi	r8, r7, #8, 2
 6fc:	85058406 	strhi	r8, [r5, #-1030]	; 0xfffffbfa
 700:	87038604 	strhi	r8, [r3, -r4, lsl #12]
 704:	00018e02 	andeq	r8, r1, r2, lsl #28
 708:	0000000c 	andeq	r0, r0, ip
 70c:	ffffffff 			; <UNDEFINED> instruction: 0xffffffff
 710:	7c020001 	stcvc	0, cr0, [r2], {1}
 714:	000d0c0e 	andeq	r0, sp, lr, lsl #24
 718:	0000000c 	andeq	r0, r0, ip
 71c:	00000708 	andeq	r0, r0, r8, lsl #14
 720:	00001284 	andeq	r1, r0, r4, lsl #5
 724:	00000044 	andeq	r0, r0, r4, asr #32
 728:	0000000c 	andeq	r0, r0, ip
 72c:	00000708 	andeq	r0, r0, r8, lsl #14
 730:	00000000 	andeq	r0, r0, r0
 734:	00000002 	andeq	r0, r0, r2
 738:	0000000c 	andeq	r0, r0, ip
 73c:	00000708 	andeq	r0, r0, r8, lsl #14
 740:	000012c8 	andeq	r1, r0, r8, asr #5
 744:	00000014 	andeq	r0, r0, r4, lsl r0
 748:	0000000c 	andeq	r0, r0, ip
 74c:	ffffffff 			; <UNDEFINED> instruction: 0xffffffff
 750:	7c020001 	stcvc	0, cr0, [r2], {1}
 754:	000d0c0e 	andeq	r0, sp, lr, lsl #24
 758:	0000000c 	andeq	r0, r0, ip
 75c:	00000748 	andeq	r0, r0, r8, asr #14
 760:	000012dc 	ldrdeq	r1, [r0], -ip
 764:	00000014 	andeq	r0, r0, r4, lsl r0
 768:	0000001c 	andeq	r0, r0, ip, lsl r0
 76c:	00000748 	andeq	r0, r0, r8, asr #14
 770:	000012f0 	strdeq	r1, [r0], -r0
 774:	00000078 	andeq	r0, r0, r8, ror r0
 778:	84100e41 	ldrhi	r0, [r0], #-3649	; 0xfffff1bf
 77c:	86038504 	strhi	r8, [r3], -r4, lsl #10
 780:	41018e02 	tstmi	r1, r2, lsl #28
 784:	0000780e 	andeq	r7, r0, lr, lsl #16
 788:	0000000c 	andeq	r0, r0, ip
 78c:	ffffffff 			; <UNDEFINED> instruction: 0xffffffff
 790:	7c020001 	stcvc	0, cr0, [r2], {1}
 794:	000d0c0e 	andeq	r0, sp, lr, lsl #24
 798:	00000014 	andeq	r0, r0, r4, lsl r0
 79c:	00000788 	andeq	r0, r0, r8, lsl #15
 7a0:	00001368 	andeq	r1, r0, r8, ror #6
 7a4:	00000010 	andeq	r0, r0, r0, lsl r0
 7a8:	84080e42 	strhi	r0, [r8], #-3650	; 0xfffff1be
 7ac:	00018e02 	andeq	r8, r1, r2, lsl #28
 7b0:	0000000c 	andeq	r0, r0, ip
 7b4:	ffffffff 			; <UNDEFINED> instruction: 0xffffffff
 7b8:	7c020001 	stcvc	0, cr0, [r2], {1}
 7bc:	000d0c0e 	andeq	r0, sp, lr, lsl #24
 7c0:	00000014 	andeq	r0, r0, r4, lsl r0
 7c4:	000007b0 			; <UNDEFINED> instruction: 0x000007b0
 7c8:	00001378 	andeq	r1, r0, r8, ror r3
 7cc:	0000002c 	andeq	r0, r0, ip, lsr #32
 7d0:	84080e42 	strhi	r0, [r8], #-3650	; 0xfffff1be
 7d4:	00018e02 	andeq	r8, r1, r2, lsl #28
 7d8:	0000000c 	andeq	r0, r0, ip
 7dc:	ffffffff 			; <UNDEFINED> instruction: 0xffffffff
 7e0:	7c020001 	stcvc	0, cr0, [r2], {1}
 7e4:	000d0c0e 	andeq	r0, sp, lr, lsl #24
 7e8:	00000018 	andeq	r0, r0, r8, lsl r0
 7ec:	000007d8 	ldrdeq	r0, [r0], -r8
 7f0:	000013a4 	andeq	r1, r0, r4, lsr #7
 7f4:	00000028 	andeq	r0, r0, r8, lsr #32
 7f8:	84100e42 	ldrhi	r0, [r0], #-3650	; 0xfffff1be
 7fc:	86038504 	strhi	r8, [r3], -r4, lsl #10
 800:	00018e02 	andeq	r8, r1, r2, lsl #28
 804:	0000000c 	andeq	r0, r0, ip
 808:	ffffffff 			; <UNDEFINED> instruction: 0xffffffff
 80c:	7c020001 	stcvc	0, cr0, [r2], {1}
 810:	000d0c0e 	andeq	r0, sp, lr, lsl #24
 814:	00000018 	andeq	r0, r0, r8, lsl r0
 818:	00000804 	andeq	r0, r0, r4, lsl #16
 81c:	000013cc 	andeq	r1, r0, ip, asr #7
 820:	0000004c 	andeq	r0, r0, ip, asr #32
 824:	84100e42 	ldrhi	r0, [r0], #-3650	; 0xfffff1be
 828:	86038504 	strhi	r8, [r3], -r4, lsl #10
 82c:	00018e02 	andeq	r8, r1, r2, lsl #28
 830:	0000000c 	andeq	r0, r0, ip
 834:	ffffffff 			; <UNDEFINED> instruction: 0xffffffff
 838:	7c020001 	stcvc	0, cr0, [r2], {1}
 83c:	000d0c0e 	andeq	r0, sp, lr, lsl #24
 840:	00000014 	andeq	r0, r0, r4, lsl r0
 844:	00000830 	andeq	r0, r0, r0, lsr r8
 848:	00001418 	andeq	r1, r0, r8, lsl r4
 84c:	00000014 	andeq	r0, r0, r4, lsl r0
 850:	84080e41 	strhi	r0, [r8], #-3649	; 0xfffff1bf
 854:	00018e02 	andeq	r8, r1, r2, lsl #28
 858:	00000014 	andeq	r0, r0, r4, lsl r0
 85c:	00000830 	andeq	r0, r0, r0, lsr r8
 860:	0000142c 	andeq	r1, r0, ip, lsr #8
 864:	00000014 	andeq	r0, r0, r4, lsl r0
 868:	84080e41 	strhi	r0, [r8], #-3649	; 0xfffff1bf
 86c:	00018e02 	andeq	r8, r1, r2, lsl #28
 870:	0000000c 	andeq	r0, r0, ip
 874:	ffffffff 			; <UNDEFINED> instruction: 0xffffffff
 878:	7c020001 	stcvc	0, cr0, [r2], {1}
 87c:	000d0c0e 	andeq	r0, sp, lr, lsl #24
 880:	00000014 	andeq	r0, r0, r4, lsl r0
 884:	00000870 	andeq	r0, r0, r0, ror r8
 888:	00001440 	andeq	r1, r0, r0, asr #8
 88c:	00000012 	andeq	r0, r0, r2, lsl r0
 890:	84080e42 	strhi	r0, [r8], #-3650	; 0xfffff1be
 894:	00018e02 	andeq	r8, r1, r2, lsl #28
 898:	0000000c 	andeq	r0, r0, ip
 89c:	ffffffff 			; <UNDEFINED> instruction: 0xffffffff
 8a0:	7c020001 	stcvc	0, cr0, [r2], {1}
 8a4:	000d0c0e 	andeq	r0, sp, lr, lsl #24
 8a8:	0000000c 	andeq	r0, r0, ip
 8ac:	00000898 	muleq	r0, r8, r8
 8b0:	00001452 	andeq	r1, r0, r2, asr r4
 8b4:	00000010 	andeq	r0, r0, r0, lsl r0
 8b8:	0000000c 	andeq	r0, r0, ip
 8bc:	ffffffff 			; <UNDEFINED> instruction: 0xffffffff
 8c0:	7c020001 	stcvc	0, cr0, [r2], {1}
 8c4:	000d0c0e 	andeq	r0, sp, lr, lsl #24
 8c8:	00000018 	andeq	r0, r0, r8, lsl r0
 8cc:	000008b8 			; <UNDEFINED> instruction: 0x000008b8
 8d0:	00001464 	andeq	r1, r0, r4, ror #8
 8d4:	0000008c 	andeq	r0, r0, ip, lsl #1
 8d8:	840c0e41 	strhi	r0, [ip], #-3649	; 0xfffff1bf
 8dc:	8e028503 	cfsh32hi	mvfx8, mvfx2, #3
 8e0:	00000001 	andeq	r0, r0, r1
 8e4:	0000000c 	andeq	r0, r0, ip
 8e8:	ffffffff 			; <UNDEFINED> instruction: 0xffffffff
 8ec:	7c020001 	stcvc	0, cr0, [r2], {1}
 8f0:	000d0c0e 	andeq	r0, sp, lr, lsl #24
 8f4:	00000018 	andeq	r0, r0, r8, lsl r0
 8f8:	000008e4 	andeq	r0, r0, r4, ror #17
 8fc:	000014f0 	strdeq	r1, [r0], -r0
 900:	000000ac 	andeq	r0, r0, ip, lsr #1
 904:	84100e42 	ldrhi	r0, [r0], #-3650	; 0xfffff1be
 908:	86038504 	strhi	r8, [r3], -r4, lsl #10
 90c:	00018e02 	andeq	r8, r1, r2, lsl #28
 910:	0000000c 	andeq	r0, r0, ip
 914:	ffffffff 			; <UNDEFINED> instruction: 0xffffffff
 918:	7c020001 	stcvc	0, cr0, [r2], {1}
 91c:	000d0c0e 	andeq	r0, sp, lr, lsl #24
 920:	00000018 	andeq	r0, r0, r8, lsl r0
 924:	00000910 	andeq	r0, r0, r0, lsl r9
 928:	0000159c 	muleq	r0, ip, r5
 92c:	00000024 	andeq	r0, r0, r4, lsr #32
 930:	84100e42 	ldrhi	r0, [r0], #-3650	; 0xfffff1be
 934:	86038504 	strhi	r8, [r3], -r4, lsl #10
 938:	00018e02 	andeq	r8, r1, r2, lsl #28
 93c:	0000000c 	andeq	r0, r0, ip
 940:	ffffffff 			; <UNDEFINED> instruction: 0xffffffff
 944:	7c020001 	stcvc	0, cr0, [r2], {1}
 948:	000d0c0e 	andeq	r0, sp, lr, lsl #24
 94c:	0000001c 	andeq	r0, r0, ip, lsl r0
 950:	0000093c 	andeq	r0, r0, ip, lsr r9
 954:	000015c0 	andeq	r1, r0, r0, asr #11
 958:	000000d4 	ldrdeq	r0, [r0], -r4
 95c:	84140e41 	ldrhi	r0, [r4], #-3649	; 0xfffff1bf
 960:	86048505 	strhi	r8, [r4], -r5, lsl #10
 964:	8e028703 	cdphi	7, 0, cr8, cr2, cr3, {0}
 968:	280e4201 	stmdacs	lr, {r0, r9, lr}
 96c:	0000000c 	andeq	r0, r0, ip
 970:	ffffffff 			; <UNDEFINED> instruction: 0xffffffff
 974:	7c020001 	stcvc	0, cr0, [r2], {1}
 978:	000d0c0e 	andeq	r0, sp, lr, lsl #24
 97c:	0000001c 	andeq	r0, r0, ip, lsl r0
 980:	0000096c 	andeq	r0, r0, ip, ror #18
 984:	00001694 	muleq	r0, r4, r6
 988:	000000ec 	andeq	r0, r0, ip, ror #1
 98c:	84140e41 	ldrhi	r0, [r4], #-3649	; 0xfffff1bf
 990:	86048505 	strhi	r8, [r4], -r5, lsl #10
 994:	8e028703 	cdphi	7, 0, cr8, cr2, cr3, {0}
 998:	300e4101 	andcc	r4, lr, r1, lsl #2
 99c:	0000000c 	andeq	r0, r0, ip
 9a0:	ffffffff 			; <UNDEFINED> instruction: 0xffffffff
 9a4:	7c020001 	stcvc	0, cr0, [r2], {1}
 9a8:	000d0c0e 	andeq	r0, sp, lr, lsl #24
 9ac:	00000018 	andeq	r0, r0, r8, lsl r0
 9b0:	0000099c 	muleq	r0, ip, r9
 9b4:	00000000 	andeq	r0, r0, r0
 9b8:	0000001a 	andeq	r0, r0, sl, lsl r0
 9bc:	84100e41 	ldrhi	r0, [r0], #-3649	; 0xfffff1bf
 9c0:	86038504 	strhi	r8, [r3], -r4, lsl #10
 9c4:	00018e02 	andeq	r8, r1, r2, lsl #28
 9c8:	00000018 	andeq	r0, r0, r8, lsl r0
 9cc:	0000099c 	muleq	r0, ip, r9
 9d0:	00000000 	andeq	r0, r0, r0
 9d4:	000000cc 	andeq	r0, r0, ip, asr #1
 9d8:	84100e42 	ldrhi	r0, [r0], #-3650	; 0xfffff1be
 9dc:	86038504 	strhi	r8, [r3], -r4, lsl #10
 9e0:	00018e02 	andeq	r8, r1, r2, lsl #28
 9e4:	0000000c 	andeq	r0, r0, ip
 9e8:	ffffffff 			; <UNDEFINED> instruction: 0xffffffff
 9ec:	7c020001 	stcvc	0, cr0, [r2], {1}
 9f0:	000d0c0e 	andeq	r0, sp, lr, lsl #24
 9f4:	0000000c 	andeq	r0, r0, ip
 9f8:	000009e4 	andeq	r0, r0, r4, ror #19
 9fc:	00001780 	andeq	r1, r0, r0, lsl #15
 a00:	0000001c 	andeq	r0, r0, ip, lsl r0
 a04:	0000000c 	andeq	r0, r0, ip
 a08:	ffffffff 			; <UNDEFINED> instruction: 0xffffffff
 a0c:	7c020001 	stcvc	0, cr0, [r2], {1}
 a10:	000d0c0e 	andeq	r0, sp, lr, lsl #24
 a14:	0000000c 	andeq	r0, r0, ip
 a18:	00000a04 	andeq	r0, r0, r4, lsl #20
 a1c:	0000179c 	muleq	r0, ip, r7
 a20:	00000002 	andeq	r0, r0, r2
